
RazorBoard 1.0 rev. E.elf:     file format elf32-littlearm

Sections:
Idx Name          Size      VMA       LMA       File off  Algn
  0 .isr_vector   00000188  08000000  08000000  00010000  2**0
                  CONTENTS, ALLOC, LOAD, READONLY, DATA
  1 .text         0000d414  08000190  08000190  00010190  2**4
                  CONTENTS, ALLOC, LOAD, READONLY, CODE
  2 .rodata       00001190  0800d5a8  0800d5a8  0001d5a8  2**3
                  CONTENTS, ALLOC, LOAD, READONLY, DATA
  3 .ARM.extab    00000000  0800e738  0800e738  000203a4  2**0
                  CONTENTS
  4 .ARM          00000008  0800e738  0800e738  0001e738  2**2
                  CONTENTS, ALLOC, LOAD, READONLY, DATA
  5 .preinit_array 00000000  0800e740  0800e740  000203a4  2**0
                  CONTENTS, ALLOC, LOAD, DATA
  6 .init_array   00000004  0800e740  0800e740  0001e740  2**2
                  CONTENTS, ALLOC, LOAD, DATA
  7 .fini_array   00000004  0800e744  0800e744  0001e744  2**2
                  CONTENTS, ALLOC, LOAD, DATA
  8 .data         000003a4  20000000  0800e748  00020000  2**2
                  CONTENTS, ALLOC, LOAD, DATA
  9 .bss          00001c4c  200003a8  0800eaec  000203a8  2**3
                  ALLOC
 10 ._user_heap_stack 00000604  20001ff4  0800eaec  00021ff4  2**0
                  ALLOC
 11 .ARM.attributes 00000030  00000000  00000000  000203a4  2**0
                  CONTENTS, READONLY
 12 .comment      000000c1  00000000  00000000  000203d4  2**0
                  CONTENTS, READONLY
 13 .debug_info   00000527  00000000  00000000  00020495  2**0
                  CONTENTS, READONLY, DEBUGGING, OCTETS
 14 .debug_abbrev 000001ae  00000000  00000000  000209bc  2**0
                  CONTENTS, READONLY, DEBUGGING, OCTETS
 15 .debug_loc    00001450  00000000  00000000  00020b6a  2**0
                  CONTENTS, READONLY, DEBUGGING, OCTETS
 16 .debug_aranges 00000040  00000000  00000000  00021fba  2**0
                  CONTENTS, READONLY, DEBUGGING, OCTETS
 17 .debug_ranges 00000020  00000000  00000000  00021ffa  2**0
                  CONTENTS, READONLY, DEBUGGING, OCTETS
 18 .debug_line   00000473  00000000  00000000  0002201a  2**0
                  CONTENTS, READONLY, DEBUGGING, OCTETS
 19 .debug_str    000002ac  00000000  00000000  0002248d  2**0
                  CONTENTS, READONLY, DEBUGGING, OCTETS
 20 .debug_frame  00001ac8  00000000  00000000  0002273c  2**2
                  CONTENTS, READONLY, DEBUGGING, OCTETS

Disassembly of section .text:

08000190 <__do_global_dtors_aux>:
 8000190:	b510      	push	{r4, lr}
 8000192:	4c05      	ldr	r4, [pc, #20]	; (80001a8 <__do_global_dtors_aux+0x18>)
 8000194:	7823      	ldrb	r3, [r4, #0]
 8000196:	b933      	cbnz	r3, 80001a6 <__do_global_dtors_aux+0x16>
 8000198:	4b04      	ldr	r3, [pc, #16]	; (80001ac <__do_global_dtors_aux+0x1c>)
 800019a:	b113      	cbz	r3, 80001a2 <__do_global_dtors_aux+0x12>
 800019c:	4804      	ldr	r0, [pc, #16]	; (80001b0 <__do_global_dtors_aux+0x20>)
 800019e:	f3af 8000 	nop.w
 80001a2:	2301      	movs	r3, #1
 80001a4:	7023      	strb	r3, [r4, #0]
 80001a6:	bd10      	pop	{r4, pc}
 80001a8:	200003a8 	.word	0x200003a8
 80001ac:	00000000 	.word	0x00000000
 80001b0:	0800d58c 	.word	0x0800d58c

080001b4 <frame_dummy>:
 80001b4:	b508      	push	{r3, lr}
 80001b6:	4b03      	ldr	r3, [pc, #12]	; (80001c4 <frame_dummy+0x10>)
 80001b8:	b11b      	cbz	r3, 80001c2 <frame_dummy+0xe>
 80001ba:	4903      	ldr	r1, [pc, #12]	; (80001c8 <frame_dummy+0x14>)
 80001bc:	4803      	ldr	r0, [pc, #12]	; (80001cc <frame_dummy+0x18>)
 80001be:	f3af 8000 	nop.w
 80001c2:	bd08      	pop	{r3, pc}
 80001c4:	00000000 	.word	0x00000000
 80001c8:	200003ac 	.word	0x200003ac
 80001cc:	0800d58c 	.word	0x0800d58c

080001d0 <strcmp>:
 80001d0:	f810 2b01 	ldrb.w	r2, [r0], #1
 80001d4:	f811 3b01 	ldrb.w	r3, [r1], #1
 80001d8:	2a01      	cmp	r2, #1
 80001da:	bf28      	it	cs
 80001dc:	429a      	cmpcs	r2, r3
 80001de:	d0f7      	beq.n	80001d0 <strcmp>
 80001e0:	1ad0      	subs	r0, r2, r3
 80001e2:	4770      	bx	lr

080001e4 <strlen>:
 80001e4:	4603      	mov	r3, r0
 80001e6:	f813 2b01 	ldrb.w	r2, [r3], #1
 80001ea:	2a00      	cmp	r2, #0
 80001ec:	d1fb      	bne.n	80001e6 <strlen+0x2>
 80001ee:	1a18      	subs	r0, r3, r0
 80001f0:	3801      	subs	r0, #1
 80001f2:	4770      	bx	lr
	...

08000200 <memchr>:
 8000200:	f001 01ff 	and.w	r1, r1, #255	; 0xff
 8000204:	2a10      	cmp	r2, #16
 8000206:	db2b      	blt.n	8000260 <memchr+0x60>
 8000208:	f010 0f07 	tst.w	r0, #7
 800020c:	d008      	beq.n	8000220 <memchr+0x20>
 800020e:	f810 3b01 	ldrb.w	r3, [r0], #1
 8000212:	3a01      	subs	r2, #1
 8000214:	428b      	cmp	r3, r1
 8000216:	d02d      	beq.n	8000274 <memchr+0x74>
 8000218:	f010 0f07 	tst.w	r0, #7
 800021c:	b342      	cbz	r2, 8000270 <memchr+0x70>
 800021e:	d1f6      	bne.n	800020e <memchr+0xe>
 8000220:	b4f0      	push	{r4, r5, r6, r7}
 8000222:	ea41 2101 	orr.w	r1, r1, r1, lsl #8
 8000226:	ea41 4101 	orr.w	r1, r1, r1, lsl #16
 800022a:	f022 0407 	bic.w	r4, r2, #7
 800022e:	f07f 0700 	mvns.w	r7, #0
 8000232:	2300      	movs	r3, #0
 8000234:	e8f0 5602 	ldrd	r5, r6, [r0], #8
 8000238:	3c08      	subs	r4, #8
 800023a:	ea85 0501 	eor.w	r5, r5, r1
 800023e:	ea86 0601 	eor.w	r6, r6, r1
 8000242:	fa85 f547 	uadd8	r5, r5, r7
 8000246:	faa3 f587 	sel	r5, r3, r7
 800024a:	fa86 f647 	uadd8	r6, r6, r7
 800024e:	faa5 f687 	sel	r6, r5, r7
 8000252:	b98e      	cbnz	r6, 8000278 <memchr+0x78>
 8000254:	d1ee      	bne.n	8000234 <memchr+0x34>
 8000256:	bcf0      	pop	{r4, r5, r6, r7}
 8000258:	f001 01ff 	and.w	r1, r1, #255	; 0xff
 800025c:	f002 0207 	and.w	r2, r2, #7
 8000260:	b132      	cbz	r2, 8000270 <memchr+0x70>
 8000262:	f810 3b01 	ldrb.w	r3, [r0], #1
 8000266:	3a01      	subs	r2, #1
 8000268:	ea83 0301 	eor.w	r3, r3, r1
 800026c:	b113      	cbz	r3, 8000274 <memchr+0x74>
 800026e:	d1f8      	bne.n	8000262 <memchr+0x62>
 8000270:	2000      	movs	r0, #0
 8000272:	4770      	bx	lr
 8000274:	3801      	subs	r0, #1
 8000276:	4770      	bx	lr
 8000278:	2d00      	cmp	r5, #0
 800027a:	bf06      	itte	eq
 800027c:	4635      	moveq	r5, r6
 800027e:	3803      	subeq	r0, #3
 8000280:	3807      	subne	r0, #7
 8000282:	f015 0f01 	tst.w	r5, #1
 8000286:	d107      	bne.n	8000298 <memchr+0x98>
 8000288:	3001      	adds	r0, #1
 800028a:	f415 7f80 	tst.w	r5, #256	; 0x100
 800028e:	bf02      	ittt	eq
 8000290:	3001      	addeq	r0, #1
 8000292:	f415 3fc0 	tsteq.w	r5, #98304	; 0x18000
 8000296:	3001      	addeq	r0, #1
 8000298:	bcf0      	pop	{r4, r5, r6, r7}
 800029a:	3801      	subs	r0, #1
 800029c:	4770      	bx	lr
 800029e:	bf00      	nop

080002a0 <__aeabi_drsub>:
 80002a0:	f081 4100 	eor.w	r1, r1, #2147483648	; 0x80000000
 80002a4:	e002      	b.n	80002ac <__adddf3>
 80002a6:	bf00      	nop

080002a8 <__aeabi_dsub>:
 80002a8:	f083 4300 	eor.w	r3, r3, #2147483648	; 0x80000000

080002ac <__adddf3>:
 80002ac:	b530      	push	{r4, r5, lr}
 80002ae:	ea4f 0441 	mov.w	r4, r1, lsl #1
 80002b2:	ea4f 0543 	mov.w	r5, r3, lsl #1
 80002b6:	ea94 0f05 	teq	r4, r5
 80002ba:	bf08      	it	eq
 80002bc:	ea90 0f02 	teqeq	r0, r2
 80002c0:	bf1f      	itttt	ne
 80002c2:	ea54 0c00 	orrsne.w	ip, r4, r0
 80002c6:	ea55 0c02 	orrsne.w	ip, r5, r2
 80002ca:	ea7f 5c64 	mvnsne.w	ip, r4, asr #21
 80002ce:	ea7f 5c65 	mvnsne.w	ip, r5, asr #21
 80002d2:	f000 80e2 	beq.w	800049a <__adddf3+0x1ee>
 80002d6:	ea4f 5454 	mov.w	r4, r4, lsr #21
 80002da:	ebd4 5555 	rsbs	r5, r4, r5, lsr #21
 80002de:	bfb8      	it	lt
 80002e0:	426d      	neglt	r5, r5
 80002e2:	dd0c      	ble.n	80002fe <__adddf3+0x52>
 80002e4:	442c      	add	r4, r5
 80002e6:	ea80 0202 	eor.w	r2, r0, r2
 80002ea:	ea81 0303 	eor.w	r3, r1, r3
 80002ee:	ea82 0000 	eor.w	r0, r2, r0
 80002f2:	ea83 0101 	eor.w	r1, r3, r1
 80002f6:	ea80 0202 	eor.w	r2, r0, r2
 80002fa:	ea81 0303 	eor.w	r3, r1, r3
 80002fe:	2d36      	cmp	r5, #54	; 0x36
 8000300:	bf88      	it	hi
 8000302:	bd30      	pophi	{r4, r5, pc}
 8000304:	f011 4f00 	tst.w	r1, #2147483648	; 0x80000000
 8000308:	ea4f 3101 	mov.w	r1, r1, lsl #12
 800030c:	f44f 1c80 	mov.w	ip, #1048576	; 0x100000
 8000310:	ea4c 3111 	orr.w	r1, ip, r1, lsr #12
 8000314:	d002      	beq.n	800031c <__adddf3+0x70>
 8000316:	4240      	negs	r0, r0
 8000318:	eb61 0141 	sbc.w	r1, r1, r1, lsl #1
 800031c:	f013 4f00 	tst.w	r3, #2147483648	; 0x80000000
 8000320:	ea4f 3303 	mov.w	r3, r3, lsl #12
 8000324:	ea4c 3313 	orr.w	r3, ip, r3, lsr #12
 8000328:	d002      	beq.n	8000330 <__adddf3+0x84>
 800032a:	4252      	negs	r2, r2
 800032c:	eb63 0343 	sbc.w	r3, r3, r3, lsl #1
 8000330:	ea94 0f05 	teq	r4, r5
 8000334:	f000 80a7 	beq.w	8000486 <__adddf3+0x1da>
 8000338:	f1a4 0401 	sub.w	r4, r4, #1
 800033c:	f1d5 0e20 	rsbs	lr, r5, #32
 8000340:	db0d      	blt.n	800035e <__adddf3+0xb2>
 8000342:	fa02 fc0e 	lsl.w	ip, r2, lr
 8000346:	fa22 f205 	lsr.w	r2, r2, r5
 800034a:	1880      	adds	r0, r0, r2
 800034c:	f141 0100 	adc.w	r1, r1, #0
 8000350:	fa03 f20e 	lsl.w	r2, r3, lr
 8000354:	1880      	adds	r0, r0, r2
 8000356:	fa43 f305 	asr.w	r3, r3, r5
 800035a:	4159      	adcs	r1, r3
 800035c:	e00e      	b.n	800037c <__adddf3+0xd0>
 800035e:	f1a5 0520 	sub.w	r5, r5, #32
 8000362:	f10e 0e20 	add.w	lr, lr, #32
 8000366:	2a01      	cmp	r2, #1
 8000368:	fa03 fc0e 	lsl.w	ip, r3, lr
 800036c:	bf28      	it	cs
 800036e:	f04c 0c02 	orrcs.w	ip, ip, #2
 8000372:	fa43 f305 	asr.w	r3, r3, r5
 8000376:	18c0      	adds	r0, r0, r3
 8000378:	eb51 71e3 	adcs.w	r1, r1, r3, asr #31
 800037c:	f001 4500 	and.w	r5, r1, #2147483648	; 0x80000000
 8000380:	d507      	bpl.n	8000392 <__adddf3+0xe6>
 8000382:	f04f 0e00 	mov.w	lr, #0
 8000386:	f1dc 0c00 	rsbs	ip, ip, #0
 800038a:	eb7e 0000 	sbcs.w	r0, lr, r0
 800038e:	eb6e 0101 	sbc.w	r1, lr, r1
 8000392:	f5b1 1f80 	cmp.w	r1, #1048576	; 0x100000
 8000396:	d31b      	bcc.n	80003d0 <__adddf3+0x124>
 8000398:	f5b1 1f00 	cmp.w	r1, #2097152	; 0x200000
 800039c:	d30c      	bcc.n	80003b8 <__adddf3+0x10c>
 800039e:	0849      	lsrs	r1, r1, #1
 80003a0:	ea5f 0030 	movs.w	r0, r0, rrx
 80003a4:	ea4f 0c3c 	mov.w	ip, ip, rrx
 80003a8:	f104 0401 	add.w	r4, r4, #1
 80003ac:	ea4f 5244 	mov.w	r2, r4, lsl #21
 80003b0:	f512 0f80 	cmn.w	r2, #4194304	; 0x400000
 80003b4:	f080 809a 	bcs.w	80004ec <__adddf3+0x240>
 80003b8:	f1bc 4f00 	cmp.w	ip, #2147483648	; 0x80000000
 80003bc:	bf08      	it	eq
 80003be:	ea5f 0c50 	movseq.w	ip, r0, lsr #1
 80003c2:	f150 0000 	adcs.w	r0, r0, #0
 80003c6:	eb41 5104 	adc.w	r1, r1, r4, lsl #20
 80003ca:	ea41 0105 	orr.w	r1, r1, r5
 80003ce:	bd30      	pop	{r4, r5, pc}
 80003d0:	ea5f 0c4c 	movs.w	ip, ip, lsl #1
 80003d4:	4140      	adcs	r0, r0
 80003d6:	eb41 0101 	adc.w	r1, r1, r1
 80003da:	3c01      	subs	r4, #1
 80003dc:	bf28      	it	cs
 80003de:	f5b1 1f80 	cmpcs.w	r1, #1048576	; 0x100000
 80003e2:	d2e9      	bcs.n	80003b8 <__adddf3+0x10c>
 80003e4:	f091 0f00 	teq	r1, #0
 80003e8:	bf04      	itt	eq
 80003ea:	4601      	moveq	r1, r0
 80003ec:	2000      	moveq	r0, #0
 80003ee:	fab1 f381 	clz	r3, r1
 80003f2:	bf08      	it	eq
 80003f4:	3320      	addeq	r3, #32
 80003f6:	f1a3 030b 	sub.w	r3, r3, #11
 80003fa:	f1b3 0220 	subs.w	r2, r3, #32
 80003fe:	da0c      	bge.n	800041a <__adddf3+0x16e>
 8000400:	320c      	adds	r2, #12
 8000402:	dd08      	ble.n	8000416 <__adddf3+0x16a>
 8000404:	f102 0c14 	add.w	ip, r2, #20
 8000408:	f1c2 020c 	rsb	r2, r2, #12
 800040c:	fa01 f00c 	lsl.w	r0, r1, ip
 8000410:	fa21 f102 	lsr.w	r1, r1, r2
 8000414:	e00c      	b.n	8000430 <__adddf3+0x184>
 8000416:	f102 0214 	add.w	r2, r2, #20
 800041a:	bfd8      	it	le
 800041c:	f1c2 0c20 	rsble	ip, r2, #32
 8000420:	fa01 f102 	lsl.w	r1, r1, r2
 8000424:	fa20 fc0c 	lsr.w	ip, r0, ip
 8000428:	bfdc      	itt	le
 800042a:	ea41 010c 	orrle.w	r1, r1, ip
 800042e:	4090      	lslle	r0, r2
 8000430:	1ae4      	subs	r4, r4, r3
 8000432:	bfa2      	ittt	ge
 8000434:	eb01 5104 	addge.w	r1, r1, r4, lsl #20
 8000438:	4329      	orrge	r1, r5
 800043a:	bd30      	popge	{r4, r5, pc}
 800043c:	ea6f 0404 	mvn.w	r4, r4
 8000440:	3c1f      	subs	r4, #31
 8000442:	da1c      	bge.n	800047e <__adddf3+0x1d2>
 8000444:	340c      	adds	r4, #12
 8000446:	dc0e      	bgt.n	8000466 <__adddf3+0x1ba>
 8000448:	f104 0414 	add.w	r4, r4, #20
 800044c:	f1c4 0220 	rsb	r2, r4, #32
 8000450:	fa20 f004 	lsr.w	r0, r0, r4
 8000454:	fa01 f302 	lsl.w	r3, r1, r2
 8000458:	ea40 0003 	orr.w	r0, r0, r3
 800045c:	fa21 f304 	lsr.w	r3, r1, r4
 8000460:	ea45 0103 	orr.w	r1, r5, r3
 8000464:	bd30      	pop	{r4, r5, pc}
 8000466:	f1c4 040c 	rsb	r4, r4, #12
 800046a:	f1c4 0220 	rsb	r2, r4, #32
 800046e:	fa20 f002 	lsr.w	r0, r0, r2
 8000472:	fa01 f304 	lsl.w	r3, r1, r4
 8000476:	ea40 0003 	orr.w	r0, r0, r3
 800047a:	4629      	mov	r1, r5
 800047c:	bd30      	pop	{r4, r5, pc}
 800047e:	fa21 f004 	lsr.w	r0, r1, r4
 8000482:	4629      	mov	r1, r5
 8000484:	bd30      	pop	{r4, r5, pc}
 8000486:	f094 0f00 	teq	r4, #0
 800048a:	f483 1380 	eor.w	r3, r3, #1048576	; 0x100000
 800048e:	bf06      	itte	eq
 8000490:	f481 1180 	eoreq.w	r1, r1, #1048576	; 0x100000
 8000494:	3401      	addeq	r4, #1
 8000496:	3d01      	subne	r5, #1
 8000498:	e74e      	b.n	8000338 <__adddf3+0x8c>
 800049a:	ea7f 5c64 	mvns.w	ip, r4, asr #21
 800049e:	bf18      	it	ne
 80004a0:	ea7f 5c65 	mvnsne.w	ip, r5, asr #21
 80004a4:	d029      	beq.n	80004fa <__adddf3+0x24e>
 80004a6:	ea94 0f05 	teq	r4, r5
 80004aa:	bf08      	it	eq
 80004ac:	ea90 0f02 	teqeq	r0, r2
 80004b0:	d005      	beq.n	80004be <__adddf3+0x212>
 80004b2:	ea54 0c00 	orrs.w	ip, r4, r0
 80004b6:	bf04      	itt	eq
 80004b8:	4619      	moveq	r1, r3
 80004ba:	4610      	moveq	r0, r2
 80004bc:	bd30      	pop	{r4, r5, pc}
 80004be:	ea91 0f03 	teq	r1, r3
 80004c2:	bf1e      	ittt	ne
 80004c4:	2100      	movne	r1, #0
 80004c6:	2000      	movne	r0, #0
 80004c8:	bd30      	popne	{r4, r5, pc}
 80004ca:	ea5f 5c54 	movs.w	ip, r4, lsr #21
 80004ce:	d105      	bne.n	80004dc <__adddf3+0x230>
 80004d0:	0040      	lsls	r0, r0, #1
 80004d2:	4149      	adcs	r1, r1
 80004d4:	bf28      	it	cs
 80004d6:	f041 4100 	orrcs.w	r1, r1, #2147483648	; 0x80000000
 80004da:	bd30      	pop	{r4, r5, pc}
 80004dc:	f514 0480 	adds.w	r4, r4, #4194304	; 0x400000
 80004e0:	bf3c      	itt	cc
 80004e2:	f501 1180 	addcc.w	r1, r1, #1048576	; 0x100000
 80004e6:	bd30      	popcc	{r4, r5, pc}
 80004e8:	f001 4500 	and.w	r5, r1, #2147483648	; 0x80000000
 80004ec:	f045 41fe 	orr.w	r1, r5, #2130706432	; 0x7f000000
 80004f0:	f441 0170 	orr.w	r1, r1, #15728640	; 0xf00000
 80004f4:	f04f 0000 	mov.w	r0, #0
 80004f8:	bd30      	pop	{r4, r5, pc}
 80004fa:	ea7f 5c64 	mvns.w	ip, r4, asr #21
 80004fe:	bf1a      	itte	ne
 8000500:	4619      	movne	r1, r3
 8000502:	4610      	movne	r0, r2
 8000504:	ea7f 5c65 	mvnseq.w	ip, r5, asr #21
 8000508:	bf1c      	itt	ne
 800050a:	460b      	movne	r3, r1
 800050c:	4602      	movne	r2, r0
 800050e:	ea50 3401 	orrs.w	r4, r0, r1, lsl #12
 8000512:	bf06      	itte	eq
 8000514:	ea52 3503 	orrseq.w	r5, r2, r3, lsl #12
 8000518:	ea91 0f03 	teqeq	r1, r3
 800051c:	f441 2100 	orrne.w	r1, r1, #524288	; 0x80000
 8000520:	bd30      	pop	{r4, r5, pc}
 8000522:	bf00      	nop

08000524 <__aeabi_ui2d>:
 8000524:	f090 0f00 	teq	r0, #0
 8000528:	bf04      	itt	eq
 800052a:	2100      	moveq	r1, #0
 800052c:	4770      	bxeq	lr
 800052e:	b530      	push	{r4, r5, lr}
 8000530:	f44f 6480 	mov.w	r4, #1024	; 0x400
 8000534:	f104 0432 	add.w	r4, r4, #50	; 0x32
 8000538:	f04f 0500 	mov.w	r5, #0
 800053c:	f04f 0100 	mov.w	r1, #0
 8000540:	e750      	b.n	80003e4 <__adddf3+0x138>
 8000542:	bf00      	nop

08000544 <__aeabi_i2d>:
 8000544:	f090 0f00 	teq	r0, #0
 8000548:	bf04      	itt	eq
 800054a:	2100      	moveq	r1, #0
 800054c:	4770      	bxeq	lr
 800054e:	b530      	push	{r4, r5, lr}
 8000550:	f44f 6480 	mov.w	r4, #1024	; 0x400
 8000554:	f104 0432 	add.w	r4, r4, #50	; 0x32
 8000558:	f010 4500 	ands.w	r5, r0, #2147483648	; 0x80000000
 800055c:	bf48      	it	mi
 800055e:	4240      	negmi	r0, r0
 8000560:	f04f 0100 	mov.w	r1, #0
 8000564:	e73e      	b.n	80003e4 <__adddf3+0x138>
 8000566:	bf00      	nop

08000568 <__aeabi_f2d>:
 8000568:	0042      	lsls	r2, r0, #1
 800056a:	ea4f 01e2 	mov.w	r1, r2, asr #3
 800056e:	ea4f 0131 	mov.w	r1, r1, rrx
 8000572:	ea4f 7002 	mov.w	r0, r2, lsl #28
 8000576:	bf1f      	itttt	ne
 8000578:	f012 437f 	andsne.w	r3, r2, #4278190080	; 0xff000000
 800057c:	f093 4f7f 	teqne	r3, #4278190080	; 0xff000000
 8000580:	f081 5160 	eorne.w	r1, r1, #939524096	; 0x38000000
 8000584:	4770      	bxne	lr
 8000586:	f032 427f 	bics.w	r2, r2, #4278190080	; 0xff000000
 800058a:	bf08      	it	eq
 800058c:	4770      	bxeq	lr
 800058e:	f093 4f7f 	teq	r3, #4278190080	; 0xff000000
 8000592:	bf04      	itt	eq
 8000594:	f441 2100 	orreq.w	r1, r1, #524288	; 0x80000
 8000598:	4770      	bxeq	lr
 800059a:	b530      	push	{r4, r5, lr}
 800059c:	f44f 7460 	mov.w	r4, #896	; 0x380
 80005a0:	f001 4500 	and.w	r5, r1, #2147483648	; 0x80000000
 80005a4:	f021 4100 	bic.w	r1, r1, #2147483648	; 0x80000000
 80005a8:	e71c      	b.n	80003e4 <__adddf3+0x138>
 80005aa:	bf00      	nop

080005ac <__aeabi_ul2d>:
 80005ac:	ea50 0201 	orrs.w	r2, r0, r1
 80005b0:	bf08      	it	eq
 80005b2:	4770      	bxeq	lr
 80005b4:	b530      	push	{r4, r5, lr}
 80005b6:	f04f 0500 	mov.w	r5, #0
 80005ba:	e00a      	b.n	80005d2 <__aeabi_l2d+0x16>

080005bc <__aeabi_l2d>:
 80005bc:	ea50 0201 	orrs.w	r2, r0, r1
 80005c0:	bf08      	it	eq
 80005c2:	4770      	bxeq	lr
 80005c4:	b530      	push	{r4, r5, lr}
 80005c6:	f011 4500 	ands.w	r5, r1, #2147483648	; 0x80000000
 80005ca:	d502      	bpl.n	80005d2 <__aeabi_l2d+0x16>
 80005cc:	4240      	negs	r0, r0
 80005ce:	eb61 0141 	sbc.w	r1, r1, r1, lsl #1
 80005d2:	f44f 6480 	mov.w	r4, #1024	; 0x400
 80005d6:	f104 0432 	add.w	r4, r4, #50	; 0x32
 80005da:	ea5f 5c91 	movs.w	ip, r1, lsr #22
 80005de:	f43f aed8 	beq.w	8000392 <__adddf3+0xe6>
 80005e2:	f04f 0203 	mov.w	r2, #3
 80005e6:	ea5f 0cdc 	movs.w	ip, ip, lsr #3
 80005ea:	bf18      	it	ne
 80005ec:	3203      	addne	r2, #3
 80005ee:	ea5f 0cdc 	movs.w	ip, ip, lsr #3
 80005f2:	bf18      	it	ne
 80005f4:	3203      	addne	r2, #3
 80005f6:	eb02 02dc 	add.w	r2, r2, ip, lsr #3
 80005fa:	f1c2 0320 	rsb	r3, r2, #32
 80005fe:	fa00 fc03 	lsl.w	ip, r0, r3
 8000602:	fa20 f002 	lsr.w	r0, r0, r2
 8000606:	fa01 fe03 	lsl.w	lr, r1, r3
 800060a:	ea40 000e 	orr.w	r0, r0, lr
 800060e:	fa21 f102 	lsr.w	r1, r1, r2
 8000612:	4414      	add	r4, r2
 8000614:	e6bd      	b.n	8000392 <__adddf3+0xe6>
 8000616:	bf00      	nop

08000618 <__aeabi_dmul>:
 8000618:	b570      	push	{r4, r5, r6, lr}
 800061a:	f04f 0cff 	mov.w	ip, #255	; 0xff
 800061e:	f44c 6ce0 	orr.w	ip, ip, #1792	; 0x700
 8000622:	ea1c 5411 	ands.w	r4, ip, r1, lsr #20
 8000626:	bf1d      	ittte	ne
 8000628:	ea1c 5513 	andsne.w	r5, ip, r3, lsr #20
 800062c:	ea94 0f0c 	teqne	r4, ip
 8000630:	ea95 0f0c 	teqne	r5, ip
 8000634:	f000 f8de 	bleq	80007f4 <__aeabi_dmul+0x1dc>
 8000638:	442c      	add	r4, r5
 800063a:	ea81 0603 	eor.w	r6, r1, r3
 800063e:	ea21 514c 	bic.w	r1, r1, ip, lsl #21
 8000642:	ea23 534c 	bic.w	r3, r3, ip, lsl #21
 8000646:	ea50 3501 	orrs.w	r5, r0, r1, lsl #12
 800064a:	bf18      	it	ne
 800064c:	ea52 3503 	orrsne.w	r5, r2, r3, lsl #12
 8000650:	f441 1180 	orr.w	r1, r1, #1048576	; 0x100000
 8000654:	f443 1380 	orr.w	r3, r3, #1048576	; 0x100000
 8000658:	d038      	beq.n	80006cc <__aeabi_dmul+0xb4>
 800065a:	fba0 ce02 	umull	ip, lr, r0, r2
 800065e:	f04f 0500 	mov.w	r5, #0
 8000662:	fbe1 e502 	umlal	lr, r5, r1, r2
 8000666:	f006 4200 	and.w	r2, r6, #2147483648	; 0x80000000
 800066a:	fbe0 e503 	umlal	lr, r5, r0, r3
 800066e:	f04f 0600 	mov.w	r6, #0
 8000672:	fbe1 5603 	umlal	r5, r6, r1, r3
 8000676:	f09c 0f00 	teq	ip, #0
 800067a:	bf18      	it	ne
 800067c:	f04e 0e01 	orrne.w	lr, lr, #1
 8000680:	f1a4 04ff 	sub.w	r4, r4, #255	; 0xff
 8000684:	f5b6 7f00 	cmp.w	r6, #512	; 0x200
 8000688:	f564 7440 	sbc.w	r4, r4, #768	; 0x300
 800068c:	d204      	bcs.n	8000698 <__aeabi_dmul+0x80>
 800068e:	ea5f 0e4e 	movs.w	lr, lr, lsl #1
 8000692:	416d      	adcs	r5, r5
 8000694:	eb46 0606 	adc.w	r6, r6, r6
 8000698:	ea42 21c6 	orr.w	r1, r2, r6, lsl #11
 800069c:	ea41 5155 	orr.w	r1, r1, r5, lsr #21
 80006a0:	ea4f 20c5 	mov.w	r0, r5, lsl #11
 80006a4:	ea40 505e 	orr.w	r0, r0, lr, lsr #21
 80006a8:	ea4f 2ece 	mov.w	lr, lr, lsl #11
 80006ac:	f1b4 0cfd 	subs.w	ip, r4, #253	; 0xfd
 80006b0:	bf88      	it	hi
 80006b2:	f5bc 6fe0 	cmphi.w	ip, #1792	; 0x700
 80006b6:	d81e      	bhi.n	80006f6 <__aeabi_dmul+0xde>
 80006b8:	f1be 4f00 	cmp.w	lr, #2147483648	; 0x80000000
 80006bc:	bf08      	it	eq
 80006be:	ea5f 0e50 	movseq.w	lr, r0, lsr #1
 80006c2:	f150 0000 	adcs.w	r0, r0, #0
 80006c6:	eb41 5104 	adc.w	r1, r1, r4, lsl #20
 80006ca:	bd70      	pop	{r4, r5, r6, pc}
 80006cc:	f006 4600 	and.w	r6, r6, #2147483648	; 0x80000000
 80006d0:	ea46 0101 	orr.w	r1, r6, r1
 80006d4:	ea40 0002 	orr.w	r0, r0, r2
 80006d8:	ea81 0103 	eor.w	r1, r1, r3
 80006dc:	ebb4 045c 	subs.w	r4, r4, ip, lsr #1
 80006e0:	bfc2      	ittt	gt
 80006e2:	ebd4 050c 	rsbsgt	r5, r4, ip
 80006e6:	ea41 5104 	orrgt.w	r1, r1, r4, lsl #20
 80006ea:	bd70      	popgt	{r4, r5, r6, pc}
 80006ec:	f441 1180 	orr.w	r1, r1, #1048576	; 0x100000
 80006f0:	f04f 0e00 	mov.w	lr, #0
 80006f4:	3c01      	subs	r4, #1
 80006f6:	f300 80ab 	bgt.w	8000850 <__aeabi_dmul+0x238>
 80006fa:	f114 0f36 	cmn.w	r4, #54	; 0x36
 80006fe:	bfde      	ittt	le
 8000700:	2000      	movle	r0, #0
 8000702:	f001 4100 	andle.w	r1, r1, #2147483648	; 0x80000000
 8000706:	bd70      	pople	{r4, r5, r6, pc}
 8000708:	f1c4 0400 	rsb	r4, r4, #0
 800070c:	3c20      	subs	r4, #32
 800070e:	da35      	bge.n	800077c <__aeabi_dmul+0x164>
 8000710:	340c      	adds	r4, #12
 8000712:	dc1b      	bgt.n	800074c <__aeabi_dmul+0x134>
 8000714:	f104 0414 	add.w	r4, r4, #20
 8000718:	f1c4 0520 	rsb	r5, r4, #32
 800071c:	fa00 f305 	lsl.w	r3, r0, r5
 8000720:	fa20 f004 	lsr.w	r0, r0, r4
 8000724:	fa01 f205 	lsl.w	r2, r1, r5
 8000728:	ea40 0002 	orr.w	r0, r0, r2
 800072c:	f001 4200 	and.w	r2, r1, #2147483648	; 0x80000000
 8000730:	f021 4100 	bic.w	r1, r1, #2147483648	; 0x80000000
 8000734:	eb10 70d3 	adds.w	r0, r0, r3, lsr #31
 8000738:	fa21 f604 	lsr.w	r6, r1, r4
 800073c:	eb42 0106 	adc.w	r1, r2, r6
 8000740:	ea5e 0e43 	orrs.w	lr, lr, r3, lsl #1
 8000744:	bf08      	it	eq
 8000746:	ea20 70d3 	biceq.w	r0, r0, r3, lsr #31
 800074a:	bd70      	pop	{r4, r5, r6, pc}
 800074c:	f1c4 040c 	rsb	r4, r4, #12
 8000750:	f1c4 0520 	rsb	r5, r4, #32
 8000754:	fa00 f304 	lsl.w	r3, r0, r4
 8000758:	fa20 f005 	lsr.w	r0, r0, r5
 800075c:	fa01 f204 	lsl.w	r2, r1, r4
 8000760:	ea40 0002 	orr.w	r0, r0, r2
 8000764:	f001 4100 	and.w	r1, r1, #2147483648	; 0x80000000
 8000768:	eb10 70d3 	adds.w	r0, r0, r3, lsr #31
 800076c:	f141 0100 	adc.w	r1, r1, #0
 8000770:	ea5e 0e43 	orrs.w	lr, lr, r3, lsl #1
 8000774:	bf08      	it	eq
 8000776:	ea20 70d3 	biceq.w	r0, r0, r3, lsr #31
 800077a:	bd70      	pop	{r4, r5, r6, pc}
 800077c:	f1c4 0520 	rsb	r5, r4, #32
 8000780:	fa00 f205 	lsl.w	r2, r0, r5
 8000784:	ea4e 0e02 	orr.w	lr, lr, r2
 8000788:	fa20 f304 	lsr.w	r3, r0, r4
 800078c:	fa01 f205 	lsl.w	r2, r1, r5
 8000790:	ea43 0302 	orr.w	r3, r3, r2
 8000794:	fa21 f004 	lsr.w	r0, r1, r4
 8000798:	f001 4100 	and.w	r1, r1, #2147483648	; 0x80000000
 800079c:	fa21 f204 	lsr.w	r2, r1, r4
 80007a0:	ea20 0002 	bic.w	r0, r0, r2
 80007a4:	eb00 70d3 	add.w	r0, r0, r3, lsr #31
 80007a8:	ea5e 0e43 	orrs.w	lr, lr, r3, lsl #1
 80007ac:	bf08      	it	eq
 80007ae:	ea20 70d3 	biceq.w	r0, r0, r3, lsr #31
 80007b2:	bd70      	pop	{r4, r5, r6, pc}
 80007b4:	f094 0f00 	teq	r4, #0
 80007b8:	d10f      	bne.n	80007da <__aeabi_dmul+0x1c2>
 80007ba:	f001 4600 	and.w	r6, r1, #2147483648	; 0x80000000
 80007be:	0040      	lsls	r0, r0, #1
 80007c0:	eb41 0101 	adc.w	r1, r1, r1
 80007c4:	f411 1f80 	tst.w	r1, #1048576	; 0x100000
 80007c8:	bf08      	it	eq
 80007ca:	3c01      	subeq	r4, #1
 80007cc:	d0f7      	beq.n	80007be <__aeabi_dmul+0x1a6>
 80007ce:	ea41 0106 	orr.w	r1, r1, r6
 80007d2:	f095 0f00 	teq	r5, #0
 80007d6:	bf18      	it	ne
 80007d8:	4770      	bxne	lr
 80007da:	f003 4600 	and.w	r6, r3, #2147483648	; 0x80000000
 80007de:	0052      	lsls	r2, r2, #1
 80007e0:	eb43 0303 	adc.w	r3, r3, r3
 80007e4:	f413 1f80 	tst.w	r3, #1048576	; 0x100000
 80007e8:	bf08      	it	eq
 80007ea:	3d01      	subeq	r5, #1
 80007ec:	d0f7      	beq.n	80007de <__aeabi_dmul+0x1c6>
 80007ee:	ea43 0306 	orr.w	r3, r3, r6
 80007f2:	4770      	bx	lr
 80007f4:	ea94 0f0c 	teq	r4, ip
 80007f8:	ea0c 5513 	and.w	r5, ip, r3, lsr #20
 80007fc:	bf18      	it	ne
 80007fe:	ea95 0f0c 	teqne	r5, ip
 8000802:	d00c      	beq.n	800081e <__aeabi_dmul+0x206>
 8000804:	ea50 0641 	orrs.w	r6, r0, r1, lsl #1
 8000808:	bf18      	it	ne
 800080a:	ea52 0643 	orrsne.w	r6, r2, r3, lsl #1
 800080e:	d1d1      	bne.n	80007b4 <__aeabi_dmul+0x19c>
 8000810:	ea81 0103 	eor.w	r1, r1, r3
 8000814:	f001 4100 	and.w	r1, r1, #2147483648	; 0x80000000
 8000818:	f04f 0000 	mov.w	r0, #0
 800081c:	bd70      	pop	{r4, r5, r6, pc}
 800081e:	ea50 0641 	orrs.w	r6, r0, r1, lsl #1
 8000822:	bf06      	itte	eq
 8000824:	4610      	moveq	r0, r2
 8000826:	4619      	moveq	r1, r3
 8000828:	ea52 0643 	orrsne.w	r6, r2, r3, lsl #1
 800082c:	d019      	beq.n	8000862 <__aeabi_dmul+0x24a>
 800082e:	ea94 0f0c 	teq	r4, ip
 8000832:	d102      	bne.n	800083a <__aeabi_dmul+0x222>
 8000834:	ea50 3601 	orrs.w	r6, r0, r1, lsl #12
 8000838:	d113      	bne.n	8000862 <__aeabi_dmul+0x24a>
 800083a:	ea95 0f0c 	teq	r5, ip
 800083e:	d105      	bne.n	800084c <__aeabi_dmul+0x234>
 8000840:	ea52 3603 	orrs.w	r6, r2, r3, lsl #12
 8000844:	bf1c      	itt	ne
 8000846:	4610      	movne	r0, r2
 8000848:	4619      	movne	r1, r3
 800084a:	d10a      	bne.n	8000862 <__aeabi_dmul+0x24a>
 800084c:	ea81 0103 	eor.w	r1, r1, r3
 8000850:	f001 4100 	and.w	r1, r1, #2147483648	; 0x80000000
 8000854:	f041 41fe 	orr.w	r1, r1, #2130706432	; 0x7f000000
 8000858:	f441 0170 	orr.w	r1, r1, #15728640	; 0xf00000
 800085c:	f04f 0000 	mov.w	r0, #0
 8000860:	bd70      	pop	{r4, r5, r6, pc}
 8000862:	f041 41fe 	orr.w	r1, r1, #2130706432	; 0x7f000000
 8000866:	f441 0178 	orr.w	r1, r1, #16252928	; 0xf80000
 800086a:	bd70      	pop	{r4, r5, r6, pc}

0800086c <__aeabi_ddiv>:
 800086c:	b570      	push	{r4, r5, r6, lr}
 800086e:	f04f 0cff 	mov.w	ip, #255	; 0xff
 8000872:	f44c 6ce0 	orr.w	ip, ip, #1792	; 0x700
 8000876:	ea1c 5411 	ands.w	r4, ip, r1, lsr #20
 800087a:	bf1d      	ittte	ne
 800087c:	ea1c 5513 	andsne.w	r5, ip, r3, lsr #20
 8000880:	ea94 0f0c 	teqne	r4, ip
 8000884:	ea95 0f0c 	teqne	r5, ip
 8000888:	f000 f8a7 	bleq	80009da <__aeabi_ddiv+0x16e>
 800088c:	eba4 0405 	sub.w	r4, r4, r5
 8000890:	ea81 0e03 	eor.w	lr, r1, r3
 8000894:	ea52 3503 	orrs.w	r5, r2, r3, lsl #12
 8000898:	ea4f 3101 	mov.w	r1, r1, lsl #12
 800089c:	f000 8088 	beq.w	80009b0 <__aeabi_ddiv+0x144>
 80008a0:	ea4f 3303 	mov.w	r3, r3, lsl #12
 80008a4:	f04f 5580 	mov.w	r5, #268435456	; 0x10000000
 80008a8:	ea45 1313 	orr.w	r3, r5, r3, lsr #4
 80008ac:	ea43 6312 	orr.w	r3, r3, r2, lsr #24
 80008b0:	ea4f 2202 	mov.w	r2, r2, lsl #8
 80008b4:	ea45 1511 	orr.w	r5, r5, r1, lsr #4
 80008b8:	ea45 6510 	orr.w	r5, r5, r0, lsr #24
 80008bc:	ea4f 2600 	mov.w	r6, r0, lsl #8
 80008c0:	f00e 4100 	and.w	r1, lr, #2147483648	; 0x80000000
 80008c4:	429d      	cmp	r5, r3
 80008c6:	bf08      	it	eq
 80008c8:	4296      	cmpeq	r6, r2
 80008ca:	f144 04fd 	adc.w	r4, r4, #253	; 0xfd
 80008ce:	f504 7440 	add.w	r4, r4, #768	; 0x300
 80008d2:	d202      	bcs.n	80008da <__aeabi_ddiv+0x6e>
 80008d4:	085b      	lsrs	r3, r3, #1
 80008d6:	ea4f 0232 	mov.w	r2, r2, rrx
 80008da:	1ab6      	subs	r6, r6, r2
 80008dc:	eb65 0503 	sbc.w	r5, r5, r3
 80008e0:	085b      	lsrs	r3, r3, #1
 80008e2:	ea4f 0232 	mov.w	r2, r2, rrx
 80008e6:	f44f 1080 	mov.w	r0, #1048576	; 0x100000
 80008ea:	f44f 2c00 	mov.w	ip, #524288	; 0x80000
 80008ee:	ebb6 0e02 	subs.w	lr, r6, r2
 80008f2:	eb75 0e03 	sbcs.w	lr, r5, r3
 80008f6:	bf22      	ittt	cs
 80008f8:	1ab6      	subcs	r6, r6, r2
 80008fa:	4675      	movcs	r5, lr
 80008fc:	ea40 000c 	orrcs.w	r0, r0, ip
 8000900:	085b      	lsrs	r3, r3, #1
 8000902:	ea4f 0232 	mov.w	r2, r2, rrx
 8000906:	ebb6 0e02 	subs.w	lr, r6, r2
 800090a:	eb75 0e03 	sbcs.w	lr, r5, r3
 800090e:	bf22      	ittt	cs
 8000910:	1ab6      	subcs	r6, r6, r2
 8000912:	4675      	movcs	r5, lr
 8000914:	ea40 005c 	orrcs.w	r0, r0, ip, lsr #1
 8000918:	085b      	lsrs	r3, r3, #1
 800091a:	ea4f 0232 	mov.w	r2, r2, rrx
 800091e:	ebb6 0e02 	subs.w	lr, r6, r2
 8000922:	eb75 0e03 	sbcs.w	lr, r5, r3
 8000926:	bf22      	ittt	cs
 8000928:	1ab6      	subcs	r6, r6, r2
 800092a:	4675      	movcs	r5, lr
 800092c:	ea40 009c 	orrcs.w	r0, r0, ip, lsr #2
 8000930:	085b      	lsrs	r3, r3, #1
 8000932:	ea4f 0232 	mov.w	r2, r2, rrx
 8000936:	ebb6 0e02 	subs.w	lr, r6, r2
 800093a:	eb75 0e03 	sbcs.w	lr, r5, r3
 800093e:	bf22      	ittt	cs
 8000940:	1ab6      	subcs	r6, r6, r2
 8000942:	4675      	movcs	r5, lr
 8000944:	ea40 00dc 	orrcs.w	r0, r0, ip, lsr #3
 8000948:	ea55 0e06 	orrs.w	lr, r5, r6
 800094c:	d018      	beq.n	8000980 <__aeabi_ddiv+0x114>
 800094e:	ea4f 1505 	mov.w	r5, r5, lsl #4
 8000952:	ea45 7516 	orr.w	r5, r5, r6, lsr #28
 8000956:	ea4f 1606 	mov.w	r6, r6, lsl #4
 800095a:	ea4f 03c3 	mov.w	r3, r3, lsl #3
 800095e:	ea43 7352 	orr.w	r3, r3, r2, lsr #29
 8000962:	ea4f 02c2 	mov.w	r2, r2, lsl #3
 8000966:	ea5f 1c1c 	movs.w	ip, ip, lsr #4
 800096a:	d1c0      	bne.n	80008ee <__aeabi_ddiv+0x82>
 800096c:	f411 1f80 	tst.w	r1, #1048576	; 0x100000
 8000970:	d10b      	bne.n	800098a <__aeabi_ddiv+0x11e>
 8000972:	ea41 0100 	orr.w	r1, r1, r0
 8000976:	f04f 0000 	mov.w	r0, #0
 800097a:	f04f 4c00 	mov.w	ip, #2147483648	; 0x80000000
 800097e:	e7b6      	b.n	80008ee <__aeabi_ddiv+0x82>
 8000980:	f411 1f80 	tst.w	r1, #1048576	; 0x100000
 8000984:	bf04      	itt	eq
 8000986:	4301      	orreq	r1, r0
 8000988:	2000      	moveq	r0, #0
 800098a:	f1b4 0cfd 	subs.w	ip, r4, #253	; 0xfd
 800098e:	bf88      	it	hi
 8000990:	f5bc 6fe0 	cmphi.w	ip, #1792	; 0x700
 8000994:	f63f aeaf 	bhi.w	80006f6 <__aeabi_dmul+0xde>
 8000998:	ebb5 0c03 	subs.w	ip, r5, r3
 800099c:	bf04      	itt	eq
 800099e:	ebb6 0c02 	subseq.w	ip, r6, r2
 80009a2:	ea5f 0c50 	movseq.w	ip, r0, lsr #1
 80009a6:	f150 0000 	adcs.w	r0, r0, #0
 80009aa:	eb41 5104 	adc.w	r1, r1, r4, lsl #20
 80009ae:	bd70      	pop	{r4, r5, r6, pc}
 80009b0:	f00e 4e00 	and.w	lr, lr, #2147483648	; 0x80000000
 80009b4:	ea4e 3111 	orr.w	r1, lr, r1, lsr #12
 80009b8:	eb14 045c 	adds.w	r4, r4, ip, lsr #1
 80009bc:	bfc2      	ittt	gt
 80009be:	ebd4 050c 	rsbsgt	r5, r4, ip
 80009c2:	ea41 5104 	orrgt.w	r1, r1, r4, lsl #20
 80009c6:	bd70      	popgt	{r4, r5, r6, pc}
 80009c8:	f441 1180 	orr.w	r1, r1, #1048576	; 0x100000
 80009cc:	f04f 0e00 	mov.w	lr, #0
 80009d0:	3c01      	subs	r4, #1
 80009d2:	e690      	b.n	80006f6 <__aeabi_dmul+0xde>
 80009d4:	ea45 0e06 	orr.w	lr, r5, r6
 80009d8:	e68d      	b.n	80006f6 <__aeabi_dmul+0xde>
 80009da:	ea0c 5513 	and.w	r5, ip, r3, lsr #20
 80009de:	ea94 0f0c 	teq	r4, ip
 80009e2:	bf08      	it	eq
 80009e4:	ea95 0f0c 	teqeq	r5, ip
 80009e8:	f43f af3b 	beq.w	8000862 <__aeabi_dmul+0x24a>
 80009ec:	ea94 0f0c 	teq	r4, ip
 80009f0:	d10a      	bne.n	8000a08 <__aeabi_ddiv+0x19c>
 80009f2:	ea50 3401 	orrs.w	r4, r0, r1, lsl #12
 80009f6:	f47f af34 	bne.w	8000862 <__aeabi_dmul+0x24a>
 80009fa:	ea95 0f0c 	teq	r5, ip
 80009fe:	f47f af25 	bne.w	800084c <__aeabi_dmul+0x234>
 8000a02:	4610      	mov	r0, r2
 8000a04:	4619      	mov	r1, r3
 8000a06:	e72c      	b.n	8000862 <__aeabi_dmul+0x24a>
 8000a08:	ea95 0f0c 	teq	r5, ip
 8000a0c:	d106      	bne.n	8000a1c <__aeabi_ddiv+0x1b0>
 8000a0e:	ea52 3503 	orrs.w	r5, r2, r3, lsl #12
 8000a12:	f43f aefd 	beq.w	8000810 <__aeabi_dmul+0x1f8>
 8000a16:	4610      	mov	r0, r2
 8000a18:	4619      	mov	r1, r3
 8000a1a:	e722      	b.n	8000862 <__aeabi_dmul+0x24a>
 8000a1c:	ea50 0641 	orrs.w	r6, r0, r1, lsl #1
 8000a20:	bf18      	it	ne
 8000a22:	ea52 0643 	orrsne.w	r6, r2, r3, lsl #1
 8000a26:	f47f aec5 	bne.w	80007b4 <__aeabi_dmul+0x19c>
 8000a2a:	ea50 0441 	orrs.w	r4, r0, r1, lsl #1
 8000a2e:	f47f af0d 	bne.w	800084c <__aeabi_dmul+0x234>
 8000a32:	ea52 0543 	orrs.w	r5, r2, r3, lsl #1
 8000a36:	f47f aeeb 	bne.w	8000810 <__aeabi_dmul+0x1f8>
 8000a3a:	e712      	b.n	8000862 <__aeabi_dmul+0x24a>

08000a3c <__gedf2>:
 8000a3c:	f04f 3cff 	mov.w	ip, #4294967295
 8000a40:	e006      	b.n	8000a50 <__cmpdf2+0x4>
 8000a42:	bf00      	nop

08000a44 <__ledf2>:
 8000a44:	f04f 0c01 	mov.w	ip, #1
 8000a48:	e002      	b.n	8000a50 <__cmpdf2+0x4>
 8000a4a:	bf00      	nop

08000a4c <__cmpdf2>:
 8000a4c:	f04f 0c01 	mov.w	ip, #1
 8000a50:	f84d cd04 	str.w	ip, [sp, #-4]!
 8000a54:	ea4f 0c41 	mov.w	ip, r1, lsl #1
 8000a58:	ea7f 5c6c 	mvns.w	ip, ip, asr #21
 8000a5c:	ea4f 0c43 	mov.w	ip, r3, lsl #1
 8000a60:	bf18      	it	ne
 8000a62:	ea7f 5c6c 	mvnsne.w	ip, ip, asr #21
 8000a66:	d01b      	beq.n	8000aa0 <__cmpdf2+0x54>
 8000a68:	b001      	add	sp, #4
 8000a6a:	ea50 0c41 	orrs.w	ip, r0, r1, lsl #1
 8000a6e:	bf0c      	ite	eq
 8000a70:	ea52 0c43 	orrseq.w	ip, r2, r3, lsl #1
 8000a74:	ea91 0f03 	teqne	r1, r3
 8000a78:	bf02      	ittt	eq
 8000a7a:	ea90 0f02 	teqeq	r0, r2
 8000a7e:	2000      	moveq	r0, #0
 8000a80:	4770      	bxeq	lr
 8000a82:	f110 0f00 	cmn.w	r0, #0
 8000a86:	ea91 0f03 	teq	r1, r3
 8000a8a:	bf58      	it	pl
 8000a8c:	4299      	cmppl	r1, r3
 8000a8e:	bf08      	it	eq
 8000a90:	4290      	cmpeq	r0, r2
 8000a92:	bf2c      	ite	cs
 8000a94:	17d8      	asrcs	r0, r3, #31
 8000a96:	ea6f 70e3 	mvncc.w	r0, r3, asr #31
 8000a9a:	f040 0001 	orr.w	r0, r0, #1
 8000a9e:	4770      	bx	lr
 8000aa0:	ea4f 0c41 	mov.w	ip, r1, lsl #1
 8000aa4:	ea7f 5c6c 	mvns.w	ip, ip, asr #21
 8000aa8:	d102      	bne.n	8000ab0 <__cmpdf2+0x64>
 8000aaa:	ea50 3c01 	orrs.w	ip, r0, r1, lsl #12
 8000aae:	d107      	bne.n	8000ac0 <__cmpdf2+0x74>
 8000ab0:	ea4f 0c43 	mov.w	ip, r3, lsl #1
 8000ab4:	ea7f 5c6c 	mvns.w	ip, ip, asr #21
 8000ab8:	d1d6      	bne.n	8000a68 <__cmpdf2+0x1c>
 8000aba:	ea52 3c03 	orrs.w	ip, r2, r3, lsl #12
 8000abe:	d0d3      	beq.n	8000a68 <__cmpdf2+0x1c>
 8000ac0:	f85d 0b04 	ldr.w	r0, [sp], #4
 8000ac4:	4770      	bx	lr
 8000ac6:	bf00      	nop

08000ac8 <__aeabi_cdrcmple>:
 8000ac8:	4684      	mov	ip, r0
 8000aca:	4610      	mov	r0, r2
 8000acc:	4662      	mov	r2, ip
 8000ace:	468c      	mov	ip, r1
 8000ad0:	4619      	mov	r1, r3
 8000ad2:	4663      	mov	r3, ip
 8000ad4:	e000      	b.n	8000ad8 <__aeabi_cdcmpeq>
 8000ad6:	bf00      	nop

08000ad8 <__aeabi_cdcmpeq>:
 8000ad8:	b501      	push	{r0, lr}
 8000ada:	f7ff ffb7 	bl	8000a4c <__cmpdf2>
 8000ade:	2800      	cmp	r0, #0
 8000ae0:	bf48      	it	mi
 8000ae2:	f110 0f00 	cmnmi.w	r0, #0
 8000ae6:	bd01      	pop	{r0, pc}

08000ae8 <__aeabi_dcmpeq>:
 8000ae8:	f84d ed08 	str.w	lr, [sp, #-8]!
 8000aec:	f7ff fff4 	bl	8000ad8 <__aeabi_cdcmpeq>
 8000af0:	bf0c      	ite	eq
 8000af2:	2001      	moveq	r0, #1
 8000af4:	2000      	movne	r0, #0
 8000af6:	f85d fb08 	ldr.w	pc, [sp], #8
 8000afa:	bf00      	nop

08000afc <__aeabi_dcmplt>:
 8000afc:	f84d ed08 	str.w	lr, [sp, #-8]!
 8000b00:	f7ff ffea 	bl	8000ad8 <__aeabi_cdcmpeq>
 8000b04:	bf34      	ite	cc
 8000b06:	2001      	movcc	r0, #1
 8000b08:	2000      	movcs	r0, #0
 8000b0a:	f85d fb08 	ldr.w	pc, [sp], #8
 8000b0e:	bf00      	nop

08000b10 <__aeabi_dcmple>:
 8000b10:	f84d ed08 	str.w	lr, [sp, #-8]!
 8000b14:	f7ff ffe0 	bl	8000ad8 <__aeabi_cdcmpeq>
 8000b18:	bf94      	ite	ls
 8000b1a:	2001      	movls	r0, #1
 8000b1c:	2000      	movhi	r0, #0
 8000b1e:	f85d fb08 	ldr.w	pc, [sp], #8
 8000b22:	bf00      	nop

08000b24 <__aeabi_dcmpge>:
 8000b24:	f84d ed08 	str.w	lr, [sp, #-8]!
 8000b28:	f7ff ffce 	bl	8000ac8 <__aeabi_cdrcmple>
 8000b2c:	bf94      	ite	ls
 8000b2e:	2001      	movls	r0, #1
 8000b30:	2000      	movhi	r0, #0
 8000b32:	f85d fb08 	ldr.w	pc, [sp], #8
 8000b36:	bf00      	nop

08000b38 <__aeabi_dcmpgt>:
 8000b38:	f84d ed08 	str.w	lr, [sp, #-8]!
 8000b3c:	f7ff ffc4 	bl	8000ac8 <__aeabi_cdrcmple>
 8000b40:	bf34      	ite	cc
 8000b42:	2001      	movcc	r0, #1
 8000b44:	2000      	movcs	r0, #0
 8000b46:	f85d fb08 	ldr.w	pc, [sp], #8
 8000b4a:	bf00      	nop

08000b4c <__aeabi_dcmpun>:
 8000b4c:	ea4f 0c41 	mov.w	ip, r1, lsl #1
 8000b50:	ea7f 5c6c 	mvns.w	ip, ip, asr #21
 8000b54:	d102      	bne.n	8000b5c <__aeabi_dcmpun+0x10>
 8000b56:	ea50 3c01 	orrs.w	ip, r0, r1, lsl #12
 8000b5a:	d10a      	bne.n	8000b72 <__aeabi_dcmpun+0x26>
 8000b5c:	ea4f 0c43 	mov.w	ip, r3, lsl #1
 8000b60:	ea7f 5c6c 	mvns.w	ip, ip, asr #21
 8000b64:	d102      	bne.n	8000b6c <__aeabi_dcmpun+0x20>
 8000b66:	ea52 3c03 	orrs.w	ip, r2, r3, lsl #12
 8000b6a:	d102      	bne.n	8000b72 <__aeabi_dcmpun+0x26>
 8000b6c:	f04f 0000 	mov.w	r0, #0
 8000b70:	4770      	bx	lr
 8000b72:	f04f 0001 	mov.w	r0, #1
 8000b76:	4770      	bx	lr

08000b78 <__aeabi_d2iz>:
 8000b78:	ea4f 0241 	mov.w	r2, r1, lsl #1
 8000b7c:	f512 1200 	adds.w	r2, r2, #2097152	; 0x200000
 8000b80:	d215      	bcs.n	8000bae <__aeabi_d2iz+0x36>
 8000b82:	d511      	bpl.n	8000ba8 <__aeabi_d2iz+0x30>
 8000b84:	f46f 7378 	mvn.w	r3, #992	; 0x3e0
 8000b88:	ebb3 5262 	subs.w	r2, r3, r2, asr #21
 8000b8c:	d912      	bls.n	8000bb4 <__aeabi_d2iz+0x3c>
 8000b8e:	ea4f 23c1 	mov.w	r3, r1, lsl #11
 8000b92:	f043 4300 	orr.w	r3, r3, #2147483648	; 0x80000000
 8000b96:	ea43 5350 	orr.w	r3, r3, r0, lsr #21
 8000b9a:	f011 4f00 	tst.w	r1, #2147483648	; 0x80000000
 8000b9e:	fa23 f002 	lsr.w	r0, r3, r2
 8000ba2:	bf18      	it	ne
 8000ba4:	4240      	negne	r0, r0
 8000ba6:	4770      	bx	lr
 8000ba8:	f04f 0000 	mov.w	r0, #0
 8000bac:	4770      	bx	lr
 8000bae:	ea50 3001 	orrs.w	r0, r0, r1, lsl #12
 8000bb2:	d105      	bne.n	8000bc0 <__aeabi_d2iz+0x48>
 8000bb4:	f011 4000 	ands.w	r0, r1, #2147483648	; 0x80000000
 8000bb8:	bf08      	it	eq
 8000bba:	f06f 4000 	mvneq.w	r0, #2147483648	; 0x80000000
 8000bbe:	4770      	bx	lr
 8000bc0:	f04f 0000 	mov.w	r0, #0
 8000bc4:	4770      	bx	lr
 8000bc6:	bf00      	nop

08000bc8 <__aeabi_d2uiz>:
 8000bc8:	004a      	lsls	r2, r1, #1
 8000bca:	d211      	bcs.n	8000bf0 <__aeabi_d2uiz+0x28>
 8000bcc:	f512 1200 	adds.w	r2, r2, #2097152	; 0x200000
 8000bd0:	d211      	bcs.n	8000bf6 <__aeabi_d2uiz+0x2e>
 8000bd2:	d50d      	bpl.n	8000bf0 <__aeabi_d2uiz+0x28>
 8000bd4:	f46f 7378 	mvn.w	r3, #992	; 0x3e0
 8000bd8:	ebb3 5262 	subs.w	r2, r3, r2, asr #21
 8000bdc:	d40e      	bmi.n	8000bfc <__aeabi_d2uiz+0x34>
 8000bde:	ea4f 23c1 	mov.w	r3, r1, lsl #11
 8000be2:	f043 4300 	orr.w	r3, r3, #2147483648	; 0x80000000
 8000be6:	ea43 5350 	orr.w	r3, r3, r0, lsr #21
 8000bea:	fa23 f002 	lsr.w	r0, r3, r2
 8000bee:	4770      	bx	lr
 8000bf0:	f04f 0000 	mov.w	r0, #0
 8000bf4:	4770      	bx	lr
 8000bf6:	ea50 3001 	orrs.w	r0, r0, r1, lsl #12
 8000bfa:	d102      	bne.n	8000c02 <__aeabi_d2uiz+0x3a>
 8000bfc:	f04f 30ff 	mov.w	r0, #4294967295
 8000c00:	4770      	bx	lr
 8000c02:	f04f 0000 	mov.w	r0, #0
 8000c06:	4770      	bx	lr

08000c08 <__aeabi_d2f>:
 8000c08:	ea4f 0241 	mov.w	r2, r1, lsl #1
 8000c0c:	f1b2 43e0 	subs.w	r3, r2, #1879048192	; 0x70000000
 8000c10:	bf24      	itt	cs
 8000c12:	f5b3 1c00 	subscs.w	ip, r3, #2097152	; 0x200000
 8000c16:	f1dc 5cfe 	rsbscs	ip, ip, #532676608	; 0x1fc00000
 8000c1a:	d90d      	bls.n	8000c38 <__aeabi_d2f+0x30>
 8000c1c:	f001 4c00 	and.w	ip, r1, #2147483648	; 0x80000000
 8000c20:	ea4f 02c0 	mov.w	r2, r0, lsl #3
 8000c24:	ea4c 7050 	orr.w	r0, ip, r0, lsr #29
 8000c28:	f1b2 4f00 	cmp.w	r2, #2147483648	; 0x80000000
 8000c2c:	eb40 0083 	adc.w	r0, r0, r3, lsl #2
 8000c30:	bf08      	it	eq
 8000c32:	f020 0001 	biceq.w	r0, r0, #1
 8000c36:	4770      	bx	lr
 8000c38:	f011 4f80 	tst.w	r1, #1073741824	; 0x40000000
 8000c3c:	d121      	bne.n	8000c82 <__aeabi_d2f+0x7a>
 8000c3e:	f113 7238 	adds.w	r2, r3, #48234496	; 0x2e00000
 8000c42:	bfbc      	itt	lt
 8000c44:	f001 4000 	andlt.w	r0, r1, #2147483648	; 0x80000000
 8000c48:	4770      	bxlt	lr
 8000c4a:	f441 1180 	orr.w	r1, r1, #1048576	; 0x100000
 8000c4e:	ea4f 5252 	mov.w	r2, r2, lsr #21
 8000c52:	f1c2 0218 	rsb	r2, r2, #24
 8000c56:	f1c2 0c20 	rsb	ip, r2, #32
 8000c5a:	fa10 f30c 	lsls.w	r3, r0, ip
 8000c5e:	fa20 f002 	lsr.w	r0, r0, r2
 8000c62:	bf18      	it	ne
 8000c64:	f040 0001 	orrne.w	r0, r0, #1
 8000c68:	ea4f 23c1 	mov.w	r3, r1, lsl #11
 8000c6c:	ea4f 23d3 	mov.w	r3, r3, lsr #11
 8000c70:	fa03 fc0c 	lsl.w	ip, r3, ip
 8000c74:	ea40 000c 	orr.w	r0, r0, ip
 8000c78:	fa23 f302 	lsr.w	r3, r3, r2
 8000c7c:	ea4f 0343 	mov.w	r3, r3, lsl #1
 8000c80:	e7cc      	b.n	8000c1c <__aeabi_d2f+0x14>
 8000c82:	ea7f 5362 	mvns.w	r3, r2, asr #21
 8000c86:	d107      	bne.n	8000c98 <__aeabi_d2f+0x90>
 8000c88:	ea50 3301 	orrs.w	r3, r0, r1, lsl #12
 8000c8c:	bf1e      	ittt	ne
 8000c8e:	f04f 40fe 	movne.w	r0, #2130706432	; 0x7f000000
 8000c92:	f440 0040 	orrne.w	r0, r0, #12582912	; 0xc00000
 8000c96:	4770      	bxne	lr
 8000c98:	f001 4000 	and.w	r0, r1, #2147483648	; 0x80000000
 8000c9c:	f040 40fe 	orr.w	r0, r0, #2130706432	; 0x7f000000
 8000ca0:	f440 0000 	orr.w	r0, r0, #8388608	; 0x800000
 8000ca4:	4770      	bx	lr
 8000ca6:	bf00      	nop

08000ca8 <__aeabi_uldivmod>:
 8000ca8:	b953      	cbnz	r3, 8000cc0 <__aeabi_uldivmod+0x18>
 8000caa:	b94a      	cbnz	r2, 8000cc0 <__aeabi_uldivmod+0x18>
 8000cac:	2900      	cmp	r1, #0
 8000cae:	bf08      	it	eq
 8000cb0:	2800      	cmpeq	r0, #0
 8000cb2:	bf1c      	itt	ne
 8000cb4:	f04f 31ff 	movne.w	r1, #4294967295
 8000cb8:	f04f 30ff 	movne.w	r0, #4294967295
 8000cbc:	f000 b9a4 	b.w	8001008 <__aeabi_idiv0>
 8000cc0:	f1ad 0c08 	sub.w	ip, sp, #8
 8000cc4:	e96d ce04 	strd	ip, lr, [sp, #-16]!
 8000cc8:	f000 f83c 	bl	8000d44 <__udivmoddi4>
 8000ccc:	f8dd e004 	ldr.w	lr, [sp, #4]
 8000cd0:	e9dd 2302 	ldrd	r2, r3, [sp, #8]
 8000cd4:	b004      	add	sp, #16
 8000cd6:	4770      	bx	lr

08000cd8 <__aeabi_d2lz>:
 8000cd8:	b538      	push	{r3, r4, r5, lr}
 8000cda:	2200      	movs	r2, #0
 8000cdc:	2300      	movs	r3, #0
 8000cde:	4604      	mov	r4, r0
 8000ce0:	460d      	mov	r5, r1
 8000ce2:	f7ff ff0b 	bl	8000afc <__aeabi_dcmplt>
 8000ce6:	b928      	cbnz	r0, 8000cf4 <__aeabi_d2lz+0x1c>
 8000ce8:	4620      	mov	r0, r4
 8000cea:	4629      	mov	r1, r5
 8000cec:	e8bd 4038 	ldmia.w	sp!, {r3, r4, r5, lr}
 8000cf0:	f000 b80a 	b.w	8000d08 <__aeabi_d2ulz>
 8000cf4:	4620      	mov	r0, r4
 8000cf6:	f105 4100 	add.w	r1, r5, #2147483648	; 0x80000000
 8000cfa:	f000 f805 	bl	8000d08 <__aeabi_d2ulz>
 8000cfe:	4240      	negs	r0, r0
 8000d00:	eb61 0141 	sbc.w	r1, r1, r1, lsl #1
 8000d04:	bd38      	pop	{r3, r4, r5, pc}
 8000d06:	bf00      	nop

08000d08 <__aeabi_d2ulz>:
 8000d08:	b5d0      	push	{r4, r6, r7, lr}
 8000d0a:	4b0c      	ldr	r3, [pc, #48]	; (8000d3c <__aeabi_d2ulz+0x34>)
 8000d0c:	2200      	movs	r2, #0
 8000d0e:	4606      	mov	r6, r0
 8000d10:	460f      	mov	r7, r1
 8000d12:	f7ff fc81 	bl	8000618 <__aeabi_dmul>
 8000d16:	f7ff ff57 	bl	8000bc8 <__aeabi_d2uiz>
 8000d1a:	4604      	mov	r4, r0
 8000d1c:	f7ff fc02 	bl	8000524 <__aeabi_ui2d>
 8000d20:	4b07      	ldr	r3, [pc, #28]	; (8000d40 <__aeabi_d2ulz+0x38>)
 8000d22:	2200      	movs	r2, #0
 8000d24:	f7ff fc78 	bl	8000618 <__aeabi_dmul>
 8000d28:	4602      	mov	r2, r0
 8000d2a:	460b      	mov	r3, r1
 8000d2c:	4630      	mov	r0, r6
 8000d2e:	4639      	mov	r1, r7
 8000d30:	f7ff faba 	bl	80002a8 <__aeabi_dsub>
 8000d34:	f7ff ff48 	bl	8000bc8 <__aeabi_d2uiz>
 8000d38:	4621      	mov	r1, r4
 8000d3a:	bdd0      	pop	{r4, r6, r7, pc}
 8000d3c:	3df00000 	.word	0x3df00000
 8000d40:	41f00000 	.word	0x41f00000

08000d44 <__udivmoddi4>:
 8000d44:	e92d 47f0 	stmdb	sp!, {r4, r5, r6, r7, r8, r9, sl, lr}
 8000d48:	9d08      	ldr	r5, [sp, #32]
 8000d4a:	4604      	mov	r4, r0
 8000d4c:	468c      	mov	ip, r1
 8000d4e:	2b00      	cmp	r3, #0
 8000d50:	f040 8083 	bne.w	8000e5a <__udivmoddi4+0x116>
 8000d54:	428a      	cmp	r2, r1
 8000d56:	4617      	mov	r7, r2
 8000d58:	d947      	bls.n	8000dea <__udivmoddi4+0xa6>
 8000d5a:	fab2 f282 	clz	r2, r2
 8000d5e:	b142      	cbz	r2, 8000d72 <__udivmoddi4+0x2e>
 8000d60:	f1c2 0020 	rsb	r0, r2, #32
 8000d64:	fa24 f000 	lsr.w	r0, r4, r0
 8000d68:	4091      	lsls	r1, r2
 8000d6a:	4097      	lsls	r7, r2
 8000d6c:	ea40 0c01 	orr.w	ip, r0, r1
 8000d70:	4094      	lsls	r4, r2
 8000d72:	ea4f 4817 	mov.w	r8, r7, lsr #16
 8000d76:	0c23      	lsrs	r3, r4, #16
 8000d78:	fbbc f6f8 	udiv	r6, ip, r8
 8000d7c:	fa1f fe87 	uxth.w	lr, r7
 8000d80:	fb08 c116 	mls	r1, r8, r6, ip
 8000d84:	ea43 4301 	orr.w	r3, r3, r1, lsl #16
 8000d88:	fb06 f10e 	mul.w	r1, r6, lr
 8000d8c:	4299      	cmp	r1, r3
 8000d8e:	d909      	bls.n	8000da4 <__udivmoddi4+0x60>
 8000d90:	18fb      	adds	r3, r7, r3
 8000d92:	f106 30ff 	add.w	r0, r6, #4294967295
 8000d96:	f080 8119 	bcs.w	8000fcc <__udivmoddi4+0x288>
 8000d9a:	4299      	cmp	r1, r3
 8000d9c:	f240 8116 	bls.w	8000fcc <__udivmoddi4+0x288>
 8000da0:	3e02      	subs	r6, #2
 8000da2:	443b      	add	r3, r7
 8000da4:	1a5b      	subs	r3, r3, r1
 8000da6:	b2a4      	uxth	r4, r4
 8000da8:	fbb3 f0f8 	udiv	r0, r3, r8
 8000dac:	fb08 3310 	mls	r3, r8, r0, r3
 8000db0:	ea44 4403 	orr.w	r4, r4, r3, lsl #16
 8000db4:	fb00 fe0e 	mul.w	lr, r0, lr
 8000db8:	45a6      	cmp	lr, r4
 8000dba:	d909      	bls.n	8000dd0 <__udivmoddi4+0x8c>
 8000dbc:	193c      	adds	r4, r7, r4
 8000dbe:	f100 33ff 	add.w	r3, r0, #4294967295
 8000dc2:	f080 8105 	bcs.w	8000fd0 <__udivmoddi4+0x28c>
 8000dc6:	45a6      	cmp	lr, r4
 8000dc8:	f240 8102 	bls.w	8000fd0 <__udivmoddi4+0x28c>
 8000dcc:	3802      	subs	r0, #2
 8000dce:	443c      	add	r4, r7
 8000dd0:	ea40 4006 	orr.w	r0, r0, r6, lsl #16
 8000dd4:	eba4 040e 	sub.w	r4, r4, lr
 8000dd8:	2600      	movs	r6, #0
 8000dda:	b11d      	cbz	r5, 8000de4 <__udivmoddi4+0xa0>
 8000ddc:	40d4      	lsrs	r4, r2
 8000dde:	2300      	movs	r3, #0
 8000de0:	e9c5 4300 	strd	r4, r3, [r5]
 8000de4:	4631      	mov	r1, r6
 8000de6:	e8bd 87f0 	ldmia.w	sp!, {r4, r5, r6, r7, r8, r9, sl, pc}
 8000dea:	b902      	cbnz	r2, 8000dee <__udivmoddi4+0xaa>
 8000dec:	deff      	udf	#255	; 0xff
 8000dee:	fab2 f282 	clz	r2, r2
 8000df2:	2a00      	cmp	r2, #0
 8000df4:	d150      	bne.n	8000e98 <__udivmoddi4+0x154>
 8000df6:	1bcb      	subs	r3, r1, r7
 8000df8:	ea4f 4e17 	mov.w	lr, r7, lsr #16
 8000dfc:	fa1f f887 	uxth.w	r8, r7
 8000e00:	2601      	movs	r6, #1
 8000e02:	fbb3 fcfe 	udiv	ip, r3, lr
 8000e06:	0c21      	lsrs	r1, r4, #16
 8000e08:	fb0e 331c 	mls	r3, lr, ip, r3
 8000e0c:	ea41 4103 	orr.w	r1, r1, r3, lsl #16
 8000e10:	fb08 f30c 	mul.w	r3, r8, ip
 8000e14:	428b      	cmp	r3, r1
 8000e16:	d907      	bls.n	8000e28 <__udivmoddi4+0xe4>
 8000e18:	1879      	adds	r1, r7, r1
 8000e1a:	f10c 30ff 	add.w	r0, ip, #4294967295
 8000e1e:	d202      	bcs.n	8000e26 <__udivmoddi4+0xe2>
 8000e20:	428b      	cmp	r3, r1
 8000e22:	f200 80e9 	bhi.w	8000ff8 <__udivmoddi4+0x2b4>
 8000e26:	4684      	mov	ip, r0
 8000e28:	1ac9      	subs	r1, r1, r3
 8000e2a:	b2a3      	uxth	r3, r4
 8000e2c:	fbb1 f0fe 	udiv	r0, r1, lr
 8000e30:	fb0e 1110 	mls	r1, lr, r0, r1
 8000e34:	ea43 4401 	orr.w	r4, r3, r1, lsl #16
 8000e38:	fb08 f800 	mul.w	r8, r8, r0
 8000e3c:	45a0      	cmp	r8, r4
 8000e3e:	d907      	bls.n	8000e50 <__udivmoddi4+0x10c>
 8000e40:	193c      	adds	r4, r7, r4
 8000e42:	f100 33ff 	add.w	r3, r0, #4294967295
 8000e46:	d202      	bcs.n	8000e4e <__udivmoddi4+0x10a>
 8000e48:	45a0      	cmp	r8, r4
 8000e4a:	f200 80d9 	bhi.w	8001000 <__udivmoddi4+0x2bc>
 8000e4e:	4618      	mov	r0, r3
 8000e50:	eba4 0408 	sub.w	r4, r4, r8
 8000e54:	ea40 400c 	orr.w	r0, r0, ip, lsl #16
 8000e58:	e7bf      	b.n	8000dda <__udivmoddi4+0x96>
 8000e5a:	428b      	cmp	r3, r1
 8000e5c:	d909      	bls.n	8000e72 <__udivmoddi4+0x12e>
 8000e5e:	2d00      	cmp	r5, #0
 8000e60:	f000 80b1 	beq.w	8000fc6 <__udivmoddi4+0x282>
 8000e64:	2600      	movs	r6, #0
 8000e66:	e9c5 0100 	strd	r0, r1, [r5]
 8000e6a:	4630      	mov	r0, r6
 8000e6c:	4631      	mov	r1, r6
 8000e6e:	e8bd 87f0 	ldmia.w	sp!, {r4, r5, r6, r7, r8, r9, sl, pc}
 8000e72:	fab3 f683 	clz	r6, r3
 8000e76:	2e00      	cmp	r6, #0
 8000e78:	d14a      	bne.n	8000f10 <__udivmoddi4+0x1cc>
 8000e7a:	428b      	cmp	r3, r1
 8000e7c:	d302      	bcc.n	8000e84 <__udivmoddi4+0x140>
 8000e7e:	4282      	cmp	r2, r0
 8000e80:	f200 80b8 	bhi.w	8000ff4 <__udivmoddi4+0x2b0>
 8000e84:	1a84      	subs	r4, r0, r2
 8000e86:	eb61 0103 	sbc.w	r1, r1, r3
 8000e8a:	2001      	movs	r0, #1
 8000e8c:	468c      	mov	ip, r1
 8000e8e:	2d00      	cmp	r5, #0
 8000e90:	d0a8      	beq.n	8000de4 <__udivmoddi4+0xa0>
 8000e92:	e9c5 4c00 	strd	r4, ip, [r5]
 8000e96:	e7a5      	b.n	8000de4 <__udivmoddi4+0xa0>
 8000e98:	f1c2 0320 	rsb	r3, r2, #32
 8000e9c:	fa20 f603 	lsr.w	r6, r0, r3
 8000ea0:	4097      	lsls	r7, r2
 8000ea2:	fa01 f002 	lsl.w	r0, r1, r2
 8000ea6:	ea4f 4e17 	mov.w	lr, r7, lsr #16
 8000eaa:	40d9      	lsrs	r1, r3
 8000eac:	4330      	orrs	r0, r6
 8000eae:	0c03      	lsrs	r3, r0, #16
 8000eb0:	fbb1 f6fe 	udiv	r6, r1, lr
 8000eb4:	fa1f f887 	uxth.w	r8, r7
 8000eb8:	fb0e 1116 	mls	r1, lr, r6, r1
 8000ebc:	ea43 4301 	orr.w	r3, r3, r1, lsl #16
 8000ec0:	fb06 f108 	mul.w	r1, r6, r8
 8000ec4:	4299      	cmp	r1, r3
 8000ec6:	fa04 f402 	lsl.w	r4, r4, r2
 8000eca:	d909      	bls.n	8000ee0 <__udivmoddi4+0x19c>
 8000ecc:	18fb      	adds	r3, r7, r3
 8000ece:	f106 3cff 	add.w	ip, r6, #4294967295
 8000ed2:	f080 808d 	bcs.w	8000ff0 <__udivmoddi4+0x2ac>
 8000ed6:	4299      	cmp	r1, r3
 8000ed8:	f240 808a 	bls.w	8000ff0 <__udivmoddi4+0x2ac>
 8000edc:	3e02      	subs	r6, #2
 8000ede:	443b      	add	r3, r7
 8000ee0:	1a5b      	subs	r3, r3, r1
 8000ee2:	b281      	uxth	r1, r0
 8000ee4:	fbb3 f0fe 	udiv	r0, r3, lr
 8000ee8:	fb0e 3310 	mls	r3, lr, r0, r3
 8000eec:	ea41 4103 	orr.w	r1, r1, r3, lsl #16
 8000ef0:	fb00 f308 	mul.w	r3, r0, r8
 8000ef4:	428b      	cmp	r3, r1
 8000ef6:	d907      	bls.n	8000f08 <__udivmoddi4+0x1c4>
 8000ef8:	1879      	adds	r1, r7, r1
 8000efa:	f100 3cff 	add.w	ip, r0, #4294967295
 8000efe:	d273      	bcs.n	8000fe8 <__udivmoddi4+0x2a4>
 8000f00:	428b      	cmp	r3, r1
 8000f02:	d971      	bls.n	8000fe8 <__udivmoddi4+0x2a4>
 8000f04:	3802      	subs	r0, #2
 8000f06:	4439      	add	r1, r7
 8000f08:	1acb      	subs	r3, r1, r3
 8000f0a:	ea40 4606 	orr.w	r6, r0, r6, lsl #16
 8000f0e:	e778      	b.n	8000e02 <__udivmoddi4+0xbe>
 8000f10:	f1c6 0c20 	rsb	ip, r6, #32
 8000f14:	fa03 f406 	lsl.w	r4, r3, r6
 8000f18:	fa22 f30c 	lsr.w	r3, r2, ip
 8000f1c:	431c      	orrs	r4, r3
 8000f1e:	fa20 f70c 	lsr.w	r7, r0, ip
 8000f22:	fa01 f306 	lsl.w	r3, r1, r6
 8000f26:	ea4f 4e14 	mov.w	lr, r4, lsr #16
 8000f2a:	fa21 f10c 	lsr.w	r1, r1, ip
 8000f2e:	431f      	orrs	r7, r3
 8000f30:	0c3b      	lsrs	r3, r7, #16
 8000f32:	fbb1 f9fe 	udiv	r9, r1, lr
 8000f36:	fa1f f884 	uxth.w	r8, r4
 8000f3a:	fb0e 1119 	mls	r1, lr, r9, r1
 8000f3e:	ea43 4101 	orr.w	r1, r3, r1, lsl #16
 8000f42:	fb09 fa08 	mul.w	sl, r9, r8
 8000f46:	458a      	cmp	sl, r1
 8000f48:	fa02 f206 	lsl.w	r2, r2, r6
 8000f4c:	fa00 f306 	lsl.w	r3, r0, r6
 8000f50:	d908      	bls.n	8000f64 <__udivmoddi4+0x220>
 8000f52:	1861      	adds	r1, r4, r1
 8000f54:	f109 30ff 	add.w	r0, r9, #4294967295
 8000f58:	d248      	bcs.n	8000fec <__udivmoddi4+0x2a8>
 8000f5a:	458a      	cmp	sl, r1
 8000f5c:	d946      	bls.n	8000fec <__udivmoddi4+0x2a8>
 8000f5e:	f1a9 0902 	sub.w	r9, r9, #2
 8000f62:	4421      	add	r1, r4
 8000f64:	eba1 010a 	sub.w	r1, r1, sl
 8000f68:	b2bf      	uxth	r7, r7
 8000f6a:	fbb1 f0fe 	udiv	r0, r1, lr
 8000f6e:	fb0e 1110 	mls	r1, lr, r0, r1
 8000f72:	ea47 4701 	orr.w	r7, r7, r1, lsl #16
 8000f76:	fb00 f808 	mul.w	r8, r0, r8
 8000f7a:	45b8      	cmp	r8, r7
 8000f7c:	d907      	bls.n	8000f8e <__udivmoddi4+0x24a>
 8000f7e:	19e7      	adds	r7, r4, r7
 8000f80:	f100 31ff 	add.w	r1, r0, #4294967295
 8000f84:	d22e      	bcs.n	8000fe4 <__udivmoddi4+0x2a0>
 8000f86:	45b8      	cmp	r8, r7
 8000f88:	d92c      	bls.n	8000fe4 <__udivmoddi4+0x2a0>
 8000f8a:	3802      	subs	r0, #2
 8000f8c:	4427      	add	r7, r4
 8000f8e:	ea40 4009 	orr.w	r0, r0, r9, lsl #16
 8000f92:	eba7 0708 	sub.w	r7, r7, r8
 8000f96:	fba0 8902 	umull	r8, r9, r0, r2
 8000f9a:	454f      	cmp	r7, r9
 8000f9c:	46c6      	mov	lr, r8
 8000f9e:	4649      	mov	r1, r9
 8000fa0:	d31a      	bcc.n	8000fd8 <__udivmoddi4+0x294>
 8000fa2:	d017      	beq.n	8000fd4 <__udivmoddi4+0x290>
 8000fa4:	b15d      	cbz	r5, 8000fbe <__udivmoddi4+0x27a>
 8000fa6:	ebb3 020e 	subs.w	r2, r3, lr
 8000faa:	eb67 0701 	sbc.w	r7, r7, r1
 8000fae:	fa07 fc0c 	lsl.w	ip, r7, ip
 8000fb2:	40f2      	lsrs	r2, r6
 8000fb4:	ea4c 0202 	orr.w	r2, ip, r2
 8000fb8:	40f7      	lsrs	r7, r6
 8000fba:	e9c5 2700 	strd	r2, r7, [r5]
 8000fbe:	2600      	movs	r6, #0
 8000fc0:	4631      	mov	r1, r6
 8000fc2:	e8bd 87f0 	ldmia.w	sp!, {r4, r5, r6, r7, r8, r9, sl, pc}
 8000fc6:	462e      	mov	r6, r5
 8000fc8:	4628      	mov	r0, r5
 8000fca:	e70b      	b.n	8000de4 <__udivmoddi4+0xa0>
 8000fcc:	4606      	mov	r6, r0
 8000fce:	e6e9      	b.n	8000da4 <__udivmoddi4+0x60>
 8000fd0:	4618      	mov	r0, r3
 8000fd2:	e6fd      	b.n	8000dd0 <__udivmoddi4+0x8c>
 8000fd4:	4543      	cmp	r3, r8
 8000fd6:	d2e5      	bcs.n	8000fa4 <__udivmoddi4+0x260>
 8000fd8:	ebb8 0e02 	subs.w	lr, r8, r2
 8000fdc:	eb69 0104 	sbc.w	r1, r9, r4
 8000fe0:	3801      	subs	r0, #1
 8000fe2:	e7df      	b.n	8000fa4 <__udivmoddi4+0x260>
 8000fe4:	4608      	mov	r0, r1
 8000fe6:	e7d2      	b.n	8000f8e <__udivmoddi4+0x24a>
 8000fe8:	4660      	mov	r0, ip
 8000fea:	e78d      	b.n	8000f08 <__udivmoddi4+0x1c4>
 8000fec:	4681      	mov	r9, r0
 8000fee:	e7b9      	b.n	8000f64 <__udivmoddi4+0x220>
 8000ff0:	4666      	mov	r6, ip
 8000ff2:	e775      	b.n	8000ee0 <__udivmoddi4+0x19c>
 8000ff4:	4630      	mov	r0, r6
 8000ff6:	e74a      	b.n	8000e8e <__udivmoddi4+0x14a>
 8000ff8:	f1ac 0c02 	sub.w	ip, ip, #2
 8000ffc:	4439      	add	r1, r7
 8000ffe:	e713      	b.n	8000e28 <__udivmoddi4+0xe4>
 8001000:	3802      	subs	r0, #2
 8001002:	443c      	add	r4, r7
 8001004:	e724      	b.n	8000e50 <__udivmoddi4+0x10c>
 8001006:	bf00      	nop

08001008 <__aeabi_idiv0>:
 8001008:	4770      	bx	lr
 800100a:	bf00      	nop
 800100c:	0000      	movs	r0, r0
	...

08001010 <ProcessIMUData>:
 8001010:	b538      	push	{r3, r4, r5, lr}
 8001012:	ed2d 8b02 	vpush	{d8}
 8001016:	4838      	ldr	r0, [pc, #224]	; (80010f8 <ProcessIMUData+0xe8>)
 8001018:	4b38      	ldr	r3, [pc, #224]	; (80010fc <ProcessIMUData+0xec>)
 800101a:	7802      	ldrb	r2, [r0, #0]
 800101c:	4938      	ldr	r1, [pc, #224]	; (8001100 <ProcessIMUData+0xf0>)
 800101e:	4c39      	ldr	r4, [pc, #228]	; (8001104 <ProcessIMUData+0xf4>)
 8001020:	6809      	ldr	r1, [r1, #0]
 8001022:	4d39      	ldr	r5, [pc, #228]	; (8001108 <ProcessIMUData+0xf8>)
 8001024:	eb03 0382 	add.w	r3, r3, r2, lsl #2
 8001028:	3201      	adds	r2, #1
 800102a:	6019      	str	r1, [r3, #0]
 800102c:	4937      	ldr	r1, [pc, #220]	; (800110c <ProcessIMUData+0xfc>)
 800102e:	682d      	ldr	r5, [r5, #0]
 8001030:	780b      	ldrb	r3, [r1, #0]
 8001032:	b2d2      	uxtb	r2, r2
 8001034:	2a14      	cmp	r2, #20
 8001036:	eb04 0483 	add.w	r4, r4, r3, lsl #2
 800103a:	f103 0301 	add.w	r3, r3, #1
 800103e:	b2db      	uxtb	r3, r3
 8001040:	7002      	strb	r2, [r0, #0]
 8001042:	bf04      	itt	eq
 8001044:	2200      	moveq	r2, #0
 8001046:	7002      	strbeq	r2, [r0, #0]
 8001048:	2b14      	cmp	r3, #20
 800104a:	700b      	strb	r3, [r1, #0]
 800104c:	bf04      	itt	eq
 800104e:	2300      	moveq	r3, #0
 8001050:	700b      	strbeq	r3, [r1, #0]
 8001052:	2300      	movs	r3, #0
 8001054:	4929      	ldr	r1, [pc, #164]	; (80010fc <ProcessIMUData+0xec>)
 8001056:	4a2b      	ldr	r2, [pc, #172]	; (8001104 <ProcessIMUData+0xf4>)
 8001058:	6025      	str	r5, [r4, #0]
 800105a:	ee07 3a90 	vmov	s15, r3
 800105e:	ee07 3a10 	vmov	s14, r3
 8001062:	ecf1 6a01 	vldmia	r1!, {s13}
 8001066:	eeb8 7ac7 	vcvt.f32.s32	s14, s14
 800106a:	eef8 7ae7 	vcvt.f32.s32	s15, s15
 800106e:	ee37 7a26 	vadd.f32	s14, s14, s13
 8001072:	ecf2 6a01 	vldmia	r2!, {s13}
 8001076:	3301      	adds	r3, #1
 8001078:	ee77 7aa6 	vadd.f32	s15, s15, s13
 800107c:	2b14      	cmp	r3, #20
 800107e:	eebd 7ac7 	vcvt.s32.f32	s14, s14
 8001082:	eefd 7ae7 	vcvt.s32.f32	s15, s15
 8001086:	d1ec      	bne.n	8001062 <ProcessIMUData+0x52>
 8001088:	ee17 2a90 	vmov	r2, s15
 800108c:	fb92 f2f3 	sdiv	r2, r2, r3
 8001090:	ee07 2a90 	vmov	s15, r2
 8001094:	4a1e      	ldr	r2, [pc, #120]	; (8001110 <ProcessIMUData+0x100>)
 8001096:	4c1f      	ldr	r4, [pc, #124]	; (8001114 <ProcessIMUData+0x104>)
 8001098:	eef8 7ae7 	vcvt.f32.s32	s15, s15
 800109c:	ed94 8a00 	vldr	s16, [r4]
 80010a0:	edc2 7a00 	vstr	s15, [r2]
 80010a4:	ee17 2a10 	vmov	r2, s14
 80010a8:	fb92 f3f3 	sdiv	r3, r2, r3
 80010ac:	ee07 3a10 	vmov	s14, r3
 80010b0:	4b19      	ldr	r3, [pc, #100]	; (8001118 <ProcessIMUData+0x108>)
 80010b2:	eeb8 7ac7 	vcvt.f32.s32	s14, s14
 80010b6:	ee18 0a10 	vmov	r0, s16
 80010ba:	ed83 7a00 	vstr	s14, [r3]
 80010be:	f7ff fa53 	bl	8000568 <__aeabi_f2d>
 80010c2:	a30b      	add	r3, pc, #44	; (adr r3, 80010f0 <ProcessIMUData+0xe0>)
 80010c4:	e9d3 2300 	ldrd	r2, r3, [r3]
 80010c8:	f7ff fd36 	bl	8000b38 <__aeabi_dcmpgt>
 80010cc:	4623      	mov	r3, r4
 80010ce:	b138      	cbz	r0, 80010e0 <ProcessIMUData+0xd0>
 80010d0:	2200      	movs	r2, #0
 80010d2:	601a      	str	r2, [r3, #0]
 80010d4:	ecbd 8b02 	vpop	{d8}
 80010d8:	681a      	ldr	r2, [r3, #0]
 80010da:	4b10      	ldr	r3, [pc, #64]	; (800111c <ProcessIMUData+0x10c>)
 80010dc:	601a      	str	r2, [r3, #0]
 80010de:	bd38      	pop	{r3, r4, r5, pc}
 80010e0:	eeb5 8ac0 	vcmpe.f32	s16, #0.0
 80010e4:	eef1 fa10 	vmrs	APSR_nzcv, fpscr
 80010e8:	d5f4      	bpl.n	80010d4 <ProcessIMUData+0xc4>
 80010ea:	4a0d      	ldr	r2, [pc, #52]	; (8001120 <ProcessIMUData+0x110>)
 80010ec:	e7f1      	b.n	80010d2 <ProcessIMUData+0xc2>
 80010ee:	bf00      	nop
 80010f0:	66666666 	.word	0x66666666
 80010f4:	40767e66 	.word	0x40767e66
 80010f8:	2000097c 	.word	0x2000097c
 80010fc:	2000092c 	.word	0x2000092c
 8001100:	20000b58 	.word	0x20000b58
 8001104:	20000998 	.word	0x20000998
 8001108:	20001fdc 	.word	0x20001fdc
 800110c:	200009e8 	.word	0x200009e8
 8001110:	20000990 	.word	0x20000990
 8001114:	200009ec 	.word	0x200009ec
 8001118:	20000924 	.word	0x20000924
 800111c:	20000908 	.word	0x20000908
 8001120:	43b3f333 	.word	0x43b3f333

08001124 <cutterOFF>:
 8001124:	4a03      	ldr	r2, [pc, #12]	; (8001134 <cutterOFF+0x10>)
 8001126:	2300      	movs	r3, #0
 8001128:	7013      	strb	r3, [r2, #0]
 800112a:	4a03      	ldr	r2, [pc, #12]	; (8001138 <cutterOFF+0x14>)
 800112c:	6353      	str	r3, [r2, #52]	; 0x34
 800112e:	6393      	str	r3, [r2, #56]	; 0x38
 8001130:	4770      	bx	lr
 8001132:	bf00      	nop
 8001134:	20000860 	.word	0x20000860
 8001138:	40000400 	.word	0x40000400

0800113c <MotorBrake>:
 800113c:	4b06      	ldr	r3, [pc, #24]	; (8001158 <MotorBrake+0x1c>)
 800113e:	4a07      	ldr	r2, [pc, #28]	; (800115c <MotorBrake+0x20>)
 8001140:	7819      	ldrb	r1, [r3, #0]
 8001142:	7011      	strb	r1, [r2, #0]
 8001144:	2207      	movs	r2, #7
 8001146:	701a      	strb	r2, [r3, #0]
 8001148:	4b05      	ldr	r3, [pc, #20]	; (8001160 <MotorBrake+0x24>)
 800114a:	2200      	movs	r2, #0
 800114c:	635a      	str	r2, [r3, #52]	; 0x34
 800114e:	639a      	str	r2, [r3, #56]	; 0x38
 8001150:	63da      	str	r2, [r3, #60]	; 0x3c
 8001152:	641a      	str	r2, [r3, #64]	; 0x40
 8001154:	4770      	bx	lr
 8001156:	bf00      	nop
 8001158:	20000826 	.word	0x20000826
 800115c:	200003f5 	.word	0x200003f5
 8001160:	40000800 	.word	0x40000800

08001164 <MX_I2C2_Init>:
 8001164:	b508      	push	{r3, lr}
 8001166:	480a      	ldr	r0, [pc, #40]	; (8001190 <MX_I2C2_Init+0x2c>)
 8001168:	4a0a      	ldr	r2, [pc, #40]	; (8001194 <MX_I2C2_Init+0x30>)
 800116a:	4b0b      	ldr	r3, [pc, #44]	; (8001198 <MX_I2C2_Init+0x34>)
 800116c:	e9c0 2300 	strd	r2, r3, [r0]
 8001170:	2300      	movs	r3, #0
 8001172:	f44f 4280 	mov.w	r2, #16384	; 0x4000
 8001176:	e9c0 3302 	strd	r3, r3, [r0, #8]
 800117a:	e9c0 2304 	strd	r2, r3, [r0, #16]
 800117e:	e9c0 3306 	strd	r3, r3, [r0, #24]
 8001182:	6203      	str	r3, [r0, #32]
 8001184:	f004 fa46 	bl	8005614 <HAL_I2C_Init>
 8001188:	b108      	cbz	r0, 800118e <MX_I2C2_Init+0x2a>
 800118a:	b672      	cpsid	i
 800118c:	e7fe      	b.n	800118c <MX_I2C2_Init+0x28>
 800118e:	bd08      	pop	{r3, pc}
 8001190:	20000c04 	.word	0x20000c04
 8001194:	40005800 	.word	0x40005800
 8001198:	000186a0 	.word	0x000186a0
 800119c:	00000000 	.word	0x00000000

080011a0 <MotorStop>:
 80011a0:	b570      	push	{r4, r5, r6, lr}
 80011a2:	4b1d      	ldr	r3, [pc, #116]	; (8001218 <MotorStop+0x78>)
 80011a4:	4a1d      	ldr	r2, [pc, #116]	; (800121c <MotorStop+0x7c>)
 80011a6:	7819      	ldrb	r1, [r3, #0]
 80011a8:	7011      	strb	r1, [r2, #0]
 80011aa:	4c1d      	ldr	r4, [pc, #116]	; (8001220 <MotorStop+0x80>)
 80011ac:	2200      	movs	r2, #0
 80011ae:	701a      	strb	r2, [r3, #0]
 80011b0:	6b60      	ldr	r0, [r4, #52]	; 0x34
 80011b2:	6ba1      	ldr	r1, [r4, #56]	; 0x38
 80011b4:	6be2      	ldr	r2, [r4, #60]	; 0x3c
 80011b6:	6c23      	ldr	r3, [r4, #64]	; 0x40
 80011b8:	4408      	add	r0, r1
 80011ba:	4410      	add	r0, r2
 80011bc:	4418      	add	r0, r3
 80011be:	0840      	lsrs	r0, r0, #1
 80011c0:	f7ff f9c0 	bl	8000544 <__aeabi_i2d>
 80011c4:	a312      	add	r3, pc, #72	; (adr r3, 8001210 <MotorStop+0x70>)
 80011c6:	e9d3 2300 	ldrd	r2, r3, [r3]
 80011ca:	f7ff fa25 	bl	8000618 <__aeabi_dmul>
 80011ce:	f7ff fcd3 	bl	8000b78 <__aeabi_d2iz>
 80011d2:	b150      	cbz	r0, 80011ea <MotorStop+0x4a>
 80011d4:	4e13      	ldr	r6, [pc, #76]	; (8001224 <MotorStop+0x84>)
 80011d6:	1f05      	subs	r5, r0, #4
 80011d8:	f5a5 737a 	sub.w	r3, r5, #1000	; 0x3e8
 80011dc:	42b3      	cmp	r3, r6
 80011de:	d905      	bls.n	80011ec <MotorStop+0x4c>
 80011e0:	2300      	movs	r3, #0
 80011e2:	6363      	str	r3, [r4, #52]	; 0x34
 80011e4:	63a3      	str	r3, [r4, #56]	; 0x38
 80011e6:	63e3      	str	r3, [r4, #60]	; 0x3c
 80011e8:	6423      	str	r3, [r4, #64]	; 0x40
 80011ea:	bd70      	pop	{r4, r5, r6, pc}
 80011ec:	6b63      	ldr	r3, [r4, #52]	; 0x34
 80011ee:	b103      	cbz	r3, 80011f2 <MotorStop+0x52>
 80011f0:	6365      	str	r5, [r4, #52]	; 0x34
 80011f2:	6ba3      	ldr	r3, [r4, #56]	; 0x38
 80011f4:	b103      	cbz	r3, 80011f8 <MotorStop+0x58>
 80011f6:	63a5      	str	r5, [r4, #56]	; 0x38
 80011f8:	6be3      	ldr	r3, [r4, #60]	; 0x3c
 80011fa:	b103      	cbz	r3, 80011fe <MotorStop+0x5e>
 80011fc:	63e5      	str	r5, [r4, #60]	; 0x3c
 80011fe:	6c23      	ldr	r3, [r4, #64]	; 0x40
 8001200:	b103      	cbz	r3, 8001204 <MotorStop+0x64>
 8001202:	6425      	str	r5, [r4, #64]	; 0x40
 8001204:	2001      	movs	r0, #1
 8001206:	f003 f98b 	bl	8004520 <HAL_Delay>
 800120a:	3d05      	subs	r5, #5
 800120c:	e7e4      	b.n	80011d8 <MotorStop+0x38>
 800120e:	bf00      	nop
 8001210:	cccccccd 	.word	0xcccccccd
 8001214:	3feccccc 	.word	0x3feccccc
 8001218:	20000826 	.word	0x20000826
 800121c:	200003f5 	.word	0x200003f5
 8001220:	40000800 	.word	0x40000800
 8001224:	7ffffc13 	.word	0x7ffffc13

08001228 <Init6050>:
 8001228:	e92d 41f0 	stmdb	sp!, {r4, r5, r6, r7, r8, lr}
 800122c:	4d21      	ldr	r5, [pc, #132]	; (80012b4 <Init6050+0x8c>)
 800122e:	b086      	sub	sp, #24
 8001230:	2401      	movs	r4, #1
 8001232:	2632      	movs	r6, #50	; 0x32
 8001234:	f10d 0316 	add.w	r3, sp, #22
 8001238:	9300      	str	r3, [sp, #0]
 800123a:	2275      	movs	r2, #117	; 0x75
 800123c:	4623      	mov	r3, r4
 800123e:	21d0      	movs	r1, #208	; 0xd0
 8001240:	e9cd 4601 	strd	r4, r6, [sp, #4]
 8001244:	4628      	mov	r0, r5
 8001246:	f004 fd7f 	bl	8005d48 <HAL_I2C_Mem_Read>
 800124a:	f10d 0717 	add.w	r7, sp, #23
 800124e:	2014      	movs	r0, #20
 8001250:	f003 f966 	bl	8004520 <HAL_Delay>
 8001254:	f04f 0800 	mov.w	r8, #0
 8001258:	4623      	mov	r3, r4
 800125a:	226b      	movs	r2, #107	; 0x6b
 800125c:	21d0      	movs	r1, #208	; 0xd0
 800125e:	e9cd 4601 	strd	r4, r6, [sp, #4]
 8001262:	9700      	str	r7, [sp, #0]
 8001264:	4628      	mov	r0, r5
 8001266:	f88d 8017 	strb.w	r8, [sp, #23]
 800126a:	f004 fcdd 	bl	8005c28 <HAL_I2C_Mem_Write>
 800126e:	2014      	movs	r0, #20
 8001270:	f003 f956 	bl	8004520 <HAL_Delay>
 8001274:	2307      	movs	r3, #7
 8001276:	f88d 3017 	strb.w	r3, [sp, #23]
 800127a:	2219      	movs	r2, #25
 800127c:	4623      	mov	r3, r4
 800127e:	21d0      	movs	r1, #208	; 0xd0
 8001280:	e9cd 4601 	strd	r4, r6, [sp, #4]
 8001284:	9700      	str	r7, [sp, #0]
 8001286:	4628      	mov	r0, r5
 8001288:	f004 fcce 	bl	8005c28 <HAL_I2C_Mem_Write>
 800128c:	2014      	movs	r0, #20
 800128e:	f003 f947 	bl	8004520 <HAL_Delay>
 8001292:	4623      	mov	r3, r4
 8001294:	221b      	movs	r2, #27
 8001296:	21d0      	movs	r1, #208	; 0xd0
 8001298:	e9cd 4601 	strd	r4, r6, [sp, #4]
 800129c:	9700      	str	r7, [sp, #0]
 800129e:	4628      	mov	r0, r5
 80012a0:	f88d 8017 	strb.w	r8, [sp, #23]
 80012a4:	f004 fcc0 	bl	8005c28 <HAL_I2C_Mem_Write>
 80012a8:	2014      	movs	r0, #20
 80012aa:	f003 f939 	bl	8004520 <HAL_Delay>
 80012ae:	b006      	add	sp, #24
 80012b0:	e8bd 81f0 	ldmia.w	sp!, {r4, r5, r6, r7, r8, pc}
 80012b4:	20000c04 	.word	0x20000c04

080012b8 <Serial_RPi>:
 80012b8:	b507      	push	{r0, r1, r2, lr}
 80012ba:	9001      	str	r0, [sp, #4]
 80012bc:	f7fe ff92 	bl	80001e4 <strlen>
 80012c0:	9901      	ldr	r1, [sp, #4]
 80012c2:	b282      	uxth	r2, r0
 80012c4:	4803      	ldr	r0, [pc, #12]	; (80012d4 <Serial_RPi+0x1c>)
 80012c6:	2364      	movs	r3, #100	; 0x64
 80012c8:	b003      	add	sp, #12
 80012ca:	f85d eb04 	ldr.w	lr, [sp], #4
 80012ce:	f006 b8d7 	b.w	8007480 <HAL_UART_Transmit>
 80012d2:	bf00      	nop
 80012d4:	20001f90 	.word	0x20001f90

080012d8 <Serial_Console>:
 80012d8:	b507      	push	{r0, r1, r2, lr}
 80012da:	9001      	str	r0, [sp, #4]
 80012dc:	f7fe ff82 	bl	80001e4 <strlen>
 80012e0:	9901      	ldr	r1, [sp, #4]
 80012e2:	b282      	uxth	r2, r0
 80012e4:	4803      	ldr	r0, [pc, #12]	; (80012f4 <Serial_Console+0x1c>)
 80012e6:	2364      	movs	r3, #100	; 0x64
 80012e8:	b003      	add	sp, #12
 80012ea:	f85d eb04 	ldr.w	lr, [sp], #4
 80012ee:	f006 b8c7 	b.w	8007480 <HAL_UART_Transmit>
 80012f2:	bf00      	nop
 80012f4:	20001a2c 	.word	0x20001a2c

080012f8 <reInitIMU>:
 80012f8:	b570      	push	{r4, r5, r6, lr}
 80012fa:	481c      	ldr	r0, [pc, #112]	; (800136c <reInitIMU+0x74>)
 80012fc:	b086      	sub	sp, #24
 80012fe:	f7ff ffeb 	bl	80012d8 <Serial_Console>
 8001302:	2214      	movs	r2, #20
 8001304:	2100      	movs	r1, #0
 8001306:	a801      	add	r0, sp, #4
 8001308:	f006 fdf4 	bl	8007ef4 <memset>
 800130c:	4818      	ldr	r0, [pc, #96]	; (8001370 <reInitIMU+0x78>)
 800130e:	f004 fa29 	bl	8005764 <HAL_I2C_DeInit>
 8001312:	4818      	ldr	r0, [pc, #96]	; (8001374 <reInitIMU+0x7c>)
 8001314:	2200      	movs	r2, #0
 8001316:	f44f 6180 	mov.w	r1, #1024	; 0x400
 800131a:	f003 ff99 	bl	8005250 <HAL_GPIO_WritePin>
 800131e:	2200      	movs	r2, #0
 8001320:	4814      	ldr	r0, [pc, #80]	; (8001374 <reInitIMU+0x7c>)
 8001322:	f44f 6100 	mov.w	r1, #2048	; 0x800
 8001326:	f003 ff93 	bl	8005250 <HAL_GPIO_WritePin>
 800132a:	2401      	movs	r4, #1
 800132c:	f44f 6380 	mov.w	r3, #1024	; 0x400
 8001330:	2602      	movs	r6, #2
 8001332:	2500      	movs	r5, #0
 8001334:	a901      	add	r1, sp, #4
 8001336:	480f      	ldr	r0, [pc, #60]	; (8001374 <reInitIMU+0x7c>)
 8001338:	e9cd 3401 	strd	r3, r4, [sp, #4]
 800133c:	e9cd 6503 	strd	r6, r5, [sp, #12]
 8001340:	f003 fe10 	bl	8004f64 <HAL_GPIO_Init>
 8001344:	f44f 6300 	mov.w	r3, #2048	; 0x800
 8001348:	a901      	add	r1, sp, #4
 800134a:	480a      	ldr	r0, [pc, #40]	; (8001374 <reInitIMU+0x7c>)
 800134c:	e9cd 3401 	strd	r3, r4, [sp, #4]
 8001350:	e9cd 6503 	strd	r6, r5, [sp, #12]
 8001354:	f003 fe06 	bl	8004f64 <HAL_GPIO_Init>
 8001358:	4620      	mov	r0, r4
 800135a:	f003 f8e1 	bl	8004520 <HAL_Delay>
 800135e:	f7ff ff01 	bl	8001164 <MX_I2C2_Init>
 8001362:	f7ff ff61 	bl	8001228 <Init6050>
 8001366:	b006      	add	sp, #24
 8001368:	bd70      	pop	{r4, r5, r6, pc}
 800136a:	bf00      	nop
 800136c:	0800d5b4 	.word	0x0800d5b4
 8001370:	20000c04 	.word	0x20000c04
 8001374:	40020400 	.word	0x40020400

08001378 <MPU6050_Read_Gyro>:
 8001378:	b570      	push	{r4, r5, r6, lr}
 800137a:	ed2d 8b02 	vpush	{d8}
 800137e:	2306      	movs	r3, #6
 8001380:	b086      	sub	sp, #24
 8001382:	2232      	movs	r2, #50	; 0x32
 8001384:	e9cd 3201 	strd	r3, r2, [sp, #4]
 8001388:	ab04      	add	r3, sp, #16
 800138a:	9300      	str	r3, [sp, #0]
 800138c:	4848      	ldr	r0, [pc, #288]	; (80014b0 <MPU6050_Read_Gyro+0x138>)
 800138e:	2301      	movs	r3, #1
 8001390:	2243      	movs	r2, #67	; 0x43
 8001392:	21d0      	movs	r1, #208	; 0xd0
 8001394:	f004 fcd8 	bl	8005d48 <HAL_I2C_Mem_Read>
 8001398:	b128      	cbz	r0, 80013a6 <MPU6050_Read_Gyro+0x2e>
 800139a:	f7ff ffad 	bl	80012f8 <reInitIMU>
 800139e:	b006      	add	sp, #24
 80013a0:	ecbd 8b02 	vpop	{d8}
 80013a4:	bd70      	pop	{r4, r5, r6, pc}
 80013a6:	f89d 3010 	ldrb.w	r3, [sp, #16]
 80013aa:	f89d 0011 	ldrb.w	r0, [sp, #17]
 80013ae:	f89d 5013 	ldrb.w	r5, [sp, #19]
 80013b2:	f89d 4015 	ldrb.w	r4, [sp, #21]
 80013b6:	ea40 2003 	orr.w	r0, r0, r3, lsl #8
 80013ba:	4b3e      	ldr	r3, [pc, #248]	; (80014b4 <MPU6050_Read_Gyro+0x13c>)
 80013bc:	b200      	sxth	r0, r0
 80013be:	8018      	strh	r0, [r3, #0]
 80013c0:	f89d 3012 	ldrb.w	r3, [sp, #18]
 80013c4:	ea45 2503 	orr.w	r5, r5, r3, lsl #8
 80013c8:	4b3b      	ldr	r3, [pc, #236]	; (80014b8 <MPU6050_Read_Gyro+0x140>)
 80013ca:	b22d      	sxth	r5, r5
 80013cc:	801d      	strh	r5, [r3, #0]
 80013ce:	f89d 3014 	ldrb.w	r3, [sp, #20]
 80013d2:	ea44 2403 	orr.w	r4, r4, r3, lsl #8
 80013d6:	4b39      	ldr	r3, [pc, #228]	; (80014bc <MPU6050_Read_Gyro+0x144>)
 80013d8:	b224      	sxth	r4, r4
 80013da:	801c      	strh	r4, [r3, #0]
 80013dc:	f7ff f8b2 	bl	8000544 <__aeabi_i2d>
 80013e0:	a32f      	add	r3, pc, #188	; (adr r3, 80014a0 <MPU6050_Read_Gyro+0x128>)
 80013e2:	e9d3 2300 	ldrd	r2, r3, [r3]
 80013e6:	f7ff fa41 	bl	800086c <__aeabi_ddiv>
 80013ea:	f7ff fc0d 	bl	8000c08 <__aeabi_d2f>
 80013ee:	4b34      	ldr	r3, [pc, #208]	; (80014c0 <MPU6050_Read_Gyro+0x148>)
 80013f0:	6018      	str	r0, [r3, #0]
 80013f2:	4628      	mov	r0, r5
 80013f4:	f7ff f8a6 	bl	8000544 <__aeabi_i2d>
 80013f8:	a329      	add	r3, pc, #164	; (adr r3, 80014a0 <MPU6050_Read_Gyro+0x128>)
 80013fa:	e9d3 2300 	ldrd	r2, r3, [r3]
 80013fe:	f7ff fa35 	bl	800086c <__aeabi_ddiv>
 8001402:	f7ff fc01 	bl	8000c08 <__aeabi_d2f>
 8001406:	4b2f      	ldr	r3, [pc, #188]	; (80014c4 <MPU6050_Read_Gyro+0x14c>)
 8001408:	6018      	str	r0, [r3, #0]
 800140a:	4620      	mov	r0, r4
 800140c:	f7ff f89a 	bl	8000544 <__aeabi_i2d>
 8001410:	a323      	add	r3, pc, #140	; (adr r3, 80014a0 <MPU6050_Read_Gyro+0x128>)
 8001412:	e9d3 2300 	ldrd	r2, r3, [r3]
 8001416:	f7ff fa29 	bl	800086c <__aeabi_ddiv>
 800141a:	f7ff fbf5 	bl	8000c08 <__aeabi_d2f>
 800141e:	4b2a      	ldr	r3, [pc, #168]	; (80014c8 <MPU6050_Read_Gyro+0x150>)
 8001420:	781a      	ldrb	r2, [r3, #0]
 8001422:	4b2a      	ldr	r3, [pc, #168]	; (80014cc <MPU6050_Read_Gyro+0x154>)
 8001424:	ee08 0a10 	vmov	s16, r0
 8001428:	b952      	cbnz	r2, 8001440 <MPU6050_Read_Gyro+0xc8>
 800142a:	eef0 7ac8 	vabs.f32	s15, s16
 800142e:	eeb7 7a00 	vmov.f32	s14, #112	; 0x3f800000  1.0
 8001432:	eef4 7ac7 	vcmpe.f32	s15, s14
 8001436:	eef1 fa10 	vmrs	APSR_nzcv, fpscr
 800143a:	bf48      	it	mi
 800143c:	edc3 7a00 	vstrmi	s15, [r3]
 8001440:	edd3 7a00 	vldr	s15, [r3]
 8001444:	4b22      	ldr	r3, [pc, #136]	; (80014d0 <MPU6050_Read_Gyro+0x158>)
 8001446:	ee38 8a27 	vadd.f32	s16, s16, s15
 800144a:	eeff 7a00 	vmov.f32	s15, #240	; 0xbf800000 -1.0
 800144e:	eeb4 8ae7 	vcmpe.f32	s16, s15
 8001452:	eef1 fa10 	vmrs	APSR_nzcv, fpscr
 8001456:	ed83 8a00 	vstr	s16, [r3]
 800145a:	d406      	bmi.n	800146a <MPU6050_Read_Gyro+0xf2>
 800145c:	eef7 7a00 	vmov.f32	s15, #112	; 0x3f800000  1.0
 8001460:	eeb4 8ae7 	vcmpe.f32	s16, s15
 8001464:	eef1 fa10 	vmrs	APSR_nzcv, fpscr
 8001468:	dd99      	ble.n	800139e <MPU6050_Read_Gyro+0x26>
 800146a:	4e1a      	ldr	r6, [pc, #104]	; (80014d4 <MPU6050_Read_Gyro+0x15c>)
 800146c:	6830      	ldr	r0, [r6, #0]
 800146e:	f7ff f87b 	bl	8000568 <__aeabi_f2d>
 8001472:	4604      	mov	r4, r0
 8001474:	ee18 0a10 	vmov	r0, s16
 8001478:	460d      	mov	r5, r1
 800147a:	f7ff f875 	bl	8000568 <__aeabi_f2d>
 800147e:	a30a      	add	r3, pc, #40	; (adr r3, 80014a8 <MPU6050_Read_Gyro+0x130>)
 8001480:	e9d3 2300 	ldrd	r2, r3, [r3]
 8001484:	f7ff f8c8 	bl	8000618 <__aeabi_dmul>
 8001488:	4602      	mov	r2, r0
 800148a:	460b      	mov	r3, r1
 800148c:	4620      	mov	r0, r4
 800148e:	4629      	mov	r1, r5
 8001490:	f7fe ff0a 	bl	80002a8 <__aeabi_dsub>
 8001494:	f7ff fbb8 	bl	8000c08 <__aeabi_d2f>
 8001498:	6030      	str	r0, [r6, #0]
 800149a:	e780      	b.n	800139e <MPU6050_Read_Gyro+0x26>
 800149c:	f3af 8000 	nop.w
 80014a0:	00000000 	.word	0x00000000
 80014a4:	40606000 	.word	0x40606000
 80014a8:	47ae147b 	.word	0x47ae147b
 80014ac:	3f947ae1 	.word	0x3f947ae1
 80014b0:	20000c04 	.word	0x20000c04
 80014b4:	200003ea 	.word	0x200003ea
 80014b8:	200003ec 	.word	0x200003ec
 80014bc:	200003ee 	.word	0x200003ee
 80014c0:	20000a50 	.word	0x20000a50
 80014c4:	20001180 	.word	0x20001180
 80014c8:	200003f4 	.word	0x200003f4
 80014cc:	200009f0 	.word	0x200009f0
 80014d0:	20001fd8 	.word	0x20001fd8
 80014d4:	200009ec 	.word	0x200009ec

080014d8 <rnd>:
 80014d8:	b510      	push	{r4, lr}
 80014da:	4604      	mov	r4, r0
 80014dc:	4803      	ldr	r0, [pc, #12]	; (80014ec <rnd+0x14>)
 80014de:	f005 f8db 	bl	8006698 <HAL_RNG_GetRandomNumber>
 80014e2:	fbb0 f3f4 	udiv	r3, r0, r4
 80014e6:	fb03 0014 	mls	r0, r3, r4, r0
 80014ea:	bd10      	pop	{r4, pc}
 80014ec:	20001f34 	.word	0x20001f34

080014f0 <ADC_Send>:
 80014f0:	b57f      	push	{r0, r1, r2, r3, r4, r5, r6, lr}
 80014f2:	4c0e      	ldr	r4, [pc, #56]	; (800152c <ADC_Send+0x3c>)
 80014f4:	f88d 0009 	strb.w	r0, [sp, #9]
 80014f8:	2664      	movs	r6, #100	; 0x64
 80014fa:	2383      	movs	r3, #131	; 0x83
 80014fc:	2501      	movs	r5, #1
 80014fe:	f88d 300a 	strb.w	r3, [sp, #10]
 8001502:	aa02      	add	r2, sp, #8
 8001504:	9600      	str	r6, [sp, #0]
 8001506:	2303      	movs	r3, #3
 8001508:	2190      	movs	r1, #144	; 0x90
 800150a:	4620      	mov	r0, r4
 800150c:	f88d 5008 	strb.w	r5, [sp, #8]
 8001510:	f004 f942 	bl	8005798 <HAL_I2C_Master_Transmit>
 8001514:	2300      	movs	r3, #0
 8001516:	f88d 3008 	strb.w	r3, [sp, #8]
 800151a:	9600      	str	r6, [sp, #0]
 800151c:	462b      	mov	r3, r5
 800151e:	aa02      	add	r2, sp, #8
 8001520:	2190      	movs	r1, #144	; 0x90
 8001522:	4620      	mov	r0, r4
 8001524:	f004 f938 	bl	8005798 <HAL_I2C_Master_Transmit>
 8001528:	b004      	add	sp, #16
 800152a:	bd70      	pop	{r4, r5, r6, pc}
 800152c:	20000ba4 	.word	0x20000ba4

08001530 <CheckSecurity>:
 8001530:	e92d 47f0 	stmdb	sp!, {r4, r5, r6, r7, r8, r9, sl, lr}
 8001534:	ed2d 8b06 	vpush	{d8-d10}
 8001538:	2100      	movs	r1, #0
 800153a:	489f      	ldr	r0, [pc, #636]	; (80017b8 <CheckSecurity+0x288>)
 800153c:	4c9f      	ldr	r4, [pc, #636]	; (80017bc <CheckSecurity+0x28c>)
 800153e:	4da0      	ldr	r5, [pc, #640]	; (80017c0 <CheckSecurity+0x290>)
 8001540:	460a      	mov	r2, r1
 8001542:	f930 3b02 	ldrsh.w	r3, [r0], #2
 8001546:	f2a3 43f3 	subw	r3, r3, #1267	; 0x4f3
 800154a:	ee07 3a90 	vmov	s15, r3
 800154e:	f012 0f01 	tst.w	r2, #1
 8001552:	ea4f 0381 	mov.w	r3, r1, lsl #2
 8001556:	eef8 7ae7 	vcvt.f32.s32	s15, s15
 800155a:	bf14      	ite	ne
 800155c:	195b      	addne	r3, r3, r5
 800155e:	191b      	addeq	r3, r3, r4
 8001560:	f102 0201 	add.w	r2, r2, #1
 8001564:	bf1a      	itte	ne
 8001566:	edc3 7a00 	vstrne	s15, [r3]
 800156a:	3101      	addne	r1, #1
 800156c:	edc3 7a00 	vstreq	s15, [r3]
 8001570:	f5b2 7f00 	cmp.w	r2, #512	; 0x200
 8001574:	d1e5      	bne.n	8001542 <CheckSecurity+0x12>
 8001576:	4e93      	ldr	r6, [pc, #588]	; (80017c4 <CheckSecurity+0x294>)
 8001578:	2400      	movs	r4, #0
 800157a:	4d90      	ldr	r5, [pc, #576]	; (80017bc <CheckSecurity+0x28c>)
 800157c:	4f92      	ldr	r7, [pc, #584]	; (80017c8 <CheckSecurity+0x298>)
 800157e:	1961      	adds	r1, r4, r5
 8001580:	19e2      	adds	r2, r4, r7
 8001582:	2320      	movs	r3, #32
 8001584:	4630      	mov	r0, r6
 8001586:	3480      	adds	r4, #128	; 0x80
 8001588:	f006 fa18 	bl	80079bc <arm_fir_f32>
 800158c:	f5b4 6f80 	cmp.w	r4, #1024	; 0x400
 8001590:	d1f3      	bne.n	800157a <CheckSecurity+0x4a>
 8001592:	462b      	mov	r3, r5
 8001594:	463a      	mov	r2, r7
 8001596:	f44f 7480 	mov.w	r4, #256	; 0x100
 800159a:	f852 1b04 	ldr.w	r1, [r2], #4
 800159e:	f843 1b04 	str.w	r1, [r3], #4
 80015a2:	3c01      	subs	r4, #1
 80015a4:	d1f9      	bne.n	800159a <CheckSecurity+0x6a>
 80015a6:	f8df 821c 	ldr.w	r8, [pc, #540]	; 80017c4 <CheckSecurity+0x294>
 80015aa:	4e85      	ldr	r6, [pc, #532]	; (80017c0 <CheckSecurity+0x290>)
 80015ac:	19e2      	adds	r2, r4, r7
 80015ae:	19a1      	adds	r1, r4, r6
 80015b0:	2320      	movs	r3, #32
 80015b2:	4640      	mov	r0, r8
 80015b4:	3480      	adds	r4, #128	; 0x80
 80015b6:	f006 fa01 	bl	80079bc <arm_fir_f32>
 80015ba:	f5b4 6f80 	cmp.w	r4, #1024	; 0x400
 80015be:	d1f4      	bne.n	80015aa <CheckSecurity+0x7a>
 80015c0:	4633      	mov	r3, r6
 80015c2:	f44f 7480 	mov.w	r4, #256	; 0x100
 80015c6:	f857 2b04 	ldr.w	r2, [r7], #4
 80015ca:	f843 2b04 	str.w	r2, [r3], #4
 80015ce:	3c01      	subs	r4, #1
 80015d0:	d1f9      	bne.n	80015c6 <CheckSecurity+0x96>
 80015d2:	4b7e      	ldr	r3, [pc, #504]	; (80017cc <CheckSecurity+0x29c>)
 80015d4:	781a      	ldrb	r2, [r3, #0]
 80015d6:	2a01      	cmp	r2, #1
 80015d8:	461a      	mov	r2, r3
 80015da:	d10b      	bne.n	80015f4 <CheckSecurity+0xc4>
 80015dc:	497c      	ldr	r1, [pc, #496]	; (80017d0 <CheckSecurity+0x2a0>)
 80015de:	4628      	mov	r0, r5
 80015e0:	2360      	movs	r3, #96	; 0x60
 80015e2:	3b01      	subs	r3, #1
 80015e4:	f850 7b04 	ldr.w	r7, [r0], #4
 80015e8:	f841 7b04 	str.w	r7, [r1], #4
 80015ec:	f013 03ff 	ands.w	r3, r3, #255	; 0xff
 80015f0:	d1f7      	bne.n	80015e2 <CheckSecurity+0xb2>
 80015f2:	7013      	strb	r3, [r2, #0]
 80015f4:	4f77      	ldr	r7, [pc, #476]	; (80017d4 <CheckSecurity+0x2a4>)
 80015f6:	f8df 8218 	ldr.w	r8, [pc, #536]	; 8001810 <CheckSecurity+0x2e0>
 80015fa:	46b9      	mov	r9, r7
 80015fc:	ed9f 8a76 	vldr	s16, [pc, #472]	; 80017d8 <CheckSecurity+0x2a8>
 8001600:	4a73      	ldr	r2, [pc, #460]	; (80017d0 <CheckSecurity+0x2a0>)
 8001602:	4631      	mov	r1, r6
 8001604:	462b      	mov	r3, r5
 8001606:	f04f 0a60 	mov.w	sl, #96	; 0x60
 800160a:	eeb0 9a48 	vmov.f32	s18, s16
 800160e:	eef0 8a48 	vmov.f32	s17, s16
 8001612:	eeb0 0a48 	vmov.f32	s0, s16
 8001616:	eef0 9a48 	vmov.f32	s19, s16
 800161a:	f1ba 0a01 	subs.w	sl, sl, #1
 800161e:	d173      	bne.n	8001708 <CheckSecurity+0x1d8>
 8001620:	ee20 0a08 	vmul.f32	s0, s0, s16
 8001624:	f00b fd12 	bl	800d04c <sqrtf>
 8001628:	ee89 aa80 	vdiv.f32	s20, s19, s0
 800162c:	ee29 0a08 	vmul.f32	s0, s18, s16
 8001630:	f00b fd0c 	bl	800d04c <sqrtf>
 8001634:	edd7 7a00 	vldr	s15, [r7]
 8001638:	eeb4 aae7 	vcmpe.f32	s20, s15
 800163c:	eef1 fa10 	vmrs	APSR_nzcv, fpscr
 8001640:	ee88 8a80 	vdiv.f32	s16, s17, s0
 8001644:	db71      	blt.n	800172a <CheckSecurity+0x1fa>
 8001646:	4b65      	ldr	r3, [pc, #404]	; (80017dc <CheckSecurity+0x2ac>)
 8001648:	f04f 0a01 	mov.w	sl, #1
 800164c:	f883 a000 	strb.w	sl, [r3]
 8001650:	f002 ff60 	bl	8004514 <HAL_GetTick>
 8001654:	4b62      	ldr	r3, [pc, #392]	; (80017e0 <CheckSecurity+0x2b0>)
 8001656:	4a63      	ldr	r2, [pc, #396]	; (80017e4 <CheckSecurity+0x2b4>)
 8001658:	6018      	str	r0, [r3, #0]
 800165a:	7813      	ldrb	r3, [r2, #0]
 800165c:	b953      	cbnz	r3, 8001674 <CheckSecurity+0x144>
 800165e:	4962      	ldr	r1, [pc, #392]	; (80017e8 <CheckSecurity+0x2b8>)
 8001660:	880b      	ldrh	r3, [r1, #0]
 8001662:	4453      	add	r3, sl
 8001664:	b29b      	uxth	r3, r3
 8001666:	800b      	strh	r3, [r1, #0]
 8001668:	f242 710f 	movw	r1, #9999	; 0x270f
 800166c:	428b      	cmp	r3, r1
 800166e:	bf88      	it	hi
 8001670:	f882 a000 	strbhi.w	sl, [r2]
 8001674:	4a5d      	ldr	r2, [pc, #372]	; (80017ec <CheckSecurity+0x2bc>)
 8001676:	6813      	ldr	r3, [r2, #0]
 8001678:	3301      	adds	r3, #1
 800167a:	6013      	str	r3, [r2, #0]
 800167c:	edd9 7a00 	vldr	s15, [r9]
 8001680:	eeb4 8ae7 	vcmpe.f32	s16, s15
 8001684:	eef1 fa10 	vmrs	APSR_nzcv, fpscr
 8001688:	db65      	blt.n	8001756 <CheckSecurity+0x226>
 800168a:	4b59      	ldr	r3, [pc, #356]	; (80017f0 <CheckSecurity+0x2c0>)
 800168c:	f04f 0a01 	mov.w	sl, #1
 8001690:	f883 a000 	strb.w	sl, [r3]
 8001694:	f002 ff3e 	bl	8004514 <HAL_GetTick>
 8001698:	4b51      	ldr	r3, [pc, #324]	; (80017e0 <CheckSecurity+0x2b0>)
 800169a:	4a52      	ldr	r2, [pc, #328]	; (80017e4 <CheckSecurity+0x2b4>)
 800169c:	6018      	str	r0, [r3, #0]
 800169e:	7813      	ldrb	r3, [r2, #0]
 80016a0:	b953      	cbnz	r3, 80016b8 <CheckSecurity+0x188>
 80016a2:	4951      	ldr	r1, [pc, #324]	; (80017e8 <CheckSecurity+0x2b8>)
 80016a4:	880b      	ldrh	r3, [r1, #0]
 80016a6:	4453      	add	r3, sl
 80016a8:	b29b      	uxth	r3, r3
 80016aa:	800b      	strh	r3, [r1, #0]
 80016ac:	f242 710f 	movw	r1, #9999	; 0x270f
 80016b0:	428b      	cmp	r3, r1
 80016b2:	bf88      	it	hi
 80016b4:	f882 a000 	strbhi.w	sl, [r2]
 80016b8:	4a4e      	ldr	r2, [pc, #312]	; (80017f4 <CheckSecurity+0x2c4>)
 80016ba:	6813      	ldr	r3, [r2, #0]
 80016bc:	3301      	adds	r3, #1
 80016be:	6013      	str	r3, [r2, #0]
 80016c0:	2301      	movs	r3, #1
 80016c2:	2c5f      	cmp	r4, #95	; 0x5f
 80016c4:	d004      	beq.n	80016d0 <CheckSecurity+0x1a0>
 80016c6:	3401      	adds	r4, #1
 80016c8:	3504      	adds	r5, #4
 80016ca:	3604      	adds	r6, #4
 80016cc:	2b00      	cmp	r3, #0
 80016ce:	d095      	beq.n	80015fc <CheckSecurity+0xcc>
 80016d0:	f002 ff20 	bl	8004514 <HAL_GetTick>
 80016d4:	4b42      	ldr	r3, [pc, #264]	; (80017e0 <CheckSecurity+0x2b0>)
 80016d6:	681b      	ldr	r3, [r3, #0]
 80016d8:	1ac0      	subs	r0, r0, r3
 80016da:	4b47      	ldr	r3, [pc, #284]	; (80017f8 <CheckSecurity+0x2c8>)
 80016dc:	781a      	ldrb	r2, [r3, #0]
 80016de:	f44f 737a 	mov.w	r3, #1000	; 0x3e8
 80016e2:	4353      	muls	r3, r2
 80016e4:	4298      	cmp	r0, r3
 80016e6:	4a3d      	ldr	r2, [pc, #244]	; (80017dc <CheckSecurity+0x2ac>)
 80016e8:	d34c      	bcc.n	8001784 <CheckSecurity+0x254>
 80016ea:	2300      	movs	r3, #0
 80016ec:	7013      	strb	r3, [r2, #0]
 80016ee:	4a40      	ldr	r2, [pc, #256]	; (80017f0 <CheckSecurity+0x2c0>)
 80016f0:	7013      	strb	r3, [r2, #0]
 80016f2:	4a42      	ldr	r2, [pc, #264]	; (80017fc <CheckSecurity+0x2cc>)
 80016f4:	2106      	movs	r1, #6
 80016f6:	7011      	strb	r1, [r2, #0]
 80016f8:	4a41      	ldr	r2, [pc, #260]	; (8001800 <CheckSecurity+0x2d0>)
 80016fa:	2402      	movs	r4, #2
 80016fc:	7013      	strb	r3, [r2, #0]
 80016fe:	ecbd 8b06 	vpop	{d8-d10}
 8001702:	4620      	mov	r0, r4
 8001704:	e8bd 87f0 	ldmia.w	sp!, {r4, r5, r6, r7, r8, r9, sl, pc}
 8001708:	ecb3 7a01 	vldmia	r3!, {s14}
 800170c:	ecf2 7a01 	vldmia	r2!, {s15}
 8001710:	eea7 0a07 	vfma.f32	s0, s14, s14
 8001714:	eee7 9a27 	vfma.f32	s19, s14, s15
 8001718:	ecb1 7a01 	vldmia	r1!, {s14}
 800171c:	eea7 8aa7 	vfma.f32	s16, s15, s15
 8001720:	eee7 8a87 	vfma.f32	s17, s15, s14
 8001724:	eea7 9a07 	vfma.f32	s18, s14, s14
 8001728:	e777      	b.n	800161a <CheckSecurity+0xea>
 800172a:	edd8 7a00 	vldr	s15, [r8]
 800172e:	eeb4 aae7 	vcmpe.f32	s20, s15
 8001732:	eef1 fa10 	vmrs	APSR_nzcv, fpscr
 8001736:	d8a1      	bhi.n	800167c <CheckSecurity+0x14c>
 8001738:	4b28      	ldr	r3, [pc, #160]	; (80017dc <CheckSecurity+0x2ac>)
 800173a:	2202      	movs	r2, #2
 800173c:	701a      	strb	r2, [r3, #0]
 800173e:	f002 fee9 	bl	8004514 <HAL_GetTick>
 8001742:	4b27      	ldr	r3, [pc, #156]	; (80017e0 <CheckSecurity+0x2b0>)
 8001744:	6018      	str	r0, [r3, #0]
 8001746:	4b27      	ldr	r3, [pc, #156]	; (80017e4 <CheckSecurity+0x2b4>)
 8001748:	781b      	ldrb	r3, [r3, #0]
 800174a:	b913      	cbnz	r3, 8001752 <CheckSecurity+0x222>
 800174c:	4b26      	ldr	r3, [pc, #152]	; (80017e8 <CheckSecurity+0x2b8>)
 800174e:	f8a3 a000 	strh.w	sl, [r3]
 8001752:	4a2c      	ldr	r2, [pc, #176]	; (8001804 <CheckSecurity+0x2d4>)
 8001754:	e78f      	b.n	8001676 <CheckSecurity+0x146>
 8001756:	edd8 7a00 	vldr	s15, [r8]
 800175a:	eeb4 8ae7 	vcmpe.f32	s16, s15
 800175e:	eef1 fa10 	vmrs	APSR_nzcv, fpscr
 8001762:	d80d      	bhi.n	8001780 <CheckSecurity+0x250>
 8001764:	4b22      	ldr	r3, [pc, #136]	; (80017f0 <CheckSecurity+0x2c0>)
 8001766:	2202      	movs	r2, #2
 8001768:	701a      	strb	r2, [r3, #0]
 800176a:	f002 fed3 	bl	8004514 <HAL_GetTick>
 800176e:	4b1c      	ldr	r3, [pc, #112]	; (80017e0 <CheckSecurity+0x2b0>)
 8001770:	6018      	str	r0, [r3, #0]
 8001772:	4b1c      	ldr	r3, [pc, #112]	; (80017e4 <CheckSecurity+0x2b4>)
 8001774:	781b      	ldrb	r3, [r3, #0]
 8001776:	b90b      	cbnz	r3, 800177c <CheckSecurity+0x24c>
 8001778:	4a1b      	ldr	r2, [pc, #108]	; (80017e8 <CheckSecurity+0x2b8>)
 800177a:	8013      	strh	r3, [r2, #0]
 800177c:	4a22      	ldr	r2, [pc, #136]	; (8001808 <CheckSecurity+0x2d8>)
 800177e:	e79c      	b.n	80016ba <CheckSecurity+0x18a>
 8001780:	2300      	movs	r3, #0
 8001782:	e79e      	b.n	80016c2 <CheckSecurity+0x192>
 8001784:	7813      	ldrb	r3, [r2, #0]
 8001786:	2b01      	cmp	r3, #1
 8001788:	d10a      	bne.n	80017a0 <CheckSecurity+0x270>
 800178a:	4b19      	ldr	r3, [pc, #100]	; (80017f0 <CheckSecurity+0x2c0>)
 800178c:	781c      	ldrb	r4, [r3, #0]
 800178e:	2c01      	cmp	r4, #1
 8001790:	d108      	bne.n	80017a4 <CheckSecurity+0x274>
 8001792:	4b1b      	ldr	r3, [pc, #108]	; (8001800 <CheckSecurity+0x2d0>)
 8001794:	701c      	strb	r4, [r3, #0]
 8001796:	f002 febd 	bl	8004514 <HAL_GetTick>
 800179a:	4b1c      	ldr	r3, [pc, #112]	; (800180c <CheckSecurity+0x2dc>)
 800179c:	6018      	str	r0, [r3, #0]
 800179e:	e7ae      	b.n	80016fe <CheckSecurity+0x1ce>
 80017a0:	2b02      	cmp	r3, #2
 80017a2:	d003      	beq.n	80017ac <CheckSecurity+0x27c>
 80017a4:	4b12      	ldr	r3, [pc, #72]	; (80017f0 <CheckSecurity+0x2c0>)
 80017a6:	781b      	ldrb	r3, [r3, #0]
 80017a8:	2b02      	cmp	r3, #2
 80017aa:	d102      	bne.n	80017b2 <CheckSecurity+0x282>
 80017ac:	4b14      	ldr	r3, [pc, #80]	; (8001800 <CheckSecurity+0x2d0>)
 80017ae:	2202      	movs	r2, #2
 80017b0:	701a      	strb	r2, [r3, #0]
 80017b2:	2400      	movs	r4, #0
 80017b4:	e7a3      	b.n	80016fe <CheckSecurity+0x1ce>
 80017b6:	bf00      	nop
 80017b8:	200011cc 	.word	0x200011cc
 80017bc:	20001af4 	.word	0x20001af4
 80017c0:	20000c9c 	.word	0x20000c9c
 80017c4:	20001128 	.word	0x20001128
 80017c8:	20000420 	.word	0x20000420
 80017cc:	20000822 	.word	0x20000822
 80017d0:	20000040 	.word	0x20000040
 80017d4:	20000014 	.word	0x20000014
 80017d8:	00000000 	.word	0x00000000
 80017dc:	200003d2 	.word	0x200003d2
 80017e0:	20001124 	.word	0x20001124
 80017e4:	200003f4 	.word	0x200003f4
 80017e8:	20000824 	.word	0x20000824
 80017ec:	20000848 	.word	0x20000848
 80017f0:	200003d3 	.word	0x200003d3
 80017f4:	20000850 	.word	0x20000850
 80017f8:	20000000 	.word	0x20000000
 80017fc:	20000826 	.word	0x20000826
 8001800:	20000820 	.word	0x20000820
 8001804:	2000084c 	.word	0x2000084c
 8001808:	20000854 	.word	0x20000854
 800180c:	2000041c 	.word	0x2000041c
 8001810:	20000018 	.word	0x20000018

08001814 <MotorRight.constprop.0>:
 8001814:	b5f8      	push	{r3, r4, r5, r6, r7, lr}
 8001816:	4b10      	ldr	r3, [pc, #64]	; (8001858 <MotorRight.constprop.0+0x44>)
 8001818:	4d10      	ldr	r5, [pc, #64]	; (800185c <MotorRight.constprop.0+0x48>)
 800181a:	2204      	movs	r2, #4
 800181c:	2400      	movs	r4, #0
 800181e:	4606      	mov	r6, r0
 8001820:	701a      	strb	r2, [r3, #0]
 8001822:	4627      	mov	r7, r4
 8001824:	00a3      	lsls	r3, r4, #2
 8001826:	f203 73d3 	addw	r3, r3, #2003	; 0x7d3
 800182a:	636f      	str	r7, [r5, #52]	; 0x34
 800182c:	2001      	movs	r0, #1
 800182e:	63ab      	str	r3, [r5, #56]	; 0x38
 8001830:	3401      	adds	r4, #1
 8001832:	63ef      	str	r7, [r5, #60]	; 0x3c
 8001834:	642b      	str	r3, [r5, #64]	; 0x40
 8001836:	f002 fe73 	bl	8004520 <HAL_Delay>
 800183a:	f7ff fe79 	bl	8001530 <CheckSecurity>
 800183e:	b2a3      	uxth	r3, r4
 8001840:	429e      	cmp	r6, r3
 8001842:	d803      	bhi.n	800184c <MotorRight.constprop.0+0x38>
 8001844:	e8bd 40f8 	ldmia.w	sp!, {r3, r4, r5, r6, r7, lr}
 8001848:	f7ff bcaa 	b.w	80011a0 <MotorStop>
 800184c:	f240 1353 	movw	r3, #339	; 0x153
 8001850:	429c      	cmp	r4, r3
 8001852:	d1e7      	bne.n	8001824 <MotorRight.constprop.0+0x10>
 8001854:	e7f6      	b.n	8001844 <MotorRight.constprop.0+0x30>
 8001856:	bf00      	nop
 8001858:	20000826 	.word	0x20000826
 800185c:	40000800 	.word	0x40000800

08001860 <MotorBackward.constprop.0>:
 8001860:	4b0c      	ldr	r3, [pc, #48]	; (8001894 <MotorBackward.constprop.0+0x34>)
 8001862:	b570      	push	{r4, r5, r6, lr}
 8001864:	2202      	movs	r2, #2
 8001866:	4d0c      	ldr	r5, [pc, #48]	; (8001898 <MotorBackward.constprop.0+0x38>)
 8001868:	701a      	strb	r2, [r3, #0]
 800186a:	f240 74d3 	movw	r4, #2003	; 0x7d3
 800186e:	2600      	movs	r6, #0
 8001870:	636c      	str	r4, [r5, #52]	; 0x34
 8001872:	2001      	movs	r0, #1
 8001874:	63ae      	str	r6, [r5, #56]	; 0x38
 8001876:	63ee      	str	r6, [r5, #60]	; 0x3c
 8001878:	642c      	str	r4, [r5, #64]	; 0x40
 800187a:	f002 fe51 	bl	8004520 <HAL_Delay>
 800187e:	3404      	adds	r4, #4
 8001880:	f7ff fe56 	bl	8001530 <CheckSecurity>
 8001884:	f640 531f 	movw	r3, #3359	; 0xd1f
 8001888:	429c      	cmp	r4, r3
 800188a:	d1f1      	bne.n	8001870 <MotorBackward.constprop.0+0x10>
 800188c:	e8bd 4070 	ldmia.w	sp!, {r4, r5, r6, lr}
 8001890:	f7ff bc86 	b.w	80011a0 <MotorStop>
 8001894:	20000826 	.word	0x20000826
 8001898:	40000800 	.word	0x40000800

0800189c <MotorLeft.constprop.0>:
 800189c:	b5f8      	push	{r3, r4, r5, r6, r7, lr}
 800189e:	4b10      	ldr	r3, [pc, #64]	; (80018e0 <MotorLeft.constprop.0+0x44>)
 80018a0:	4d10      	ldr	r5, [pc, #64]	; (80018e4 <MotorLeft.constprop.0+0x48>)
 80018a2:	2203      	movs	r2, #3
 80018a4:	2400      	movs	r4, #0
 80018a6:	4606      	mov	r6, r0
 80018a8:	701a      	strb	r2, [r3, #0]
 80018aa:	4627      	mov	r7, r4
 80018ac:	00a3      	lsls	r3, r4, #2
 80018ae:	f203 73d3 	addw	r3, r3, #2003	; 0x7d3
 80018b2:	636b      	str	r3, [r5, #52]	; 0x34
 80018b4:	2001      	movs	r0, #1
 80018b6:	63af      	str	r7, [r5, #56]	; 0x38
 80018b8:	3401      	adds	r4, #1
 80018ba:	63eb      	str	r3, [r5, #60]	; 0x3c
 80018bc:	642f      	str	r7, [r5, #64]	; 0x40
 80018be:	f002 fe2f 	bl	8004520 <HAL_Delay>
 80018c2:	f7ff fe35 	bl	8001530 <CheckSecurity>
 80018c6:	b2a3      	uxth	r3, r4
 80018c8:	429e      	cmp	r6, r3
 80018ca:	d803      	bhi.n	80018d4 <MotorLeft.constprop.0+0x38>
 80018cc:	e8bd 40f8 	ldmia.w	sp!, {r3, r4, r5, r6, r7, lr}
 80018d0:	f7ff bc66 	b.w	80011a0 <MotorStop>
 80018d4:	f240 1353 	movw	r3, #339	; 0x153
 80018d8:	429c      	cmp	r4, r3
 80018da:	d1e7      	bne.n	80018ac <MotorLeft.constprop.0+0x10>
 80018dc:	e7f6      	b.n	80018cc <MotorLeft.constprop.0+0x30>
 80018de:	bf00      	nop
 80018e0:	20000826 	.word	0x20000826
 80018e4:	40000800 	.word	0x40000800

080018e8 <SystemClock_Config>:
 80018e8:	b510      	push	{r4, lr}
 80018ea:	2400      	movs	r4, #0
 80018ec:	b098      	sub	sp, #96	; 0x60
 80018ee:	4621      	mov	r1, r4
 80018f0:	2214      	movs	r2, #20
 80018f2:	a807      	add	r0, sp, #28
 80018f4:	e9cd 440f 	strd	r4, r4, [sp, #60]	; 0x3c
 80018f8:	f006 fafc 	bl	8007ef4 <memset>
 80018fc:	4621      	mov	r1, r4
 80018fe:	2210      	movs	r2, #16
 8001900:	a803      	add	r0, sp, #12
 8001902:	f006 faf7 	bl	8007ef4 <memset>
 8001906:	4b26      	ldr	r3, [pc, #152]	; (80019a0 <SystemClock_Config+0xb8>)
 8001908:	9401      	str	r4, [sp, #4]
 800190a:	6c1a      	ldr	r2, [r3, #64]	; 0x40
 800190c:	f042 5280 	orr.w	r2, r2, #268435456	; 0x10000000
 8001910:	641a      	str	r2, [r3, #64]	; 0x40
 8001912:	6c1b      	ldr	r3, [r3, #64]	; 0x40
 8001914:	f003 5380 	and.w	r3, r3, #268435456	; 0x10000000
 8001918:	9301      	str	r3, [sp, #4]
 800191a:	9b01      	ldr	r3, [sp, #4]
 800191c:	4b21      	ldr	r3, [pc, #132]	; (80019a4 <SystemClock_Config+0xbc>)
 800191e:	9402      	str	r4, [sp, #8]
 8001920:	681a      	ldr	r2, [r3, #0]
 8001922:	f442 4280 	orr.w	r2, r2, #16384	; 0x4000
 8001926:	601a      	str	r2, [r3, #0]
 8001928:	681b      	ldr	r3, [r3, #0]
 800192a:	f403 4380 	and.w	r3, r3, #16384	; 0x4000
 800192e:	9302      	str	r3, [sp, #8]
 8001930:	9b02      	ldr	r3, [sp, #8]
 8001932:	210d      	movs	r1, #13
 8001934:	f44f 3380 	mov.w	r3, #65536	; 0x10000
 8001938:	e9cd 130c 	strd	r1, r3, [sp, #48]	; 0x30
 800193c:	2301      	movs	r3, #1
 800193e:	2402      	movs	r4, #2
 8001940:	930e      	str	r3, [sp, #56]	; 0x38
 8001942:	9311      	str	r3, [sp, #68]	; 0x44
 8001944:	f44f 0380 	mov.w	r3, #4194304	; 0x400000
 8001948:	2008      	movs	r0, #8
 800194a:	e9cd 4312 	strd	r4, r3, [sp, #72]	; 0x48
 800194e:	23a8      	movs	r3, #168	; 0xa8
 8001950:	e9cd 0314 	strd	r0, r3, [sp, #80]	; 0x50
 8001954:	2307      	movs	r3, #7
 8001956:	a80c      	add	r0, sp, #48	; 0x30
 8001958:	9416      	str	r4, [sp, #88]	; 0x58
 800195a:	9317      	str	r3, [sp, #92]	; 0x5c
 800195c:	f004 fb2a 	bl	8005fb4 <HAL_RCC_OscConfig>
 8001960:	b108      	cbz	r0, 8001966 <SystemClock_Config+0x7e>
 8001962:	b672      	cpsid	i
 8001964:	e7fe      	b.n	8001964 <SystemClock_Config+0x7c>
 8001966:	230f      	movs	r3, #15
 8001968:	e9cd 3407 	strd	r3, r4, [sp, #28]
 800196c:	9009      	str	r0, [sp, #36]	; 0x24
 800196e:	f44f 52a0 	mov.w	r2, #5120	; 0x1400
 8001972:	f44f 5380 	mov.w	r3, #4096	; 0x1000
 8001976:	2105      	movs	r1, #5
 8001978:	a807      	add	r0, sp, #28
 800197a:	e9cd 230a 	strd	r2, r3, [sp, #40]	; 0x28
 800197e:	f004 fceb 	bl	8006358 <HAL_RCC_ClockConfig>
 8001982:	b108      	cbz	r0, 8001988 <SystemClock_Config+0xa0>
 8001984:	b672      	cpsid	i
 8001986:	e7fe      	b.n	8001986 <SystemClock_Config+0x9e>
 8001988:	f44f 7380 	mov.w	r3, #256	; 0x100
 800198c:	a803      	add	r0, sp, #12
 800198e:	9403      	str	r4, [sp, #12]
 8001990:	9306      	str	r3, [sp, #24]
 8001992:	f004 fd9d 	bl	80064d0 <HAL_RCCEx_PeriphCLKConfig>
 8001996:	b108      	cbz	r0, 800199c <SystemClock_Config+0xb4>
 8001998:	b672      	cpsid	i
 800199a:	e7fe      	b.n	800199a <SystemClock_Config+0xb2>
 800199c:	b018      	add	sp, #96	; 0x60
 800199e:	bd10      	pop	{r4, pc}
 80019a0:	40023800 	.word	0x40023800
 80019a4:	40007000 	.word	0x40007000

080019a8 <main>:
 80019a8:	e92d 4880 	stmdb	sp!, {r7, fp, lr}
 80019ac:	b0c1      	sub	sp, #260	; 0x104
 80019ae:	2400      	movs	r4, #0
 80019b0:	4dad      	ldr	r5, [pc, #692]	; (8001c68 <main+0x2c0>)
 80019b2:	f8df b2f8 	ldr.w	fp, [pc, #760]	; 8001cac <main+0x304>
 80019b6:	f002 fd87 	bl	80044c8 <HAL_Init>
 80019ba:	f7ff ff95 	bl	80018e8 <SystemClock_Config>
 80019be:	2214      	movs	r2, #20
 80019c0:	2100      	movs	r1, #0
 80019c2:	a820      	add	r0, sp, #128	; 0x80
 80019c4:	f006 fa96 	bl	8007ef4 <memset>
 80019c8:	9410      	str	r4, [sp, #64]	; 0x40
 80019ca:	6b2b      	ldr	r3, [r5, #48]	; 0x30
 80019cc:	48a7      	ldr	r0, [pc, #668]	; (8001c6c <main+0x2c4>)
 80019ce:	f043 0304 	orr.w	r3, r3, #4
 80019d2:	632b      	str	r3, [r5, #48]	; 0x30
 80019d4:	6b2b      	ldr	r3, [r5, #48]	; 0x30
 80019d6:	f003 0304 	and.w	r3, r3, #4
 80019da:	9310      	str	r3, [sp, #64]	; 0x40
 80019dc:	9b10      	ldr	r3, [sp, #64]	; 0x40
 80019de:	9411      	str	r4, [sp, #68]	; 0x44
 80019e0:	6b2b      	ldr	r3, [r5, #48]	; 0x30
 80019e2:	f043 0380 	orr.w	r3, r3, #128	; 0x80
 80019e6:	632b      	str	r3, [r5, #48]	; 0x30
 80019e8:	6b2b      	ldr	r3, [r5, #48]	; 0x30
 80019ea:	f003 0380 	and.w	r3, r3, #128	; 0x80
 80019ee:	9311      	str	r3, [sp, #68]	; 0x44
 80019f0:	9b11      	ldr	r3, [sp, #68]	; 0x44
 80019f2:	9412      	str	r4, [sp, #72]	; 0x48
 80019f4:	6b2b      	ldr	r3, [r5, #48]	; 0x30
 80019f6:	f043 0301 	orr.w	r3, r3, #1
 80019fa:	632b      	str	r3, [r5, #48]	; 0x30
 80019fc:	6b2b      	ldr	r3, [r5, #48]	; 0x30
 80019fe:	f003 0301 	and.w	r3, r3, #1
 8001a02:	9312      	str	r3, [sp, #72]	; 0x48
 8001a04:	9b12      	ldr	r3, [sp, #72]	; 0x48
 8001a06:	9413      	str	r4, [sp, #76]	; 0x4c
 8001a08:	6b2b      	ldr	r3, [r5, #48]	; 0x30
 8001a0a:	f043 0302 	orr.w	r3, r3, #2
 8001a0e:	632b      	str	r3, [r5, #48]	; 0x30
 8001a10:	6b2b      	ldr	r3, [r5, #48]	; 0x30
 8001a12:	f003 0302 	and.w	r3, r3, #2
 8001a16:	9313      	str	r3, [sp, #76]	; 0x4c
 8001a18:	9b13      	ldr	r3, [sp, #76]	; 0x4c
 8001a1a:	9414      	str	r4, [sp, #80]	; 0x50
 8001a1c:	6b2b      	ldr	r3, [r5, #48]	; 0x30
 8001a1e:	f043 0308 	orr.w	r3, r3, #8
 8001a22:	632b      	str	r3, [r5, #48]	; 0x30
 8001a24:	6b2b      	ldr	r3, [r5, #48]	; 0x30
 8001a26:	f003 0308 	and.w	r3, r3, #8
 8001a2a:	9314      	str	r3, [sp, #80]	; 0x50
 8001a2c:	4622      	mov	r2, r4
 8001a2e:	f44f 6180 	mov.w	r1, #1024	; 0x400
 8001a32:	9b14      	ldr	r3, [sp, #80]	; 0x50
 8001a34:	f003 fc0c 	bl	8005250 <HAL_GPIO_WritePin>
 8001a38:	4622      	mov	r2, r4
 8001a3a:	488d      	ldr	r0, [pc, #564]	; (8001c70 <main+0x2c8>)
 8001a3c:	2101      	movs	r1, #1
 8001a3e:	f003 fc07 	bl	8005250 <HAL_GPIO_WritePin>
 8001a42:	f44f 7380 	mov.w	r3, #256	; 0x100
 8001a46:	488b      	ldr	r0, [pc, #556]	; (8001c74 <main+0x2cc>)
 8001a48:	9422      	str	r4, [sp, #136]	; 0x88
 8001a4a:	a920      	add	r1, sp, #128	; 0x80
 8001a4c:	2601      	movs	r6, #1
 8001a4e:	e9cd 3420 	strd	r3, r4, [sp, #128]	; 0x80
 8001a52:	f003 fa87 	bl	8004f64 <HAL_GPIO_Init>
 8001a56:	f44f 6380 	mov.w	r3, #1024	; 0x400
 8001a5a:	4884      	ldr	r0, [pc, #528]	; (8001c6c <main+0x2c4>)
 8001a5c:	a920      	add	r1, sp, #128	; 0x80
 8001a5e:	e9cd 3620 	strd	r3, r6, [sp, #128]	; 0x80
 8001a62:	e9cd 4422 	strd	r4, r4, [sp, #136]	; 0x88
 8001a66:	f003 fa7d 	bl	8004f64 <HAL_GPIO_Init>
 8001a6a:	4881      	ldr	r0, [pc, #516]	; (8001c70 <main+0x2c8>)
 8001a6c:	a920      	add	r1, sp, #128	; 0x80
 8001a6e:	e9cd 6620 	strd	r6, r6, [sp, #128]	; 0x80
 8001a72:	e9cd 4422 	strd	r4, r4, [sp, #136]	; 0x88
 8001a76:	f003 fa75 	bl	8004f64 <HAL_GPIO_Init>
 8001a7a:	940e      	str	r4, [sp, #56]	; 0x38
 8001a7c:	6b2b      	ldr	r3, [r5, #48]	; 0x30
 8001a7e:	f443 0380 	orr.w	r3, r3, #4194304	; 0x400000
 8001a82:	632b      	str	r3, [r5, #48]	; 0x30
 8001a84:	6b2b      	ldr	r3, [r5, #48]	; 0x30
 8001a86:	f403 0380 	and.w	r3, r3, #4194304	; 0x400000
 8001a8a:	930e      	str	r3, [sp, #56]	; 0x38
 8001a8c:	9b0e      	ldr	r3, [sp, #56]	; 0x38
 8001a8e:	940f      	str	r4, [sp, #60]	; 0x3c
 8001a90:	6b2b      	ldr	r3, [r5, #48]	; 0x30
 8001a92:	f443 1300 	orr.w	r3, r3, #2097152	; 0x200000
 8001a96:	632b      	str	r3, [r5, #48]	; 0x30
 8001a98:	6b2b      	ldr	r3, [r5, #48]	; 0x30
 8001a9a:	4d77      	ldr	r5, [pc, #476]	; (8001c78 <main+0x2d0>)
 8001a9c:	f403 1300 	and.w	r3, r3, #2097152	; 0x200000
 8001aa0:	4622      	mov	r2, r4
 8001aa2:	4621      	mov	r1, r4
 8001aa4:	930f      	str	r3, [sp, #60]	; 0x3c
 8001aa6:	2010      	movs	r0, #16
 8001aa8:	9b0f      	ldr	r3, [sp, #60]	; 0x3c
 8001aaa:	f003 f821 	bl	8004af0 <HAL_NVIC_SetPriority>
 8001aae:	2010      	movs	r0, #16
 8001ab0:	f003 f850 	bl	8004b54 <HAL_NVIC_EnableIRQ>
 8001ab4:	4622      	mov	r2, r4
 8001ab6:	4621      	mov	r1, r4
 8001ab8:	2038      	movs	r0, #56	; 0x38
 8001aba:	f003 f819 	bl	8004af0 <HAL_NVIC_SetPriority>
 8001abe:	2038      	movs	r0, #56	; 0x38
 8001ac0:	f003 f848 	bl	8004b54 <HAL_NVIC_EnableIRQ>
 8001ac4:	4622      	mov	r2, r4
 8001ac6:	4621      	mov	r1, r4
 8001ac8:	203a      	movs	r0, #58	; 0x3a
 8001aca:	f003 f811 	bl	8004af0 <HAL_NVIC_SetPriority>
 8001ace:	203a      	movs	r0, #58	; 0x3a
 8001ad0:	f003 f840 	bl	8004b54 <HAL_NVIC_EnableIRQ>
 8001ad4:	2210      	movs	r2, #16
 8001ad6:	4621      	mov	r1, r4
 8001ad8:	a820      	add	r0, sp, #128	; 0x80
 8001ada:	f006 fa0b 	bl	8007ef4 <memset>
 8001ade:	f44f 3380 	mov.w	r3, #65536	; 0x10000
 8001ae2:	e9c5 b300 	strd	fp, r3, [r5]
 8001ae6:	2702      	movs	r7, #2
 8001ae8:	4b64      	ldr	r3, [pc, #400]	; (8001c7c <main+0x2d4>)
 8001aea:	60ac      	str	r4, [r5, #8]
 8001aec:	4628      	mov	r0, r5
 8001aee:	612e      	str	r6, [r5, #16]
 8001af0:	762e      	strb	r6, [r5, #24]
 8001af2:	f885 4020 	strb.w	r4, [r5, #32]
 8001af6:	62ec      	str	r4, [r5, #44]	; 0x2c
 8001af8:	62ab      	str	r3, [r5, #40]	; 0x28
 8001afa:	60ec      	str	r4, [r5, #12]
 8001afc:	61ef      	str	r7, [r5, #28]
 8001afe:	f885 6030 	strb.w	r6, [r5, #48]	; 0x30
 8001b02:	616c      	str	r4, [r5, #20]
 8001b04:	f002 fd20 	bl	8004548 <HAL_ADC_Init>
 8001b08:	b108      	cbz	r0, 8001b0e <main+0x166>
 8001b0a:	b672      	cpsid	i
 8001b0c:	e7fe      	b.n	8001b0c <main+0x164>
 8001b0e:	240c      	movs	r4, #12
 8001b10:	2306      	movs	r3, #6
 8001b12:	a920      	add	r1, sp, #128	; 0x80
 8001b14:	4628      	mov	r0, r5
 8001b16:	e9cd 4620 	strd	r4, r6, [sp, #128]	; 0x80
 8001b1a:	9322      	str	r3, [sp, #136]	; 0x88
 8001b1c:	f002 ff42 	bl	80049a4 <HAL_ADC_ConfigChannel>
 8001b20:	b108      	cbz	r0, 8001b26 <main+0x17e>
 8001b22:	b672      	cpsid	i
 8001b24:	e7fe      	b.n	8001b24 <main+0x17c>
 8001b26:	230d      	movs	r3, #13
 8001b28:	a920      	add	r1, sp, #128	; 0x80
 8001b2a:	4628      	mov	r0, r5
 8001b2c:	e9cd 3720 	strd	r3, r7, [sp, #128]	; 0x80
 8001b30:	f002 ff38 	bl	80049a4 <HAL_ADC_ConfigChannel>
 8001b34:	4603      	mov	r3, r0
 8001b36:	b108      	cbz	r0, 8001b3c <main+0x194>
 8001b38:	b672      	cpsid	i
 8001b3a:	e7fe      	b.n	8001b3a <main+0x192>
 8001b3c:	4850      	ldr	r0, [pc, #320]	; (8001c80 <main+0x2d8>)
 8001b3e:	4a51      	ldr	r2, [pc, #324]	; (8001c84 <main+0x2dc>)
 8001b40:	f8df a16c 	ldr.w	sl, [pc, #364]	; 8001cb0 <main+0x308>
 8001b44:	6203      	str	r3, [r0, #32]
 8001b46:	e9c0 a200 	strd	sl, r2, [r0]
 8001b4a:	f44f 4280 	mov.w	r2, #16384	; 0x4000
 8001b4e:	e9c0 3302 	strd	r3, r3, [r0, #8]
 8001b52:	e9c0 2304 	strd	r2, r3, [r0, #16]
 8001b56:	e9c0 3306 	strd	r3, r3, [r0, #24]
 8001b5a:	f003 fd5b 	bl	8005614 <HAL_I2C_Init>
 8001b5e:	b108      	cbz	r0, 8001b64 <main+0x1bc>
 8001b60:	b672      	cpsid	i
 8001b62:	e7fe      	b.n	8001b62 <main+0x1ba>
 8001b64:	f7ff fafe 	bl	8001164 <MX_I2C2_Init>
 8001b68:	4d47      	ldr	r5, [pc, #284]	; (8001c88 <main+0x2e0>)
 8001b6a:	4b48      	ldr	r3, [pc, #288]	; (8001c8c <main+0x2e4>)
 8001b6c:	4628      	mov	r0, r5
 8001b6e:	e9c5 3700 	strd	r3, r7, [r5]
 8001b72:	f640 73ff 	movw	r3, #4095	; 0xfff
 8001b76:	60ab      	str	r3, [r5, #8]
 8001b78:	f004 f9ee 	bl	8005f58 <HAL_IWDG_Init>
 8001b7c:	46a8      	mov	r8, r5
 8001b7e:	b108      	cbz	r0, 8001b84 <main+0x1dc>
 8001b80:	b672      	cpsid	i
 8001b82:	e7fe      	b.n	8001b82 <main+0x1da>
 8001b84:	4842      	ldr	r0, [pc, #264]	; (8001c90 <main+0x2e8>)
 8001b86:	4b43      	ldr	r3, [pc, #268]	; (8001c94 <main+0x2ec>)
 8001b88:	6003      	str	r3, [r0, #0]
 8001b8a:	f004 fd39 	bl	8006600 <HAL_RNG_Init>
 8001b8e:	b108      	cbz	r0, 8001b94 <main+0x1ec>
 8001b90:	b672      	cpsid	i
 8001b92:	e7fe      	b.n	8001b92 <main+0x1ea>
 8001b94:	4e40      	ldr	r6, [pc, #256]	; (8001c98 <main+0x2f0>)
 8001b96:	f8df 911c 	ldr.w	r9, [pc, #284]	; 8001cb4 <main+0x30c>
 8001b9a:	e9c6 0002 	strd	r0, r0, [r6, #8]
 8001b9e:	e9c6 0404 	strd	r0, r4, [r6, #16]
 8001ba2:	e9c6 0006 	strd	r0, r0, [r6, #24]
 8001ba6:	f44f 33e1 	mov.w	r3, #115200	; 0x1c200
 8001baa:	4630      	mov	r0, r6
 8001bac:	e9c6 9300 	strd	r9, r3, [r6]
 8001bb0:	f005 fc38 	bl	8007424 <HAL_UART_Init>
 8001bb4:	b108      	cbz	r0, 8001bba <main+0x212>
 8001bb6:	b672      	cpsid	i
 8001bb8:	e7fe      	b.n	8001bb8 <main+0x210>
 8001bba:	4d38      	ldr	r5, [pc, #224]	; (8001c9c <main+0x2f4>)
 8001bbc:	f8df e0f8 	ldr.w	lr, [pc, #248]	; 8001cb8 <main+0x310>
 8001bc0:	4b37      	ldr	r3, [pc, #220]	; (8001ca0 <main+0x2f8>)
 8001bc2:	e9c5 0404 	strd	r0, r4, [r5, #16]
 8001bc6:	e9c5 0002 	strd	r0, r0, [r5, #8]
 8001bca:	e9c5 0006 	strd	r0, r0, [r5, #24]
 8001bce:	4628      	mov	r0, r5
 8001bd0:	e9c5 e300 	strd	lr, r3, [r5]
 8001bd4:	f005 fc26 	bl	8007424 <HAL_UART_Init>
 8001bd8:	4604      	mov	r4, r0
 8001bda:	b108      	cbz	r0, 8001be0 <main+0x238>
 8001bdc:	b672      	cpsid	i
 8001bde:	e7fe      	b.n	8001bde <main+0x236>
 8001be0:	4601      	mov	r1, r0
 8001be2:	2210      	movs	r2, #16
 8001be4:	a81b      	add	r0, sp, #108	; 0x6c
 8001be6:	f006 f985 	bl	8007ef4 <memset>
 8001bea:	221c      	movs	r2, #28
 8001bec:	4621      	mov	r1, r4
 8001bee:	a820      	add	r0, sp, #128	; 0x80
 8001bf0:	4f2c      	ldr	r7, [pc, #176]	; (8001ca4 <main+0x2fc>)
 8001bf2:	e9cd 4419 	strd	r4, r4, [sp, #100]	; 0x64
 8001bf6:	f006 f97d 	bl	8007ef4 <memset>
 8001bfa:	4b2b      	ldr	r3, [pc, #172]	; (8001ca8 <main+0x300>)
 8001bfc:	60bc      	str	r4, [r7, #8]
 8001bfe:	e9c7 3400 	strd	r3, r4, [r7]
 8001c02:	4638      	mov	r0, r7
 8001c04:	f640 531f 	movw	r3, #3359	; 0xd1f
 8001c08:	e9c7 3403 	strd	r3, r4, [r7, #12]
 8001c0c:	61bc      	str	r4, [r7, #24]
 8001c0e:	f005 f92f 	bl	8006e70 <HAL_TIM_Base_Init>
 8001c12:	b108      	cbz	r0, 8001c18 <main+0x270>
 8001c14:	b672      	cpsid	i
 8001c16:	e7fe      	b.n	8001c16 <main+0x26e>
 8001c18:	f44f 5380 	mov.w	r3, #4096	; 0x1000
 8001c1c:	a91b      	add	r1, sp, #108	; 0x6c
 8001c1e:	4638      	mov	r0, r7
 8001c20:	931b      	str	r3, [sp, #108]	; 0x6c
 8001c22:	f005 fa18 	bl	8007056 <HAL_TIM_ConfigClockSource>
 8001c26:	b108      	cbz	r0, 8001c2c <main+0x284>
 8001c28:	b672      	cpsid	i
 8001c2a:	e7fe      	b.n	8001c2a <main+0x282>
 8001c2c:	481d      	ldr	r0, [pc, #116]	; (8001ca4 <main+0x2fc>)
 8001c2e:	f005 f94b 	bl	8006ec8 <HAL_TIM_PWM_Init>
 8001c32:	b108      	cbz	r0, 8001c38 <main+0x290>
 8001c34:	b672      	cpsid	i
 8001c36:	e7fe      	b.n	8001c36 <main+0x28e>
 8001c38:	e9cd 0019 	strd	r0, r0, [sp, #100]	; 0x64
 8001c3c:	a919      	add	r1, sp, #100	; 0x64
 8001c3e:	4819      	ldr	r0, [pc, #100]	; (8001ca4 <main+0x2fc>)
 8001c40:	f005 fb14 	bl	800726c <HAL_TIMEx_MasterConfigSynchronization>
 8001c44:	4602      	mov	r2, r0
 8001c46:	b108      	cbz	r0, 8001c4c <main+0x2a4>
 8001c48:	b672      	cpsid	i
 8001c4a:	e7fe      	b.n	8001c4a <main+0x2a2>
 8001c4c:	f04f 0960 	mov.w	r9, #96	; 0x60
 8001c50:	e9cd 9020 	strd	r9, r0, [sp, #128]	; 0x80
 8001c54:	9022      	str	r0, [sp, #136]	; 0x88
 8001c56:	9024      	str	r0, [sp, #144]	; 0x90
 8001c58:	a920      	add	r1, sp, #128	; 0x80
 8001c5a:	4812      	ldr	r0, [pc, #72]	; (8001ca4 <main+0x2fc>)
 8001c5c:	f005 f996 	bl	8006f8c <HAL_TIM_PWM_ConfigChannel>
 8001c60:	b360      	cbz	r0, 8001cbc <main+0x314>
 8001c62:	b672      	cpsid	i
 8001c64:	e7fe      	b.n	8001c64 <main+0x2bc>
 8001c66:	bf00      	nop
 8001c68:	40023800 	.word	0x40023800
 8001c6c:	40020800 	.word	0x40020800
 8001c70:	40020c00 	.word	0x40020c00
 8001c74:	40020000 	.word	0x40020000
 8001c78:	20001184 	.word	0x20001184
 8001c7c:	0f000001 	.word	0x0f000001
 8001c80:	20000ba4 	.word	0x20000ba4
 8001c84:	000186a0 	.word	0x000186a0
 8001c88:	20000bf8 	.word	0x20000bf8
 8001c8c:	40003000 	.word	0x40003000
 8001c90:	20001f34 	.word	0x20001f34
 8001c94:	50060800 	.word	0x50060800
 8001c98:	20001a2c 	.word	0x20001a2c
 8001c9c:	20001f90 	.word	0x20001f90
 8001ca0:	000f4240 	.word	0x000f4240
 8001ca4:	20001134 	.word	0x20001134
 8001ca8:	40000400 	.word	0x40000400
 8001cac:	40012000 	.word	0x40012000
 8001cb0:	40005400 	.word	0x40005400
 8001cb4:	40011000 	.word	0x40011000
 8001cb8:	40004400 	.word	0x40004400
 8001cbc:	486b      	ldr	r0, [pc, #428]	; (8001e6c <main+0x4c4>)
 8001cbe:	2204      	movs	r2, #4
 8001cc0:	a920      	add	r1, sp, #128	; 0x80
 8001cc2:	f005 f963 	bl	8006f8c <HAL_TIM_PWM_ConfigChannel>
 8001cc6:	4607      	mov	r7, r0
 8001cc8:	b108      	cbz	r0, 8001cce <main+0x326>
 8001cca:	b672      	cpsid	i
 8001ccc:	e7fe      	b.n	8001ccc <main+0x324>
 8001cce:	4867      	ldr	r0, [pc, #412]	; (8001e6c <main+0x4c4>)
 8001cd0:	4c67      	ldr	r4, [pc, #412]	; (8001e70 <main+0x4c8>)
 8001cd2:	f002 f9e7 	bl	80040a4 <HAL_TIM_MspPostInit>
 8001cd6:	2210      	movs	r2, #16
 8001cd8:	4639      	mov	r1, r7
 8001cda:	a81b      	add	r0, sp, #108	; 0x6c
 8001cdc:	f006 f90a 	bl	8007ef4 <memset>
 8001ce0:	221c      	movs	r2, #28
 8001ce2:	4639      	mov	r1, r7
 8001ce4:	a820      	add	r0, sp, #128	; 0x80
 8001ce6:	e9cd 7719 	strd	r7, r7, [sp, #100]	; 0x64
 8001cea:	f006 f903 	bl	8007ef4 <memset>
 8001cee:	4b61      	ldr	r3, [pc, #388]	; (8001e74 <main+0x4cc>)
 8001cf0:	60a7      	str	r7, [r4, #8]
 8001cf2:	e9c4 3700 	strd	r3, r7, [r4]
 8001cf6:	4620      	mov	r0, r4
 8001cf8:	f640 531f 	movw	r3, #3359	; 0xd1f
 8001cfc:	e9c4 3703 	strd	r3, r7, [r4, #12]
 8001d00:	61a7      	str	r7, [r4, #24]
 8001d02:	f005 f8b5 	bl	8006e70 <HAL_TIM_Base_Init>
 8001d06:	b108      	cbz	r0, 8001d0c <main+0x364>
 8001d08:	b672      	cpsid	i
 8001d0a:	e7fe      	b.n	8001d0a <main+0x362>
 8001d0c:	f44f 5380 	mov.w	r3, #4096	; 0x1000
 8001d10:	a91b      	add	r1, sp, #108	; 0x6c
 8001d12:	4620      	mov	r0, r4
 8001d14:	931b      	str	r3, [sp, #108]	; 0x6c
 8001d16:	f005 f99e 	bl	8007056 <HAL_TIM_ConfigClockSource>
 8001d1a:	b108      	cbz	r0, 8001d20 <main+0x378>
 8001d1c:	b672      	cpsid	i
 8001d1e:	e7fe      	b.n	8001d1e <main+0x376>
 8001d20:	4620      	mov	r0, r4
 8001d22:	f005 f8d1 	bl	8006ec8 <HAL_TIM_PWM_Init>
 8001d26:	b108      	cbz	r0, 8001d2c <main+0x384>
 8001d28:	b672      	cpsid	i
 8001d2a:	e7fe      	b.n	8001d2a <main+0x382>
 8001d2c:	e9cd 0019 	strd	r0, r0, [sp, #100]	; 0x64
 8001d30:	a919      	add	r1, sp, #100	; 0x64
 8001d32:	4620      	mov	r0, r4
 8001d34:	f005 fa9a 	bl	800726c <HAL_TIMEx_MasterConfigSynchronization>
 8001d38:	4602      	mov	r2, r0
 8001d3a:	b108      	cbz	r0, 8001d40 <main+0x398>
 8001d3c:	b672      	cpsid	i
 8001d3e:	e7fe      	b.n	8001d3e <main+0x396>
 8001d40:	e9cd 9020 	strd	r9, r0, [sp, #128]	; 0x80
 8001d44:	9022      	str	r0, [sp, #136]	; 0x88
 8001d46:	9024      	str	r0, [sp, #144]	; 0x90
 8001d48:	a920      	add	r1, sp, #128	; 0x80
 8001d4a:	4620      	mov	r0, r4
 8001d4c:	f005 f91e 	bl	8006f8c <HAL_TIM_PWM_ConfigChannel>
 8001d50:	b108      	cbz	r0, 8001d56 <main+0x3ae>
 8001d52:	b672      	cpsid	i
 8001d54:	e7fe      	b.n	8001d54 <main+0x3ac>
 8001d56:	2204      	movs	r2, #4
 8001d58:	a920      	add	r1, sp, #128	; 0x80
 8001d5a:	4620      	mov	r0, r4
 8001d5c:	f005 f916 	bl	8006f8c <HAL_TIM_PWM_ConfigChannel>
 8001d60:	b108      	cbz	r0, 8001d66 <main+0x3be>
 8001d62:	b672      	cpsid	i
 8001d64:	e7fe      	b.n	8001d64 <main+0x3bc>
 8001d66:	4842      	ldr	r0, [pc, #264]	; (8001e70 <main+0x4c8>)
 8001d68:	2208      	movs	r2, #8
 8001d6a:	a920      	add	r1, sp, #128	; 0x80
 8001d6c:	f005 f90e 	bl	8006f8c <HAL_TIM_PWM_ConfigChannel>
 8001d70:	b108      	cbz	r0, 8001d76 <main+0x3ce>
 8001d72:	b672      	cpsid	i
 8001d74:	e7fe      	b.n	8001d74 <main+0x3cc>
 8001d76:	483e      	ldr	r0, [pc, #248]	; (8001e70 <main+0x4c8>)
 8001d78:	220c      	movs	r2, #12
 8001d7a:	a920      	add	r1, sp, #128	; 0x80
 8001d7c:	f005 f906 	bl	8006f8c <HAL_TIM_PWM_ConfigChannel>
 8001d80:	4604      	mov	r4, r0
 8001d82:	b108      	cbz	r0, 8001d88 <main+0x3e0>
 8001d84:	b672      	cpsid	i
 8001d86:	e7fe      	b.n	8001d86 <main+0x3de>
 8001d88:	4839      	ldr	r0, [pc, #228]	; (8001e70 <main+0x4c8>)
 8001d8a:	f002 f98b 	bl	80040a4 <HAL_TIM_MspPostInit>
 8001d8e:	483a      	ldr	r0, [pc, #232]	; (8001e78 <main+0x4d0>)
 8001d90:	4b3a      	ldr	r3, [pc, #232]	; (8001e7c <main+0x4d4>)
 8001d92:	6184      	str	r4, [r0, #24]
 8001d94:	e9c0 3400 	strd	r3, r4, [r0]
 8001d98:	f04f 0c7f 	mov.w	ip, #127	; 0x7f
 8001d9c:	23ff      	movs	r3, #255	; 0xff
 8001d9e:	e9c0 4404 	strd	r4, r4, [r0, #16]
 8001da2:	e9c0 c302 	strd	ip, r3, [r0, #8]
 8001da6:	f004 fce1 	bl	800676c <HAL_RTC_Init>
 8001daa:	4604      	mov	r4, r0
 8001dac:	b108      	cbz	r0, 8001db2 <main+0x40a>
 8001dae:	b672      	cpsid	i
 8001db0:	e7fe      	b.n	8001db0 <main+0x408>
 8001db2:	f8df 90d4 	ldr.w	r9, [pc, #212]	; 8001e88 <main+0x4e0>
 8001db6:	4601      	mov	r1, r0
 8001db8:	2210      	movs	r2, #16
 8001dba:	a820      	add	r0, sp, #128	; 0x80
 8001dbc:	f006 f89a 	bl	8007ef4 <memset>
 8001dc0:	f04f 4780 	mov.w	r7, #1073741824	; 0x40000000
 8001dc4:	f242 730f 	movw	r3, #9999	; 0x270f
 8001dc8:	e9c9 7300 	strd	r7, r3, [r9]
 8001dcc:	4648      	mov	r0, r9
 8001dce:	f242 03cf 	movw	r3, #8399	; 0x20cf
 8001dd2:	e9cd 441b 	strd	r4, r4, [sp, #108]	; 0x6c
 8001dd6:	e9c9 3403 	strd	r3, r4, [r9, #12]
 8001dda:	f8c9 4008 	str.w	r4, [r9, #8]
 8001dde:	f8c9 4018 	str.w	r4, [r9, #24]
 8001de2:	f005 f845 	bl	8006e70 <HAL_TIM_Base_Init>
 8001de6:	b108      	cbz	r0, 8001dec <main+0x444>
 8001de8:	b672      	cpsid	i
 8001dea:	e7fe      	b.n	8001dea <main+0x442>
 8001dec:	f44f 5a80 	mov.w	sl, #4096	; 0x1000
 8001df0:	a920      	add	r1, sp, #128	; 0x80
 8001df2:	4648      	mov	r0, r9
 8001df4:	f8cd a080 	str.w	sl, [sp, #128]	; 0x80
 8001df8:	f005 f92d 	bl	8007056 <HAL_TIM_ConfigClockSource>
 8001dfc:	b108      	cbz	r0, 8001e02 <main+0x45a>
 8001dfe:	b672      	cpsid	i
 8001e00:	e7fe      	b.n	8001e00 <main+0x458>
 8001e02:	e9cd 001b 	strd	r0, r0, [sp, #108]	; 0x6c
 8001e06:	a91b      	add	r1, sp, #108	; 0x6c
 8001e08:	4648      	mov	r0, r9
 8001e0a:	f005 fa2f 	bl	800726c <HAL_TIMEx_MasterConfigSynchronization>
 8001e0e:	4604      	mov	r4, r0
 8001e10:	b108      	cbz	r0, 8001e16 <main+0x46e>
 8001e12:	b672      	cpsid	i
 8001e14:	e7fe      	b.n	8001e14 <main+0x46c>
 8001e16:	4601      	mov	r1, r0
 8001e18:	2210      	movs	r2, #16
 8001e1a:	a820      	add	r0, sp, #128	; 0x80
 8001e1c:	f006 f86a 	bl	8007ef4 <memset>
 8001e20:	4f17      	ldr	r7, [pc, #92]	; (8001e80 <main+0x4d8>)
 8001e22:	4818      	ldr	r0, [pc, #96]	; (8001e84 <main+0x4dc>)
 8001e24:	60bc      	str	r4, [r7, #8]
 8001e26:	2353      	movs	r3, #83	; 0x53
 8001e28:	e9c7 0300 	strd	r0, r3, [r7]
 8001e2c:	f64f 73ff 	movw	r3, #65535	; 0xffff
 8001e30:	4638      	mov	r0, r7
 8001e32:	e9cd 441b 	strd	r4, r4, [sp, #108]	; 0x6c
 8001e36:	e9c7 3403 	strd	r3, r4, [r7, #12]
 8001e3a:	61bc      	str	r4, [r7, #24]
 8001e3c:	f005 f818 	bl	8006e70 <HAL_TIM_Base_Init>
 8001e40:	b108      	cbz	r0, 8001e46 <main+0x49e>
 8001e42:	b672      	cpsid	i
 8001e44:	e7fe      	b.n	8001e44 <main+0x49c>
 8001e46:	a920      	add	r1, sp, #128	; 0x80
 8001e48:	4638      	mov	r0, r7
 8001e4a:	f8cd a080 	str.w	sl, [sp, #128]	; 0x80
 8001e4e:	f005 f902 	bl	8007056 <HAL_TIM_ConfigClockSource>
 8001e52:	b108      	cbz	r0, 8001e58 <main+0x4b0>
 8001e54:	b672      	cpsid	i
 8001e56:	e7fe      	b.n	8001e56 <main+0x4ae>
 8001e58:	e9cd 001b 	strd	r0, r0, [sp, #108]	; 0x6c
 8001e5c:	a91b      	add	r1, sp, #108	; 0x6c
 8001e5e:	4638      	mov	r0, r7
 8001e60:	f005 fa04 	bl	800726c <HAL_TIMEx_MasterConfigSynchronization>
 8001e64:	4604      	mov	r4, r0
 8001e66:	b188      	cbz	r0, 8001e8c <main+0x4e4>
 8001e68:	b672      	cpsid	i
 8001e6a:	e7fe      	b.n	8001e6a <main+0x4c2>
 8001e6c:	20001134 	.word	0x20001134
 8001e70:	20000b5c 	.word	0x20000b5c
 8001e74:	40000800 	.word	0x40000800
 8001e78:	20001ad0 	.word	0x20001ad0
 8001e7c:	40002800 	.word	0x40002800
 8001e80:	200010dc 	.word	0x200010dc
 8001e84:	40000c00 	.word	0x40000c00
 8001e88:	20001f48 	.word	0x20001f48
 8001e8c:	48b6      	ldr	r0, [pc, #728]	; (8002168 <main+0x7c0>)
 8001e8e:	f004 fe71 	bl	8006b74 <HAL_TIM_Base_Start>
 8001e92:	48b6      	ldr	r0, [pc, #728]	; (800216c <main+0x7c4>)
 8001e94:	f004 fe6e 	bl	8006b74 <HAL_TIM_Base_Start>
 8001e98:	4621      	mov	r1, r4
 8001e9a:	48b3      	ldr	r0, [pc, #716]	; (8002168 <main+0x7c0>)
 8001e9c:	f005 f9e4 	bl	8007268 <HAL_TIM_PWM_Start>
 8001ea0:	2104      	movs	r1, #4
 8001ea2:	48b1      	ldr	r0, [pc, #708]	; (8002168 <main+0x7c0>)
 8001ea4:	f005 f9e0 	bl	8007268 <HAL_TIM_PWM_Start>
 8001ea8:	2108      	movs	r1, #8
 8001eaa:	48af      	ldr	r0, [pc, #700]	; (8002168 <main+0x7c0>)
 8001eac:	f005 f9dc 	bl	8007268 <HAL_TIM_PWM_Start>
 8001eb0:	210c      	movs	r1, #12
 8001eb2:	48ad      	ldr	r0, [pc, #692]	; (8002168 <main+0x7c0>)
 8001eb4:	f005 f9d8 	bl	8007268 <HAL_TIM_PWM_Start>
 8001eb8:	4621      	mov	r1, r4
 8001eba:	48ac      	ldr	r0, [pc, #688]	; (800216c <main+0x7c4>)
 8001ebc:	f005 f9d4 	bl	8007268 <HAL_TIM_PWM_Start>
 8001ec0:	2104      	movs	r1, #4
 8001ec2:	48aa      	ldr	r0, [pc, #680]	; (800216c <main+0x7c4>)
 8001ec4:	f005 f9d0 	bl	8007268 <HAL_TIM_PWM_Start>
 8001ec8:	4638      	mov	r0, r7
 8001eca:	f004 fe53 	bl	8006b74 <HAL_TIM_Base_Start>
 8001ece:	4ba8      	ldr	r3, [pc, #672]	; (8002170 <main+0x7c8>)
 8001ed0:	48a8      	ldr	r0, [pc, #672]	; (8002174 <main+0x7cc>)
 8001ed2:	635c      	str	r4, [r3, #52]	; 0x34
 8001ed4:	639c      	str	r4, [r3, #56]	; 0x38
 8001ed6:	63dc      	str	r4, [r3, #60]	; 0x3c
 8001ed8:	641c      	str	r4, [r3, #64]	; 0x40
 8001eda:	f5a3 6380 	sub.w	r3, r3, #1024	; 0x400
 8001ede:	2102      	movs	r1, #2
 8001ee0:	635c      	str	r4, [r3, #52]	; 0x34
 8001ee2:	639c      	str	r4, [r3, #56]	; 0x38
 8001ee4:	f503 5330 	add.w	r3, r3, #11264	; 0x2c00
 8001ee8:	f8c8 3000 	str.w	r3, [r8]
 8001eec:	f640 73ff 	movw	r3, #4095	; 0xfff
 8001ef0:	e9c8 1301 	strd	r1, r3, [r8, #4]
 8001ef4:	f004 f830 	bl	8005f58 <HAL_IWDG_Init>
 8001ef8:	4648      	mov	r0, r9
 8001efa:	f004 fe71 	bl	8006be0 <HAL_TIM_Base_Start_IT>
 8001efe:	489e      	ldr	r0, [pc, #632]	; (8002178 <main+0x7d0>)
 8001f00:	f7ff f9da 	bl	80012b8 <Serial_RPi>
 8001f04:	489c      	ldr	r0, [pc, #624]	; (8002178 <main+0x7d0>)
 8001f06:	f7ff f9e7 	bl	80012d8 <Serial_Console>
 8001f0a:	499c      	ldr	r1, [pc, #624]	; (800217c <main+0x7d4>)
 8001f0c:	489c      	ldr	r0, [pc, #624]	; (8002180 <main+0x7d8>)
 8001f0e:	f44f 7200 	mov.w	r2, #512	; 0x200
 8001f12:	f002 fbbf 	bl	8004694 <HAL_ADC_Start_DMA>
 8001f16:	2320      	movs	r3, #32
 8001f18:	2105      	movs	r1, #5
 8001f1a:	4a9a      	ldr	r2, [pc, #616]	; (8002184 <main+0x7dc>)
 8001f1c:	489a      	ldr	r0, [pc, #616]	; (8002188 <main+0x7e0>)
 8001f1e:	9300      	str	r3, [sp, #0]
 8001f20:	4b9a      	ldr	r3, [pc, #616]	; (800218c <main+0x7e4>)
 8001f22:	f005 fd39 	bl	8007998 <arm_fir_init_f32>
 8001f26:	489a      	ldr	r0, [pc, #616]	; (8002190 <main+0x7e8>)
 8001f28:	f004 fb6a 	bl	8006600 <HAL_RNG_Init>
 8001f2c:	6832      	ldr	r2, [r6, #0]
 8001f2e:	68d3      	ldr	r3, [r2, #12]
 8001f30:	f043 0310 	orr.w	r3, r3, #16
 8001f34:	60d3      	str	r3, [r2, #12]
 8001f36:	682a      	ldr	r2, [r5, #0]
 8001f38:	68d3      	ldr	r3, [r2, #12]
 8001f3a:	f043 0310 	orr.w	r3, r3, #16
 8001f3e:	60d3      	str	r3, [r2, #12]
 8001f40:	f002 fae8 	bl	8004514 <HAL_GetTick>
 8001f44:	4b93      	ldr	r3, [pc, #588]	; (8002194 <main+0x7ec>)
 8001f46:	6018      	str	r0, [r3, #0]
 8001f48:	f002 fae4 	bl	8004514 <HAL_GetTick>
 8001f4c:	4b92      	ldr	r3, [pc, #584]	; (8002198 <main+0x7f0>)
 8001f4e:	6018      	str	r0, [r3, #0]
 8001f50:	f002 fae0 	bl	8004514 <HAL_GetTick>
 8001f54:	4b91      	ldr	r3, [pc, #580]	; (800219c <main+0x7f4>)
 8001f56:	6018      	str	r0, [r3, #0]
 8001f58:	f7ff f966 	bl	8001228 <Init6050>
 8001f5c:	f002 fada 	bl	8004514 <HAL_GetTick>
 8001f60:	4b8f      	ldr	r3, [pc, #572]	; (80021a0 <main+0x7f8>)
 8001f62:	6018      	str	r0, [r3, #0]
 8001f64:	683b      	ldr	r3, [r7, #0]
 8001f66:	625c      	str	r4, [r3, #36]	; 0x24
 8001f68:	6a5a      	ldr	r2, [r3, #36]	; 0x24
 8001f6a:	2a63      	cmp	r2, #99	; 0x63
 8001f6c:	d9fc      	bls.n	8001f68 <main+0x5c0>
 8001f6e:	488d      	ldr	r0, [pc, #564]	; (80021a4 <main+0x7fc>)
 8001f70:	f7ff f9a2 	bl	80012b8 <Serial_RPi>
 8001f74:	488b      	ldr	r0, [pc, #556]	; (80021a4 <main+0x7fc>)
 8001f76:	f7ff f9af 	bl	80012d8 <Serial_Console>
 8001f7a:	f8df 821c 	ldr.w	r8, [pc, #540]	; 8002198 <main+0x7f0>
 8001f7e:	f002 fac9 	bl	8004514 <HAL_GetTick>
 8001f82:	f8d8 3000 	ldr.w	r3, [r8]
 8001f86:	1ac0      	subs	r0, r0, r3
 8001f88:	2813      	cmp	r0, #19
 8001f8a:	d916      	bls.n	8001fba <main+0x612>
 8001f8c:	2306      	movs	r3, #6
 8001f8e:	2232      	movs	r2, #50	; 0x32
 8001f90:	e9cd 3201 	strd	r3, r2, [sp, #4]
 8001f94:	ab20      	add	r3, sp, #128	; 0x80
 8001f96:	9300      	str	r3, [sp, #0]
 8001f98:	4883      	ldr	r0, [pc, #524]	; (80021a8 <main+0x800>)
 8001f9a:	2301      	movs	r3, #1
 8001f9c:	223b      	movs	r2, #59	; 0x3b
 8001f9e:	21d0      	movs	r1, #208	; 0xd0
 8001fa0:	f003 fed2 	bl	8005d48 <HAL_I2C_Mem_Read>
 8001fa4:	b320      	cbz	r0, 8001ff0 <main+0x648>
 8001fa6:	f7ff f9a7 	bl	80012f8 <reInitIMU>
 8001faa:	f7ff f9e5 	bl	8001378 <MPU6050_Read_Gyro>
 8001fae:	f7ff f82f 	bl	8001010 <ProcessIMUData>
 8001fb2:	f002 faaf 	bl	8004514 <HAL_GetTick>
 8001fb6:	f8c8 0000 	str.w	r0, [r8]
 8001fba:	f8df 8234 	ldr.w	r8, [pc, #564]	; 80021f0 <main+0x848>
 8001fbe:	f898 3000 	ldrb.w	r3, [r8]
 8001fc2:	2b00      	cmp	r3, #0
 8001fc4:	f040 87ac 	bne.w	8002f20 <main+0x1578>
 8001fc8:	f8df b228 	ldr.w	fp, [pc, #552]	; 80021f4 <main+0x84c>
 8001fcc:	4d77      	ldr	r5, [pc, #476]	; (80021ac <main+0x804>)
 8001fce:	f7ff faaf 	bl	8001530 <CheckSecurity>
 8001fd2:	f89b 3000 	ldrb.w	r3, [fp]
 8001fd6:	2b00      	cmp	r3, #0
 8001fd8:	f000 80a7 	beq.w	800212a <main+0x782>
 8001fdc:	4b74      	ldr	r3, [pc, #464]	; (80021b0 <main+0x808>)
 8001fde:	781b      	ldrb	r3, [r3, #0]
 8001fe0:	2b00      	cmp	r3, #0
 8001fe2:	f040 809b 	bne.w	800211c <main+0x774>
 8001fe6:	f7ff f89d 	bl	8001124 <cutterOFF>
 8001fea:	f7ff f8d9 	bl	80011a0 <MotorStop>
 8001fee:	e09c      	b.n	800212a <main+0x782>
 8001ff0:	f89d 3080 	ldrb.w	r3, [sp, #128]	; 0x80
 8001ff4:	f89d 0081 	ldrb.w	r0, [sp, #129]	; 0x81
 8001ff8:	f89d 5083 	ldrb.w	r5, [sp, #131]	; 0x83
 8001ffc:	f89d 4085 	ldrb.w	r4, [sp, #133]	; 0x85
 8002000:	f8df 91f4 	ldr.w	r9, [pc, #500]	; 80021f8 <main+0x850>
 8002004:	ea40 2003 	orr.w	r0, r0, r3, lsl #8
 8002008:	4b6a      	ldr	r3, [pc, #424]	; (80021b4 <main+0x80c>)
 800200a:	b200      	sxth	r0, r0
 800200c:	8018      	strh	r0, [r3, #0]
 800200e:	f89d 3082 	ldrb.w	r3, [sp, #130]	; 0x82
 8002012:	ea45 2503 	orr.w	r5, r5, r3, lsl #8
 8002016:	4b68      	ldr	r3, [pc, #416]	; (80021b8 <main+0x810>)
 8002018:	b22d      	sxth	r5, r5
 800201a:	801d      	strh	r5, [r3, #0]
 800201c:	f89d 3084 	ldrb.w	r3, [sp, #132]	; 0x84
 8002020:	ea44 2403 	orr.w	r4, r4, r3, lsl #8
 8002024:	4b65      	ldr	r3, [pc, #404]	; (80021bc <main+0x814>)
 8002026:	b224      	sxth	r4, r4
 8002028:	801c      	strh	r4, [r3, #0]
 800202a:	f7fe fa8b 	bl	8000544 <__aeabi_i2d>
 800202e:	4b64      	ldr	r3, [pc, #400]	; (80021c0 <main+0x818>)
 8002030:	2200      	movs	r2, #0
 8002032:	f7fe faf1 	bl	8000618 <__aeabi_dmul>
 8002036:	f7fe fde7 	bl	8000c08 <__aeabi_d2f>
 800203a:	f8c9 0000 	str.w	r0, [r9]
 800203e:	4628      	mov	r0, r5
 8002040:	f7fe fa80 	bl	8000544 <__aeabi_i2d>
 8002044:	4b5e      	ldr	r3, [pc, #376]	; (80021c0 <main+0x818>)
 8002046:	4d5f      	ldr	r5, [pc, #380]	; (80021c4 <main+0x81c>)
 8002048:	2200      	movs	r2, #0
 800204a:	f7fe fae5 	bl	8000618 <__aeabi_dmul>
 800204e:	f7fe fddb 	bl	8000c08 <__aeabi_d2f>
 8002052:	4606      	mov	r6, r0
 8002054:	6028      	str	r0, [r5, #0]
 8002056:	4620      	mov	r0, r4
 8002058:	f7fe fa74 	bl	8000544 <__aeabi_i2d>
 800205c:	4b58      	ldr	r3, [pc, #352]	; (80021c0 <main+0x818>)
 800205e:	4c5a      	ldr	r4, [pc, #360]	; (80021c8 <main+0x820>)
 8002060:	2200      	movs	r2, #0
 8002062:	f7fe fad9 	bl	8000618 <__aeabi_dmul>
 8002066:	f7fe fdcf 	bl	8000c08 <__aeabi_d2f>
 800206a:	6020      	str	r0, [r4, #0]
 800206c:	f7fe fa7c 	bl	8000568 <__aeabi_f2d>
 8002070:	ec41 0b18 	vmov	d8, r0, r1
 8002074:	4630      	mov	r0, r6
 8002076:	f7fe fa77 	bl	8000568 <__aeabi_f2d>
 800207a:	eeb0 1a48 	vmov.f32	s2, s16
 800207e:	eef0 1a68 	vmov.f32	s3, s17
 8002082:	ec41 0b10 	vmov	d0, r0, r1
 8002086:	f00a ffdf 	bl	800d048 <atan2>
 800208a:	f8d9 0000 	ldr.w	r0, [r9]
 800208e:	f080 4000 	eor.w	r0, r0, #2147483648	; 0x80000000
 8002092:	ec57 6b10 	vmov	r6, r7, d0
 8002096:	f7fe fa67 	bl	8000568 <__aeabi_f2d>
 800209a:	ed94 0a00 	vldr	s0, [r4]
 800209e:	edd5 7a00 	vldr	s15, [r5]
 80020a2:	ee20 0a00 	vmul.f32	s0, s0, s0
 80020a6:	ec41 0b18 	vmov	d8, r0, r1
 80020aa:	eea7 0aa7 	vfma.f32	s0, s15, s15
 80020ae:	f00a ffcd 	bl	800d04c <sqrtf>
 80020b2:	ee10 0a10 	vmov	r0, s0
 80020b6:	f7fe fa57 	bl	8000568 <__aeabi_f2d>
 80020ba:	eeb0 0a48 	vmov.f32	s0, s16
 80020be:	eef0 0a68 	vmov.f32	s1, s17
 80020c2:	ec41 0b11 	vmov	d1, r0, r1
 80020c6:	f00a ffbf 	bl	800d048 <atan2>
 80020ca:	a325      	add	r3, pc, #148	; (adr r3, 8002160 <main+0x7b8>)
 80020cc:	e9d3 2300 	ldrd	r2, r3, [r3]
 80020d0:	4630      	mov	r0, r6
 80020d2:	4639      	mov	r1, r7
 80020d4:	ec55 4b10 	vmov	r4, r5, d0
 80020d8:	f7fe fa9e 	bl	8000618 <__aeabi_dmul>
 80020dc:	f7fe fd94 	bl	8000c08 <__aeabi_d2f>
 80020e0:	4b3a      	ldr	r3, [pc, #232]	; (80021cc <main+0x824>)
 80020e2:	ee07 0a10 	vmov	s14, r0
 80020e6:	edd3 7a00 	vldr	s15, [r3]
 80020ea:	4b39      	ldr	r3, [pc, #228]	; (80021d0 <main+0x828>)
 80020ec:	ee77 7a27 	vadd.f32	s15, s14, s15
 80020f0:	4620      	mov	r0, r4
 80020f2:	edc3 7a00 	vstr	s15, [r3]
 80020f6:	4629      	mov	r1, r5
 80020f8:	a319      	add	r3, pc, #100	; (adr r3, 8002160 <main+0x7b8>)
 80020fa:	e9d3 2300 	ldrd	r2, r3, [r3]
 80020fe:	f7fe fa8b 	bl	8000618 <__aeabi_dmul>
 8002102:	f7fe fd81 	bl	8000c08 <__aeabi_d2f>
 8002106:	4b33      	ldr	r3, [pc, #204]	; (80021d4 <main+0x82c>)
 8002108:	ee07 0a10 	vmov	s14, r0
 800210c:	edd3 7a00 	vldr	s15, [r3]
 8002110:	4b31      	ldr	r3, [pc, #196]	; (80021d8 <main+0x830>)
 8002112:	ee77 7a27 	vadd.f32	s15, s14, s15
 8002116:	edc3 7a00 	vstr	s15, [r3]
 800211a:	e746      	b.n	8001faa <main+0x602>
 800211c:	4b2f      	ldr	r3, [pc, #188]	; (80021dc <main+0x834>)
 800211e:	781b      	ldrb	r3, [r3, #0]
 8002120:	b943      	cbnz	r3, 8002134 <main+0x78c>
 8002122:	f7ff f83d 	bl	80011a0 <MotorStop>
 8002126:	f7fe fffd 	bl	8001124 <cutterOFF>
 800212a:	782b      	ldrb	r3, [r5, #0]
 800212c:	2b01      	cmp	r3, #1
 800212e:	f040 80d8 	bne.w	80022e2 <main+0x93a>
 8002132:	e210      	b.n	8002556 <main+0xbae>
 8002134:	f002 f9ee 	bl	8004514 <HAL_GetTick>
 8002138:	4b29      	ldr	r3, [pc, #164]	; (80021e0 <main+0x838>)
 800213a:	4e2a      	ldr	r6, [pc, #168]	; (80021e4 <main+0x83c>)
 800213c:	681b      	ldr	r3, [r3, #0]
 800213e:	1ac0      	subs	r0, r0, r3
 8002140:	4b29      	ldr	r3, [pc, #164]	; (80021e8 <main+0x840>)
 8002142:	781a      	ldrb	r2, [r3, #0]
 8002144:	f44f 737a 	mov.w	r3, #1000	; 0x3e8
 8002148:	4353      	muls	r3, r2
 800214a:	4298      	cmp	r0, r3
 800214c:	d356      	bcc.n	80021fc <main+0x854>
 800214e:	7833      	ldrb	r3, [r6, #0]
 8002150:	2b00      	cmp	r3, #0
 8002152:	d153      	bne.n	80021fc <main+0x854>
 8002154:	4825      	ldr	r0, [pc, #148]	; (80021ec <main+0x844>)
 8002156:	f7ff f8bf 	bl	80012d8 <Serial_Console>
 800215a:	e7e2      	b.n	8002122 <main+0x77a>
 800215c:	f3af 8000 	nop.w
 8002160:	66666666 	.word	0x66666666
 8002164:	404ca666 	.word	0x404ca666
 8002168:	20000b5c 	.word	0x20000b5c
 800216c:	20001134 	.word	0x20001134
 8002170:	40000800 	.word	0x40000800
 8002174:	20000bf8 	.word	0x20000bf8
 8002178:	0800d5c1 	.word	0x0800d5c1
 800217c:	200011cc 	.word	0x200011cc
 8002180:	20001184 	.word	0x20001184
 8002184:	20000024 	.word	0x20000024
 8002188:	20001128 	.word	0x20001128
 800218c:	20000878 	.word	0x20000878
 8002190:	20001f34 	.word	0x20001f34
 8002194:	200003c4 	.word	0x200003c4
 8002198:	200003f0 	.word	0x200003f0
 800219c:	20000418 	.word	0x20000418
 80021a0:	20001124 	.word	0x20001124
 80021a4:	0800d5e5 	.word	0x0800d5e5
 80021a8:	20000c04 	.word	0x20000c04
 80021ac:	20000826 	.word	0x20000826
 80021b0:	2000000a 	.word	0x2000000a
 80021b4:	200003cc 	.word	0x200003cc
 80021b8:	200003ce 	.word	0x200003ce
 80021bc:	200003d0 	.word	0x200003d0
 80021c0:	3f100000 	.word	0x3f100000
 80021c4:	2000117c 	.word	0x2000117c
 80021c8:	20001f44 	.word	0x20001f44
 80021cc:	20000994 	.word	0x20000994
 80021d0:	20001fdc 	.word	0x20001fdc
 80021d4:	20000928 	.word	0x20000928
 80021d8:	20000b58 	.word	0x20000b58
 80021dc:	20000820 	.word	0x20000820
 80021e0:	2000041c 	.word	0x2000041c
 80021e4:	200003e8 	.word	0x200003e8
 80021e8:	20000010 	.word	0x20000010
 80021ec:	0800d5f5 	.word	0x0800d5f5
 80021f0:	20000921 	.word	0x20000921
 80021f4:	200003f4 	.word	0x200003f4
 80021f8:	20001af0 	.word	0x20001af0
 80021fc:	7833      	ldrb	r3, [r6, #0]
 80021fe:	2b01      	cmp	r3, #1
 8002200:	d161      	bne.n	80022c6 <main+0x91e>
 8002202:	2400      	movs	r4, #0
 8002204:	2214      	movs	r2, #20
 8002206:	2100      	movs	r1, #0
 8002208:	a820      	add	r0, sp, #128	; 0x80
 800220a:	f005 fe73 	bl	8007ef4 <memset>
 800220e:	4622      	mov	r2, r4
 8002210:	a920      	add	r1, sp, #128	; 0x80
 8002212:	48b2      	ldr	r0, [pc, #712]	; (80024dc <main+0xb34>)
 8002214:	941b      	str	r4, [sp, #108]	; 0x6c
 8002216:	f004 fbdc 	bl	80069d2 <HAL_RTC_GetTime>
 800221a:	4622      	mov	r2, r4
 800221c:	48af      	ldr	r0, [pc, #700]	; (80024dc <main+0xb34>)
 800221e:	a91b      	add	r1, sp, #108	; 0x6c
 8002220:	f004 fbfc 	bl	8006a1c <HAL_RTC_GetDate>
 8002224:	4aae      	ldr	r2, [pc, #696]	; (80024e0 <main+0xb38>)
 8002226:	f89d 3080 	ldrb.w	r3, [sp, #128]	; 0x80
 800222a:	7812      	ldrb	r2, [r2, #0]
 800222c:	429a      	cmp	r2, r3
 800222e:	f63f af7c 	bhi.w	800212a <main+0x782>
 8002232:	4aac      	ldr	r2, [pc, #688]	; (80024e4 <main+0xb3c>)
 8002234:	7812      	ldrb	r2, [r2, #0]
 8002236:	429a      	cmp	r2, r3
 8002238:	f67f af77 	bls.w	800212a <main+0x782>
 800223c:	4faa      	ldr	r7, [pc, #680]	; (80024e8 <main+0xb40>)
 800223e:	783b      	ldrb	r3, [r7, #0]
 8002240:	2b01      	cmp	r3, #1
 8002242:	f47f af72 	bne.w	800212a <main+0x782>
 8002246:	f896 8000 	ldrb.w	r8, [r6]
 800224a:	f1b8 0f01 	cmp.w	r8, #1
 800224e:	f47f af6c 	bne.w	800212a <main+0x782>
 8002252:	48a6      	ldr	r0, [pc, #664]	; (80024ec <main+0xb44>)
 8002254:	f8df 92c8 	ldr.w	r9, [pc, #712]	; 8002520 <main+0xb78>
 8002258:	f7ff f83e 	bl	80012d8 <Serial_Console>
 800225c:	4641      	mov	r1, r8
 800225e:	48a4      	ldr	r0, [pc, #656]	; (80024f0 <main+0xb48>)
 8002260:	4622      	mov	r2, r4
 8002262:	f002 fff5 	bl	8005250 <HAL_GPIO_WritePin>
 8002266:	f241 3088 	movw	r0, #5000	; 0x1388
 800226a:	f002 f959 	bl	8004520 <HAL_Delay>
 800226e:	2302      	movs	r3, #2
 8002270:	702b      	strb	r3, [r5, #0]
 8002272:	f240 78d1 	movw	r8, #2001	; 0x7d1
 8002276:	46a2      	mov	sl, r4
 8002278:	f8c9 8034 	str.w	r8, [r9, #52]	; 0x34
 800227c:	2001      	movs	r0, #1
 800227e:	f8c9 a038 	str.w	sl, [r9, #56]	; 0x38
 8002282:	f8c9 a03c 	str.w	sl, [r9, #60]	; 0x3c
 8002286:	f8c9 8040 	str.w	r8, [r9, #64]	; 0x40
 800228a:	f002 f949 	bl	8004520 <HAL_Delay>
 800228e:	f108 0802 	add.w	r8, r8, #2
 8002292:	f640 531f 	movw	r3, #3359	; 0xd1f
 8002296:	4598      	cmp	r8, r3
 8002298:	d1ee      	bne.n	8002278 <main+0x8d0>
 800229a:	f44f 60fa 	mov.w	r0, #2000	; 0x7d0
 800229e:	f002 f93f 	bl	8004520 <HAL_Delay>
 80022a2:	f7fe ff7d 	bl	80011a0 <MotorStop>
 80022a6:	f44f 70fa 	mov.w	r0, #500	; 0x1f4
 80022aa:	f7ff faf7 	bl	800189c <MotorLeft.constprop.0>
 80022ae:	4b91      	ldr	r3, [pc, #580]	; (80024f4 <main+0xb4c>)
 80022b0:	7034      	strb	r4, [r6, #0]
 80022b2:	801c      	strh	r4, [r3, #0]
 80022b4:	4b90      	ldr	r3, [pc, #576]	; (80024f8 <main+0xb50>)
 80022b6:	f88b 4000 	strb.w	r4, [fp]
 80022ba:	2000      	movs	r0, #0
 80022bc:	2100      	movs	r1, #0
 80022be:	e9c3 0100 	strd	r0, r1, [r3]
 80022c2:	703c      	strb	r4, [r7, #0]
 80022c4:	e731      	b.n	800212a <main+0x782>
 80022c6:	782a      	ldrb	r2, [r5, #0]
 80022c8:	2a06      	cmp	r2, #6
 80022ca:	d121      	bne.n	8002310 <main+0x968>
 80022cc:	f7fe ff68 	bl	80011a0 <MotorStop>
 80022d0:	f7fe ff28 	bl	8001124 <cutterOFF>
 80022d4:	4c89      	ldr	r4, [pc, #548]	; (80024fc <main+0xb54>)
 80022d6:	f7ff f92b 	bl	8001530 <CheckSecurity>
 80022da:	2801      	cmp	r0, #1
 80022dc:	d114      	bne.n	8002308 <main+0x960>
 80022de:	2300      	movs	r3, #0
 80022e0:	702b      	strb	r3, [r5, #0]
 80022e2:	4f87      	ldr	r7, [pc, #540]	; (8002500 <main+0xb58>)
 80022e4:	4c87      	ldr	r4, [pc, #540]	; (8002504 <main+0xb5c>)
 80022e6:	7838      	ldrb	r0, [r7, #0]
 80022e8:	28c1      	cmp	r0, #193	; 0xc1
 80022ea:	f040 82b1 	bne.w	8002850 <main+0xea8>
 80022ee:	4e86      	ldr	r6, [pc, #536]	; (8002508 <main+0xb60>)
 80022f0:	7833      	ldrb	r3, [r6, #0]
 80022f2:	2b00      	cmp	r3, #0
 80022f4:	f040 82b5 	bne.w	8002862 <main+0xeba>
 80022f8:	f7ff f8fa 	bl	80014f0 <ADC_Send>
 80022fc:	2301      	movs	r3, #1
 80022fe:	7033      	strb	r3, [r6, #0]
 8002300:	f002 f908 	bl	8004514 <HAL_GetTick>
 8002304:	6020      	str	r0, [r4, #0]
 8002306:	e2ac      	b.n	8002862 <main+0xeba>
 8002308:	4620      	mov	r0, r4
 800230a:	f7fe ffe5 	bl	80012d8 <Serial_Console>
 800230e:	e7e2      	b.n	80022d6 <main+0x92e>
 8002310:	4b7e      	ldr	r3, [pc, #504]	; (800250c <main+0xb64>)
 8002312:	7819      	ldrb	r1, [r3, #0]
 8002314:	4b7e      	ldr	r3, [pc, #504]	; (8002510 <main+0xb68>)
 8002316:	edd3 7a00 	vldr	s15, [r3]
 800231a:	eefd 7ae7 	vcvt.s32.f32	s15, s15
 800231e:	ee17 3a90 	vmov	r3, s15
 8002322:	2b00      	cmp	r3, #0
 8002324:	bfb8      	it	lt
 8002326:	425b      	neglt	r3, r3
 8002328:	428b      	cmp	r3, r1
 800232a:	da0c      	bge.n	8002346 <main+0x99e>
 800232c:	4879      	ldr	r0, [pc, #484]	; (8002514 <main+0xb6c>)
 800232e:	9008      	str	r0, [sp, #32]
 8002330:	edd0 7a00 	vldr	s15, [r0]
 8002334:	eefd 7ae7 	vcvt.s32.f32	s15, s15
 8002338:	ee17 3a90 	vmov	r3, s15
 800233c:	2b00      	cmp	r3, #0
 800233e:	bfb8      	it	lt
 8002340:	425b      	neglt	r3, r3
 8002342:	4299      	cmp	r1, r3
 8002344:	dc1b      	bgt.n	800237e <main+0x9d6>
 8002346:	4874      	ldr	r0, [pc, #464]	; (8002518 <main+0xb70>)
 8002348:	f7fe ffc6 	bl	80012d8 <Serial_Console>
 800234c:	4b73      	ldr	r3, [pc, #460]	; (800251c <main+0xb74>)
 800234e:	782a      	ldrb	r2, [r5, #0]
 8002350:	701a      	strb	r2, [r3, #0]
 8002352:	2308      	movs	r3, #8
 8002354:	702b      	strb	r3, [r5, #0]
 8002356:	4b72      	ldr	r3, [pc, #456]	; (8002520 <main+0xb78>)
 8002358:	f640 541f 	movw	r4, #3359	; 0xd1f
 800235c:	635c      	str	r4, [r3, #52]	; 0x34
 800235e:	20fa      	movs	r0, #250	; 0xfa
 8002360:	639c      	str	r4, [r3, #56]	; 0x38
 8002362:	63dc      	str	r4, [r3, #60]	; 0x3c
 8002364:	641c      	str	r4, [r3, #64]	; 0x40
 8002366:	f002 f8db 	bl	8004520 <HAL_Delay>
 800236a:	f7fe fee7 	bl	800113c <MotorBrake>
 800236e:	4b6d      	ldr	r3, [pc, #436]	; (8002524 <main+0xb7c>)
 8002370:	f640 30b8 	movw	r0, #3000	; 0xbb8
 8002374:	635c      	str	r4, [r3, #52]	; 0x34
 8002376:	639c      	str	r4, [r3, #56]	; 0x38
 8002378:	f002 f8d2 	bl	8004520 <HAL_Delay>
 800237c:	e6d3      	b.n	8002126 <main+0x77e>
 800237e:	4f6a      	ldr	r7, [pc, #424]	; (8002528 <main+0xb80>)
 8002380:	4e6a      	ldr	r6, [pc, #424]	; (800252c <main+0xb84>)
 8002382:	783b      	ldrb	r3, [r7, #0]
 8002384:	4c6a      	ldr	r4, [pc, #424]	; (8002530 <main+0xb88>)
 8002386:	2b01      	cmp	r3, #1
 8002388:	d005      	beq.n	8002396 <main+0x9ee>
 800238a:	7833      	ldrb	r3, [r6, #0]
 800238c:	2b01      	cmp	r3, #1
 800238e:	d002      	beq.n	8002396 <main+0x9ee>
 8002390:	7823      	ldrb	r3, [r4, #0]
 8002392:	2b01      	cmp	r3, #1
 8002394:	d122      	bne.n	80023dc <main+0xa34>
 8002396:	f7fe ff03 	bl	80011a0 <MotorStop>
 800239a:	4866      	ldr	r0, [pc, #408]	; (8002534 <main+0xb8c>)
 800239c:	f7fe ff9c 	bl	80012d8 <Serial_Console>
 80023a0:	f44f 70fa 	mov.w	r0, #500	; 0x1f4
 80023a4:	f002 f8bc 	bl	8004520 <HAL_Delay>
 80023a8:	783b      	ldrb	r3, [r7, #0]
 80023aa:	2b01      	cmp	r3, #1
 80023ac:	d103      	bne.n	80023b6 <main+0xa0e>
 80023ae:	f44f 707a 	mov.w	r0, #1000	; 0x3e8
 80023b2:	f7ff fa2f 	bl	8001814 <MotorRight.constprop.0>
 80023b6:	7833      	ldrb	r3, [r6, #0]
 80023b8:	2b01      	cmp	r3, #1
 80023ba:	d103      	bne.n	80023c4 <main+0xa1c>
 80023bc:	f44f 707a 	mov.w	r0, #1000	; 0x3e8
 80023c0:	f7ff fa6c 	bl	800189c <MotorLeft.constprop.0>
 80023c4:	7823      	ldrb	r3, [r4, #0]
 80023c6:	2b01      	cmp	r3, #1
 80023c8:	d103      	bne.n	80023d2 <main+0xa2a>
 80023ca:	f44f 707a 	mov.w	r0, #1000	; 0x3e8
 80023ce:	f7ff fa21 	bl	8001814 <MotorRight.constprop.0>
 80023d2:	2300      	movs	r3, #0
 80023d4:	703b      	strb	r3, [r7, #0]
 80023d6:	7033      	strb	r3, [r6, #0]
 80023d8:	7023      	strb	r3, [r4, #0]
 80023da:	e6a6      	b.n	800212a <main+0x782>
 80023dc:	2a01      	cmp	r2, #1
 80023de:	f040 80b3 	bne.w	8002548 <main+0xba0>
 80023e2:	f7ff f8a5 	bl	8001530 <CheckSecurity>
 80023e6:	4604      	mov	r4, r0
 80023e8:	2800      	cmp	r0, #0
 80023ea:	f040 80ad 	bne.w	8002548 <main+0xba0>
 80023ee:	f7fe fed7 	bl	80011a0 <MotorStop>
 80023f2:	2214      	movs	r2, #20
 80023f4:	4621      	mov	r1, r4
 80023f6:	a820      	add	r0, sp, #128	; 0x80
 80023f8:	f005 fd7c 	bl	8007ef4 <memset>
 80023fc:	4622      	mov	r2, r4
 80023fe:	a920      	add	r1, sp, #128	; 0x80
 8002400:	4836      	ldr	r0, [pc, #216]	; (80024dc <main+0xb34>)
 8002402:	941b      	str	r4, [sp, #108]	; 0x6c
 8002404:	f004 fae5 	bl	80069d2 <HAL_RTC_GetTime>
 8002408:	4622      	mov	r2, r4
 800240a:	a91b      	add	r1, sp, #108	; 0x6c
 800240c:	4833      	ldr	r0, [pc, #204]	; (80024dc <main+0xb34>)
 800240e:	f004 fb05 	bl	8006a1c <HAL_RTC_GetDate>
 8002412:	4b34      	ldr	r3, [pc, #208]	; (80024e4 <main+0xb3c>)
 8002414:	f89d 2080 	ldrb.w	r2, [sp, #128]	; 0x80
 8002418:	781b      	ldrb	r3, [r3, #0]
 800241a:	429a      	cmp	r2, r3
 800241c:	4b46      	ldr	r3, [pc, #280]	; (8002538 <main+0xb90>)
 800241e:	bf24      	itt	cs
 8002420:	2201      	movcs	r2, #1
 8002422:	701a      	strbcs	r2, [r3, #0]
 8002424:	7819      	ldrb	r1, [r3, #0]
 8002426:	2901      	cmp	r1, #1
 8002428:	d108      	bne.n	800243c <main+0xa94>
 800242a:	f7fe fe7b 	bl	8001124 <cutterOFF>
 800242e:	f888 1000 	strb.w	r1, [r8]
 8002432:	f44f 70fa 	mov.w	r0, #500	; 0x1f4
 8002436:	f002 f873 	bl	8004520 <HAL_Delay>
 800243a:	e676      	b.n	800212a <main+0x782>
 800243c:	f44f 70fa 	mov.w	r0, #500	; 0x1f4
 8002440:	f002 f86e 	bl	8004520 <HAL_Delay>
 8002444:	f7ff f874 	bl	8001530 <CheckSecurity>
 8002448:	4b3c      	ldr	r3, [pc, #240]	; (800253c <main+0xb94>)
 800244a:	781b      	ldrb	r3, [r3, #0]
 800244c:	2b02      	cmp	r3, #2
 800244e:	d115      	bne.n	800247c <main+0xad4>
 8002450:	4b3b      	ldr	r3, [pc, #236]	; (8002540 <main+0xb98>)
 8002452:	781b      	ldrb	r3, [r3, #0]
 8002454:	2b01      	cmp	r3, #1
 8002456:	d129      	bne.n	80024ac <main+0xb04>
 8002458:	f44f 70c8 	mov.w	r0, #400	; 0x190
 800245c:	f7ff fa00 	bl	8001860 <MotorBackward.constprop.0>
 8002460:	f44f 70fa 	mov.w	r0, #500	; 0x1f4
 8002464:	f002 f85c 	bl	8004520 <HAL_Delay>
 8002468:	f44f 7048 	mov.w	r0, #800	; 0x320
 800246c:	f7ff f834 	bl	80014d8 <rnd>
 8002470:	f500 7096 	add.w	r0, r0, #300	; 0x12c
 8002474:	b280      	uxth	r0, r0
 8002476:	f7ff f9cd 	bl	8001814 <MotorRight.constprop.0>
 800247a:	e7da      	b.n	8002432 <main+0xa8a>
 800247c:	2b01      	cmp	r3, #1
 800247e:	d1d8      	bne.n	8002432 <main+0xa8a>
 8002480:	4b2f      	ldr	r3, [pc, #188]	; (8002540 <main+0xb98>)
 8002482:	781b      	ldrb	r3, [r3, #0]
 8002484:	2b02      	cmp	r3, #2
 8002486:	d1d4      	bne.n	8002432 <main+0xa8a>
 8002488:	f44f 70c8 	mov.w	r0, #400	; 0x190
 800248c:	f7ff f9e8 	bl	8001860 <MotorBackward.constprop.0>
 8002490:	f44f 70fa 	mov.w	r0, #500	; 0x1f4
 8002494:	f002 f844 	bl	8004520 <HAL_Delay>
 8002498:	f44f 7048 	mov.w	r0, #800	; 0x320
 800249c:	f7ff f81c 	bl	80014d8 <rnd>
 80024a0:	f500 7096 	add.w	r0, r0, #300	; 0x12c
 80024a4:	b280      	uxth	r0, r0
 80024a6:	f7ff f9f9 	bl	800189c <MotorLeft.constprop.0>
 80024aa:	e7c2      	b.n	8002432 <main+0xa8a>
 80024ac:	2b02      	cmp	r3, #2
 80024ae:	d1c0      	bne.n	8002432 <main+0xa8a>
 80024b0:	4824      	ldr	r0, [pc, #144]	; (8002544 <main+0xb9c>)
 80024b2:	f7fe ff11 	bl	80012d8 <Serial_Console>
 80024b6:	f640 30b8 	movw	r0, #3000	; 0xbb8
 80024ba:	f7ff f9d1 	bl	8001860 <MotorBackward.constprop.0>
 80024be:	f44f 70fa 	mov.w	r0, #500	; 0x1f4
 80024c2:	f002 f82d 	bl	8004520 <HAL_Delay>
 80024c6:	f44f 707a 	mov.w	r0, #1000	; 0x3e8
 80024ca:	f7ff f805 	bl	80014d8 <rnd>
 80024ce:	f5b0 7ffa 	cmp.w	r0, #500	; 0x1f4
 80024d2:	f44f 7048 	mov.w	r0, #800	; 0x320
 80024d6:	d2c9      	bcs.n	800246c <main+0xac4>
 80024d8:	e7e0      	b.n	800249c <main+0xaf4>
 80024da:	bf00      	nop
 80024dc:	20001ad0 	.word	0x20001ad0
 80024e0:	20000021 	.word	0x20000021
 80024e4:	20000020 	.word	0x20000020
 80024e8:	200003d4 	.word	0x200003d4
 80024ec:	0800d60f 	.word	0x0800d60f
 80024f0:	40020c00 	.word	0x40020c00
 80024f4:	20000824 	.word	0x20000824
 80024f8:	20000918 	.word	0x20000918
 80024fc:	0800d62b 	.word	0x0800d62b
 8002500:	20000001 	.word	0x20000001
 8002504:	200003c4 	.word	0x200003c4
 8002508:	200003e5 	.word	0x200003e5
 800250c:	20000011 	.word	0x20000011
 8002510:	20000924 	.word	0x20000924
 8002514:	20000990 	.word	0x20000990
 8002518:	0800d644 	.word	0x0800d644
 800251c:	200003f5 	.word	0x200003f5
 8002520:	40000800 	.word	0x40000800
 8002524:	40000400 	.word	0x40000400
 8002528:	200003c9 	.word	0x200003c9
 800252c:	200003ca 	.word	0x200003ca
 8002530:	200003c8 	.word	0x200003c8
 8002534:	0800d64f 	.word	0x0800d64f
 8002538:	20000920 	.word	0x20000920
 800253c:	200003d2 	.word	0x200003d2
 8002540:	200003d3 	.word	0x200003d3
 8002544:	0800d65a 	.word	0x0800d65a
 8002548:	782b      	ldrb	r3, [r5, #0]
 800254a:	2b01      	cmp	r3, #1
 800254c:	d15b      	bne.n	8002606 <main+0xc5e>
 800254e:	4bae      	ldr	r3, [pc, #696]	; (8002808 <main+0xe60>)
 8002550:	6b9a      	ldr	r2, [r3, #56]	; 0x38
 8002552:	2a00      	cmp	r2, #0
 8002554:	d052      	beq.n	80025fc <main+0xc54>
 8002556:	4bad      	ldr	r3, [pc, #692]	; (800280c <main+0xe64>)
 8002558:	781b      	ldrb	r3, [r3, #0]
 800255a:	2b01      	cmp	r3, #1
 800255c:	f47f aec1 	bne.w	80022e2 <main+0x93a>
 8002560:	4cab      	ldr	r4, [pc, #684]	; (8002810 <main+0xe68>)
 8002562:	f001 ffd7 	bl	8004514 <HAL_GetTick>
 8002566:	6823      	ldr	r3, [r4, #0]
 8002568:	1ac0      	subs	r0, r0, r3
 800256a:	4baa      	ldr	r3, [pc, #680]	; (8002814 <main+0xe6c>)
 800256c:	781b      	ldrb	r3, [r3, #0]
 800256e:	4298      	cmp	r0, r3
 8002570:	f4ff aeb7 	bcc.w	80022e2 <main+0x93a>
 8002574:	4ba8      	ldr	r3, [pc, #672]	; (8002818 <main+0xe70>)
 8002576:	edd3 7a00 	vldr	s15, [r3]
 800257a:	4ba8      	ldr	r3, [pc, #672]	; (800281c <main+0xe74>)
 800257c:	eefd 7ae7 	vcvt.s32.f32	s15, s15
 8002580:	f44f 72b4 	mov.w	r2, #360	; 0x168
 8002584:	ee17 0a90 	vmov	r0, s15
 8002588:	edd3 7a00 	vldr	s15, [r3]
 800258c:	eefd 7ae7 	vcvt.s32.f32	s15, s15
 8002590:	ee17 3a90 	vmov	r3, s15
 8002594:	1ac3      	subs	r3, r0, r3
 8002596:	fb93 f0f2 	sdiv	r0, r3, r2
 800259a:	fb02 3010 	mls	r0, r2, r0, r3
 800259e:	f500 7007 	add.w	r0, r0, #540	; 0x21c
 80025a2:	fbb0 f3f2 	udiv	r3, r0, r2
 80025a6:	fb02 0013 	mls	r0, r2, r3, r0
 80025aa:	38b4      	subs	r0, #180	; 0xb4
 80025ac:	b200      	sxth	r0, r0
 80025ae:	f7fd ffc9 	bl	8000544 <__aeabi_i2d>
 80025b2:	4b9b      	ldr	r3, [pc, #620]	; (8002820 <main+0xe78>)
 80025b4:	2200      	movs	r2, #0
 80025b6:	f7fe f82f 	bl	8000618 <__aeabi_dmul>
 80025ba:	f7fe fadd 	bl	8000b78 <__aeabi_d2iz>
 80025be:	b200      	sxth	r0, r0
 80025c0:	2800      	cmp	r0, #0
 80025c2:	f2c0 8110 	blt.w	80027e6 <main+0xe3e>
 80025c6:	bf14      	ite	ne
 80025c8:	2301      	movne	r3, #1
 80025ca:	2300      	moveq	r3, #0
 80025cc:	4a95      	ldr	r2, [pc, #596]	; (8002824 <main+0xe7c>)
 80025ce:	4290      	cmp	r0, r2
 80025d0:	bfb8      	it	lt
 80025d2:	4610      	movlt	r0, r2
 80025d4:	f5b0 7f7a 	cmp.w	r0, #1000	; 0x3e8
 80025d8:	bfa8      	it	ge
 80025da:	f44f 707a 	movge.w	r0, #1000	; 0x3e8
 80025de:	2b01      	cmp	r3, #1
 80025e0:	4a89      	ldr	r2, [pc, #548]	; (8002808 <main+0xe60>)
 80025e2:	f640 511f 	movw	r1, #3359	; 0xd1f
 80025e6:	f040 8101 	bne.w	80027ec <main+0xe44>
 80025ea:	ea80 73e0 	eor.w	r3, r0, r0, asr #31
 80025ee:	eba3 73e0 	sub.w	r3, r3, r0, asr #31
 80025f2:	b29b      	uxth	r3, r3
 80025f4:	1acb      	subs	r3, r1, r3
 80025f6:	6393      	str	r3, [r2, #56]	; 0x38
 80025f8:	63d1      	str	r1, [r2, #60]	; 0x3c
 80025fa:	e101      	b.n	8002800 <main+0xe58>
 80025fc:	6bdb      	ldr	r3, [r3, #60]	; 0x3c
 80025fe:	2b00      	cmp	r3, #0
 8002600:	f43f ae6d 	beq.w	80022de <main+0x936>
 8002604:	e7a7      	b.n	8002556 <main+0xbae>
 8002606:	2b00      	cmp	r3, #0
 8002608:	f47f ae6b 	bne.w	80022e2 <main+0x93a>
 800260c:	f7fe ff90 	bl	8001530 <CheckSecurity>
 8002610:	2801      	cmp	r0, #1
 8002612:	4606      	mov	r6, r0
 8002614:	f040 80a6 	bne.w	8002764 <main+0xdbc>
 8002618:	f44f 70fa 	mov.w	r0, #500	; 0x1f4
 800261c:	f001 ff80 	bl	8004520 <HAL_Delay>
 8002620:	4b7d      	ldr	r3, [pc, #500]	; (8002818 <main+0xe70>)
 8002622:	681a      	ldr	r2, [r3, #0]
 8002624:	4b7d      	ldr	r3, [pc, #500]	; (800281c <main+0xe74>)
 8002626:	601a      	str	r2, [r3, #0]
 8002628:	4b7f      	ldr	r3, [pc, #508]	; (8002828 <main+0xe80>)
 800262a:	4a80      	ldr	r2, [pc, #512]	; (800282c <main+0xe84>)
 800262c:	781c      	ldrb	r4, [r3, #0]
 800262e:	7812      	ldrb	r2, [r2, #0]
 8002630:	4314      	orrs	r4, r2
 8002632:	d068      	beq.n	8002706 <main+0xd5e>
 8002634:	487e      	ldr	r0, [pc, #504]	; (8002830 <main+0xe88>)
 8002636:	4f74      	ldr	r7, [pc, #464]	; (8002808 <main+0xe60>)
 8002638:	f7fe fe4e 	bl	80012d8 <Serial_Console>
 800263c:	2301      	movs	r3, #1
 800263e:	702b      	strb	r3, [r5, #0]
 8002640:	f7fe fe9a 	bl	8001378 <MPU6050_Read_Gyro>
 8002644:	f7fe fce4 	bl	8001010 <ProcessIMUData>
 8002648:	f240 76d3 	movw	r6, #2003	; 0x7d3
 800264c:	f04f 0a00 	mov.w	sl, #0
 8002650:	9b08      	ldr	r3, [sp, #32]
 8002652:	edd3 7a00 	vldr	s15, [r3]
 8002656:	eef5 7ac0 	vcmpe.f32	s15, #0.0
 800265a:	eef1 fa10 	vmrs	APSR_nzcv, fpscr
 800265e:	bfc4      	itt	gt
 8002660:	ed9f 7a74 	vldrgt	s14, [pc, #464]	; 8002834 <main+0xe8c>
 8002664:	ee27 7a87 	vmulgt.f32	s14, s15, s14
 8002668:	eef5 7ac0 	vcmpe.f32	s15, #0.0
 800266c:	bfc5      	ittet	gt
 800266e:	eeb0 7ac7 	vabsgt.f32	s14, s14
 8002672:	eebc 7ac7 	vcvtgt.u32.f32	s14, s14
 8002676:	2300      	movle	r3, #0
 8002678:	ee17 3a10 	vmovgt	r3, s14
 800267c:	bfc8      	it	gt
 800267e:	b29b      	uxthgt	r3, r3
 8002680:	eef1 fa10 	vmrs	APSR_nzcv, fpscr
 8002684:	bf48      	it	mi
 8002686:	ed9f 7a6b 	vldrmi	s14, [pc, #428]	; 8002834 <main+0xe8c>
 800268a:	930b      	str	r3, [sp, #44]	; 0x2c
 800268c:	bf48      	it	mi
 800268e:	ee67 7a87 	vmulmi.f32	s15, s15, s14
 8002692:	4630      	mov	r0, r6
 8002694:	bf44      	itt	mi
 8002696:	eef0 7ae7 	vabsmi.f32	s15, s15
 800269a:	eefc 7ae7 	vcvtmi.u32.f32	s15, s15
 800269e:	f8c7 a034 	str.w	sl, [r7, #52]	; 0x34
 80026a2:	bf4a      	itet	mi
 80026a4:	ee17 2a90 	vmovmi	r2, s15
 80026a8:	2400      	movpl	r4, #0
 80026aa:	b294      	uxthmi	r4, r2
 80026ac:	f7fd ff4a 	bl	8000544 <__aeabi_i2d>
 80026b0:	9b0b      	ldr	r3, [sp, #44]	; 0x2c
 80026b2:	4680      	mov	r8, r0
 80026b4:	4618      	mov	r0, r3
 80026b6:	4689      	mov	r9, r1
 80026b8:	f7fd ff34 	bl	8000524 <__aeabi_ui2d>
 80026bc:	4602      	mov	r2, r0
 80026be:	460b      	mov	r3, r1
 80026c0:	4640      	mov	r0, r8
 80026c2:	4649      	mov	r1, r9
 80026c4:	f7fd fdf0 	bl	80002a8 <__aeabi_dsub>
 80026c8:	f7fe fa7e 	bl	8000bc8 <__aeabi_d2uiz>
 80026cc:	63b8      	str	r0, [r7, #56]	; 0x38
 80026ce:	4620      	mov	r0, r4
 80026d0:	f7fd ff28 	bl	8000524 <__aeabi_ui2d>
 80026d4:	4602      	mov	r2, r0
 80026d6:	460b      	mov	r3, r1
 80026d8:	4640      	mov	r0, r8
 80026da:	4649      	mov	r1, r9
 80026dc:	f7fd fde4 	bl	80002a8 <__aeabi_dsub>
 80026e0:	f7fe fa72 	bl	8000bc8 <__aeabi_d2uiz>
 80026e4:	63f8      	str	r0, [r7, #60]	; 0x3c
 80026e6:	2001      	movs	r0, #1
 80026e8:	f8c7 a040 	str.w	sl, [r7, #64]	; 0x40
 80026ec:	f001 ff18 	bl	8004520 <HAL_Delay>
 80026f0:	f7fe ff1e 	bl	8001530 <CheckSecurity>
 80026f4:	3604      	adds	r6, #4
 80026f6:	2800      	cmp	r0, #0
 80026f8:	f43f ac77 	beq.w	8001fea <main+0x642>
 80026fc:	f640 531f 	movw	r3, #3359	; 0xd1f
 8002700:	429e      	cmp	r6, r3
 8002702:	d1a5      	bne.n	8002650 <main+0xca8>
 8002704:	e511      	b.n	800212a <main+0x782>
 8002706:	484c      	ldr	r0, [pc, #304]	; (8002838 <main+0xe90>)
 8002708:	701e      	strb	r6, [r3, #0]
 800270a:	f7fe fde5 	bl	80012d8 <Serial_Console>
 800270e:	f44f 707a 	mov.w	r0, #1000	; 0x3e8
 8002712:	f7fe fee1 	bl	80014d8 <rnd>
 8002716:	f5b0 7ffa 	cmp.w	r0, #500	; 0x1f4
 800271a:	4f48      	ldr	r7, [pc, #288]	; (800283c <main+0xe94>)
 800271c:	4e48      	ldr	r6, [pc, #288]	; (8002840 <main+0xe98>)
 800271e:	f44f 787a 	mov.w	r8, #1000	; 0x3e8
 8002722:	d20f      	bcs.n	8002744 <main+0xd9c>
 8002724:	f001 fef6 	bl	8004514 <HAL_GetTick>
 8002728:	6030      	str	r0, [r6, #0]
 800272a:	f8c7 8034 	str.w	r8, [r7, #52]	; 0x34
 800272e:	2002      	movs	r0, #2
 8002730:	63bc      	str	r4, [r7, #56]	; 0x38
 8002732:	f001 fef5 	bl	8004520 <HAL_Delay>
 8002736:	f108 0801 	add.w	r8, r8, #1
 800273a:	f640 235a 	movw	r3, #2650	; 0xa5a
 800273e:	4598      	cmp	r8, r3
 8002740:	d1f0      	bne.n	8002724 <main+0xd7c>
 8002742:	e777      	b.n	8002634 <main+0xc8c>
 8002744:	f001 fee6 	bl	8004514 <HAL_GetTick>
 8002748:	6030      	str	r0, [r6, #0]
 800274a:	637c      	str	r4, [r7, #52]	; 0x34
 800274c:	2002      	movs	r0, #2
 800274e:	f8c7 8038 	str.w	r8, [r7, #56]	; 0x38
 8002752:	f001 fee5 	bl	8004520 <HAL_Delay>
 8002756:	f108 0801 	add.w	r8, r8, #1
 800275a:	f640 235a 	movw	r3, #2650	; 0xa5a
 800275e:	4598      	cmp	r8, r3
 8002760:	d1f0      	bne.n	8002744 <main+0xd9c>
 8002762:	e767      	b.n	8002634 <main+0xc8c>
 8002764:	782b      	ldrb	r3, [r5, #0]
 8002766:	2b00      	cmp	r3, #0
 8002768:	f47f acdf 	bne.w	800212a <main+0x782>
 800276c:	f7fe fee0 	bl	8001530 <CheckSecurity>
 8002770:	2800      	cmp	r0, #0
 8002772:	f47f acda 	bne.w	800212a <main+0x782>
 8002776:	f44f 70fa 	mov.w	r0, #500	; 0x1f4
 800277a:	f001 fed1 	bl	8004520 <HAL_Delay>
 800277e:	4831      	ldr	r0, [pc, #196]	; (8002844 <main+0xe9c>)
 8002780:	f7fe fdaa 	bl	80012d8 <Serial_Console>
 8002784:	f7fe fed4 	bl	8001530 <CheckSecurity>
 8002788:	4b2f      	ldr	r3, [pc, #188]	; (8002848 <main+0xea0>)
 800278a:	4a30      	ldr	r2, [pc, #192]	; (800284c <main+0xea4>)
 800278c:	781b      	ldrb	r3, [r3, #0]
 800278e:	2b01      	cmp	r3, #1
 8002790:	d10d      	bne.n	80027ae <main+0xe06>
 8002792:	7811      	ldrb	r1, [r2, #0]
 8002794:	f011 0ffd 	tst.w	r1, #253	; 0xfd
 8002798:	d109      	bne.n	80027ae <main+0xe06>
 800279a:	f44f 7048 	mov.w	r0, #800	; 0x320
 800279e:	f7fe fe9b 	bl	80014d8 <rnd>
 80027a2:	f500 7096 	add.w	r0, r0, #300	; 0x12c
 80027a6:	b280      	uxth	r0, r0
 80027a8:	f7ff f878 	bl	800189c <MotorLeft.constprop.0>
 80027ac:	e4bd      	b.n	800212a <main+0x782>
 80027ae:	7812      	ldrb	r2, [r2, #0]
 80027b0:	2a01      	cmp	r2, #1
 80027b2:	d10d      	bne.n	80027d0 <main+0xe28>
 80027b4:	f013 0ffd 	tst.w	r3, #253	; 0xfd
 80027b8:	f47f acb7 	bne.w	800212a <main+0x782>
 80027bc:	f44f 7048 	mov.w	r0, #800	; 0x320
 80027c0:	f7fe fe8a 	bl	80014d8 <rnd>
 80027c4:	f500 7096 	add.w	r0, r0, #300	; 0x12c
 80027c8:	b280      	uxth	r0, r0
 80027ca:	f7ff f823 	bl	8001814 <MotorRight.constprop.0>
 80027ce:	e4ac      	b.n	800212a <main+0x782>
 80027d0:	2b02      	cmp	r3, #2
 80027d2:	f47f acaa 	bne.w	800212a <main+0x782>
 80027d6:	2a02      	cmp	r2, #2
 80027d8:	f47f aca7 	bne.w	800212a <main+0x782>
 80027dc:	f640 30b8 	movw	r0, #3000	; 0xbb8
 80027e0:	f7ff f83e 	bl	8001860 <MotorBackward.constprop.0>
 80027e4:	e7ea      	b.n	80027bc <main+0xe14>
 80027e6:	f04f 33ff 	mov.w	r3, #4294967295
 80027ea:	e6ef      	b.n	80025cc <main+0xc24>
 80027ec:	3301      	adds	r3, #1
 80027ee:	6391      	str	r1, [r2, #56]	; 0x38
 80027f0:	f47f af02 	bne.w	80025f8 <main+0xc50>
 80027f4:	2800      	cmp	r0, #0
 80027f6:	bfb8      	it	lt
 80027f8:	4240      	neglt	r0, r0
 80027fa:	b280      	uxth	r0, r0
 80027fc:	1a08      	subs	r0, r1, r0
 80027fe:	63d0      	str	r0, [r2, #60]	; 0x3c
 8002800:	f001 fe88 	bl	8004514 <HAL_GetTick>
 8002804:	6020      	str	r0, [r4, #0]
 8002806:	e56c      	b.n	80022e2 <main+0x93a>
 8002808:	40000800 	.word	0x40000800
 800280c:	200003e9 	.word	0x200003e9
 8002810:	20000418 	.word	0x20000418
 8002814:	2000000b 	.word	0x2000000b
 8002818:	20000908 	.word	0x20000908
 800281c:	2000090c 	.word	0x2000090c
 8002820:	405e0000 	.word	0x405e0000
 8002824:	fffffc18 	.word	0xfffffc18
 8002828:	20000860 	.word	0x20000860
 800282c:	20000920 	.word	0x20000920
 8002830:	0800d66b 	.word	0x0800d66b
 8002834:	42480000 	.word	0x42480000
 8002838:	0800d67b 	.word	0x0800d67b
 800283c:	40000400 	.word	0x40000400
 8002840:	20001124 	.word	0x20001124
 8002844:	0800d68d 	.word	0x0800d68d
 8002848:	200003d2 	.word	0x200003d2
 800284c:	200003d3 	.word	0x200003d3
 8002850:	28e1      	cmp	r0, #225	; 0xe1
 8002852:	f43f ad4c 	beq.w	80022ee <main+0x946>
 8002856:	28f1      	cmp	r0, #241	; 0xf1
 8002858:	f43f ad49 	beq.w	80022ee <main+0x946>
 800285c:	28d1      	cmp	r0, #209	; 0xd1
 800285e:	f43f ad46 	beq.w	80022ee <main+0x946>
 8002862:	f001 fe57 	bl	8004514 <HAL_GetTick>
 8002866:	6823      	ldr	r3, [r4, #0]
 8002868:	1ac0      	subs	r0, r0, r3
 800286a:	2813      	cmp	r0, #19
 800286c:	f240 80ee 	bls.w	8002a4c <main+0x10a4>
 8002870:	f8df 93b8 	ldr.w	r9, [pc, #952]	; 8002c2c <main+0x1284>
 8002874:	f899 3000 	ldrb.w	r3, [r9]
 8002878:	2b01      	cmp	r3, #1
 800287a:	f040 80e7 	bne.w	8002a4c <main+0x10a4>
 800287e:	2364      	movs	r3, #100	; 0x64
 8002880:	9300      	str	r3, [sp, #0]
 8002882:	48bd      	ldr	r0, [pc, #756]	; (8002b78 <main+0x11d0>)
 8002884:	f8df 83a8 	ldr.w	r8, [pc, #936]	; 8002c30 <main+0x1288>
 8002888:	2302      	movs	r3, #2
 800288a:	aa20      	add	r2, sp, #128	; 0x80
 800288c:	2190      	movs	r1, #144	; 0x90
 800288e:	f003 f85b 	bl	8005948 <HAL_I2C_Master_Receive>
 8002892:	f8bd 4080 	ldrh.w	r4, [sp, #128]	; 0x80
 8002896:	f898 6000 	ldrb.w	r6, [r8]
 800289a:	ba64      	rev16	r4, r4
 800289c:	b2a4      	uxth	r4, r4
 800289e:	f5b4 4f00 	cmp.w	r4, #32768	; 0x8000
 80028a2:	bf88      	it	hi
 80028a4:	2400      	movhi	r4, #0
 80028a6:	2e0a      	cmp	r6, #10
 80028a8:	d007      	beq.n	80028ba <main+0xf12>
 80028aa:	4bb4      	ldr	r3, [pc, #720]	; (8002b7c <main+0x11d4>)
 80028ac:	781b      	ldrb	r3, [r3, #0]
 80028ae:	2b0a      	cmp	r3, #10
 80028b0:	d003      	beq.n	80028ba <main+0xf12>
 80028b2:	4bb3      	ldr	r3, [pc, #716]	; (8002b80 <main+0x11d8>)
 80028b4:	781b      	ldrb	r3, [r3, #0]
 80028b6:	2b0a      	cmp	r3, #10
 80028b8:	d102      	bne.n	80028c0 <main+0xf18>
 80028ba:	4bb2      	ldr	r3, [pc, #712]	; (8002b84 <main+0x11dc>)
 80028bc:	2201      	movs	r2, #1
 80028be:	701a      	strb	r2, [r3, #0]
 80028c0:	783b      	ldrb	r3, [r7, #0]
 80028c2:	2bc1      	cmp	r3, #193	; 0xc1
 80028c4:	f040 8229 	bne.w	8002d1a <main+0x1372>
 80028c8:	4baf      	ldr	r3, [pc, #700]	; (8002b88 <main+0x11e0>)
 80028ca:	4620      	mov	r0, r4
 80028cc:	601c      	str	r4, [r3, #0]
 80028ce:	f7fd fe39 	bl	8000544 <__aeabi_i2d>
 80028d2:	4bae      	ldr	r3, [pc, #696]	; (8002b8c <main+0x11e4>)
 80028d4:	2200      	movs	r2, #0
 80028d6:	f7fd fe9f 	bl	8000618 <__aeabi_dmul>
 80028da:	a3a1      	add	r3, pc, #644	; (adr r3, 8002b60 <main+0x11b8>)
 80028dc:	e9d3 2300 	ldrd	r2, r3, [r3]
 80028e0:	f7fd fce2 	bl	80002a8 <__aeabi_dsub>
 80028e4:	4baa      	ldr	r3, [pc, #680]	; (8002b90 <main+0x11e8>)
 80028e6:	2200      	movs	r2, #0
 80028e8:	f7fd ffc0 	bl	800086c <__aeabi_ddiv>
 80028ec:	f7fe f98c 	bl	8000c08 <__aeabi_d2f>
 80028f0:	f89b 2000 	ldrb.w	r2, [fp]
 80028f4:	4ba7      	ldr	r3, [pc, #668]	; (8002b94 <main+0x11ec>)
 80028f6:	ee07 0a90 	vmov	s15, r0
 80028fa:	eeb0 8ae7 	vabs.f32	s16, s15
 80028fe:	b90a      	cbnz	r2, 8002904 <main+0xf5c>
 8002900:	ed83 8a00 	vstr	s16, [r3]
 8002904:	edd3 7a00 	vldr	s15, [r3]
 8002908:	4ba3      	ldr	r3, [pc, #652]	; (8002b98 <main+0x11f0>)
 800290a:	4aa4      	ldr	r2, [pc, #656]	; (8002b9c <main+0x11f4>)
 800290c:	ee38 8a67 	vsub.f32	s16, s16, s15
 8002910:	eddf 7aa3 	vldr	s15, [pc, #652]	; 8002ba0 <main+0x11f8>
 8002914:	eeb0 8ac8 	vabs.f32	s16, s16
 8002918:	ed83 8a00 	vstr	s16, [r3]
 800291c:	4b9f      	ldr	r3, [pc, #636]	; (8002b9c <main+0x11f4>)
 800291e:	eb03 0386 	add.w	r3, r3, r6, lsl #2
 8002922:	3601      	adds	r6, #1
 8002924:	b2f6      	uxtb	r6, r6
 8002926:	2e14      	cmp	r6, #20
 8002928:	ed83 8a00 	vstr	s16, [r3]
 800292c:	bf08      	it	eq
 800292e:	2300      	moveq	r3, #0
 8002930:	f888 6000 	strb.w	r6, [r8]
 8002934:	bf08      	it	eq
 8002936:	f888 3000 	strbeq.w	r3, [r8]
 800293a:	2314      	movs	r3, #20
 800293c:	ecb2 7a01 	vldmia	r2!, {s14}
 8002940:	3b01      	subs	r3, #1
 8002942:	ee77 7a87 	vadd.f32	s15, s15, s14
 8002946:	d1f9      	bne.n	800293c <main+0xf94>
 8002948:	eef3 6a04 	vmov.f32	s13, #52	; 0x41a00000  20.0
 800294c:	ee87 7aa6 	vdiv.f32	s14, s15, s13
 8002950:	4e94      	ldr	r6, [pc, #592]	; (8002ba4 <main+0x11fc>)
 8002952:	ee17 0a10 	vmov	r0, s14
 8002956:	ed86 7a00 	vstr	s14, [r6]
 800295a:	f7fd fe05 	bl	8000568 <__aeabi_f2d>
 800295e:	a382      	add	r3, pc, #520	; (adr r3, 8002b68 <main+0x11c0>)
 8002960:	e9d3 2300 	ldrd	r2, r3, [r3]
 8002964:	f7fe f8ca 	bl	8000afc <__aeabi_dcmplt>
 8002968:	b108      	cbz	r0, 800296e <main+0xfc6>
 800296a:	4b8f      	ldr	r3, [pc, #572]	; (8002ba8 <main+0x1200>)
 800296c:	6033      	str	r3, [r6, #0]
 800296e:	ee18 0a10 	vmov	r0, s16
 8002972:	f7fd fdf9 	bl	8000568 <__aeabi_f2d>
 8002976:	a37e      	add	r3, pc, #504	; (adr r3, 8002b70 <main+0x11c8>)
 8002978:	e9d3 2300 	ldrd	r2, r3, [r3]
 800297c:	f7fe f8d2 	bl	8000b24 <__aeabi_dcmpge>
 8002980:	b958      	cbnz	r0, 800299a <main+0xff2>
 8002982:	4b8a      	ldr	r3, [pc, #552]	; (8002bac <main+0x1204>)
 8002984:	edd6 7a00 	vldr	s15, [r6]
 8002988:	ed93 7a00 	vldr	s14, [r3]
 800298c:	ee67 7a87 	vmul.f32	s15, s15, s14
 8002990:	eeb4 8ae7 	vcmpe.f32	s16, s15
 8002994:	eef1 fa10 	vmrs	APSR_nzcv, fpscr
 8002998:	db21      	blt.n	80029de <main+0x1036>
 800299a:	782b      	ldrb	r3, [r5, #0]
 800299c:	2b01      	cmp	r3, #1
 800299e:	d11e      	bne.n	80029de <main+0x1036>
 80029a0:	4d78      	ldr	r5, [pc, #480]	; (8002b84 <main+0x11dc>)
 80029a2:	782b      	ldrb	r3, [r5, #0]
 80029a4:	2b01      	cmp	r3, #1
 80029a6:	d11a      	bne.n	80029de <main+0x1036>
 80029a8:	4881      	ldr	r0, [pc, #516]	; (8002bb0 <main+0x1208>)
 80029aa:	f44f 7180 	mov.w	r1, #256	; 0x100
 80029ae:	f002 fc49 	bl	8005244 <HAL_GPIO_ReadPin>
 80029b2:	2801      	cmp	r0, #1
 80029b4:	d013      	beq.n	80029de <main+0x1036>
 80029b6:	f7fe fbc1 	bl	800113c <MotorBrake>
 80029ba:	f44f 70fa 	mov.w	r0, #500	; 0x1f4
 80029be:	f001 fdaf 	bl	8004520 <HAL_Delay>
 80029c2:	f44f 70c8 	mov.w	r0, #400	; 0x190
 80029c6:	f7fe ff4b 	bl	8001860 <MotorBackward.constprop.0>
 80029ca:	f44f 70fa 	mov.w	r0, #500	; 0x1f4
 80029ce:	f001 fda7 	bl	8004520 <HAL_Delay>
 80029d2:	f44f 7096 	mov.w	r0, #300	; 0x12c
 80029d6:	f7fe ff1d 	bl	8001814 <MotorRight.constprop.0>
 80029da:	2300      	movs	r3, #0
 80029dc:	702b      	strb	r3, [r5, #0]
 80029de:	783b      	ldrb	r3, [r7, #0]
 80029e0:	2bf1      	cmp	r3, #241	; 0xf1
 80029e2:	f040 822b 	bne.w	8002e3c <main+0x1494>
 80029e6:	4b73      	ldr	r3, [pc, #460]	; (8002bb4 <main+0x120c>)
 80029e8:	4620      	mov	r0, r4
 80029ea:	601c      	str	r4, [r3, #0]
 80029ec:	f7fd fdaa 	bl	8000544 <__aeabi_i2d>
 80029f0:	4b66      	ldr	r3, [pc, #408]	; (8002b8c <main+0x11e4>)
 80029f2:	2200      	movs	r2, #0
 80029f4:	f7fd fe10 	bl	8000618 <__aeabi_dmul>
 80029f8:	a359      	add	r3, pc, #356	; (adr r3, 8002b60 <main+0x11b8>)
 80029fa:	e9d3 2300 	ldrd	r2, r3, [r3]
 80029fe:	f7fd fc53 	bl	80002a8 <__aeabi_dsub>
 8002a02:	4b63      	ldr	r3, [pc, #396]	; (8002b90 <main+0x11e8>)
 8002a04:	2200      	movs	r2, #0
 8002a06:	f7fd ff31 	bl	800086c <__aeabi_ddiv>
 8002a0a:	f7fe f8fd 	bl	8000c08 <__aeabi_d2f>
 8002a0e:	f89b 2000 	ldrb.w	r2, [fp]
 8002a12:	4b69      	ldr	r3, [pc, #420]	; (8002bb8 <main+0x1210>)
 8002a14:	ee07 0a90 	vmov	s15, r0
 8002a18:	eef0 7ae7 	vabs.f32	s15, s15
 8002a1c:	b90a      	cbnz	r2, 8002a22 <main+0x107a>
 8002a1e:	edc3 7a00 	vstr	s15, [r3]
 8002a22:	ed93 7a00 	vldr	s14, [r3]
 8002a26:	4b65      	ldr	r3, [pc, #404]	; (8002bbc <main+0x1214>)
 8002a28:	ee77 7ac7 	vsub.f32	s15, s15, s14
 8002a2c:	eef0 7ae7 	vabs.f32	s15, s15
 8002a30:	edc3 7a00 	vstr	s15, [r3]
 8002a34:	4b62      	ldr	r3, [pc, #392]	; (8002bc0 <main+0x1218>)
 8002a36:	ed93 7a00 	vldr	s14, [r3]
 8002a3a:	eef4 7ac7 	vcmpe.f32	s15, s14
 8002a3e:	eef1 fa10 	vmrs	APSR_nzcv, fpscr
 8002a42:	f2c1 813d 	blt.w	8003cc0 <main+0x2318>
 8002a46:	4b5f      	ldr	r3, [pc, #380]	; (8002bc4 <main+0x121c>)
 8002a48:	2200      	movs	r2, #0
 8002a4a:	701a      	strb	r2, [r3, #0]
 8002a4c:	4b5e      	ldr	r3, [pc, #376]	; (8002bc8 <main+0x1220>)
 8002a4e:	eddf 7a5f 	vldr	s15, [pc, #380]	; 8002bcc <main+0x1224>
 8002a52:	ed93 7a00 	vldr	s14, [r3]
 8002a56:	eeb4 7ae7 	vcmpe.f32	s14, s15
 8002a5a:	eef1 fa10 	vmrs	APSR_nzcv, fpscr
 8002a5e:	d511      	bpl.n	8002a84 <main+0x10dc>
 8002a60:	4c5b      	ldr	r4, [pc, #364]	; (8002bd0 <main+0x1228>)
 8002a62:	7823      	ldrb	r3, [r4, #0]
 8002a64:	2b01      	cmp	r3, #1
 8002a66:	d00d      	beq.n	8002a84 <main+0x10dc>
 8002a68:	495a      	ldr	r1, [pc, #360]	; (8002bd4 <main+0x122c>)
 8002a6a:	485b      	ldr	r0, [pc, #364]	; (8002bd8 <main+0x1230>)
 8002a6c:	f006 f95b 	bl	8008d26 <strcpy>
 8002a70:	4859      	ldr	r0, [pc, #356]	; (8002bd8 <main+0x1230>)
 8002a72:	f7fe fc21 	bl	80012b8 <Serial_RPi>
 8002a76:	4858      	ldr	r0, [pc, #352]	; (8002bd8 <main+0x1230>)
 8002a78:	f7fe fc2e 	bl	80012d8 <Serial_Console>
 8002a7c:	2301      	movs	r3, #1
 8002a7e:	7023      	strb	r3, [r4, #0]
 8002a80:	f7fe fb50 	bl	8001124 <cutterOFF>
 8002a84:	4b55      	ldr	r3, [pc, #340]	; (8002bdc <main+0x1234>)
 8002a86:	781a      	ldrb	r2, [r3, #0]
 8002a88:	2a01      	cmp	r2, #1
 8002a8a:	d10e      	bne.n	8002aaa <main+0x1102>
 8002a8c:	2400      	movs	r4, #0
 8002a8e:	701c      	strb	r4, [r3, #0]
 8002a90:	4b53      	ldr	r3, [pc, #332]	; (8002be0 <main+0x1238>)
 8002a92:	781b      	ldrb	r3, [r3, #0]
 8002a94:	2b00      	cmp	r3, #0
 8002a96:	f040 8363 	bne.w	8003160 <main+0x17b8>
 8002a9a:	4a52      	ldr	r2, [pc, #328]	; (8002be4 <main+0x123c>)
 8002a9c:	6013      	str	r3, [r2, #0]
 8002a9e:	4a52      	ldr	r2, [pc, #328]	; (8002be8 <main+0x1240>)
 8002aa0:	6013      	str	r3, [r2, #0]
 8002aa2:	4a52      	ldr	r2, [pc, #328]	; (8002bec <main+0x1244>)
 8002aa4:	6013      	str	r3, [r2, #0]
 8002aa6:	4a52      	ldr	r2, [pc, #328]	; (8002bf0 <main+0x1248>)
 8002aa8:	6013      	str	r3, [r2, #0]
 8002aaa:	4b52      	ldr	r3, [pc, #328]	; (8002bf4 <main+0x124c>)
 8002aac:	781b      	ldrb	r3, [r3, #0]
 8002aae:	2b01      	cmp	r3, #1
 8002ab0:	d004      	beq.n	8002abc <main+0x1114>
 8002ab2:	4c51      	ldr	r4, [pc, #324]	; (8002bf8 <main+0x1250>)
 8002ab4:	7823      	ldrb	r3, [r4, #0]
 8002ab6:	2b01      	cmp	r3, #1
 8002ab8:	f040 8436 	bne.w	8003328 <main+0x1980>
 8002abc:	4b42      	ldr	r3, [pc, #264]	; (8002bc8 <main+0x1220>)
 8002abe:	eddf 7a4f 	vldr	s15, [pc, #316]	; 8002bfc <main+0x1254>
 8002ac2:	ed93 7a00 	vldr	s14, [r3]
 8002ac6:	eeb4 7ae7 	vcmpe.f32	s14, s15
 8002aca:	eef1 fa10 	vmrs	APSR_nzcv, fpscr
 8002ace:	db0f      	blt.n	8002af0 <main+0x1148>
 8002ad0:	4b4b      	ldr	r3, [pc, #300]	; (8002c00 <main+0x1258>)
 8002ad2:	781c      	ldrb	r4, [r3, #0]
 8002ad4:	b964      	cbnz	r4, 8002af0 <main+0x1148>
 8002ad6:	2201      	movs	r2, #1
 8002ad8:	701a      	strb	r2, [r3, #0]
 8002ada:	484a      	ldr	r0, [pc, #296]	; (8002c04 <main+0x125c>)
 8002adc:	4622      	mov	r2, r4
 8002ade:	f44f 6180 	mov.w	r1, #1024	; 0x400
 8002ae2:	f002 fbb5 	bl	8005250 <HAL_GPIO_WritePin>
 8002ae6:	4848      	ldr	r0, [pc, #288]	; (8002c08 <main+0x1260>)
 8002ae8:	f7fe fbf6 	bl	80012d8 <Serial_Console>
 8002aec:	4b41      	ldr	r3, [pc, #260]	; (8002bf4 <main+0x124c>)
 8002aee:	701c      	strb	r4, [r3, #0]
 8002af0:	4946      	ldr	r1, [pc, #280]	; (8002c0c <main+0x1264>)
 8002af2:	4847      	ldr	r0, [pc, #284]	; (8002c10 <main+0x1268>)
 8002af4:	4d47      	ldr	r5, [pc, #284]	; (8002c14 <main+0x126c>)
 8002af6:	4c45      	ldr	r4, [pc, #276]	; (8002c0c <main+0x1264>)
 8002af8:	2240      	movs	r2, #64	; 0x40
 8002afa:	f004 ff35 	bl	8007968 <HAL_UART_Receive_DMA>
 8002afe:	4946      	ldr	r1, [pc, #280]	; (8002c18 <main+0x1270>)
 8002b00:	4846      	ldr	r0, [pc, #280]	; (8002c1c <main+0x1274>)
 8002b02:	2240      	movs	r2, #64	; 0x40
 8002b04:	f004 ff30 	bl	8007968 <HAL_UART_Receive_DMA>
 8002b08:	782b      	ldrb	r3, [r5, #0]
 8002b0a:	2b01      	cmp	r3, #1
 8002b0c:	f040 87fc 	bne.w	8003b08 <main+0x2160>
 8002b10:	2600      	movs	r6, #0
 8002b12:	223c      	movs	r2, #60	; 0x3c
 8002b14:	4631      	mov	r1, r6
 8002b16:	a821      	add	r0, sp, #132	; 0x84
 8002b18:	9620      	str	r6, [sp, #128]	; 0x80
 8002b1a:	f005 f9eb 	bl	8007ef4 <memset>
 8002b1e:	4623      	mov	r3, r4
 8002b20:	4632      	mov	r2, r6
 8002b22:	f813 1b01 	ldrb.w	r1, [r3], #1
 8002b26:	290d      	cmp	r1, #13
 8002b28:	f041 80bf 	bne.w	8003caa <main+0x2302>
 8002b2c:	7823      	ldrb	r3, [r4, #0]
 8002b2e:	2b0d      	cmp	r3, #13
 8002b30:	f040 843c 	bne.w	80033ac <main+0x1a04>
 8002b34:	4b3a      	ldr	r3, [pc, #232]	; (8002c20 <main+0x1278>)
 8002b36:	6818      	ldr	r0, [r3, #0]
 8002b38:	889a      	ldrh	r2, [r3, #4]
 8002b3a:	799b      	ldrb	r3, [r3, #6]
 8002b3c:	9020      	str	r0, [sp, #128]	; 0x80
 8002b3e:	f8ad 2084 	strh.w	r2, [sp, #132]	; 0x84
 8002b42:	f88d 3086 	strb.w	r3, [sp, #134]	; 0x86
 8002b46:	4937      	ldr	r1, [pc, #220]	; (8002c24 <main+0x127c>)
 8002b48:	4823      	ldr	r0, [pc, #140]	; (8002bd8 <main+0x1230>)
 8002b4a:	aa20      	add	r2, sp, #128	; 0x80
 8002b4c:	f006 f85a 	bl	8008c04 <siprintf>
 8002b50:	4821      	ldr	r0, [pc, #132]	; (8002bd8 <main+0x1230>)
 8002b52:	f7fe fbc1 	bl	80012d8 <Serial_Console>
 8002b56:	4834      	ldr	r0, [pc, #208]	; (8002c28 <main+0x1280>)
 8002b58:	a920      	add	r1, sp, #128	; 0x80
 8002b5a:	2240      	movs	r2, #64	; 0x40
 8002b5c:	e06a      	b.n	8002c34 <main+0x128c>
 8002b5e:	bf00      	nop
 8002b60:	00000000 	.word	0x00000000
 8002b64:	40a38800 	.word	0x40a38800
 8002b68:	9999999a 	.word	0x9999999a
 8002b6c:	3fb99999 	.word	0x3fb99999
 8002b70:	33333333 	.word	0x33333333
 8002b74:	3fd33333 	.word	0x3fd33333
 8002b78:	20000ba4 	.word	0x20000ba4
 8002b7c:	20000414 	.word	0x20000414
 8002b80:	200003e4 	.word	0x200003e4
 8002b84:	200003e9 	.word	0x200003e9
 8002b88:	200003fc 	.word	0x200003fc
 8002b8c:	3fc80000 	.word	0x3fc80000
 8002b90:	40590000 	.word	0x40590000
 8002b94:	20000400 	.word	0x20000400
 8002b98:	20000b54 	.word	0x20000b54
 8002b9c:	20000b04 	.word	0x20000b04
 8002ba0:	00000000 	.word	0x00000000
 8002ba4:	200003f8 	.word	0x200003f8
 8002ba8:	3dcccccd 	.word	0x3dcccccd
 8002bac:	2000000c 	.word	0x2000000c
 8002bb0:	40020000 	.word	0x40020000
 8002bb4:	200003d8 	.word	0x200003d8
 8002bb8:	200003e0 	.word	0x200003e0
 8002bbc:	200003dc 	.word	0x200003dc
 8002bc0:	20000004 	.word	0x20000004
 8002bc4:	2000000a 	.word	0x2000000a
 8002bc8:	2000001c 	.word	0x2000001c
 8002bcc:	46abe000 	.word	0x46abe000
 8002bd0:	20000920 	.word	0x20000920
 8002bd4:	0800d6a4 	.word	0x0800d6a4
 8002bd8:	20000c58 	.word	0x20000c58
 8002bdc:	20000821 	.word	0x20000821
 8002be0:	200003e7 	.word	0x200003e7
 8002be4:	20000848 	.word	0x20000848
 8002be8:	2000084c 	.word	0x2000084c
 8002bec:	20000850 	.word	0x20000850
 8002bf0:	20000854 	.word	0x20000854
 8002bf4:	200003e6 	.word	0x200003e6
 8002bf8:	200003e8 	.word	0x200003e8
 8002bfc:	46c35000 	.word	0x46c35000
 8002c00:	200003d4 	.word	0x200003d4
 8002c04:	40020800 	.word	0x40020800
 8002c08:	0800d809 	.word	0x0800d809
 8002c0c:	2000109c 	.word	0x2000109c
 8002c10:	20001a2c 	.word	0x20001a2c
 8002c14:	20000840 	.word	0x20000840
 8002c18:	20001ef4 	.word	0x20001ef4
 8002c1c:	20001f90 	.word	0x20001f90
 8002c20:	0800d860 	.word	0x0800d860
 8002c24:	0800d868 	.word	0x0800d868
 8002c28:	0800e1f6 	.word	0x0800e1f6
 8002c2c:	200003e5 	.word	0x200003e5
 8002c30:	20000404 	.word	0x20000404
 8002c34:	f811 3b01 	ldrb.w	r3, [r1], #1
 8002c38:	5cc4      	ldrb	r4, [r0, r3]
 8002c3a:	f004 0403 	and.w	r4, r4, #3
 8002c3e:	2c02      	cmp	r4, #2
 8002c40:	bf08      	it	eq
 8002c42:	3b20      	subeq	r3, #32
 8002c44:	f801 3c01 	strb.w	r3, [r1, #-1]
 8002c48:	1e53      	subs	r3, r2, #1
 8002c4a:	f013 02ff 	ands.w	r2, r3, #255	; 0xff
 8002c4e:	d1f1      	bne.n	8002c34 <main+0x128c>
 8002c50:	498f      	ldr	r1, [pc, #572]	; (8002e90 <main+0x14e8>)
 8002c52:	a820      	add	r0, sp, #128	; 0x80
 8002c54:	f7fd fabc 	bl	80001d0 <strcmp>
 8002c58:	b910      	cbnz	r0, 8002c60 <main+0x12b8>
 8002c5a:	488e      	ldr	r0, [pc, #568]	; (8002e94 <main+0x14ec>)
 8002c5c:	f7fe fb3c 	bl	80012d8 <Serial_Console>
 8002c60:	498d      	ldr	r1, [pc, #564]	; (8002e98 <main+0x14f0>)
 8002c62:	a820      	add	r0, sp, #128	; 0x80
 8002c64:	f7fd fab4 	bl	80001d0 <strcmp>
 8002c68:	b938      	cbnz	r0, 8002c7a <main+0x12d2>
 8002c6a:	4a8c      	ldr	r2, [pc, #560]	; (8002e9c <main+0x14f4>)
 8002c6c:	498c      	ldr	r1, [pc, #560]	; (8002ea0 <main+0x14f8>)
 8002c6e:	488d      	ldr	r0, [pc, #564]	; (8002ea4 <main+0x14fc>)
 8002c70:	f005 ffc8 	bl	8008c04 <siprintf>
 8002c74:	488b      	ldr	r0, [pc, #556]	; (8002ea4 <main+0x14fc>)
 8002c76:	f7fe fb2f 	bl	80012d8 <Serial_Console>
 8002c7a:	498b      	ldr	r1, [pc, #556]	; (8002ea8 <main+0x1500>)
 8002c7c:	a820      	add	r0, sp, #128	; 0x80
 8002c7e:	f7fd faa7 	bl	80001d0 <strcmp>
 8002c82:	b928      	cbnz	r0, 8002c90 <main+0x12e8>
 8002c84:	4b89      	ldr	r3, [pc, #548]	; (8002eac <main+0x1504>)
 8002c86:	488a      	ldr	r0, [pc, #552]	; (8002eb0 <main+0x1508>)
 8002c88:	2201      	movs	r2, #1
 8002c8a:	701a      	strb	r2, [r3, #0]
 8002c8c:	f7fe fb24 	bl	80012d8 <Serial_Console>
 8002c90:	4988      	ldr	r1, [pc, #544]	; (8002eb4 <main+0x150c>)
 8002c92:	a820      	add	r0, sp, #128	; 0x80
 8002c94:	f7fd fa9c 	bl	80001d0 <strcmp>
 8002c98:	b920      	cbnz	r0, 8002ca4 <main+0x12fc>
 8002c9a:	4b84      	ldr	r3, [pc, #528]	; (8002eac <main+0x1504>)
 8002c9c:	7018      	strb	r0, [r3, #0]
 8002c9e:	4886      	ldr	r0, [pc, #536]	; (8002eb8 <main+0x1510>)
 8002ca0:	f7fe fb1a 	bl	80012d8 <Serial_Console>
 8002ca4:	4985      	ldr	r1, [pc, #532]	; (8002ebc <main+0x1514>)
 8002ca6:	a820      	add	r0, sp, #128	; 0x80
 8002ca8:	f7fd fa92 	bl	80001d0 <strcmp>
 8002cac:	b998      	cbnz	r0, 8002cd6 <main+0x132e>
 8002cae:	4b84      	ldr	r3, [pc, #528]	; (8002ec0 <main+0x1518>)
 8002cb0:	eddf 7a84 	vldr	s15, [pc, #528]	; 8002ec4 <main+0x151c>
 8002cb4:	ed93 7a00 	vldr	s14, [r3]
 8002cb8:	eec7 7a27 	vdiv.f32	s15, s14, s15
 8002cbc:	ee17 0a90 	vmov	r0, s15
 8002cc0:	f7fd fc52 	bl	8000568 <__aeabi_f2d>
 8002cc4:	4602      	mov	r2, r0
 8002cc6:	460b      	mov	r3, r1
 8002cc8:	4876      	ldr	r0, [pc, #472]	; (8002ea4 <main+0x14fc>)
 8002cca:	497f      	ldr	r1, [pc, #508]	; (8002ec8 <main+0x1520>)
 8002ccc:	f005 ff9a 	bl	8008c04 <siprintf>
 8002cd0:	4874      	ldr	r0, [pc, #464]	; (8002ea4 <main+0x14fc>)
 8002cd2:	f7fe fb01 	bl	80012d8 <Serial_Console>
 8002cd6:	497d      	ldr	r1, [pc, #500]	; (8002ecc <main+0x1524>)
 8002cd8:	a820      	add	r0, sp, #128	; 0x80
 8002cda:	f7fd fa79 	bl	80001d0 <strcmp>
 8002cde:	4604      	mov	r4, r0
 8002ce0:	2800      	cmp	r0, #0
 8002ce2:	f040 83bd 	bne.w	8003460 <main+0x1ab8>
 8002ce6:	487a      	ldr	r0, [pc, #488]	; (8002ed0 <main+0x1528>)
 8002ce8:	4d7a      	ldr	r5, [pc, #488]	; (8002ed4 <main+0x152c>)
 8002cea:	f7fe faf5 	bl	80012d8 <Serial_Console>
 8002cee:	f44f 70fa 	mov.w	r0, #500	; 0x1f4
 8002cf2:	f001 fc15 	bl	8004520 <HAL_Delay>
 8002cf6:	4b78      	ldr	r3, [pc, #480]	; (8002ed8 <main+0x1530>)
 8002cf8:	681b      	ldr	r3, [r3, #0]
 8002cfa:	602b      	str	r3, [r5, #0]
 8002cfc:	f001 fbaa 	bl	8004454 <HAL_DeInit>
 8002d00:	4b76      	ldr	r3, [pc, #472]	; (8002edc <main+0x1534>)
 8002d02:	601c      	str	r4, [r3, #0]
 8002d04:	605c      	str	r4, [r3, #4]
 8002d06:	609c      	str	r4, [r3, #8]
 8002d08:	2301      	movs	r3, #1
 8002d0a:	f383 8810 	msr	PRIMASK, r3
 8002d0e:	4b74      	ldr	r3, [pc, #464]	; (8002ee0 <main+0x1538>)
 8002d10:	f383 8808 	msr	MSP, r3
 8002d14:	682b      	ldr	r3, [r5, #0]
 8002d16:	4798      	blx	r3
 8002d18:	e7fe      	b.n	8002d18 <main+0x1370>
 8002d1a:	2be1      	cmp	r3, #225	; 0xe1
 8002d1c:	f47f ae5f 	bne.w	80029de <main+0x1036>
 8002d20:	4b70      	ldr	r3, [pc, #448]	; (8002ee4 <main+0x153c>)
 8002d22:	4620      	mov	r0, r4
 8002d24:	601c      	str	r4, [r3, #0]
 8002d26:	f7fd fc0d 	bl	8000544 <__aeabi_i2d>
 8002d2a:	4b6f      	ldr	r3, [pc, #444]	; (8002ee8 <main+0x1540>)
 8002d2c:	2200      	movs	r2, #0
 8002d2e:	f7fd fc73 	bl	8000618 <__aeabi_dmul>
 8002d32:	a351      	add	r3, pc, #324	; (adr r3, 8002e78 <main+0x14d0>)
 8002d34:	e9d3 2300 	ldrd	r2, r3, [r3]
 8002d38:	f7fd fab6 	bl	80002a8 <__aeabi_dsub>
 8002d3c:	4b6b      	ldr	r3, [pc, #428]	; (8002eec <main+0x1544>)
 8002d3e:	2200      	movs	r2, #0
 8002d40:	f7fd fd94 	bl	800086c <__aeabi_ddiv>
 8002d44:	f7fd ff60 	bl	8000c08 <__aeabi_d2f>
 8002d48:	f89b 2000 	ldrb.w	r2, [fp]
 8002d4c:	4b68      	ldr	r3, [pc, #416]	; (8002ef0 <main+0x1548>)
 8002d4e:	ee07 0a90 	vmov	s15, r0
 8002d52:	eeb0 8ae7 	vabs.f32	s16, s15
 8002d56:	b90a      	cbnz	r2, 8002d5c <main+0x13b4>
 8002d58:	ed83 8a00 	vstr	s16, [r3]
 8002d5c:	edd3 7a00 	vldr	s15, [r3]
 8002d60:	4964      	ldr	r1, [pc, #400]	; (8002ef4 <main+0x154c>)
 8002d62:	4b65      	ldr	r3, [pc, #404]	; (8002ef8 <main+0x1550>)
 8002d64:	4a65      	ldr	r2, [pc, #404]	; (8002efc <main+0x1554>)
 8002d66:	ee38 8a67 	vsub.f32	s16, s16, s15
 8002d6a:	eddf 7a65 	vldr	s15, [pc, #404]	; 8002f00 <main+0x1558>
 8002d6e:	eeb0 8ac8 	vabs.f32	s16, s16
 8002d72:	ed83 8a00 	vstr	s16, [r3]
 8002d76:	780b      	ldrb	r3, [r1, #0]
 8002d78:	eb02 0283 	add.w	r2, r2, r3, lsl #2
 8002d7c:	3301      	adds	r3, #1
 8002d7e:	b2db      	uxtb	r3, r3
 8002d80:	2b14      	cmp	r3, #20
 8002d82:	700b      	strb	r3, [r1, #0]
 8002d84:	ed82 8a00 	vstr	s16, [r2]
 8002d88:	bf08      	it	eq
 8002d8a:	2300      	moveq	r3, #0
 8002d8c:	4a5b      	ldr	r2, [pc, #364]	; (8002efc <main+0x1554>)
 8002d8e:	bf08      	it	eq
 8002d90:	700b      	strbeq	r3, [r1, #0]
 8002d92:	2314      	movs	r3, #20
 8002d94:	ecb2 7a01 	vldmia	r2!, {s14}
 8002d98:	3b01      	subs	r3, #1
 8002d9a:	ee77 7a87 	vadd.f32	s15, s15, s14
 8002d9e:	d1f9      	bne.n	8002d94 <main+0x13ec>
 8002da0:	eef3 6a04 	vmov.f32	s13, #52	; 0x41a00000  20.0
 8002da4:	ee87 7aa6 	vdiv.f32	s14, s15, s13
 8002da8:	4e56      	ldr	r6, [pc, #344]	; (8002f04 <main+0x155c>)
 8002daa:	ee17 0a10 	vmov	r0, s14
 8002dae:	ed86 7a00 	vstr	s14, [r6]
 8002db2:	f7fd fbd9 	bl	8000568 <__aeabi_f2d>
 8002db6:	a332      	add	r3, pc, #200	; (adr r3, 8002e80 <main+0x14d8>)
 8002db8:	e9d3 2300 	ldrd	r2, r3, [r3]
 8002dbc:	f7fd fe9e 	bl	8000afc <__aeabi_dcmplt>
 8002dc0:	b108      	cbz	r0, 8002dc6 <main+0x141e>
 8002dc2:	4b51      	ldr	r3, [pc, #324]	; (8002f08 <main+0x1560>)
 8002dc4:	6033      	str	r3, [r6, #0]
 8002dc6:	ee18 0a10 	vmov	r0, s16
 8002dca:	f7fd fbcd 	bl	8000568 <__aeabi_f2d>
 8002dce:	a32e      	add	r3, pc, #184	; (adr r3, 8002e88 <main+0x14e0>)
 8002dd0:	e9d3 2300 	ldrd	r2, r3, [r3]
 8002dd4:	f7fd fea6 	bl	8000b24 <__aeabi_dcmpge>
 8002dd8:	b960      	cbnz	r0, 8002df4 <main+0x144c>
 8002dda:	4b4c      	ldr	r3, [pc, #304]	; (8002f0c <main+0x1564>)
 8002ddc:	edd6 7a00 	vldr	s15, [r6]
 8002de0:	ed93 7a00 	vldr	s14, [r3]
 8002de4:	ee67 7a87 	vmul.f32	s15, s15, s14
 8002de8:	eeb4 8ae7 	vcmpe.f32	s16, s15
 8002dec:	eef1 fa10 	vmrs	APSR_nzcv, fpscr
 8002df0:	f6ff adf5 	blt.w	80029de <main+0x1036>
 8002df4:	782b      	ldrb	r3, [r5, #0]
 8002df6:	2b01      	cmp	r3, #1
 8002df8:	f47f adf1 	bne.w	80029de <main+0x1036>
 8002dfc:	4d44      	ldr	r5, [pc, #272]	; (8002f10 <main+0x1568>)
 8002dfe:	782b      	ldrb	r3, [r5, #0]
 8002e00:	2b01      	cmp	r3, #1
 8002e02:	f47f adec 	bne.w	80029de <main+0x1036>
 8002e06:	4843      	ldr	r0, [pc, #268]	; (8002f14 <main+0x156c>)
 8002e08:	f44f 7180 	mov.w	r1, #256	; 0x100
 8002e0c:	f002 fa1a 	bl	8005244 <HAL_GPIO_ReadPin>
 8002e10:	2801      	cmp	r0, #1
 8002e12:	f43f ade4 	beq.w	80029de <main+0x1036>
 8002e16:	f7fe f991 	bl	800113c <MotorBrake>
 8002e1a:	f44f 70fa 	mov.w	r0, #500	; 0x1f4
 8002e1e:	f001 fb7f 	bl	8004520 <HAL_Delay>
 8002e22:	f44f 70c8 	mov.w	r0, #400	; 0x190
 8002e26:	f7fe fd1b 	bl	8001860 <MotorBackward.constprop.0>
 8002e2a:	f44f 70fa 	mov.w	r0, #500	; 0x1f4
 8002e2e:	f001 fb77 	bl	8004520 <HAL_Delay>
 8002e32:	f44f 7096 	mov.w	r0, #300	; 0x12c
 8002e36:	f7fe fd31 	bl	800189c <MotorLeft.constprop.0>
 8002e3a:	e5ce      	b.n	80029da <main+0x1032>
 8002e3c:	2bd1      	cmp	r3, #209	; 0xd1
 8002e3e:	d116      	bne.n	8002e6e <main+0x14c6>
 8002e40:	4b35      	ldr	r3, [pc, #212]	; (8002f18 <main+0x1570>)
 8002e42:	4620      	mov	r0, r4
 8002e44:	601c      	str	r4, [r3, #0]
 8002e46:	f7fd fb7d 	bl	8000544 <__aeabi_i2d>
 8002e4a:	4b27      	ldr	r3, [pc, #156]	; (8002ee8 <main+0x1540>)
 8002e4c:	2200      	movs	r2, #0
 8002e4e:	f7fd fbe3 	bl	8000618 <__aeabi_dmul>
 8002e52:	4b32      	ldr	r3, [pc, #200]	; (8002f1c <main+0x1574>)
 8002e54:	2200      	movs	r2, #0
 8002e56:	f7fd fbdf 	bl	8000618 <__aeabi_dmul>
 8002e5a:	f7fd fed5 	bl	8000c08 <__aeabi_d2f>
 8002e5e:	4b18      	ldr	r3, [pc, #96]	; (8002ec0 <main+0x1518>)
 8002e60:	6018      	str	r0, [r3, #0]
 8002e62:	23c1      	movs	r3, #193	; 0xc1
 8002e64:	703b      	strb	r3, [r7, #0]
 8002e66:	2300      	movs	r3, #0
 8002e68:	f889 3000 	strb.w	r3, [r9]
 8002e6c:	e5ee      	b.n	8002a4c <main+0x10a4>
 8002e6e:	2bc1      	cmp	r3, #193	; 0xc1
 8002e70:	f040 8729 	bne.w	8003cc6 <main+0x231e>
 8002e74:	23e1      	movs	r3, #225	; 0xe1
 8002e76:	e7f5      	b.n	8002e64 <main+0x14bc>
 8002e78:	00000000 	.word	0x00000000
 8002e7c:	40a38800 	.word	0x40a38800
 8002e80:	9999999a 	.word	0x9999999a
 8002e84:	3fb99999 	.word	0x3fb99999
 8002e88:	33333333 	.word	0x33333333
 8002e8c:	3fd33333 	.word	0x3fd33333
 8002e90:	0800d86d 	.word	0x0800d86d
 8002e94:	0800d873 	.word	0x0800d873
 8002e98:	0800d89f 	.word	0x0800d89f
 8002e9c:	0800e1c7 	.word	0x0800e1c7
 8002ea0:	0800d868 	.word	0x0800d868
 8002ea4:	20000c58 	.word	0x20000c58
 8002ea8:	0800d8a7 	.word	0x0800d8a7
 8002eac:	200003e7 	.word	0x200003e7
 8002eb0:	0800d8b0 	.word	0x0800d8b0
 8002eb4:	0800d8c2 	.word	0x0800d8c2
 8002eb8:	0800d8cc 	.word	0x0800d8cc
 8002ebc:	0800d8df 	.word	0x0800d8df
 8002ec0:	2000001c 	.word	0x2000001c
 8002ec4:	447a0000 	.word	0x447a0000
 8002ec8:	0800da0d 	.word	0x0800da0d
 8002ecc:	0800d8e7 	.word	0x0800d8e7
 8002ed0:	0800d8ef 	.word	0x0800d8ef
 8002ed4:	20000828 	.word	0x20000828
 8002ed8:	1fff0004 	.word	0x1fff0004
 8002edc:	e000e010 	.word	0xe000e010
 8002ee0:	20001000 	.word	0x20001000
 8002ee4:	2000040c 	.word	0x2000040c
 8002ee8:	3fc80000 	.word	0x3fc80000
 8002eec:	40590000 	.word	0x40590000
 8002ef0:	20000410 	.word	0x20000410
 8002ef4:	20000414 	.word	0x20000414
 8002ef8:	20001fd4 	.word	0x20001fd4
 8002efc:	20000ab4 	.word	0x20000ab4
 8002f00:	00000000 	.word	0x00000000
 8002f04:	20000408 	.word	0x20000408
 8002f08:	3dcccccd 	.word	0x3dcccccd
 8002f0c:	2000000c 	.word	0x2000000c
 8002f10:	200003e9 	.word	0x200003e9
 8002f14:	40020000 	.word	0x40020000
 8002f18:	20000844 	.word	0x20000844
 8002f1c:	40140000 	.word	0x40140000
 8002f20:	f8df 9230 	ldr.w	r9, [pc, #560]	; 8003154 <main+0x17ac>
 8002f24:	4e80      	ldr	r6, [pc, #512]	; (8003128 <main+0x1780>)
 8002f26:	4f81      	ldr	r7, [pc, #516]	; (800312c <main+0x1784>)
 8002f28:	f7fe fb02 	bl	8001530 <CheckSecurity>
 8002f2c:	f001 faf2 	bl	8004514 <HAL_GetTick>
 8002f30:	f7fd faf8 	bl	8000524 <__aeabi_ui2d>
 8002f34:	e9d9 2300 	ldrd	r2, r3, [r9]
 8002f38:	f7fd f9b6 	bl	80002a8 <__aeabi_dsub>
 8002f3c:	4b7c      	ldr	r3, [pc, #496]	; (8003130 <main+0x1788>)
 8002f3e:	4604      	mov	r4, r0
 8002f40:	460d      	mov	r5, r1
 8002f42:	e9c3 4500 	strd	r4, r5, [r3]
 8002f46:	4b7b      	ldr	r3, [pc, #492]	; (8003134 <main+0x178c>)
 8002f48:	781b      	ldrb	r3, [r3, #0]
 8002f4a:	2b02      	cmp	r3, #2
 8002f4c:	f040 80b4 	bne.w	80030b8 <main+0x1710>
 8002f50:	4602      	mov	r2, r0
 8002f52:	460b      	mov	r3, r1
 8002f54:	e9d6 0100 	ldrd	r0, r1, [r6]
 8002f58:	f7fd f9a6 	bl	80002a8 <__aeabi_dsub>
 8002f5c:	2200      	movs	r2, #0
 8002f5e:	2300      	movs	r3, #0
 8002f60:	e9c6 0100 	strd	r0, r1, [r6]
 8002f64:	e9c7 2300 	strd	r2, r3, [r7]
 8002f68:	e9d7 2300 	ldrd	r2, r3, [r7]
 8002f6c:	e9d6 0100 	ldrd	r0, r1, [r6]
 8002f70:	f7fd f99c 	bl	80002ac <__adddf3>
 8002f74:	4602      	mov	r2, r0
 8002f76:	460b      	mov	r3, r1
 8002f78:	a167      	add	r1, pc, #412	; (adr r1, 8003118 <main+0x1770>)
 8002f7a:	e9d1 0100 	ldrd	r0, r1, [r1]
 8002f7e:	f7fd f993 	bl	80002a8 <__aeabi_dsub>
 8002f82:	4b6d      	ldr	r3, [pc, #436]	; (8003138 <main+0x1790>)
 8002f84:	f8df 81d0 	ldr.w	r8, [pc, #464]	; 8003158 <main+0x17b0>
 8002f88:	4682      	mov	sl, r0
 8002f8a:	468b      	mov	fp, r1
 8002f8c:	4602      	mov	r2, r0
 8002f8e:	e9c3 ab00 	strd	sl, fp, [r3]
 8002f92:	4620      	mov	r0, r4
 8002f94:	460b      	mov	r3, r1
 8002f96:	4629      	mov	r1, r5
 8002f98:	f7fd fb3e 	bl	8000618 <__aeabi_dmul>
 8002f9c:	e9d8 2300 	ldrd	r2, r3, [r8]
 8002fa0:	f7fd f984 	bl	80002ac <__adddf3>
 8002fa4:	4606      	mov	r6, r0
 8002fa6:	460f      	mov	r7, r1
 8002fa8:	e9c8 6700 	strd	r6, r7, [r8]
 8002fac:	f8df 81ac 	ldr.w	r8, [pc, #428]	; 800315c <main+0x17b4>
 8002fb0:	4650      	mov	r0, sl
 8002fb2:	e9d8 2300 	ldrd	r2, r3, [r8]
 8002fb6:	4659      	mov	r1, fp
 8002fb8:	f7fd f976 	bl	80002a8 <__aeabi_dsub>
 8002fbc:	4622      	mov	r2, r4
 8002fbe:	462b      	mov	r3, r5
 8002fc0:	f7fd fc54 	bl	800086c <__aeabi_ddiv>
 8002fc4:	4b5d      	ldr	r3, [pc, #372]	; (800313c <main+0x1794>)
 8002fc6:	e9c3 0100 	strd	r0, r1, [r3]
 8002fca:	4b5d      	ldr	r3, [pc, #372]	; (8003140 <main+0x1798>)
 8002fcc:	e9cd 0108 	strd	r0, r1, [sp, #32]
 8002fd0:	6818      	ldr	r0, [r3, #0]
 8002fd2:	f7fd fac9 	bl	8000568 <__aeabi_f2d>
 8002fd6:	4652      	mov	r2, sl
 8002fd8:	465b      	mov	r3, fp
 8002fda:	f7fd fb1d 	bl	8000618 <__aeabi_dmul>
 8002fde:	4b59      	ldr	r3, [pc, #356]	; (8003144 <main+0x179c>)
 8002fe0:	4604      	mov	r4, r0
 8002fe2:	6818      	ldr	r0, [r3, #0]
 8002fe4:	460d      	mov	r5, r1
 8002fe6:	f7fd fabf 	bl	8000568 <__aeabi_f2d>
 8002fea:	4632      	mov	r2, r6
 8002fec:	463b      	mov	r3, r7
 8002fee:	f7fd fb13 	bl	8000618 <__aeabi_dmul>
 8002ff2:	4602      	mov	r2, r0
 8002ff4:	460b      	mov	r3, r1
 8002ff6:	4620      	mov	r0, r4
 8002ff8:	4629      	mov	r1, r5
 8002ffa:	f7fd f957 	bl	80002ac <__adddf3>
 8002ffe:	4b52      	ldr	r3, [pc, #328]	; (8003148 <main+0x17a0>)
 8003000:	4604      	mov	r4, r0
 8003002:	6818      	ldr	r0, [r3, #0]
 8003004:	460d      	mov	r5, r1
 8003006:	f7fd faaf 	bl	8000568 <__aeabi_f2d>
 800300a:	e9dd 2308 	ldrd	r2, r3, [sp, #32]
 800300e:	f7fd fb03 	bl	8000618 <__aeabi_dmul>
 8003012:	4602      	mov	r2, r0
 8003014:	460b      	mov	r3, r1
 8003016:	4620      	mov	r0, r4
 8003018:	4629      	mov	r1, r5
 800301a:	f7fd f947 	bl	80002ac <__adddf3>
 800301e:	e9c8 ab00 	strd	sl, fp, [r8]
 8003022:	ec41 0b18 	vmov	d8, r0, r1
 8003026:	f001 fa75 	bl	8004514 <HAL_GetTick>
 800302a:	f7fd fa7b 	bl	8000524 <__aeabi_ui2d>
 800302e:	eeb0 0a48 	vmov.f32	s0, s16
 8003032:	eef0 0a68 	vmov.f32	s1, s17
 8003036:	e9c9 0100 	strd	r0, r1, [r9]
 800303a:	f009 ffbf 	bl	800cfbc <round>
 800303e:	ec55 4b10 	vmov	r4, r5, d0
 8003042:	a335      	add	r3, pc, #212	; (adr r3, 8003118 <main+0x1770>)
 8003044:	e9d3 2300 	ldrd	r2, r3, [r3]
 8003048:	ee10 0a10 	vmov	r0, s0
 800304c:	4629      	mov	r1, r5
 800304e:	f7fd f92d 	bl	80002ac <__adddf3>
 8003052:	f7fd fd91 	bl	8000b78 <__aeabi_d2iz>
 8003056:	462b      	mov	r3, r5
 8003058:	4606      	mov	r6, r0
 800305a:	4622      	mov	r2, r4
 800305c:	a12e      	add	r1, pc, #184	; (adr r1, 8003118 <main+0x1770>)
 800305e:	e9d1 0100 	ldrd	r0, r1, [r1]
 8003062:	f7fd f921 	bl	80002a8 <__aeabi_dsub>
 8003066:	f7fd fd87 	bl	8000b78 <__aeabi_d2iz>
 800306a:	f5b6 6f48 	cmp.w	r6, #3200	; 0xc80
 800306e:	4b31      	ldr	r3, [pc, #196]	; (8003134 <main+0x178c>)
 8003070:	bfa8      	it	ge
 8003072:	f44f 6648 	movge.w	r6, #3200	; 0xc80
 8003076:	f5b0 6f48 	cmp.w	r0, #3200	; 0xc80
 800307a:	bfa8      	it	ge
 800307c:	f44f 6048 	movge.w	r0, #3200	; 0xc80
 8003080:	781b      	ldrb	r3, [r3, #0]
 8003082:	f5b6 7f7a 	cmp.w	r6, #1000	; 0x3e8
 8003086:	bfb8      	it	lt
 8003088:	f44f 767a 	movlt.w	r6, #1000	; 0x3e8
 800308c:	f5b0 7f7a 	cmp.w	r0, #1000	; 0x3e8
 8003090:	bfb8      	it	lt
 8003092:	f44f 707a 	movlt.w	r0, #1000	; 0x3e8
 8003096:	2b02      	cmp	r3, #2
 8003098:	d123      	bne.n	80030e2 <main+0x173a>
 800309a:	4b2c      	ldr	r3, [pc, #176]	; (800314c <main+0x17a4>)
 800309c:	7819      	ldrb	r1, [r3, #0]
 800309e:	4b2c      	ldr	r3, [pc, #176]	; (8003150 <main+0x17a8>)
 80030a0:	2902      	cmp	r1, #2
 80030a2:	f04f 0200 	mov.w	r2, #0
 80030a6:	d117      	bne.n	80030d8 <main+0x1730>
 80030a8:	f640 01fc 	movw	r1, #2300	; 0x8fc
 80030ac:	6359      	str	r1, [r3, #52]	; 0x34
 80030ae:	639a      	str	r2, [r3, #56]	; 0x38
 80030b0:	2200      	movs	r2, #0
 80030b2:	63de      	str	r6, [r3, #60]	; 0x3c
 80030b4:	641a      	str	r2, [r3, #64]	; 0x40
 80030b6:	e4e5      	b.n	8002a84 <main+0x10dc>
 80030b8:	2b01      	cmp	r3, #1
 80030ba:	e9d7 0100 	ldrd	r0, r1, [r7]
 80030be:	f47f af53 	bne.w	8002f68 <main+0x15c0>
 80030c2:	4622      	mov	r2, r4
 80030c4:	462b      	mov	r3, r5
 80030c6:	f7fd f8ef 	bl	80002a8 <__aeabi_dsub>
 80030ca:	2200      	movs	r2, #0
 80030cc:	2300      	movs	r3, #0
 80030ce:	e9c7 0100 	strd	r0, r1, [r7]
 80030d2:	e9c6 2300 	strd	r2, r3, [r6]
 80030d6:	e747      	b.n	8002f68 <main+0x15c0>
 80030d8:	2901      	cmp	r1, #1
 80030da:	bf04      	itt	eq
 80030dc:	635a      	streq	r2, [r3, #52]	; 0x34
 80030de:	6398      	streq	r0, [r3, #56]	; 0x38
 80030e0:	e7e6      	b.n	80030b0 <main+0x1708>
 80030e2:	2b01      	cmp	r3, #1
 80030e4:	f47f acce 	bne.w	8002a84 <main+0x10dc>
 80030e8:	4c19      	ldr	r4, [pc, #100]	; (8003150 <main+0x17a8>)
 80030ea:	2500      	movs	r5, #0
 80030ec:	6365      	str	r5, [r4, #52]	; 0x34
 80030ee:	63a6      	str	r6, [r4, #56]	; 0x38
 80030f0:	f7fd fa28 	bl	8000544 <__aeabi_i2d>
 80030f4:	a30a      	add	r3, pc, #40	; (adr r3, 8003120 <main+0x1778>)
 80030f6:	e9d3 2300 	ldrd	r2, r3, [r3]
 80030fa:	f7fd fa8d 	bl	8000618 <__aeabi_dmul>
 80030fe:	ec41 0b10 	vmov	d0, r0, r1
 8003102:	f009 ff5b 	bl	800cfbc <round>
 8003106:	ec51 0b10 	vmov	r0, r1, d0
 800310a:	f7fd fd5d 	bl	8000bc8 <__aeabi_d2uiz>
 800310e:	63e0      	str	r0, [r4, #60]	; 0x3c
 8003110:	6425      	str	r5, [r4, #64]	; 0x40
 8003112:	e4b7      	b.n	8002a84 <main+0x10dc>
 8003114:	f3af 8000 	nop.w
 8003118:	00000000 	.word	0x00000000
 800311c:	40a5e000 	.word	0x40a5e000
 8003120:	66666666 	.word	0x66666666
 8003124:	3fee6666 	.word	0x3fee6666
 8003128:	20000830 	.word	0x20000830
 800312c:	20000838 	.word	0x20000838
 8003130:	20000868 	.word	0x20000868
 8003134:	200003d3 	.word	0x200003d3
 8003138:	20000870 	.word	0x20000870
 800313c:	20000988 	.word	0x20000988
 8003140:	2000003c 	.word	0x2000003c
 8003144:	20000910 	.word	0x20000910
 8003148:	20000038 	.word	0x20000038
 800314c:	200003d2 	.word	0x200003d2
 8003150:	40000800 	.word	0x40000800
 8003154:	20000980 	.word	0x20000980
 8003158:	20000858 	.word	0x20000858
 800315c:	20000918 	.word	0x20000918
 8003160:	4621      	mov	r1, r4
 8003162:	2214      	movs	r2, #20
 8003164:	a81b      	add	r0, sp, #108	; 0x6c
 8003166:	f004 fec5 	bl	8007ef4 <memset>
 800316a:	4622      	mov	r2, r4
 800316c:	a91b      	add	r1, sp, #108	; 0x6c
 800316e:	4892      	ldr	r0, [pc, #584]	; (80033b8 <main+0x1a10>)
 8003170:	9419      	str	r4, [sp, #100]	; 0x64
 8003172:	f003 fc2e 	bl	80069d2 <HAL_RTC_GetTime>
 8003176:	4622      	mov	r2, r4
 8003178:	a919      	add	r1, sp, #100	; 0x64
 800317a:	488f      	ldr	r0, [pc, #572]	; (80033b8 <main+0x1a10>)
 800317c:	f8df 92d0 	ldr.w	r9, [pc, #720]	; 8003450 <main+0x1aa8>
 8003180:	f8df a2d0 	ldr.w	sl, [pc, #720]	; 8003454 <main+0x1aac>
 8003184:	f8df b2d0 	ldr.w	fp, [pc, #720]	; 8003458 <main+0x1ab0>
 8003188:	4d8c      	ldr	r5, [pc, #560]	; (80033bc <main+0x1a14>)
 800318a:	4f8d      	ldr	r7, [pc, #564]	; (80033c0 <main+0x1a18>)
 800318c:	4e8d      	ldr	r6, [pc, #564]	; (80033c4 <main+0x1a1c>)
 800318e:	f8df 82cc 	ldr.w	r8, [pc, #716]	; 800345c <main+0x1ab4>
 8003192:	f003 fc43 	bl	8006a1c <HAL_RTC_GetDate>
 8003196:	4b8c      	ldr	r3, [pc, #560]	; (80033c8 <main+0x1a20>)
 8003198:	6818      	ldr	r0, [r3, #0]
 800319a:	f7fd f9e5 	bl	8000568 <__aeabi_f2d>
 800319e:	4602      	mov	r2, r0
 80031a0:	460b      	mov	r3, r1
 80031a2:	488a      	ldr	r0, [pc, #552]	; (80033cc <main+0x1a24>)
 80031a4:	498a      	ldr	r1, [pc, #552]	; (80033d0 <main+0x1a28>)
 80031a6:	f005 fd2d 	bl	8008c04 <siprintf>
 80031aa:	4888      	ldr	r0, [pc, #544]	; (80033cc <main+0x1a24>)
 80031ac:	f7fe f894 	bl	80012d8 <Serial_Console>
 80031b0:	f8d9 0000 	ldr.w	r0, [r9]
 80031b4:	f7fd f9d8 	bl	8000568 <__aeabi_f2d>
 80031b8:	4602      	mov	r2, r0
 80031ba:	460b      	mov	r3, r1
 80031bc:	4883      	ldr	r0, [pc, #524]	; (80033cc <main+0x1a24>)
 80031be:	4985      	ldr	r1, [pc, #532]	; (80033d4 <main+0x1a2c>)
 80031c0:	f005 fd20 	bl	8008c04 <siprintf>
 80031c4:	4881      	ldr	r0, [pc, #516]	; (80033cc <main+0x1a24>)
 80031c6:	f7fe f887 	bl	80012d8 <Serial_Console>
 80031ca:	f8da 0000 	ldr.w	r0, [sl]
 80031ce:	f7fd f9cb 	bl	8000568 <__aeabi_f2d>
 80031d2:	4602      	mov	r2, r0
 80031d4:	460b      	mov	r3, r1
 80031d6:	487d      	ldr	r0, [pc, #500]	; (80033cc <main+0x1a24>)
 80031d8:	497f      	ldr	r1, [pc, #508]	; (80033d8 <main+0x1a30>)
 80031da:	f005 fd13 	bl	8008c04 <siprintf>
 80031de:	487b      	ldr	r0, [pc, #492]	; (80033cc <main+0x1a24>)
 80031e0:	f7fe f87a 	bl	80012d8 <Serial_Console>
 80031e4:	ed9b 7a00 	vldr	s14, [fp]
 80031e8:	eddf 7a7c 	vldr	s15, [pc, #496]	; 80033dc <main+0x1a34>
 80031ec:	eec7 7a27 	vdiv.f32	s15, s14, s15
 80031f0:	ee17 0a90 	vmov	r0, s15
 80031f4:	f7fd f9b8 	bl	8000568 <__aeabi_f2d>
 80031f8:	460b      	mov	r3, r1
 80031fa:	4602      	mov	r2, r0
 80031fc:	4978      	ldr	r1, [pc, #480]	; (80033e0 <main+0x1a38>)
 80031fe:	4873      	ldr	r0, [pc, #460]	; (80033cc <main+0x1a24>)
 8003200:	f005 fd00 	bl	8008c04 <siprintf>
 8003204:	4871      	ldr	r0, [pc, #452]	; (80033cc <main+0x1a24>)
 8003206:	f7fe f867 	bl	80012d8 <Serial_Console>
 800320a:	4a76      	ldr	r2, [pc, #472]	; (80033e4 <main+0x1a3c>)
 800320c:	4976      	ldr	r1, [pc, #472]	; (80033e8 <main+0x1a40>)
 800320e:	7812      	ldrb	r2, [r2, #0]
 8003210:	486e      	ldr	r0, [pc, #440]	; (80033cc <main+0x1a24>)
 8003212:	f005 fcf7 	bl	8008c04 <siprintf>
 8003216:	486d      	ldr	r0, [pc, #436]	; (80033cc <main+0x1a24>)
 8003218:	f7fe f85e 	bl	80012d8 <Serial_Console>
 800321c:	682b      	ldr	r3, [r5, #0]
 800321e:	9301      	str	r3, [sp, #4]
 8003220:	683b      	ldr	r3, [r7, #0]
 8003222:	9300      	str	r3, [sp, #0]
 8003224:	6833      	ldr	r3, [r6, #0]
 8003226:	f8d8 2000 	ldr.w	r2, [r8]
 800322a:	4970      	ldr	r1, [pc, #448]	; (80033ec <main+0x1a44>)
 800322c:	4867      	ldr	r0, [pc, #412]	; (80033cc <main+0x1a24>)
 800322e:	f005 fce9 	bl	8008c04 <siprintf>
 8003232:	4866      	ldr	r0, [pc, #408]	; (80033cc <main+0x1a24>)
 8003234:	f7fe f850 	bl	80012d8 <Serial_Console>
 8003238:	4b6d      	ldr	r3, [pc, #436]	; (80033f0 <main+0x1a48>)
 800323a:	496e      	ldr	r1, [pc, #440]	; (80033f4 <main+0x1a4c>)
 800323c:	781a      	ldrb	r2, [r3, #0]
 800323e:	4863      	ldr	r0, [pc, #396]	; (80033cc <main+0x1a24>)
 8003240:	f005 fce0 	bl	8008c04 <siprintf>
 8003244:	4861      	ldr	r0, [pc, #388]	; (80033cc <main+0x1a24>)
 8003246:	f7fe f847 	bl	80012d8 <Serial_Console>
 800324a:	4b6b      	ldr	r3, [pc, #428]	; (80033f8 <main+0x1a50>)
 800324c:	6818      	ldr	r0, [r3, #0]
 800324e:	f7fd f98b 	bl	8000568 <__aeabi_f2d>
 8003252:	460b      	mov	r3, r1
 8003254:	4969      	ldr	r1, [pc, #420]	; (80033fc <main+0x1a54>)
 8003256:	4602      	mov	r2, r0
 8003258:	6808      	ldr	r0, [r1, #0]
 800325a:	e9cd 2308 	strd	r2, r3, [sp, #32]
 800325e:	f7fd f983 	bl	8000568 <__aeabi_f2d>
 8003262:	e9cd 0102 	strd	r0, r1, [sp, #8]
 8003266:	4966      	ldr	r1, [pc, #408]	; (8003400 <main+0x1a58>)
 8003268:	6808      	ldr	r0, [r1, #0]
 800326a:	f7fd f97d 	bl	8000568 <__aeabi_f2d>
 800326e:	e9dd 2308 	ldrd	r2, r3, [sp, #32]
 8003272:	e9cd 0100 	strd	r0, r1, [sp]
 8003276:	4963      	ldr	r1, [pc, #396]	; (8003404 <main+0x1a5c>)
 8003278:	4854      	ldr	r0, [pc, #336]	; (80033cc <main+0x1a24>)
 800327a:	f005 fcc3 	bl	8008c04 <siprintf>
 800327e:	4853      	ldr	r0, [pc, #332]	; (80033cc <main+0x1a24>)
 8003280:	f7fe f82a 	bl	80012d8 <Serial_Console>
 8003284:	f89d 306e 	ldrb.w	r3, [sp, #110]	; 0x6e
 8003288:	f89d 206c 	ldrb.w	r2, [sp, #108]	; 0x6c
 800328c:	495e      	ldr	r1, [pc, #376]	; (8003408 <main+0x1a60>)
 800328e:	9300      	str	r3, [sp, #0]
 8003290:	484e      	ldr	r0, [pc, #312]	; (80033cc <main+0x1a24>)
 8003292:	f89d 306d 	ldrb.w	r3, [sp, #109]	; 0x6d
 8003296:	f005 fcb5 	bl	8008c04 <siprintf>
 800329a:	484c      	ldr	r0, [pc, #304]	; (80033cc <main+0x1a24>)
 800329c:	f7fe f81c 	bl	80012d8 <Serial_Console>
 80032a0:	f89d 3066 	ldrb.w	r3, [sp, #102]	; 0x66
 80032a4:	f89d 2067 	ldrb.w	r2, [sp, #103]	; 0x67
 80032a8:	4958      	ldr	r1, [pc, #352]	; (800340c <main+0x1a64>)
 80032aa:	9300      	str	r3, [sp, #0]
 80032ac:	4847      	ldr	r0, [pc, #284]	; (80033cc <main+0x1a24>)
 80032ae:	f89d 3065 	ldrb.w	r3, [sp, #101]	; 0x65
 80032b2:	f005 fca7 	bl	8008c04 <siprintf>
 80032b6:	4845      	ldr	r0, [pc, #276]	; (80033cc <main+0x1a24>)
 80032b8:	f7fe f80e 	bl	80012d8 <Serial_Console>
 80032bc:	f8db 0000 	ldr.w	r0, [fp]
 80032c0:	f7fd f952 	bl	8000568 <__aeabi_f2d>
 80032c4:	460b      	mov	r3, r1
 80032c6:	4952      	ldr	r1, [pc, #328]	; (8003410 <main+0x1a68>)
 80032c8:	7809      	ldrb	r1, [r1, #0]
 80032ca:	9107      	str	r1, [sp, #28]
 80032cc:	4951      	ldr	r1, [pc, #324]	; (8003414 <main+0x1a6c>)
 80032ce:	7809      	ldrb	r1, [r1, #0]
 80032d0:	9106      	str	r1, [sp, #24]
 80032d2:	4602      	mov	r2, r0
 80032d4:	f8da 0000 	ldr.w	r0, [sl]
 80032d8:	e9cd 2308 	strd	r2, r3, [sp, #32]
 80032dc:	f7fd f944 	bl	8000568 <__aeabi_f2d>
 80032e0:	e9cd 0104 	strd	r0, r1, [sp, #16]
 80032e4:	f8d9 0000 	ldr.w	r0, [r9]
 80032e8:	f7fd f93e 	bl	8000568 <__aeabi_f2d>
 80032ec:	e9cd 0102 	strd	r0, r1, [sp, #8]
 80032f0:	4b35      	ldr	r3, [pc, #212]	; (80033c8 <main+0x1a20>)
 80032f2:	6818      	ldr	r0, [r3, #0]
 80032f4:	f7fd f938 	bl	8000568 <__aeabi_f2d>
 80032f8:	e9dd 2308 	ldrd	r2, r3, [sp, #32]
 80032fc:	e9cd 0100 	strd	r0, r1, [sp]
 8003300:	4945      	ldr	r1, [pc, #276]	; (8003418 <main+0x1a70>)
 8003302:	a820      	add	r0, sp, #128	; 0x80
 8003304:	f005 fc7e 	bl	8008c04 <siprintf>
 8003308:	a820      	add	r0, sp, #128	; 0x80
 800330a:	f8c8 4000 	str.w	r4, [r8]
 800330e:	603c      	str	r4, [r7, #0]
 8003310:	6034      	str	r4, [r6, #0]
 8003312:	602c      	str	r4, [r5, #0]
 8003314:	f7fc ff66 	bl	80001e4 <strlen>
 8003318:	2364      	movs	r3, #100	; 0x64
 800331a:	b282      	uxth	r2, r0
 800331c:	a920      	add	r1, sp, #128	; 0x80
 800331e:	483f      	ldr	r0, [pc, #252]	; (800341c <main+0x1a74>)
 8003320:	f004 f8ae 	bl	8007480 <HAL_UART_Transmit>
 8003324:	f7ff bbc1 	b.w	8002aaa <main+0x1102>
 8003328:	483d      	ldr	r0, [pc, #244]	; (8003420 <main+0x1a78>)
 800332a:	f44f 7180 	mov.w	r1, #256	; 0x100
 800332e:	f001 ff89 	bl	8005244 <HAL_GPIO_ReadPin>
 8003332:	2801      	cmp	r0, #1
 8003334:	4606      	mov	r6, r0
 8003336:	f47f abdb 	bne.w	8002af0 <main+0x1148>
 800333a:	4b3a      	ldr	r3, [pc, #232]	; (8003424 <main+0x1a7c>)
 800333c:	8818      	ldrh	r0, [r3, #0]
 800333e:	f001 f8ef 	bl	8004520 <HAL_Delay>
 8003342:	4b39      	ldr	r3, [pc, #228]	; (8003428 <main+0x1a80>)
 8003344:	2500      	movs	r5, #0
 8003346:	701d      	strb	r5, [r3, #0]
 8003348:	f7fd fef8 	bl	800113c <MotorBrake>
 800334c:	4b37      	ldr	r3, [pc, #220]	; (800342c <main+0x1a84>)
 800334e:	f640 521f 	movw	r2, #3359	; 0xd1f
 8003352:	635a      	str	r2, [r3, #52]	; 0x34
 8003354:	f640 30b8 	movw	r0, #3000	; 0xbb8
 8003358:	639a      	str	r2, [r3, #56]	; 0x38
 800335a:	f001 f8e1 	bl	8004520 <HAL_Delay>
 800335e:	f7fd fee1 	bl	8001124 <cutterOFF>
 8003362:	4833      	ldr	r0, [pc, #204]	; (8003430 <main+0x1a88>)
 8003364:	f7fd ffb8 	bl	80012d8 <Serial_Console>
 8003368:	f242 7010 	movw	r0, #10000	; 0x2710
 800336c:	f001 f8d8 	bl	8004520 <HAL_Delay>
 8003370:	4632      	mov	r2, r6
 8003372:	4631      	mov	r1, r6
 8003374:	482f      	ldr	r0, [pc, #188]	; (8003434 <main+0x1a8c>)
 8003376:	f001 ff6b 	bl	8005250 <HAL_GPIO_WritePin>
 800337a:	482f      	ldr	r0, [pc, #188]	; (8003438 <main+0x1a90>)
 800337c:	f7fd ffac 	bl	80012d8 <Serial_Console>
 8003380:	4b18      	ldr	r3, [pc, #96]	; (80033e4 <main+0x1a3c>)
 8003382:	7026      	strb	r6, [r4, #0]
 8003384:	f241 3088 	movw	r0, #5000	; 0x1388
 8003388:	701e      	strb	r6, [r3, #0]
 800338a:	f001 f8c9 	bl	8004520 <HAL_Delay>
 800338e:	482b      	ldr	r0, [pc, #172]	; (800343c <main+0x1a94>)
 8003390:	4632      	mov	r2, r6
 8003392:	f44f 6180 	mov.w	r1, #1024	; 0x400
 8003396:	f001 ff5b 	bl	8005250 <HAL_GPIO_WritePin>
 800339a:	4829      	ldr	r0, [pc, #164]	; (8003440 <main+0x1a98>)
 800339c:	f7fd ff9c 	bl	80012d8 <Serial_Console>
 80033a0:	4b28      	ldr	r3, [pc, #160]	; (8003444 <main+0x1a9c>)
 80033a2:	701d      	strb	r5, [r3, #0]
 80033a4:	4b28      	ldr	r3, [pc, #160]	; (8003448 <main+0x1aa0>)
 80033a6:	701d      	strb	r5, [r3, #0]
 80033a8:	f7ff bba2 	b.w	8002af0 <main+0x1148>
 80033ac:	4927      	ldr	r1, [pc, #156]	; (800344c <main+0x1aa4>)
 80033ae:	a820      	add	r0, sp, #128	; 0x80
 80033b0:	f004 fd92 	bl	8007ed8 <memcpy>
 80033b4:	f7ff bbc7 	b.w	8002b46 <main+0x119e>
 80033b8:	20001ad0 	.word	0x20001ad0
 80033bc:	20000854 	.word	0x20000854
 80033c0:	2000084c 	.word	0x2000084c
 80033c4:	20000850 	.word	0x20000850
 80033c8:	20000b54 	.word	0x20000b54
 80033cc:	20000c58 	.word	0x20000c58
 80033d0:	0800d6d4 	.word	0x0800d6d4
 80033d4:	0800d6df 	.word	0x0800d6df
 80033d8:	0800da09 	.word	0x0800da09
 80033dc:	447a0000 	.word	0x447a0000
 80033e0:	0800d6ea 	.word	0x0800d6ea
 80033e4:	200003e6 	.word	0x200003e6
 80033e8:	0800d6f5 	.word	0x0800d6f5
 80033ec:	0800d70d 	.word	0x0800d70d
 80033f0:	200003d4 	.word	0x200003d4
 80033f4:	0800d73f 	.word	0x0800d73f
 80033f8:	20000990 	.word	0x20000990
 80033fc:	200009ec 	.word	0x200009ec
 8003400:	20000924 	.word	0x20000924
 8003404:	0800d75b 	.word	0x0800d75b
 8003408:	0800d77e 	.word	0x0800d77e
 800340c:	0800d78f 	.word	0x0800d78f
 8003410:	20000826 	.word	0x20000826
 8003414:	20000820 	.word	0x20000820
 8003418:	0800d7a2 	.word	0x0800d7a2
 800341c:	20001f90 	.word	0x20001f90
 8003420:	40020000 	.word	0x40020000
 8003424:	20000008 	.word	0x20000008
 8003428:	200003e9 	.word	0x200003e9
 800342c:	40000400 	.word	0x40000400
 8003430:	0800d821 	.word	0x0800d821
 8003434:	40020c00 	.word	0x40020c00
 8003438:	0800d835 	.word	0x0800d835
 800343c:	40020800 	.word	0x40020800
 8003440:	0800d84b 	.word	0x0800d84b
 8003444:	20000920 	.word	0x20000920
 8003448:	20000921 	.word	0x20000921
 800344c:	2000109c 	.word	0x2000109c
 8003450:	20001fd4 	.word	0x20001fd4
 8003454:	200003dc 	.word	0x200003dc
 8003458:	2000001c 	.word	0x2000001c
 800345c:	20000848 	.word	0x20000848
 8003460:	4947      	ldr	r1, [pc, #284]	; (8003580 <main+0x1bd8>)
 8003462:	a820      	add	r0, sp, #128	; 0x80
 8003464:	f7fc feb4 	bl	80001d0 <strcmp>
 8003468:	2800      	cmp	r0, #0
 800346a:	d06c      	beq.n	8003546 <main+0x1b9e>
 800346c:	4945      	ldr	r1, [pc, #276]	; (8003584 <main+0x1bdc>)
 800346e:	a820      	add	r0, sp, #128	; 0x80
 8003470:	f7fc feae 	bl	80001d0 <strcmp>
 8003474:	b9e0      	cbnz	r0, 80034b0 <main+0x1b08>
 8003476:	4844      	ldr	r0, [pc, #272]	; (8003588 <main+0x1be0>)
 8003478:	4f44      	ldr	r7, [pc, #272]	; (800358c <main+0x1be4>)
 800347a:	f8df 8150 	ldr.w	r8, [pc, #336]	; 80035cc <main+0x1c24>
 800347e:	4e44      	ldr	r6, [pc, #272]	; (8003590 <main+0x1be8>)
 8003480:	f7fd ff2a 	bl	80012d8 <Serial_Console>
 8003484:	4843      	ldr	r0, [pc, #268]	; (8003594 <main+0x1bec>)
 8003486:	f7fd ff27 	bl	80012d8 <Serial_Console>
 800348a:	2460      	movs	r4, #96	; 0x60
 800348c:	f857 0b04 	ldr.w	r0, [r7], #4
 8003490:	f7fd f86a 	bl	8000568 <__aeabi_f2d>
 8003494:	4602      	mov	r2, r0
 8003496:	460b      	mov	r3, r1
 8003498:	4630      	mov	r0, r6
 800349a:	4641      	mov	r1, r8
 800349c:	f005 fbb2 	bl	8008c04 <siprintf>
 80034a0:	4630      	mov	r0, r6
 80034a2:	f7fd ff19 	bl	80012d8 <Serial_Console>
 80034a6:	3c01      	subs	r4, #1
 80034a8:	d1f0      	bne.n	800348c <main+0x1ae4>
 80034aa:	483b      	ldr	r0, [pc, #236]	; (8003598 <main+0x1bf0>)
 80034ac:	f7fd ff14 	bl	80012d8 <Serial_Console>
 80034b0:	493a      	ldr	r1, [pc, #232]	; (800359c <main+0x1bf4>)
 80034b2:	a820      	add	r0, sp, #128	; 0x80
 80034b4:	f7fc fe8c 	bl	80001d0 <strcmp>
 80034b8:	b928      	cbnz	r0, 80034c6 <main+0x1b1e>
 80034ba:	4b39      	ldr	r3, [pc, #228]	; (80035a0 <main+0x1bf8>)
 80034bc:	4839      	ldr	r0, [pc, #228]	; (80035a4 <main+0x1bfc>)
 80034be:	2201      	movs	r2, #1
 80034c0:	701a      	strb	r2, [r3, #0]
 80034c2:	f7fd ff09 	bl	80012d8 <Serial_Console>
 80034c6:	4938      	ldr	r1, [pc, #224]	; (80035a8 <main+0x1c00>)
 80034c8:	a820      	add	r0, sp, #128	; 0x80
 80034ca:	f7fc fe81 	bl	80001d0 <strcmp>
 80034ce:	b968      	cbnz	r0, 80034ec <main+0x1b44>
 80034d0:	4b36      	ldr	r3, [pc, #216]	; (80035ac <main+0x1c04>)
 80034d2:	f44f 62fa 	mov.w	r2, #2000	; 0x7d0
 80034d6:	6358      	str	r0, [r3, #52]	; 0x34
 80034d8:	f640 30b8 	movw	r0, #3000	; 0xbb8
 80034dc:	639a      	str	r2, [r3, #56]	; 0x38
 80034de:	f001 f81f 	bl	8004520 <HAL_Delay>
 80034e2:	f7fd fe5d 	bl	80011a0 <MotorStop>
 80034e6:	4832      	ldr	r0, [pc, #200]	; (80035b0 <main+0x1c08>)
 80034e8:	f7fd fef6 	bl	80012d8 <Serial_Console>
 80034ec:	4931      	ldr	r1, [pc, #196]	; (80035b4 <main+0x1c0c>)
 80034ee:	a820      	add	r0, sp, #128	; 0x80
 80034f0:	f7fc fe6e 	bl	80001d0 <strcmp>
 80034f4:	b968      	cbnz	r0, 8003512 <main+0x1b6a>
 80034f6:	4b2d      	ldr	r3, [pc, #180]	; (80035ac <main+0x1c04>)
 80034f8:	f44f 62fa 	mov.w	r2, #2000	; 0x7d0
 80034fc:	63da      	str	r2, [r3, #60]	; 0x3c
 80034fe:	6418      	str	r0, [r3, #64]	; 0x40
 8003500:	f640 30b8 	movw	r0, #3000	; 0xbb8
 8003504:	f001 f80c 	bl	8004520 <HAL_Delay>
 8003508:	f7fd fe4a 	bl	80011a0 <MotorStop>
 800350c:	4828      	ldr	r0, [pc, #160]	; (80035b0 <main+0x1c08>)
 800350e:	f7fd fee3 	bl	80012d8 <Serial_Console>
 8003512:	4929      	ldr	r1, [pc, #164]	; (80035b8 <main+0x1c10>)
 8003514:	a820      	add	r0, sp, #128	; 0x80
 8003516:	f7fc fe5b 	bl	80001d0 <strcmp>
 800351a:	2800      	cmp	r0, #0
 800351c:	d15a      	bne.n	80035d4 <main+0x1c2c>
 800351e:	4827      	ldr	r0, [pc, #156]	; (80035bc <main+0x1c14>)
 8003520:	f7fd feda 	bl	80012d8 <Serial_Console>
 8003524:	f44f 70fa 	mov.w	r0, #500	; 0x1f4
 8003528:	f000 fffa 	bl	8004520 <HAL_Delay>
 800352c:	f3bf 8f4f 	dsb	sy
 8003530:	4923      	ldr	r1, [pc, #140]	; (80035c0 <main+0x1c18>)
 8003532:	4b24      	ldr	r3, [pc, #144]	; (80035c4 <main+0x1c1c>)
 8003534:	68ca      	ldr	r2, [r1, #12]
 8003536:	f402 62e0 	and.w	r2, r2, #1792	; 0x700
 800353a:	4313      	orrs	r3, r2
 800353c:	60cb      	str	r3, [r1, #12]
 800353e:	f3bf 8f4f 	dsb	sy
 8003542:	bf00      	nop
 8003544:	e7fd      	b.n	8003542 <main+0x1b9a>
 8003546:	4820      	ldr	r0, [pc, #128]	; (80035c8 <main+0x1c20>)
 8003548:	4f10      	ldr	r7, [pc, #64]	; (800358c <main+0x1be4>)
 800354a:	f8df 8084 	ldr.w	r8, [pc, #132]	; 80035d0 <main+0x1c28>
 800354e:	4e10      	ldr	r6, [pc, #64]	; (8003590 <main+0x1be8>)
 8003550:	f7fd fec2 	bl	80012d8 <Serial_Console>
 8003554:	f44f 50fa 	mov.w	r0, #8000	; 0x1f40
 8003558:	f000 ffe2 	bl	8004520 <HAL_Delay>
 800355c:	2460      	movs	r4, #96	; 0x60
 800355e:	f857 0b04 	ldr.w	r0, [r7], #4
 8003562:	f7fd f801 	bl	8000568 <__aeabi_f2d>
 8003566:	4602      	mov	r2, r0
 8003568:	460b      	mov	r3, r1
 800356a:	4630      	mov	r0, r6
 800356c:	4641      	mov	r1, r8
 800356e:	f005 fb49 	bl	8008c04 <siprintf>
 8003572:	4630      	mov	r0, r6
 8003574:	f7fd feb0 	bl	80012d8 <Serial_Console>
 8003578:	3c01      	subs	r4, #1
 800357a:	d1f0      	bne.n	800355e <main+0x1bb6>
 800357c:	e776      	b.n	800346c <main+0x1ac4>
 800357e:	bf00      	nop
 8003580:	0800d908 	.word	0x0800d908
 8003584:	0800d911 	.word	0x0800d911
 8003588:	0800d968 	.word	0x0800d968
 800358c:	20000040 	.word	0x20000040
 8003590:	20000c58 	.word	0x20000c58
 8003594:	0800d989 	.word	0x0800d989
 8003598:	0800d990 	.word	0x0800d990
 800359c:	0800d996 	.word	0x0800d996
 80035a0:	20000822 	.word	0x20000822
 80035a4:	0800d9a1 	.word	0x0800d9a1
 80035a8:	0800d9a9 	.word	0x0800d9a9
 80035ac:	40000800 	.word	0x40000800
 80035b0:	0800d9b9 	.word	0x0800d9b9
 80035b4:	0800d9c1 	.word	0x0800d9c1
 80035b8:	0800d9d2 	.word	0x0800d9d2
 80035bc:	0800d9d9 	.word	0x0800d9d9
 80035c0:	e000ed00 	.word	0xe000ed00
 80035c4:	05fa0004 	.word	0x05fa0004
 80035c8:	0800d91c 	.word	0x0800d91c
 80035cc:	0800d98c 	.word	0x0800d98c
 80035d0:	0800db67 	.word	0x0800db67
 80035d4:	49a3      	ldr	r1, [pc, #652]	; (8003864 <main+0x1ebc>)
 80035d6:	a820      	add	r0, sp, #128	; 0x80
 80035d8:	f7fc fdfa 	bl	80001d0 <strcmp>
 80035dc:	b9e0      	cbnz	r0, 8003618 <main+0x1c70>
 80035de:	4ba2      	ldr	r3, [pc, #648]	; (8003868 <main+0x1ec0>)
 80035e0:	6818      	ldr	r0, [r3, #0]
 80035e2:	f7fc ffc1 	bl	8000568 <__aeabi_f2d>
 80035e6:	460b      	mov	r3, r1
 80035e8:	49a0      	ldr	r1, [pc, #640]	; (800386c <main+0x1ec4>)
 80035ea:	4602      	mov	r2, r0
 80035ec:	6808      	ldr	r0, [r1, #0]
 80035ee:	e9cd 2308 	strd	r2, r3, [sp, #32]
 80035f2:	f7fc ffb9 	bl	8000568 <__aeabi_f2d>
 80035f6:	e9cd 0102 	strd	r0, r1, [sp, #8]
 80035fa:	499d      	ldr	r1, [pc, #628]	; (8003870 <main+0x1ec8>)
 80035fc:	6808      	ldr	r0, [r1, #0]
 80035fe:	f7fc ffb3 	bl	8000568 <__aeabi_f2d>
 8003602:	e9dd 2308 	ldrd	r2, r3, [sp, #32]
 8003606:	e9cd 0100 	strd	r0, r1, [sp]
 800360a:	499a      	ldr	r1, [pc, #616]	; (8003874 <main+0x1ecc>)
 800360c:	489a      	ldr	r0, [pc, #616]	; (8003878 <main+0x1ed0>)
 800360e:	f005 faf9 	bl	8008c04 <siprintf>
 8003612:	4899      	ldr	r0, [pc, #612]	; (8003878 <main+0x1ed0>)
 8003614:	f7fd fe60 	bl	80012d8 <Serial_Console>
 8003618:	4998      	ldr	r1, [pc, #608]	; (800387c <main+0x1ed4>)
 800361a:	a820      	add	r0, sp, #128	; 0x80
 800361c:	f7fc fdd8 	bl	80001d0 <strcmp>
 8003620:	b908      	cbnz	r0, 8003626 <main+0x1c7e>
 8003622:	f7fd fdbd 	bl	80011a0 <MotorStop>
 8003626:	4996      	ldr	r1, [pc, #600]	; (8003880 <main+0x1ed8>)
 8003628:	a820      	add	r0, sp, #128	; 0x80
 800362a:	f7fc fdd1 	bl	80001d0 <strcmp>
 800362e:	b930      	cbnz	r0, 800363e <main+0x1c96>
 8003630:	4b94      	ldr	r3, [pc, #592]	; (8003884 <main+0x1edc>)
 8003632:	f44f 62fa 	mov.w	r2, #2000	; 0x7d0
 8003636:	6358      	str	r0, [r3, #52]	; 0x34
 8003638:	639a      	str	r2, [r3, #56]	; 0x38
 800363a:	63da      	str	r2, [r3, #60]	; 0x3c
 800363c:	6418      	str	r0, [r3, #64]	; 0x40
 800363e:	4992      	ldr	r1, [pc, #584]	; (8003888 <main+0x1ee0>)
 8003640:	a820      	add	r0, sp, #128	; 0x80
 8003642:	f7fc fdc5 	bl	80001d0 <strcmp>
 8003646:	b930      	cbnz	r0, 8003656 <main+0x1cae>
 8003648:	4b8e      	ldr	r3, [pc, #568]	; (8003884 <main+0x1edc>)
 800364a:	f44f 62fa 	mov.w	r2, #2000	; 0x7d0
 800364e:	635a      	str	r2, [r3, #52]	; 0x34
 8003650:	6398      	str	r0, [r3, #56]	; 0x38
 8003652:	63d8      	str	r0, [r3, #60]	; 0x3c
 8003654:	641a      	str	r2, [r3, #64]	; 0x40
 8003656:	498d      	ldr	r1, [pc, #564]	; (800388c <main+0x1ee4>)
 8003658:	2208      	movs	r2, #8
 800365a:	a820      	add	r0, sp, #128	; 0x80
 800365c:	f005 fb6b 	bl	8008d36 <strncmp>
 8003660:	4604      	mov	r4, r0
 8003662:	2800      	cmp	r0, #0
 8003664:	d132      	bne.n	80036cc <main+0x1d24>
 8003666:	ab18      	add	r3, sp, #96	; 0x60
 8003668:	9303      	str	r3, [sp, #12]
 800366a:	ab17      	add	r3, sp, #92	; 0x5c
 800366c:	9302      	str	r3, [sp, #8]
 800366e:	ab16      	add	r3, sp, #88	; 0x58
 8003670:	9301      	str	r3, [sp, #4]
 8003672:	ab15      	add	r3, sp, #84	; 0x54
 8003674:	4986      	ldr	r1, [pc, #536]	; (8003890 <main+0x1ee8>)
 8003676:	9300      	str	r3, [sp, #0]
 8003678:	aa0d      	add	r2, sp, #52	; 0x34
 800367a:	ab19      	add	r3, sp, #100	; 0x64
 800367c:	e9cd 0015 	strd	r0, r0, [sp, #84]	; 0x54
 8003680:	e9cd 0017 	strd	r0, r0, [sp, #92]	; 0x5c
 8003684:	a820      	add	r0, sp, #128	; 0x80
 8003686:	f005 fadd 	bl	8008c44 <siscanf>
 800368a:	f89d 0060 	ldrb.w	r0, [sp, #96]	; 0x60
 800368e:	f89d 6054 	ldrb.w	r6, [sp, #84]	; 0x54
 8003692:	f89d 8058 	ldrb.w	r8, [sp, #88]	; 0x58
 8003696:	f89d 705c 	ldrb.w	r7, [sp, #92]	; 0x5c
 800369a:	941b      	str	r4, [sp, #108]	; 0x6c
 800369c:	f003 f8b4 	bl	8006808 <RTC_ByteToBcd2>
 80036a0:	f88d 006c 	strb.w	r0, [sp, #108]	; 0x6c
 80036a4:	4640      	mov	r0, r8
 80036a6:	f003 f8af 	bl	8006808 <RTC_ByteToBcd2>
 80036aa:	f88d 006d 	strb.w	r0, [sp, #109]	; 0x6d
 80036ae:	4638      	mov	r0, r7
 80036b0:	f003 f8aa 	bl	8006808 <RTC_ByteToBcd2>
 80036b4:	f88d 006e 	strb.w	r0, [sp, #110]	; 0x6e
 80036b8:	4630      	mov	r0, r6
 80036ba:	f003 f8a5 	bl	8006808 <RTC_ByteToBcd2>
 80036be:	2201      	movs	r2, #1
 80036c0:	f88d 006f 	strb.w	r0, [sp, #111]	; 0x6f
 80036c4:	a91b      	add	r1, sp, #108	; 0x6c
 80036c6:	4873      	ldr	r0, [pc, #460]	; (8003894 <main+0x1eec>)
 80036c8:	f003 f91a 	bl	8006900 <HAL_RTC_SetDate>
 80036cc:	4972      	ldr	r1, [pc, #456]	; (8003898 <main+0x1ef0>)
 80036ce:	2208      	movs	r2, #8
 80036d0:	a820      	add	r0, sp, #128	; 0x80
 80036d2:	f005 fb30 	bl	8008d36 <strncmp>
 80036d6:	4604      	mov	r4, r0
 80036d8:	2800      	cmp	r0, #0
 80036da:	d131      	bne.n	8003740 <main+0x1d98>
 80036dc:	ab18      	add	r3, sp, #96	; 0x60
 80036de:	9302      	str	r3, [sp, #8]
 80036e0:	ab17      	add	r3, sp, #92	; 0x5c
 80036e2:	9301      	str	r3, [sp, #4]
 80036e4:	ab16      	add	r3, sp, #88	; 0x58
 80036e6:	e9cd 0016 	strd	r0, r0, [sp, #88]	; 0x58
 80036ea:	496c      	ldr	r1, [pc, #432]	; (800389c <main+0x1ef4>)
 80036ec:	9018      	str	r0, [sp, #96]	; 0x60
 80036ee:	9300      	str	r3, [sp, #0]
 80036f0:	aa15      	add	r2, sp, #84	; 0x54
 80036f2:	ab19      	add	r3, sp, #100	; 0x64
 80036f4:	a820      	add	r0, sp, #128	; 0x80
 80036f6:	f005 faa5 	bl	8008c44 <siscanf>
 80036fa:	f89d 8058 	ldrb.w	r8, [sp, #88]	; 0x58
 80036fe:	f89d 705c 	ldrb.w	r7, [sp, #92]	; 0x5c
 8003702:	f89d 6060 	ldrb.w	r6, [sp, #96]	; 0x60
 8003706:	2214      	movs	r2, #20
 8003708:	4621      	mov	r1, r4
 800370a:	a81b      	add	r0, sp, #108	; 0x6c
 800370c:	f004 fbf2 	bl	8007ef4 <memset>
 8003710:	4640      	mov	r0, r8
 8003712:	f003 f879 	bl	8006808 <RTC_ByteToBcd2>
 8003716:	f88d 006c 	strb.w	r0, [sp, #108]	; 0x6c
 800371a:	4638      	mov	r0, r7
 800371c:	f003 f874 	bl	8006808 <RTC_ByteToBcd2>
 8003720:	f88d 006d 	strb.w	r0, [sp, #109]	; 0x6d
 8003724:	4630      	mov	r0, r6
 8003726:	f003 f86f 	bl	8006808 <RTC_ByteToBcd2>
 800372a:	f44f 2380 	mov.w	r3, #262144	; 0x40000
 800372e:	f88d 006e 	strb.w	r0, [sp, #110]	; 0x6e
 8003732:	2201      	movs	r2, #1
 8003734:	4857      	ldr	r0, [pc, #348]	; (8003894 <main+0x1eec>)
 8003736:	941e      	str	r4, [sp, #120]	; 0x78
 8003738:	a91b      	add	r1, sp, #108	; 0x6c
 800373a:	931f      	str	r3, [sp, #124]	; 0x7c
 800373c:	f003 f86f 	bl	800681e <HAL_RTC_SetTime>
 8003740:	4957      	ldr	r1, [pc, #348]	; (80038a0 <main+0x1ef8>)
 8003742:	2206      	movs	r2, #6
 8003744:	a820      	add	r0, sp, #128	; 0x80
 8003746:	f005 faf6 	bl	8008d36 <strncmp>
 800374a:	b950      	cbnz	r0, 8003762 <main+0x1dba>
 800374c:	ab1b      	add	r3, sp, #108	; 0x6c
 800374e:	9300      	str	r3, [sp, #0]
 8003750:	aa19      	add	r2, sp, #100	; 0x64
 8003752:	ab18      	add	r3, sp, #96	; 0x60
 8003754:	4953      	ldr	r1, [pc, #332]	; (80038a4 <main+0x1efc>)
 8003756:	a820      	add	r0, sp, #128	; 0x80
 8003758:	f005 fa74 	bl	8008c44 <siscanf>
 800375c:	4b52      	ldr	r3, [pc, #328]	; (80038a8 <main+0x1f00>)
 800375e:	9a1b      	ldr	r2, [sp, #108]	; 0x6c
 8003760:	601a      	str	r2, [r3, #0]
 8003762:	4952      	ldr	r1, [pc, #328]	; (80038ac <main+0x1f04>)
 8003764:	2206      	movs	r2, #6
 8003766:	a820      	add	r0, sp, #128	; 0x80
 8003768:	f005 fae5 	bl	8008d36 <strncmp>
 800376c:	b950      	cbnz	r0, 8003784 <main+0x1ddc>
 800376e:	ab1b      	add	r3, sp, #108	; 0x6c
 8003770:	9300      	str	r3, [sp, #0]
 8003772:	aa19      	add	r2, sp, #100	; 0x64
 8003774:	ab18      	add	r3, sp, #96	; 0x60
 8003776:	494b      	ldr	r1, [pc, #300]	; (80038a4 <main+0x1efc>)
 8003778:	a820      	add	r0, sp, #128	; 0x80
 800377a:	f005 fa63 	bl	8008c44 <siscanf>
 800377e:	4b4c      	ldr	r3, [pc, #304]	; (80038b0 <main+0x1f08>)
 8003780:	9a1b      	ldr	r2, [sp, #108]	; 0x6c
 8003782:	601a      	str	r2, [r3, #0]
 8003784:	494b      	ldr	r1, [pc, #300]	; (80038b4 <main+0x1f0c>)
 8003786:	2206      	movs	r2, #6
 8003788:	a820      	add	r0, sp, #128	; 0x80
 800378a:	f005 fad4 	bl	8008d36 <strncmp>
 800378e:	b950      	cbnz	r0, 80037a6 <main+0x1dfe>
 8003790:	ab1b      	add	r3, sp, #108	; 0x6c
 8003792:	9300      	str	r3, [sp, #0]
 8003794:	aa19      	add	r2, sp, #100	; 0x64
 8003796:	ab18      	add	r3, sp, #96	; 0x60
 8003798:	4942      	ldr	r1, [pc, #264]	; (80038a4 <main+0x1efc>)
 800379a:	a820      	add	r0, sp, #128	; 0x80
 800379c:	f005 fa52 	bl	8008c44 <siscanf>
 80037a0:	4b45      	ldr	r3, [pc, #276]	; (80038b8 <main+0x1f10>)
 80037a2:	9a1b      	ldr	r2, [sp, #108]	; 0x6c
 80037a4:	601a      	str	r2, [r3, #0]
 80037a6:	4945      	ldr	r1, [pc, #276]	; (80038bc <main+0x1f14>)
 80037a8:	a820      	add	r0, sp, #128	; 0x80
 80037aa:	f7fc fd11 	bl	80001d0 <strcmp>
 80037ae:	b938      	cbnz	r0, 80037c0 <main+0x1e18>
 80037b0:	4b43      	ldr	r3, [pc, #268]	; (80038c0 <main+0x1f18>)
 80037b2:	7018      	strb	r0, [r3, #0]
 80037b4:	4843      	ldr	r0, [pc, #268]	; (80038c4 <main+0x1f1c>)
 80037b6:	f7fd fd8f 	bl	80012d8 <Serial_Console>
 80037ba:	4843      	ldr	r0, [pc, #268]	; (80038c8 <main+0x1f20>)
 80037bc:	f7fd fd8c 	bl	80012d8 <Serial_Console>
 80037c0:	4942      	ldr	r1, [pc, #264]	; (80038cc <main+0x1f24>)
 80037c2:	a820      	add	r0, sp, #128	; 0x80
 80037c4:	f7fc fd04 	bl	80001d0 <strcmp>
 80037c8:	4604      	mov	r4, r0
 80037ca:	b938      	cbnz	r0, 80037dc <main+0x1e34>
 80037cc:	4b3c      	ldr	r3, [pc, #240]	; (80038c0 <main+0x1f18>)
 80037ce:	4840      	ldr	r0, [pc, #256]	; (80038d0 <main+0x1f28>)
 80037d0:	2201      	movs	r2, #1
 80037d2:	701a      	strb	r2, [r3, #0]
 80037d4:	f7fd fd80 	bl	80012d8 <Serial_Console>
 80037d8:	4b3e      	ldr	r3, [pc, #248]	; (80038d4 <main+0x1f2c>)
 80037da:	701c      	strb	r4, [r3, #0]
 80037dc:	493e      	ldr	r1, [pc, #248]	; (80038d8 <main+0x1f30>)
 80037de:	a820      	add	r0, sp, #128	; 0x80
 80037e0:	f7fc fcf6 	bl	80001d0 <strcmp>
 80037e4:	b938      	cbnz	r0, 80037f6 <main+0x1e4e>
 80037e6:	4b3d      	ldr	r3, [pc, #244]	; (80038dc <main+0x1f34>)
 80037e8:	2201      	movs	r2, #1
 80037ea:	701a      	strb	r2, [r3, #0]
 80037ec:	f7fd fc9a 	bl	8001124 <cutterOFF>
 80037f0:	483b      	ldr	r0, [pc, #236]	; (80038e0 <main+0x1f38>)
 80037f2:	f7fd fd71 	bl	80012d8 <Serial_Console>
 80037f6:	493b      	ldr	r1, [pc, #236]	; (80038e4 <main+0x1f3c>)
 80037f8:	a820      	add	r0, sp, #128	; 0x80
 80037fa:	f7fc fce9 	bl	80001d0 <strcmp>
 80037fe:	b9e0      	cbnz	r0, 800383a <main+0x1e92>
 8003800:	4b29      	ldr	r3, [pc, #164]	; (80038a8 <main+0x1f00>)
 8003802:	6818      	ldr	r0, [r3, #0]
 8003804:	f7fc feb0 	bl	8000568 <__aeabi_f2d>
 8003808:	460b      	mov	r3, r1
 800380a:	492b      	ldr	r1, [pc, #172]	; (80038b8 <main+0x1f10>)
 800380c:	4602      	mov	r2, r0
 800380e:	6808      	ldr	r0, [r1, #0]
 8003810:	e9cd 2308 	strd	r2, r3, [sp, #32]
 8003814:	f7fc fea8 	bl	8000568 <__aeabi_f2d>
 8003818:	e9cd 0102 	strd	r0, r1, [sp, #8]
 800381c:	4924      	ldr	r1, [pc, #144]	; (80038b0 <main+0x1f08>)
 800381e:	6808      	ldr	r0, [r1, #0]
 8003820:	f7fc fea2 	bl	8000568 <__aeabi_f2d>
 8003824:	e9dd 2308 	ldrd	r2, r3, [sp, #32]
 8003828:	e9cd 0100 	strd	r0, r1, [sp]
 800382c:	492e      	ldr	r1, [pc, #184]	; (80038e8 <main+0x1f40>)
 800382e:	4812      	ldr	r0, [pc, #72]	; (8003878 <main+0x1ed0>)
 8003830:	f005 f9e8 	bl	8008c04 <siprintf>
 8003834:	4810      	ldr	r0, [pc, #64]	; (8003878 <main+0x1ed0>)
 8003836:	f7fd fd4f 	bl	80012d8 <Serial_Console>
 800383a:	492c      	ldr	r1, [pc, #176]	; (80038ec <main+0x1f44>)
 800383c:	2211      	movs	r2, #17
 800383e:	a820      	add	r0, sp, #128	; 0x80
 8003840:	f005 fa79 	bl	8008d36 <strncmp>
 8003844:	2800      	cmp	r0, #0
 8003846:	d157      	bne.n	80038f8 <main+0x1f50>
 8003848:	ab18      	add	r3, sp, #96	; 0x60
 800384a:	9301      	str	r3, [sp, #4]
 800384c:	ab19      	add	r3, sp, #100	; 0x64
 800384e:	9300      	str	r3, [sp, #0]
 8003850:	aa17      	add	r2, sp, #92	; 0x5c
 8003852:	ab1b      	add	r3, sp, #108	; 0x6c
 8003854:	4926      	ldr	r1, [pc, #152]	; (80038f0 <main+0x1f48>)
 8003856:	a820      	add	r0, sp, #128	; 0x80
 8003858:	f005 f9f4 	bl	8008c44 <siscanf>
 800385c:	4b25      	ldr	r3, [pc, #148]	; (80038f4 <main+0x1f4c>)
 800385e:	9a18      	ldr	r2, [sp, #96]	; 0x60
 8003860:	701a      	strb	r2, [r3, #0]
 8003862:	e049      	b.n	80038f8 <main+0x1f50>
 8003864:	0800d9e8 	.word	0x0800d9e8
 8003868:	20000b54 	.word	0x20000b54
 800386c:	200003dc 	.word	0x200003dc
 8003870:	20001fd4 	.word	0x20001fd4
 8003874:	0800d9f5 	.word	0x0800d9f5
 8003878:	20000c58 	.word	0x20000c58
 800387c:	0800da14 	.word	0x0800da14
 8003880:	0800da20 	.word	0x0800da20
 8003884:	40000800 	.word	0x40000800
 8003888:	0800da33 	.word	0x0800da33
 800388c:	0800da46 	.word	0x0800da46
 8003890:	0800da4f 	.word	0x0800da4f
 8003894:	20001ad0 	.word	0x20001ad0
 8003898:	0800da61 	.word	0x0800da61
 800389c:	0800da6a 	.word	0x0800da6a
 80038a0:	0800da79 	.word	0x0800da79
 80038a4:	0800da80 	.word	0x0800da80
 80038a8:	2000003c 	.word	0x2000003c
 80038ac:	0800da89 	.word	0x0800da89
 80038b0:	20000910 	.word	0x20000910
 80038b4:	0800da90 	.word	0x0800da90
 80038b8:	20000038 	.word	0x20000038
 80038bc:	0800d860 	.word	0x0800d860
 80038c0:	2000000a 	.word	0x2000000a
 80038c4:	0800da97 	.word	0x0800da97
 80038c8:	0800daae 	.word	0x0800daae
 80038cc:	0800dadd 	.word	0x0800dadd
 80038d0:	0800dae4 	.word	0x0800dae4
 80038d4:	200003f4 	.word	0x200003f4
 80038d8:	0800db16 	.word	0x0800db16
 80038dc:	20000920 	.word	0x20000920
 80038e0:	0800db26 	.word	0x0800db26
 80038e4:	0800db43 	.word	0x0800db43
 80038e8:	0800db55 	.word	0x0800db55
 80038ec:	0800db6c 	.word	0x0800db6c
 80038f0:	0800db7e 	.word	0x0800db7e
 80038f4:	20000021 	.word	0x20000021
 80038f8:	49a8      	ldr	r1, [pc, #672]	; (8003b9c <main+0x21f4>)
 80038fa:	220f      	movs	r2, #15
 80038fc:	a820      	add	r0, sp, #128	; 0x80
 80038fe:	f005 fa1a 	bl	8008d36 <strncmp>
 8003902:	b960      	cbnz	r0, 800391e <main+0x1f76>
 8003904:	ab19      	add	r3, sp, #100	; 0x64
 8003906:	9301      	str	r3, [sp, #4]
 8003908:	ab18      	add	r3, sp, #96	; 0x60
 800390a:	9300      	str	r3, [sp, #0]
 800390c:	aa17      	add	r2, sp, #92	; 0x5c
 800390e:	ab1b      	add	r3, sp, #108	; 0x6c
 8003910:	49a3      	ldr	r1, [pc, #652]	; (8003ba0 <main+0x21f8>)
 8003912:	a820      	add	r0, sp, #128	; 0x80
 8003914:	f005 f996 	bl	8008c44 <siscanf>
 8003918:	4ba2      	ldr	r3, [pc, #648]	; (8003ba4 <main+0x21fc>)
 800391a:	9a19      	ldr	r2, [sp, #100]	; 0x64
 800391c:	701a      	strb	r2, [r3, #0]
 800391e:	49a2      	ldr	r1, [pc, #648]	; (8003ba8 <main+0x2200>)
 8003920:	a820      	add	r0, sp, #128	; 0x80
 8003922:	f7fc fc55 	bl	80001d0 <strcmp>
 8003926:	b950      	cbnz	r0, 800393e <main+0x1f96>
 8003928:	4b9e      	ldr	r3, [pc, #632]	; (8003ba4 <main+0x21fc>)
 800392a:	4aa0      	ldr	r2, [pc, #640]	; (8003bac <main+0x2204>)
 800392c:	781b      	ldrb	r3, [r3, #0]
 800392e:	7812      	ldrb	r2, [r2, #0]
 8003930:	499f      	ldr	r1, [pc, #636]	; (8003bb0 <main+0x2208>)
 8003932:	48a0      	ldr	r0, [pc, #640]	; (8003bb4 <main+0x220c>)
 8003934:	f005 f966 	bl	8008c04 <siprintf>
 8003938:	489e      	ldr	r0, [pc, #632]	; (8003bb4 <main+0x220c>)
 800393a:	f7fd fccd 	bl	80012d8 <Serial_Console>
 800393e:	499e      	ldr	r1, [pc, #632]	; (8003bb8 <main+0x2210>)
 8003940:	a820      	add	r0, sp, #128	; 0x80
 8003942:	f7fc fc45 	bl	80001d0 <strcmp>
 8003946:	2800      	cmp	r0, #0
 8003948:	f040 80d9 	bne.w	8003afe <main+0x2156>
 800394c:	499b      	ldr	r1, [pc, #620]	; (8003bbc <main+0x2214>)
 800394e:	4899      	ldr	r0, [pc, #612]	; (8003bb4 <main+0x220c>)
 8003950:	f005 f9e9 	bl	8008d26 <strcpy>
 8003954:	4897      	ldr	r0, [pc, #604]	; (8003bb4 <main+0x220c>)
 8003956:	f7fd fcbf 	bl	80012d8 <Serial_Console>
 800395a:	4999      	ldr	r1, [pc, #612]	; (8003bc0 <main+0x2218>)
 800395c:	4895      	ldr	r0, [pc, #596]	; (8003bb4 <main+0x220c>)
 800395e:	f005 f9e2 	bl	8008d26 <strcpy>
 8003962:	4894      	ldr	r0, [pc, #592]	; (8003bb4 <main+0x220c>)
 8003964:	f7fd fcb8 	bl	80012d8 <Serial_Console>
 8003968:	4996      	ldr	r1, [pc, #600]	; (8003bc4 <main+0x221c>)
 800396a:	4892      	ldr	r0, [pc, #584]	; (8003bb4 <main+0x220c>)
 800396c:	f005 f9db 	bl	8008d26 <strcpy>
 8003970:	4890      	ldr	r0, [pc, #576]	; (8003bb4 <main+0x220c>)
 8003972:	f7fd fcb1 	bl	80012d8 <Serial_Console>
 8003976:	4994      	ldr	r1, [pc, #592]	; (8003bc8 <main+0x2220>)
 8003978:	488e      	ldr	r0, [pc, #568]	; (8003bb4 <main+0x220c>)
 800397a:	f005 f9d4 	bl	8008d26 <strcpy>
 800397e:	488d      	ldr	r0, [pc, #564]	; (8003bb4 <main+0x220c>)
 8003980:	f7fd fcaa 	bl	80012d8 <Serial_Console>
 8003984:	4991      	ldr	r1, [pc, #580]	; (8003bcc <main+0x2224>)
 8003986:	488b      	ldr	r0, [pc, #556]	; (8003bb4 <main+0x220c>)
 8003988:	f005 f9cd 	bl	8008d26 <strcpy>
 800398c:	4889      	ldr	r0, [pc, #548]	; (8003bb4 <main+0x220c>)
 800398e:	f7fd fca3 	bl	80012d8 <Serial_Console>
 8003992:	498f      	ldr	r1, [pc, #572]	; (8003bd0 <main+0x2228>)
 8003994:	4887      	ldr	r0, [pc, #540]	; (8003bb4 <main+0x220c>)
 8003996:	f005 f9c6 	bl	8008d26 <strcpy>
 800399a:	4886      	ldr	r0, [pc, #536]	; (8003bb4 <main+0x220c>)
 800399c:	f7fd fc9c 	bl	80012d8 <Serial_Console>
 80039a0:	498c      	ldr	r1, [pc, #560]	; (8003bd4 <main+0x222c>)
 80039a2:	4884      	ldr	r0, [pc, #528]	; (8003bb4 <main+0x220c>)
 80039a4:	f005 f9bf 	bl	8008d26 <strcpy>
 80039a8:	4882      	ldr	r0, [pc, #520]	; (8003bb4 <main+0x220c>)
 80039aa:	f7fd fc95 	bl	80012d8 <Serial_Console>
 80039ae:	498a      	ldr	r1, [pc, #552]	; (8003bd8 <main+0x2230>)
 80039b0:	4880      	ldr	r0, [pc, #512]	; (8003bb4 <main+0x220c>)
 80039b2:	f005 f9b8 	bl	8008d26 <strcpy>
 80039b6:	487f      	ldr	r0, [pc, #508]	; (8003bb4 <main+0x220c>)
 80039b8:	f7fd fc8e 	bl	80012d8 <Serial_Console>
 80039bc:	4987      	ldr	r1, [pc, #540]	; (8003bdc <main+0x2234>)
 80039be:	487d      	ldr	r0, [pc, #500]	; (8003bb4 <main+0x220c>)
 80039c0:	f005 f9b1 	bl	8008d26 <strcpy>
 80039c4:	487b      	ldr	r0, [pc, #492]	; (8003bb4 <main+0x220c>)
 80039c6:	f7fd fc87 	bl	80012d8 <Serial_Console>
 80039ca:	4985      	ldr	r1, [pc, #532]	; (8003be0 <main+0x2238>)
 80039cc:	4879      	ldr	r0, [pc, #484]	; (8003bb4 <main+0x220c>)
 80039ce:	f005 f9aa 	bl	8008d26 <strcpy>
 80039d2:	4878      	ldr	r0, [pc, #480]	; (8003bb4 <main+0x220c>)
 80039d4:	f7fd fc80 	bl	80012d8 <Serial_Console>
 80039d8:	4982      	ldr	r1, [pc, #520]	; (8003be4 <main+0x223c>)
 80039da:	4876      	ldr	r0, [pc, #472]	; (8003bb4 <main+0x220c>)
 80039dc:	f005 f9a3 	bl	8008d26 <strcpy>
 80039e0:	4874      	ldr	r0, [pc, #464]	; (8003bb4 <main+0x220c>)
 80039e2:	f7fd fc79 	bl	80012d8 <Serial_Console>
 80039e6:	4980      	ldr	r1, [pc, #512]	; (8003be8 <main+0x2240>)
 80039e8:	4872      	ldr	r0, [pc, #456]	; (8003bb4 <main+0x220c>)
 80039ea:	f005 f99c 	bl	8008d26 <strcpy>
 80039ee:	4871      	ldr	r0, [pc, #452]	; (8003bb4 <main+0x220c>)
 80039f0:	f7fd fc72 	bl	80012d8 <Serial_Console>
 80039f4:	497d      	ldr	r1, [pc, #500]	; (8003bec <main+0x2244>)
 80039f6:	486f      	ldr	r0, [pc, #444]	; (8003bb4 <main+0x220c>)
 80039f8:	f005 f995 	bl	8008d26 <strcpy>
 80039fc:	486d      	ldr	r0, [pc, #436]	; (8003bb4 <main+0x220c>)
 80039fe:	f7fd fc6b 	bl	80012d8 <Serial_Console>
 8003a02:	497b      	ldr	r1, [pc, #492]	; (8003bf0 <main+0x2248>)
 8003a04:	486b      	ldr	r0, [pc, #428]	; (8003bb4 <main+0x220c>)
 8003a06:	f005 f98e 	bl	8008d26 <strcpy>
 8003a0a:	486a      	ldr	r0, [pc, #424]	; (8003bb4 <main+0x220c>)
 8003a0c:	f7fd fc64 	bl	80012d8 <Serial_Console>
 8003a10:	4978      	ldr	r1, [pc, #480]	; (8003bf4 <main+0x224c>)
 8003a12:	4868      	ldr	r0, [pc, #416]	; (8003bb4 <main+0x220c>)
 8003a14:	f005 f987 	bl	8008d26 <strcpy>
 8003a18:	4866      	ldr	r0, [pc, #408]	; (8003bb4 <main+0x220c>)
 8003a1a:	f7fd fc5d 	bl	80012d8 <Serial_Console>
 8003a1e:	4976      	ldr	r1, [pc, #472]	; (8003bf8 <main+0x2250>)
 8003a20:	4864      	ldr	r0, [pc, #400]	; (8003bb4 <main+0x220c>)
 8003a22:	f005 f980 	bl	8008d26 <strcpy>
 8003a26:	4863      	ldr	r0, [pc, #396]	; (8003bb4 <main+0x220c>)
 8003a28:	f7fd fc56 	bl	80012d8 <Serial_Console>
 8003a2c:	4973      	ldr	r1, [pc, #460]	; (8003bfc <main+0x2254>)
 8003a2e:	4861      	ldr	r0, [pc, #388]	; (8003bb4 <main+0x220c>)
 8003a30:	f005 f979 	bl	8008d26 <strcpy>
 8003a34:	485f      	ldr	r0, [pc, #380]	; (8003bb4 <main+0x220c>)
 8003a36:	f7fd fc4f 	bl	80012d8 <Serial_Console>
 8003a3a:	4971      	ldr	r1, [pc, #452]	; (8003c00 <main+0x2258>)
 8003a3c:	485d      	ldr	r0, [pc, #372]	; (8003bb4 <main+0x220c>)
 8003a3e:	f005 f972 	bl	8008d26 <strcpy>
 8003a42:	485c      	ldr	r0, [pc, #368]	; (8003bb4 <main+0x220c>)
 8003a44:	f7fd fc48 	bl	80012d8 <Serial_Console>
 8003a48:	496e      	ldr	r1, [pc, #440]	; (8003c04 <main+0x225c>)
 8003a4a:	485a      	ldr	r0, [pc, #360]	; (8003bb4 <main+0x220c>)
 8003a4c:	f005 f96b 	bl	8008d26 <strcpy>
 8003a50:	4858      	ldr	r0, [pc, #352]	; (8003bb4 <main+0x220c>)
 8003a52:	f7fd fc41 	bl	80012d8 <Serial_Console>
 8003a56:	496c      	ldr	r1, [pc, #432]	; (8003c08 <main+0x2260>)
 8003a58:	4856      	ldr	r0, [pc, #344]	; (8003bb4 <main+0x220c>)
 8003a5a:	f005 f964 	bl	8008d26 <strcpy>
 8003a5e:	4855      	ldr	r0, [pc, #340]	; (8003bb4 <main+0x220c>)
 8003a60:	f7fd fc3a 	bl	80012d8 <Serial_Console>
 8003a64:	4969      	ldr	r1, [pc, #420]	; (8003c0c <main+0x2264>)
 8003a66:	4853      	ldr	r0, [pc, #332]	; (8003bb4 <main+0x220c>)
 8003a68:	f005 f95d 	bl	8008d26 <strcpy>
 8003a6c:	4851      	ldr	r0, [pc, #324]	; (8003bb4 <main+0x220c>)
 8003a6e:	f7fd fc33 	bl	80012d8 <Serial_Console>
 8003a72:	4967      	ldr	r1, [pc, #412]	; (8003c10 <main+0x2268>)
 8003a74:	484f      	ldr	r0, [pc, #316]	; (8003bb4 <main+0x220c>)
 8003a76:	f005 f956 	bl	8008d26 <strcpy>
 8003a7a:	484e      	ldr	r0, [pc, #312]	; (8003bb4 <main+0x220c>)
 8003a7c:	f7fd fc2c 	bl	80012d8 <Serial_Console>
 8003a80:	4964      	ldr	r1, [pc, #400]	; (8003c14 <main+0x226c>)
 8003a82:	484c      	ldr	r0, [pc, #304]	; (8003bb4 <main+0x220c>)
 8003a84:	f005 f94f 	bl	8008d26 <strcpy>
 8003a88:	484a      	ldr	r0, [pc, #296]	; (8003bb4 <main+0x220c>)
 8003a8a:	f7fd fc25 	bl	80012d8 <Serial_Console>
 8003a8e:	4962      	ldr	r1, [pc, #392]	; (8003c18 <main+0x2270>)
 8003a90:	4848      	ldr	r0, [pc, #288]	; (8003bb4 <main+0x220c>)
 8003a92:	f005 f948 	bl	8008d26 <strcpy>
 8003a96:	4847      	ldr	r0, [pc, #284]	; (8003bb4 <main+0x220c>)
 8003a98:	f7fd fc1e 	bl	80012d8 <Serial_Console>
 8003a9c:	495f      	ldr	r1, [pc, #380]	; (8003c1c <main+0x2274>)
 8003a9e:	4845      	ldr	r0, [pc, #276]	; (8003bb4 <main+0x220c>)
 8003aa0:	f005 f941 	bl	8008d26 <strcpy>
 8003aa4:	4843      	ldr	r0, [pc, #268]	; (8003bb4 <main+0x220c>)
 8003aa6:	f7fd fc17 	bl	80012d8 <Serial_Console>
 8003aaa:	495d      	ldr	r1, [pc, #372]	; (8003c20 <main+0x2278>)
 8003aac:	4841      	ldr	r0, [pc, #260]	; (8003bb4 <main+0x220c>)
 8003aae:	f005 f93a 	bl	8008d26 <strcpy>
 8003ab2:	4840      	ldr	r0, [pc, #256]	; (8003bb4 <main+0x220c>)
 8003ab4:	f7fd fc10 	bl	80012d8 <Serial_Console>
 8003ab8:	495a      	ldr	r1, [pc, #360]	; (8003c24 <main+0x227c>)
 8003aba:	483e      	ldr	r0, [pc, #248]	; (8003bb4 <main+0x220c>)
 8003abc:	f005 f933 	bl	8008d26 <strcpy>
 8003ac0:	483c      	ldr	r0, [pc, #240]	; (8003bb4 <main+0x220c>)
 8003ac2:	f7fd fc09 	bl	80012d8 <Serial_Console>
 8003ac6:	4958      	ldr	r1, [pc, #352]	; (8003c28 <main+0x2280>)
 8003ac8:	483a      	ldr	r0, [pc, #232]	; (8003bb4 <main+0x220c>)
 8003aca:	f005 f92c 	bl	8008d26 <strcpy>
 8003ace:	4839      	ldr	r0, [pc, #228]	; (8003bb4 <main+0x220c>)
 8003ad0:	f7fd fc02 	bl	80012d8 <Serial_Console>
 8003ad4:	4955      	ldr	r1, [pc, #340]	; (8003c2c <main+0x2284>)
 8003ad6:	4837      	ldr	r0, [pc, #220]	; (8003bb4 <main+0x220c>)
 8003ad8:	f005 f925 	bl	8008d26 <strcpy>
 8003adc:	4835      	ldr	r0, [pc, #212]	; (8003bb4 <main+0x220c>)
 8003ade:	f7fd fbfb 	bl	80012d8 <Serial_Console>
 8003ae2:	4953      	ldr	r1, [pc, #332]	; (8003c30 <main+0x2288>)
 8003ae4:	4833      	ldr	r0, [pc, #204]	; (8003bb4 <main+0x220c>)
 8003ae6:	f005 f91e 	bl	8008d26 <strcpy>
 8003aea:	4832      	ldr	r0, [pc, #200]	; (8003bb4 <main+0x220c>)
 8003aec:	f7fd fbf4 	bl	80012d8 <Serial_Console>
 8003af0:	4950      	ldr	r1, [pc, #320]	; (8003c34 <main+0x228c>)
 8003af2:	4830      	ldr	r0, [pc, #192]	; (8003bb4 <main+0x220c>)
 8003af4:	f005 f917 	bl	8008d26 <strcpy>
 8003af8:	482e      	ldr	r0, [pc, #184]	; (8003bb4 <main+0x220c>)
 8003afa:	f7fd fbed 	bl	80012d8 <Serial_Console>
 8003afe:	4b4e      	ldr	r3, [pc, #312]	; (8003c38 <main+0x2290>)
 8003b00:	2200      	movs	r2, #0
 8003b02:	601a      	str	r2, [r3, #0]
 8003b04:	2300      	movs	r3, #0
 8003b06:	702b      	strb	r3, [r5, #0]
 8003b08:	4c4c      	ldr	r4, [pc, #304]	; (8003c3c <main+0x2294>)
 8003b0a:	7823      	ldrb	r3, [r4, #0]
 8003b0c:	2b01      	cmp	r3, #1
 8003b0e:	f47e aa34 	bne.w	8001f7a <main+0x5d2>
 8003b12:	2500      	movs	r5, #0
 8003b14:	223c      	movs	r2, #60	; 0x3c
 8003b16:	4629      	mov	r1, r5
 8003b18:	a821      	add	r0, sp, #132	; 0x84
 8003b1a:	9520      	str	r5, [sp, #128]	; 0x80
 8003b1c:	f004 f9ea 	bl	8007ef4 <memset>
 8003b20:	4b47      	ldr	r3, [pc, #284]	; (8003c40 <main+0x2298>)
 8003b22:	462a      	mov	r2, r5
 8003b24:	f813 1b01 	ldrb.w	r1, [r3], #1
 8003b28:	290d      	cmp	r1, #13
 8003b2a:	f040 80c3 	bne.w	8003cb4 <main+0x230c>
 8003b2e:	4944      	ldr	r1, [pc, #272]	; (8003c40 <main+0x2298>)
 8003b30:	a820      	add	r0, sp, #128	; 0x80
 8003b32:	f004 f9d1 	bl	8007ed8 <memcpy>
 8003b36:	4943      	ldr	r1, [pc, #268]	; (8003c44 <main+0x229c>)
 8003b38:	481e      	ldr	r0, [pc, #120]	; (8003bb4 <main+0x220c>)
 8003b3a:	aa20      	add	r2, sp, #128	; 0x80
 8003b3c:	f005 f862 	bl	8008c04 <siprintf>
 8003b40:	4941      	ldr	r1, [pc, #260]	; (8003c48 <main+0x22a0>)
 8003b42:	a820      	add	r0, sp, #128	; 0x80
 8003b44:	f7fc fb44 	bl	80001d0 <strcmp>
 8003b48:	b940      	cbnz	r0, 8003b5c <main+0x21b4>
 8003b4a:	4b40      	ldr	r3, [pc, #256]	; (8003c4c <main+0x22a4>)
 8003b4c:	4840      	ldr	r0, [pc, #256]	; (8003c50 <main+0x22a8>)
 8003b4e:	2201      	movs	r2, #1
 8003b50:	701a      	strb	r2, [r3, #0]
 8003b52:	f7fd fbb1 	bl	80012b8 <Serial_RPi>
 8003b56:	483e      	ldr	r0, [pc, #248]	; (8003c50 <main+0x22a8>)
 8003b58:	f7fd fbbe 	bl	80012d8 <Serial_Console>
 8003b5c:	493d      	ldr	r1, [pc, #244]	; (8003c54 <main+0x22ac>)
 8003b5e:	a820      	add	r0, sp, #128	; 0x80
 8003b60:	f7fc fb36 	bl	80001d0 <strcmp>
 8003b64:	b928      	cbnz	r0, 8003b72 <main+0x21ca>
 8003b66:	4b3c      	ldr	r3, [pc, #240]	; (8003c58 <main+0x22b0>)
 8003b68:	781b      	ldrb	r3, [r3, #0]
 8003b6a:	2b01      	cmp	r3, #1
 8003b6c:	bf04      	itt	eq
 8003b6e:	4a3b      	ldreq	r2, [pc, #236]	; (8003c5c <main+0x22b4>)
 8003b70:	7013      	strbeq	r3, [r2, #0]
 8003b72:	493b      	ldr	r1, [pc, #236]	; (8003c60 <main+0x22b8>)
 8003b74:	a820      	add	r0, sp, #128	; 0x80
 8003b76:	f7fc fb2b 	bl	80001d0 <strcmp>
 8003b7a:	b928      	cbnz	r0, 8003b88 <main+0x21e0>
 8003b7c:	4b36      	ldr	r3, [pc, #216]	; (8003c58 <main+0x22b0>)
 8003b7e:	781b      	ldrb	r3, [r3, #0]
 8003b80:	2b01      	cmp	r3, #1
 8003b82:	bf04      	itt	eq
 8003b84:	4a37      	ldreq	r2, [pc, #220]	; (8003c64 <main+0x22bc>)
 8003b86:	7013      	strbeq	r3, [r2, #0]
 8003b88:	4937      	ldr	r1, [pc, #220]	; (8003c68 <main+0x22c0>)
 8003b8a:	a820      	add	r0, sp, #128	; 0x80
 8003b8c:	f7fc fb20 	bl	80001d0 <strcmp>
 8003b90:	2800      	cmp	r0, #0
 8003b92:	d16e      	bne.n	8003c72 <main+0x22ca>
 8003b94:	4b30      	ldr	r3, [pc, #192]	; (8003c58 <main+0x22b0>)
 8003b96:	781b      	ldrb	r3, [r3, #0]
 8003b98:	2b01      	cmp	r3, #1
 8003b9a:	e067      	b.n	8003c6c <main+0x22c4>
 8003b9c:	0800db8a 	.word	0x0800db8a
 8003ba0:	0800db7e 	.word	0x0800db7e
 8003ba4:	20000020 	.word	0x20000020
 8003ba8:	0800db9a 	.word	0x0800db9a
 8003bac:	20000021 	.word	0x20000021
 8003bb0:	0800dbac 	.word	0x0800dbac
 8003bb4:	20000c58 	.word	0x20000c58
 8003bb8:	0800dbc0 	.word	0x0800dbc0
 8003bbc:	0800dbc5 	.word	0x0800dbc5
 8003bc0:	0800dbdd 	.word	0x0800dbdd
 8003bc4:	0800dc04 	.word	0x0800dc04
 8003bc8:	0800dc32 	.word	0x0800dc32
 8003bcc:	0800dc61 	.word	0x0800dc61
 8003bd0:	0800dc8f 	.word	0x0800dc8f
 8003bd4:	0800dcbc 	.word	0x0800dcbc
 8003bd8:	0800dce9 	.word	0x0800dce9
 8003bdc:	0800dd17 	.word	0x0800dd17
 8003be0:	0800dd43 	.word	0x0800dd43
 8003be4:	0800dd6b 	.word	0x0800dd6b
 8003be8:	0800dd9f 	.word	0x0800dd9f
 8003bec:	0800dde3 	.word	0x0800dde3
 8003bf0:	0800de16 	.word	0x0800de16
 8003bf4:	0800de42 	.word	0x0800de42
 8003bf8:	0800de6f 	.word	0x0800de6f
 8003bfc:	0800dea6 	.word	0x0800dea6
 8003c00:	0800dec9 	.word	0x0800dec9
 8003c04:	0800def3 	.word	0x0800def3
 8003c08:	0800df1e 	.word	0x0800df1e
 8003c0c:	0800df45 	.word	0x0800df45
 8003c10:	0800df6c 	.word	0x0800df6c
 8003c14:	0800df96 	.word	0x0800df96
 8003c18:	0800dfcf 	.word	0x0800dfcf
 8003c1c:	0800e009 	.word	0x0800e009
 8003c20:	0800e03f 	.word	0x0800e03f
 8003c24:	0800e075 	.word	0x0800e075
 8003c28:	0800e0ab 	.word	0x0800e0ab
 8003c2c:	0800e0ea 	.word	0x0800e0ea
 8003c30:	0800e117 	.word	0x0800e117
 8003c34:	0800e142 	.word	0x0800e142
 8003c38:	2000109c 	.word	0x2000109c
 8003c3c:	20000841 	.word	0x20000841
 8003c40:	20001ef4 	.word	0x20001ef4
 8003c44:	0800d868 	.word	0x0800d868
 8003c48:	0800e177 	.word	0x0800e177
 8003c4c:	2000000a 	.word	0x2000000a
 8003c50:	0800e17b 	.word	0x0800e17b
 8003c54:	0800e189 	.word	0x0800e189
 8003c58:	20000826 	.word	0x20000826
 8003c5c:	200003c9 	.word	0x200003c9
 8003c60:	0800e194 	.word	0x0800e194
 8003c64:	200003ca 	.word	0x200003ca
 8003c68:	0800e1a0 	.word	0x0800e1a0
 8003c6c:	bf04      	itt	eq
 8003c6e:	4a19      	ldreq	r2, [pc, #100]	; (8003cd4 <main+0x232c>)
 8003c70:	7013      	strbeq	r3, [r2, #0]
 8003c72:	4919      	ldr	r1, [pc, #100]	; (8003cd8 <main+0x2330>)
 8003c74:	a820      	add	r0, sp, #128	; 0x80
 8003c76:	f7fc faab 	bl	80001d0 <strcmp>
 8003c7a:	b910      	cbnz	r0, 8003c82 <main+0x22da>
 8003c7c:	4b17      	ldr	r3, [pc, #92]	; (8003cdc <main+0x2334>)
 8003c7e:	2201      	movs	r2, #1
 8003c80:	701a      	strb	r2, [r3, #0]
 8003c82:	4917      	ldr	r1, [pc, #92]	; (8003ce0 <main+0x2338>)
 8003c84:	a820      	add	r0, sp, #128	; 0x80
 8003c86:	f7fc faa3 	bl	80001d0 <strcmp>
 8003c8a:	b938      	cbnz	r0, 8003c9c <main+0x22f4>
 8003c8c:	4b15      	ldr	r3, [pc, #84]	; (8003ce4 <main+0x233c>)
 8003c8e:	7018      	strb	r0, [r3, #0]
 8003c90:	4815      	ldr	r0, [pc, #84]	; (8003ce8 <main+0x2340>)
 8003c92:	f7fd fb11 	bl	80012b8 <Serial_RPi>
 8003c96:	4814      	ldr	r0, [pc, #80]	; (8003ce8 <main+0x2340>)
 8003c98:	f7fd fb1e 	bl	80012d8 <Serial_Console>
 8003c9c:	4813      	ldr	r0, [pc, #76]	; (8003cec <main+0x2344>)
 8003c9e:	f7fd fb1b 	bl	80012d8 <Serial_Console>
 8003ca2:	2300      	movs	r3, #0
 8003ca4:	7023      	strb	r3, [r4, #0]
 8003ca6:	f7fe b968 	b.w	8001f7a <main+0x5d2>
 8003caa:	3201      	adds	r2, #1
 8003cac:	2a40      	cmp	r2, #64	; 0x40
 8003cae:	f47e af38 	bne.w	8002b22 <main+0x117a>
 8003cb2:	e727      	b.n	8003b04 <main+0x215c>
 8003cb4:	3201      	adds	r2, #1
 8003cb6:	2a40      	cmp	r2, #64	; 0x40
 8003cb8:	f47f af34 	bne.w	8003b24 <main+0x217c>
 8003cbc:	f7fe b95d 	b.w	8001f7a <main+0x5d2>
 8003cc0:	23d1      	movs	r3, #209	; 0xd1
 8003cc2:	f7ff b8cf 	b.w	8002e64 <main+0x14bc>
 8003cc6:	2be1      	cmp	r3, #225	; 0xe1
 8003cc8:	f47f a8cd 	bne.w	8002e66 <main+0x14be>
 8003ccc:	23f1      	movs	r3, #241	; 0xf1
 8003cce:	f7ff b8c9 	b.w	8002e64 <main+0x14bc>
 8003cd2:	bf00      	nop
 8003cd4:	200003c8 	.word	0x200003c8
 8003cd8:	0800e1ac 	.word	0x0800e1ac
 8003cdc:	20000920 	.word	0x20000920
 8003ce0:	0800e1b3 	.word	0x0800e1b3
 8003ce4:	2000000a 	.word	0x2000000a
 8003ce8:	0800e1b8 	.word	0x0800e1b8
 8003cec:	20000c58 	.word	0x20000c58

08003cf0 <HAL_TIM_PeriodElapsedCallback>:
 8003cf0:	b508      	push	{r3, lr}
 8003cf2:	4803      	ldr	r0, [pc, #12]	; (8003d00 <HAL_TIM_PeriodElapsedCallback+0x10>)
 8003cf4:	f002 f958 	bl	8005fa8 <HAL_IWDG_Refresh>
 8003cf8:	4b02      	ldr	r3, [pc, #8]	; (8003d04 <HAL_TIM_PeriodElapsedCallback+0x14>)
 8003cfa:	2201      	movs	r2, #1
 8003cfc:	701a      	strb	r2, [r3, #0]
 8003cfe:	bd08      	pop	{r3, pc}
 8003d00:	20000bf8 	.word	0x20000bf8
 8003d04:	20000821 	.word	0x20000821

08003d08 <HAL_ADC_ConvCpltCallback>:
 8003d08:	4770      	bx	lr
	...

08003d0c <HAL_UART_RxCpltCallback_UART1>:
 8003d0c:	6803      	ldr	r3, [r0, #0]
 8003d0e:	681b      	ldr	r3, [r3, #0]
 8003d10:	06db      	lsls	r3, r3, #27
 8003d12:	b507      	push	{r0, r1, r2, lr}
 8003d14:	d50d      	bpl.n	8003d32 <HAL_UART_RxCpltCallback_UART1+0x26>
 8003d16:	4808      	ldr	r0, [pc, #32]	; (8003d38 <HAL_UART_RxCpltCallback_UART1+0x2c>)
 8003d18:	2300      	movs	r3, #0
 8003d1a:	9301      	str	r3, [sp, #4]
 8003d1c:	6803      	ldr	r3, [r0, #0]
 8003d1e:	681a      	ldr	r2, [r3, #0]
 8003d20:	9201      	str	r2, [sp, #4]
 8003d22:	685b      	ldr	r3, [r3, #4]
 8003d24:	9301      	str	r3, [sp, #4]
 8003d26:	9b01      	ldr	r3, [sp, #4]
 8003d28:	f003 fbff 	bl	800752a <HAL_UART_DMAStop>
 8003d2c:	4b03      	ldr	r3, [pc, #12]	; (8003d3c <HAL_UART_RxCpltCallback_UART1+0x30>)
 8003d2e:	2201      	movs	r2, #1
 8003d30:	701a      	strb	r2, [r3, #0]
 8003d32:	b003      	add	sp, #12
 8003d34:	f85d fb04 	ldr.w	pc, [sp], #4
 8003d38:	20001a2c 	.word	0x20001a2c
 8003d3c:	20000840 	.word	0x20000840

08003d40 <HAL_UART_RxCpltCallback_UART2>:
 8003d40:	6803      	ldr	r3, [r0, #0]
 8003d42:	681b      	ldr	r3, [r3, #0]
 8003d44:	06db      	lsls	r3, r3, #27
 8003d46:	b507      	push	{r0, r1, r2, lr}
 8003d48:	d50d      	bpl.n	8003d66 <HAL_UART_RxCpltCallback_UART2+0x26>
 8003d4a:	4808      	ldr	r0, [pc, #32]	; (8003d6c <HAL_UART_RxCpltCallback_UART2+0x2c>)
 8003d4c:	2300      	movs	r3, #0
 8003d4e:	9301      	str	r3, [sp, #4]
 8003d50:	6803      	ldr	r3, [r0, #0]
 8003d52:	681a      	ldr	r2, [r3, #0]
 8003d54:	9201      	str	r2, [sp, #4]
 8003d56:	685b      	ldr	r3, [r3, #4]
 8003d58:	9301      	str	r3, [sp, #4]
 8003d5a:	9b01      	ldr	r3, [sp, #4]
 8003d5c:	f003 fbe5 	bl	800752a <HAL_UART_DMAStop>
 8003d60:	4b03      	ldr	r3, [pc, #12]	; (8003d70 <HAL_UART_RxCpltCallback_UART2+0x30>)
 8003d62:	2201      	movs	r2, #1
 8003d64:	701a      	strb	r2, [r3, #0]
 8003d66:	b003      	add	sp, #12
 8003d68:	f85d fb04 	ldr.w	pc, [sp], #4
 8003d6c:	20001f90 	.word	0x20001f90
 8003d70:	20000841 	.word	0x20000841

08003d74 <HAL_UART_TxCpltCallback>:
 8003d74:	4770      	bx	lr

08003d76 <Error_Handler>:
 8003d76:	b672      	cpsid	i
 8003d78:	e7fe      	b.n	8003d78 <Error_Handler+0x2>
	...

08003d7c <HAL_MspInit>:
 8003d7c:	b082      	sub	sp, #8
 8003d7e:	4b0c      	ldr	r3, [pc, #48]	; (8003db0 <HAL_MspInit+0x34>)
 8003d80:	2100      	movs	r1, #0
 8003d82:	9100      	str	r1, [sp, #0]
 8003d84:	6c5a      	ldr	r2, [r3, #68]	; 0x44
 8003d86:	f442 4280 	orr.w	r2, r2, #16384	; 0x4000
 8003d8a:	645a      	str	r2, [r3, #68]	; 0x44
 8003d8c:	6c5a      	ldr	r2, [r3, #68]	; 0x44
 8003d8e:	f402 4280 	and.w	r2, r2, #16384	; 0x4000
 8003d92:	9200      	str	r2, [sp, #0]
 8003d94:	9a00      	ldr	r2, [sp, #0]
 8003d96:	9101      	str	r1, [sp, #4]
 8003d98:	6c1a      	ldr	r2, [r3, #64]	; 0x40
 8003d9a:	f042 5280 	orr.w	r2, r2, #268435456	; 0x10000000
 8003d9e:	641a      	str	r2, [r3, #64]	; 0x40
 8003da0:	6c1b      	ldr	r3, [r3, #64]	; 0x40
 8003da2:	f003 5380 	and.w	r3, r3, #268435456	; 0x10000000
 8003da6:	9301      	str	r3, [sp, #4]
 8003da8:	9b01      	ldr	r3, [sp, #4]
 8003daa:	b002      	add	sp, #8
 8003dac:	4770      	bx	lr
 8003dae:	bf00      	nop
 8003db0:	40023800 	.word	0x40023800

08003db4 <HAL_ADC_MspInit>:
 8003db4:	b570      	push	{r4, r5, r6, lr}
 8003db6:	4606      	mov	r6, r0
 8003db8:	b088      	sub	sp, #32
 8003dba:	2214      	movs	r2, #20
 8003dbc:	2100      	movs	r1, #0
 8003dbe:	a803      	add	r0, sp, #12
 8003dc0:	f004 f898 	bl	8007ef4 <memset>
 8003dc4:	6832      	ldr	r2, [r6, #0]
 8003dc6:	4b24      	ldr	r3, [pc, #144]	; (8003e58 <HAL_ADC_MspInit+0xa4>)
 8003dc8:	429a      	cmp	r2, r3
 8003dca:	d143      	bne.n	8003e54 <HAL_ADC_MspInit+0xa0>
 8003dcc:	2500      	movs	r5, #0
 8003dce:	f503 338c 	add.w	r3, r3, #71680	; 0x11800
 8003dd2:	9501      	str	r5, [sp, #4]
 8003dd4:	6c5a      	ldr	r2, [r3, #68]	; 0x44
 8003dd6:	4821      	ldr	r0, [pc, #132]	; (8003e5c <HAL_ADC_MspInit+0xa8>)
 8003dd8:	4c21      	ldr	r4, [pc, #132]	; (8003e60 <HAL_ADC_MspInit+0xac>)
 8003dda:	f442 7280 	orr.w	r2, r2, #256	; 0x100
 8003dde:	645a      	str	r2, [r3, #68]	; 0x44
 8003de0:	6c5a      	ldr	r2, [r3, #68]	; 0x44
 8003de2:	f402 7280 	and.w	r2, r2, #256	; 0x100
 8003de6:	9201      	str	r2, [sp, #4]
 8003de8:	9a01      	ldr	r2, [sp, #4]
 8003dea:	9502      	str	r5, [sp, #8]
 8003dec:	6b1a      	ldr	r2, [r3, #48]	; 0x30
 8003dee:	f042 0204 	orr.w	r2, r2, #4
 8003df2:	631a      	str	r2, [r3, #48]	; 0x30
 8003df4:	6b1b      	ldr	r3, [r3, #48]	; 0x30
 8003df6:	9505      	str	r5, [sp, #20]
 8003df8:	f003 0304 	and.w	r3, r3, #4
 8003dfc:	9302      	str	r3, [sp, #8]
 8003dfe:	9b02      	ldr	r3, [sp, #8]
 8003e00:	220c      	movs	r2, #12
 8003e02:	2303      	movs	r3, #3
 8003e04:	a903      	add	r1, sp, #12
 8003e06:	e9cd 2303 	strd	r2, r3, [sp, #12]
 8003e0a:	f001 f8ab 	bl	8004f64 <HAL_GPIO_Init>
 8003e0e:	4b15      	ldr	r3, [pc, #84]	; (8003e64 <HAL_ADC_MspInit+0xb0>)
 8003e10:	f44f 6180 	mov.w	r1, #1024	; 0x400
 8003e14:	e9c4 3500 	strd	r3, r5, [r4]
 8003e18:	f44f 6300 	mov.w	r3, #2048	; 0x800
 8003e1c:	f44f 5000 	mov.w	r0, #8192	; 0x2000
 8003e20:	e9c4 1304 	strd	r1, r3, [r4, #16]
 8003e24:	f44f 7380 	mov.w	r3, #256	; 0x100
 8003e28:	e9c4 0306 	strd	r0, r3, [r4, #24]
 8003e2c:	4620      	mov	r0, r4
 8003e2e:	e9c4 5502 	strd	r5, r5, [r4, #8]
 8003e32:	e9c4 5508 	strd	r5, r5, [r4, #32]
 8003e36:	f000 fec7 	bl	8004bc8 <HAL_DMA_Init>
 8003e3a:	b108      	cbz	r0, 8003e40 <HAL_ADC_MspInit+0x8c>
 8003e3c:	f7ff ff9b 	bl	8003d76 <Error_Handler>
 8003e40:	2200      	movs	r2, #0
 8003e42:	63b4      	str	r4, [r6, #56]	; 0x38
 8003e44:	2012      	movs	r0, #18
 8003e46:	4611      	mov	r1, r2
 8003e48:	63a6      	str	r6, [r4, #56]	; 0x38
 8003e4a:	f000 fe51 	bl	8004af0 <HAL_NVIC_SetPriority>
 8003e4e:	2012      	movs	r0, #18
 8003e50:	f000 fe80 	bl	8004b54 <HAL_NVIC_EnableIRQ>
 8003e54:	b008      	add	sp, #32
 8003e56:	bd70      	pop	{r4, r5, r6, pc}
 8003e58:	40012000 	.word	0x40012000
 8003e5c:	40020800 	.word	0x40020800
 8003e60:	20001a70 	.word	0x20001a70
 8003e64:	40026410 	.word	0x40026410

08003e68 <HAL_I2C_MspInit>:
 8003e68:	b530      	push	{r4, r5, lr}
 8003e6a:	2214      	movs	r2, #20
 8003e6c:	b08b      	sub	sp, #44	; 0x2c
 8003e6e:	4604      	mov	r4, r0
 8003e70:	2100      	movs	r1, #0
 8003e72:	eb0d 0002 	add.w	r0, sp, r2
 8003e76:	f004 f83d 	bl	8007ef4 <memset>
 8003e7a:	6823      	ldr	r3, [r4, #0]
 8003e7c:	4a29      	ldr	r2, [pc, #164]	; (8003f24 <HAL_I2C_MspInit+0xbc>)
 8003e7e:	4293      	cmp	r3, r2
 8003e80:	d126      	bne.n	8003ed0 <HAL_I2C_MspInit+0x68>
 8003e82:	4c29      	ldr	r4, [pc, #164]	; (8003f28 <HAL_I2C_MspInit+0xc0>)
 8003e84:	2500      	movs	r5, #0
 8003e86:	9501      	str	r5, [sp, #4]
 8003e88:	6b23      	ldr	r3, [r4, #48]	; 0x30
 8003e8a:	f043 0302 	orr.w	r3, r3, #2
 8003e8e:	6323      	str	r3, [r4, #48]	; 0x30
 8003e90:	6b23      	ldr	r3, [r4, #48]	; 0x30
 8003e92:	f003 0302 	and.w	r3, r3, #2
 8003e96:	9301      	str	r3, [sp, #4]
 8003e98:	9b01      	ldr	r3, [sp, #4]
 8003e9a:	20c0      	movs	r0, #192	; 0xc0
 8003e9c:	2312      	movs	r3, #18
 8003e9e:	e9cd 0305 	strd	r0, r3, [sp, #20]
 8003ea2:	f04f 0c01 	mov.w	ip, #1
 8003ea6:	2303      	movs	r3, #3
 8003ea8:	e9cd c307 	strd	ip, r3, [sp, #28]
 8003eac:	481f      	ldr	r0, [pc, #124]	; (8003f2c <HAL_I2C_MspInit+0xc4>)
 8003eae:	2304      	movs	r3, #4
 8003eb0:	a905      	add	r1, sp, #20
 8003eb2:	9309      	str	r3, [sp, #36]	; 0x24
 8003eb4:	f001 f856 	bl	8004f64 <HAL_GPIO_Init>
 8003eb8:	9502      	str	r5, [sp, #8]
 8003eba:	6c23      	ldr	r3, [r4, #64]	; 0x40
 8003ebc:	f443 1300 	orr.w	r3, r3, #2097152	; 0x200000
 8003ec0:	6423      	str	r3, [r4, #64]	; 0x40
 8003ec2:	6c23      	ldr	r3, [r4, #64]	; 0x40
 8003ec4:	f403 1300 	and.w	r3, r3, #2097152	; 0x200000
 8003ec8:	9302      	str	r3, [sp, #8]
 8003eca:	9b02      	ldr	r3, [sp, #8]
 8003ecc:	b00b      	add	sp, #44	; 0x2c
 8003ece:	bd30      	pop	{r4, r5, pc}
 8003ed0:	4a17      	ldr	r2, [pc, #92]	; (8003f30 <HAL_I2C_MspInit+0xc8>)
 8003ed2:	4293      	cmp	r3, r2
 8003ed4:	d1fa      	bne.n	8003ecc <HAL_I2C_MspInit+0x64>
 8003ed6:	4c14      	ldr	r4, [pc, #80]	; (8003f28 <HAL_I2C_MspInit+0xc0>)
 8003ed8:	4814      	ldr	r0, [pc, #80]	; (8003f2c <HAL_I2C_MspInit+0xc4>)
 8003eda:	2500      	movs	r5, #0
 8003edc:	9503      	str	r5, [sp, #12]
 8003ede:	6b23      	ldr	r3, [r4, #48]	; 0x30
 8003ee0:	f043 0302 	orr.w	r3, r3, #2
 8003ee4:	6323      	str	r3, [r4, #48]	; 0x30
 8003ee6:	6b23      	ldr	r3, [r4, #48]	; 0x30
 8003ee8:	f003 0302 	and.w	r3, r3, #2
 8003eec:	9303      	str	r3, [sp, #12]
 8003eee:	9b03      	ldr	r3, [sp, #12]
 8003ef0:	f44f 6240 	mov.w	r2, #3072	; 0xc00
 8003ef4:	2312      	movs	r3, #18
 8003ef6:	e9cd 2305 	strd	r2, r3, [sp, #20]
 8003efa:	2101      	movs	r1, #1
 8003efc:	2303      	movs	r3, #3
 8003efe:	e9cd 1307 	strd	r1, r3, [sp, #28]
 8003f02:	2304      	movs	r3, #4
 8003f04:	a905      	add	r1, sp, #20
 8003f06:	9309      	str	r3, [sp, #36]	; 0x24
 8003f08:	f001 f82c 	bl	8004f64 <HAL_GPIO_Init>
 8003f0c:	9504      	str	r5, [sp, #16]
 8003f0e:	6c23      	ldr	r3, [r4, #64]	; 0x40
 8003f10:	f443 0380 	orr.w	r3, r3, #4194304	; 0x400000
 8003f14:	6423      	str	r3, [r4, #64]	; 0x40
 8003f16:	6c23      	ldr	r3, [r4, #64]	; 0x40
 8003f18:	f403 0380 	and.w	r3, r3, #4194304	; 0x400000
 8003f1c:	9304      	str	r3, [sp, #16]
 8003f1e:	9b04      	ldr	r3, [sp, #16]
 8003f20:	e7d4      	b.n	8003ecc <HAL_I2C_MspInit+0x64>
 8003f22:	bf00      	nop
 8003f24:	40005400 	.word	0x40005400
 8003f28:	40023800 	.word	0x40023800
 8003f2c:	40020400 	.word	0x40020400
 8003f30:	40005800 	.word	0x40005800

08003f34 <HAL_I2C_MspDeInit>:
 8003f34:	b508      	push	{r3, lr}
 8003f36:	4a13      	ldr	r2, [pc, #76]	; (8003f84 <HAL_I2C_MspDeInit+0x50>)
 8003f38:	6803      	ldr	r3, [r0, #0]
 8003f3a:	4293      	cmp	r3, r2
 8003f3c:	d10f      	bne.n	8003f5e <HAL_I2C_MspDeInit+0x2a>
 8003f3e:	f502 32f2 	add.w	r2, r2, #123904	; 0x1e400
 8003f42:	2140      	movs	r1, #64	; 0x40
 8003f44:	6c13      	ldr	r3, [r2, #64]	; 0x40
 8003f46:	4810      	ldr	r0, [pc, #64]	; (8003f88 <HAL_I2C_MspDeInit+0x54>)
 8003f48:	f423 1300 	bic.w	r3, r3, #2097152	; 0x200000
 8003f4c:	6413      	str	r3, [r2, #64]	; 0x40
 8003f4e:	f001 f8e3 	bl	8005118 <HAL_GPIO_DeInit>
 8003f52:	2180      	movs	r1, #128	; 0x80
 8003f54:	e8bd 4008 	ldmia.w	sp!, {r3, lr}
 8003f58:	480b      	ldr	r0, [pc, #44]	; (8003f88 <HAL_I2C_MspDeInit+0x54>)
 8003f5a:	f001 b8dd 	b.w	8005118 <HAL_GPIO_DeInit>
 8003f5e:	4a0b      	ldr	r2, [pc, #44]	; (8003f8c <HAL_I2C_MspDeInit+0x58>)
 8003f60:	4293      	cmp	r3, r2
 8003f62:	d10d      	bne.n	8003f80 <HAL_I2C_MspDeInit+0x4c>
 8003f64:	f502 32f0 	add.w	r2, r2, #122880	; 0x1e000
 8003f68:	f44f 6180 	mov.w	r1, #1024	; 0x400
 8003f6c:	6c13      	ldr	r3, [r2, #64]	; 0x40
 8003f6e:	4806      	ldr	r0, [pc, #24]	; (8003f88 <HAL_I2C_MspDeInit+0x54>)
 8003f70:	f423 0380 	bic.w	r3, r3, #4194304	; 0x400000
 8003f74:	6413      	str	r3, [r2, #64]	; 0x40
 8003f76:	f001 f8cf 	bl	8005118 <HAL_GPIO_DeInit>
 8003f7a:	f44f 6100 	mov.w	r1, #2048	; 0x800
 8003f7e:	e7e9      	b.n	8003f54 <HAL_I2C_MspDeInit+0x20>
 8003f80:	bd08      	pop	{r3, pc}
 8003f82:	bf00      	nop
 8003f84:	40005400 	.word	0x40005400
 8003f88:	40020400 	.word	0x40020400
 8003f8c:	40005800 	.word	0x40005800

08003f90 <HAL_RNG_MspInit>:
 8003f90:	b507      	push	{r0, r1, r2, lr}
 8003f92:	4b0e      	ldr	r3, [pc, #56]	; (8003fcc <HAL_RNG_MspInit+0x3c>)
 8003f94:	6802      	ldr	r2, [r0, #0]
 8003f96:	429a      	cmp	r2, r3
 8003f98:	d115      	bne.n	8003fc6 <HAL_RNG_MspInit+0x36>
 8003f9a:	2200      	movs	r2, #0
 8003f9c:	4b0c      	ldr	r3, [pc, #48]	; (8003fd0 <HAL_RNG_MspInit+0x40>)
 8003f9e:	9201      	str	r2, [sp, #4]
 8003fa0:	6b59      	ldr	r1, [r3, #52]	; 0x34
 8003fa2:	f041 0140 	orr.w	r1, r1, #64	; 0x40
 8003fa6:	6359      	str	r1, [r3, #52]	; 0x34
 8003fa8:	6b5b      	ldr	r3, [r3, #52]	; 0x34
 8003faa:	f003 0340 	and.w	r3, r3, #64	; 0x40
 8003fae:	9301      	str	r3, [sp, #4]
 8003fb0:	4611      	mov	r1, r2
 8003fb2:	2050      	movs	r0, #80	; 0x50
 8003fb4:	9b01      	ldr	r3, [sp, #4]
 8003fb6:	f000 fd9b 	bl	8004af0 <HAL_NVIC_SetPriority>
 8003fba:	2050      	movs	r0, #80	; 0x50
 8003fbc:	b003      	add	sp, #12
 8003fbe:	f85d eb04 	ldr.w	lr, [sp], #4
 8003fc2:	f000 bdc7 	b.w	8004b54 <HAL_NVIC_EnableIRQ>
 8003fc6:	b003      	add	sp, #12
 8003fc8:	f85d fb04 	ldr.w	pc, [sp], #4
 8003fcc:	50060800 	.word	0x50060800
 8003fd0:	40023800 	.word	0x40023800

08003fd4 <HAL_RTC_MspInit>:
 8003fd4:	6802      	ldr	r2, [r0, #0]
 8003fd6:	4b03      	ldr	r3, [pc, #12]	; (8003fe4 <HAL_RTC_MspInit+0x10>)
 8003fd8:	429a      	cmp	r2, r3
 8003fda:	bf02      	ittt	eq
 8003fdc:	4b02      	ldreq	r3, [pc, #8]	; (8003fe8 <HAL_RTC_MspInit+0x14>)
 8003fde:	2201      	moveq	r2, #1
 8003fe0:	601a      	streq	r2, [r3, #0]
 8003fe2:	4770      	bx	lr
 8003fe4:	40002800 	.word	0x40002800
 8003fe8:	42470e3c 	.word	0x42470e3c

08003fec <HAL_TIM_Base_MspInit>:
 8003fec:	b51f      	push	{r0, r1, r2, r3, r4, lr}
 8003fee:	6803      	ldr	r3, [r0, #0]
 8003ff0:	f1b3 4f80 	cmp.w	r3, #1073741824	; 0x40000000
 8003ff4:	d116      	bne.n	8004024 <HAL_TIM_Base_MspInit+0x38>
 8003ff6:	2200      	movs	r2, #0
 8003ff8:	f503 330e 	add.w	r3, r3, #145408	; 0x23800
 8003ffc:	9200      	str	r2, [sp, #0]
 8003ffe:	6c19      	ldr	r1, [r3, #64]	; 0x40
 8004000:	f041 0101 	orr.w	r1, r1, #1
 8004004:	6419      	str	r1, [r3, #64]	; 0x40
 8004006:	6c1b      	ldr	r3, [r3, #64]	; 0x40
 8004008:	f003 0301 	and.w	r3, r3, #1
 800400c:	9300      	str	r3, [sp, #0]
 800400e:	201c      	movs	r0, #28
 8004010:	4611      	mov	r1, r2
 8004012:	9b00      	ldr	r3, [sp, #0]
 8004014:	f000 fd6c 	bl	8004af0 <HAL_NVIC_SetPriority>
 8004018:	201c      	movs	r0, #28
 800401a:	b005      	add	sp, #20
 800401c:	f85d eb04 	ldr.w	lr, [sp], #4
 8004020:	f000 bd98 	b.w	8004b54 <HAL_NVIC_EnableIRQ>
 8004024:	4a1b      	ldr	r2, [pc, #108]	; (8004094 <HAL_TIM_Base_MspInit+0xa8>)
 8004026:	4293      	cmp	r3, r2
 8004028:	d10e      	bne.n	8004048 <HAL_TIM_Base_MspInit+0x5c>
 800402a:	2300      	movs	r3, #0
 800402c:	9301      	str	r3, [sp, #4]
 800402e:	4b1a      	ldr	r3, [pc, #104]	; (8004098 <HAL_TIM_Base_MspInit+0xac>)
 8004030:	6c1a      	ldr	r2, [r3, #64]	; 0x40
 8004032:	f042 0202 	orr.w	r2, r2, #2
 8004036:	641a      	str	r2, [r3, #64]	; 0x40
 8004038:	6c1b      	ldr	r3, [r3, #64]	; 0x40
 800403a:	f003 0302 	and.w	r3, r3, #2
 800403e:	9301      	str	r3, [sp, #4]
 8004040:	9b01      	ldr	r3, [sp, #4]
 8004042:	b005      	add	sp, #20
 8004044:	f85d fb04 	ldr.w	pc, [sp], #4
 8004048:	4a14      	ldr	r2, [pc, #80]	; (800409c <HAL_TIM_Base_MspInit+0xb0>)
 800404a:	4293      	cmp	r3, r2
 800404c:	d10c      	bne.n	8004068 <HAL_TIM_Base_MspInit+0x7c>
 800404e:	2300      	movs	r3, #0
 8004050:	9302      	str	r3, [sp, #8]
 8004052:	4b11      	ldr	r3, [pc, #68]	; (8004098 <HAL_TIM_Base_MspInit+0xac>)
 8004054:	6c1a      	ldr	r2, [r3, #64]	; 0x40
 8004056:	f042 0204 	orr.w	r2, r2, #4
 800405a:	641a      	str	r2, [r3, #64]	; 0x40
 800405c:	6c1b      	ldr	r3, [r3, #64]	; 0x40
 800405e:	f003 0304 	and.w	r3, r3, #4
 8004062:	9302      	str	r3, [sp, #8]
 8004064:	9b02      	ldr	r3, [sp, #8]
 8004066:	e7ec      	b.n	8004042 <HAL_TIM_Base_MspInit+0x56>
 8004068:	4a0d      	ldr	r2, [pc, #52]	; (80040a0 <HAL_TIM_Base_MspInit+0xb4>)
 800406a:	4293      	cmp	r3, r2
 800406c:	d1e9      	bne.n	8004042 <HAL_TIM_Base_MspInit+0x56>
 800406e:	4b0a      	ldr	r3, [pc, #40]	; (8004098 <HAL_TIM_Base_MspInit+0xac>)
 8004070:	2200      	movs	r2, #0
 8004072:	9203      	str	r2, [sp, #12]
 8004074:	6c19      	ldr	r1, [r3, #64]	; 0x40
 8004076:	f041 0108 	orr.w	r1, r1, #8
 800407a:	6419      	str	r1, [r3, #64]	; 0x40
 800407c:	6c1b      	ldr	r3, [r3, #64]	; 0x40
 800407e:	f003 0308 	and.w	r3, r3, #8
 8004082:	9303      	str	r3, [sp, #12]
 8004084:	2032      	movs	r0, #50	; 0x32
 8004086:	4611      	mov	r1, r2
 8004088:	9b03      	ldr	r3, [sp, #12]
 800408a:	f000 fd31 	bl	8004af0 <HAL_NVIC_SetPriority>
 800408e:	2032      	movs	r0, #50	; 0x32
 8004090:	e7c3      	b.n	800401a <HAL_TIM_Base_MspInit+0x2e>
 8004092:	bf00      	nop
 8004094:	40000400 	.word	0x40000400
 8004098:	40023800 	.word	0x40023800
 800409c:	40000800 	.word	0x40000800
 80040a0:	40000c00 	.word	0x40000c00

080040a4 <HAL_TIM_MspPostInit>:
 80040a4:	b510      	push	{r4, lr}
 80040a6:	4604      	mov	r4, r0
 80040a8:	b088      	sub	sp, #32
 80040aa:	2214      	movs	r2, #20
 80040ac:	2100      	movs	r1, #0
 80040ae:	a803      	add	r0, sp, #12
 80040b0:	f003 ff20 	bl	8007ef4 <memset>
 80040b4:	6823      	ldr	r3, [r4, #0]
 80040b6:	4a1c      	ldr	r2, [pc, #112]	; (8004128 <HAL_TIM_MspPostInit+0x84>)
 80040b8:	4293      	cmp	r3, r2
 80040ba:	d119      	bne.n	80040f0 <HAL_TIM_MspPostInit+0x4c>
 80040bc:	2300      	movs	r3, #0
 80040be:	9301      	str	r3, [sp, #4]
 80040c0:	4b1a      	ldr	r3, [pc, #104]	; (800412c <HAL_TIM_MspPostInit+0x88>)
 80040c2:	481b      	ldr	r0, [pc, #108]	; (8004130 <HAL_TIM_MspPostInit+0x8c>)
 80040c4:	6b1a      	ldr	r2, [r3, #48]	; 0x30
 80040c6:	f042 0204 	orr.w	r2, r2, #4
 80040ca:	631a      	str	r2, [r3, #48]	; 0x30
 80040cc:	6b1b      	ldr	r3, [r3, #48]	; 0x30
 80040ce:	f003 0304 	and.w	r3, r3, #4
 80040d2:	9301      	str	r3, [sp, #4]
 80040d4:	9b01      	ldr	r3, [sp, #4]
 80040d6:	2203      	movs	r2, #3
 80040d8:	2302      	movs	r3, #2
 80040da:	e9cd 2306 	strd	r2, r3, [sp, #24]
 80040de:	21c0      	movs	r1, #192	; 0xc0
 80040e0:	e9cd 1303 	strd	r1, r3, [sp, #12]
 80040e4:	9305      	str	r3, [sp, #20]
 80040e6:	a903      	add	r1, sp, #12
 80040e8:	f000 ff3c 	bl	8004f64 <HAL_GPIO_Init>
 80040ec:	b008      	add	sp, #32
 80040ee:	bd10      	pop	{r4, pc}
 80040f0:	4a10      	ldr	r2, [pc, #64]	; (8004134 <HAL_TIM_MspPostInit+0x90>)
 80040f2:	4293      	cmp	r3, r2
 80040f4:	d1fa      	bne.n	80040ec <HAL_TIM_MspPostInit+0x48>
 80040f6:	2300      	movs	r3, #0
 80040f8:	9302      	str	r3, [sp, #8]
 80040fa:	4b0c      	ldr	r3, [pc, #48]	; (800412c <HAL_TIM_MspPostInit+0x88>)
 80040fc:	480e      	ldr	r0, [pc, #56]	; (8004138 <HAL_TIM_MspPostInit+0x94>)
 80040fe:	6b1a      	ldr	r2, [r3, #48]	; 0x30
 8004100:	f042 0208 	orr.w	r2, r2, #8
 8004104:	631a      	str	r2, [r3, #48]	; 0x30
 8004106:	6b1b      	ldr	r3, [r3, #48]	; 0x30
 8004108:	f003 0308 	and.w	r3, r3, #8
 800410c:	9302      	str	r3, [sp, #8]
 800410e:	f44f 4270 	mov.w	r2, #61440	; 0xf000
 8004112:	9b02      	ldr	r3, [sp, #8]
 8004114:	2302      	movs	r3, #2
 8004116:	e9cd 2303 	strd	r2, r3, [sp, #12]
 800411a:	2203      	movs	r2, #3
 800411c:	e9cd 2306 	strd	r2, r3, [sp, #24]
 8004120:	9305      	str	r3, [sp, #20]
 8004122:	a903      	add	r1, sp, #12
 8004124:	e7e0      	b.n	80040e8 <HAL_TIM_MspPostInit+0x44>
 8004126:	bf00      	nop
 8004128:	40000400 	.word	0x40000400
 800412c:	40023800 	.word	0x40023800
 8004130:	40020800 	.word	0x40020800
 8004134:	40000800 	.word	0x40000800
 8004138:	40020c00 	.word	0x40020c00

0800413c <HAL_UART_MspInit>:
 800413c:	b570      	push	{r4, r5, r6, lr}
 800413e:	2214      	movs	r2, #20
 8004140:	b08a      	sub	sp, #40	; 0x28
 8004142:	4606      	mov	r6, r0
 8004144:	2100      	movs	r1, #0
 8004146:	eb0d 0002 	add.w	r0, sp, r2
 800414a:	f003 fed3 	bl	8007ef4 <memset>
 800414e:	6833      	ldr	r3, [r6, #0]
 8004150:	4a47      	ldr	r2, [pc, #284]	; (8004270 <HAL_UART_MspInit+0x134>)
 8004152:	4293      	cmp	r3, r2
 8004154:	d147      	bne.n	80041e6 <HAL_UART_MspInit+0xaa>
 8004156:	2500      	movs	r5, #0
 8004158:	4b46      	ldr	r3, [pc, #280]	; (8004274 <HAL_UART_MspInit+0x138>)
 800415a:	9501      	str	r5, [sp, #4]
 800415c:	6c5a      	ldr	r2, [r3, #68]	; 0x44
 800415e:	4846      	ldr	r0, [pc, #280]	; (8004278 <HAL_UART_MspInit+0x13c>)
 8004160:	f042 0210 	orr.w	r2, r2, #16
 8004164:	645a      	str	r2, [r3, #68]	; 0x44
 8004166:	6c5a      	ldr	r2, [r3, #68]	; 0x44
 8004168:	f002 0210 	and.w	r2, r2, #16
 800416c:	9201      	str	r2, [sp, #4]
 800416e:	9a01      	ldr	r2, [sp, #4]
 8004170:	9502      	str	r5, [sp, #8]
 8004172:	6b1a      	ldr	r2, [r3, #48]	; 0x30
 8004174:	f042 0201 	orr.w	r2, r2, #1
 8004178:	631a      	str	r2, [r3, #48]	; 0x30
 800417a:	6b1b      	ldr	r3, [r3, #48]	; 0x30
 800417c:	9507      	str	r5, [sp, #28]
 800417e:	f003 0301 	and.w	r3, r3, #1
 8004182:	9302      	str	r3, [sp, #8]
 8004184:	9b02      	ldr	r3, [sp, #8]
 8004186:	f44f 64c0 	mov.w	r4, #1536	; 0x600
 800418a:	2302      	movs	r3, #2
 800418c:	e9cd 4305 	strd	r4, r3, [sp, #20]
 8004190:	f04f 0c03 	mov.w	ip, #3
 8004194:	2307      	movs	r3, #7
 8004196:	a905      	add	r1, sp, #20
 8004198:	4c38      	ldr	r4, [pc, #224]	; (800427c <HAL_UART_MspInit+0x140>)
 800419a:	e9cd c308 	strd	ip, r3, [sp, #32]
 800419e:	f000 fee1 	bl	8004f64 <HAL_GPIO_Init>
 80041a2:	f8df e0e8 	ldr.w	lr, [pc, #232]	; 800428c <HAL_UART_MspInit+0x150>
 80041a6:	f04f 6300 	mov.w	r3, #134217728	; 0x8000000
 80041aa:	e9c4 e300 	strd	lr, r3, [r4]
 80041ae:	4620      	mov	r0, r4
 80041b0:	f44f 6380 	mov.w	r3, #1024	; 0x400
 80041b4:	e9c4 5502 	strd	r5, r5, [r4, #8]
 80041b8:	e9c4 3504 	strd	r3, r5, [r4, #16]
 80041bc:	e9c4 5506 	strd	r5, r5, [r4, #24]
 80041c0:	e9c4 5508 	strd	r5, r5, [r4, #32]
 80041c4:	f000 fd00 	bl	8004bc8 <HAL_DMA_Init>
 80041c8:	b108      	cbz	r0, 80041ce <HAL_UART_MspInit+0x92>
 80041ca:	f7ff fdd4 	bl	8003d76 <Error_Handler>
 80041ce:	2200      	movs	r2, #0
 80041d0:	63b4      	str	r4, [r6, #56]	; 0x38
 80041d2:	2025      	movs	r0, #37	; 0x25
 80041d4:	4611      	mov	r1, r2
 80041d6:	63a6      	str	r6, [r4, #56]	; 0x38
 80041d8:	f000 fc8a 	bl	8004af0 <HAL_NVIC_SetPriority>
 80041dc:	2025      	movs	r0, #37	; 0x25
 80041de:	f000 fcb9 	bl	8004b54 <HAL_NVIC_EnableIRQ>
 80041e2:	b00a      	add	sp, #40	; 0x28
 80041e4:	bd70      	pop	{r4, r5, r6, pc}
 80041e6:	4a26      	ldr	r2, [pc, #152]	; (8004280 <HAL_UART_MspInit+0x144>)
 80041e8:	4293      	cmp	r3, r2
 80041ea:	d1fa      	bne.n	80041e2 <HAL_UART_MspInit+0xa6>
 80041ec:	2500      	movs	r5, #0
 80041ee:	4b21      	ldr	r3, [pc, #132]	; (8004274 <HAL_UART_MspInit+0x138>)
 80041f0:	9503      	str	r5, [sp, #12]
 80041f2:	6c1a      	ldr	r2, [r3, #64]	; 0x40
 80041f4:	4820      	ldr	r0, [pc, #128]	; (8004278 <HAL_UART_MspInit+0x13c>)
 80041f6:	4c23      	ldr	r4, [pc, #140]	; (8004284 <HAL_UART_MspInit+0x148>)
 80041f8:	f442 3200 	orr.w	r2, r2, #131072	; 0x20000
 80041fc:	641a      	str	r2, [r3, #64]	; 0x40
 80041fe:	6c1a      	ldr	r2, [r3, #64]	; 0x40
 8004200:	f402 3200 	and.w	r2, r2, #131072	; 0x20000
 8004204:	9203      	str	r2, [sp, #12]
 8004206:	9a03      	ldr	r2, [sp, #12]
 8004208:	9504      	str	r5, [sp, #16]
 800420a:	6b1a      	ldr	r2, [r3, #48]	; 0x30
 800420c:	f042 0201 	orr.w	r2, r2, #1
 8004210:	631a      	str	r2, [r3, #48]	; 0x30
 8004212:	6b1b      	ldr	r3, [r3, #48]	; 0x30
 8004214:	9507      	str	r5, [sp, #28]
 8004216:	f003 0301 	and.w	r3, r3, #1
 800421a:	9304      	str	r3, [sp, #16]
 800421c:	9b04      	ldr	r3, [sp, #16]
 800421e:	220c      	movs	r2, #12
 8004220:	2302      	movs	r3, #2
 8004222:	e9cd 2305 	strd	r2, r3, [sp, #20]
 8004226:	2103      	movs	r1, #3
 8004228:	2307      	movs	r3, #7
 800422a:	e9cd 1308 	strd	r1, r3, [sp, #32]
 800422e:	a905      	add	r1, sp, #20
 8004230:	f000 fe98 	bl	8004f64 <HAL_GPIO_Init>
 8004234:	4814      	ldr	r0, [pc, #80]	; (8004288 <HAL_UART_MspInit+0x14c>)
 8004236:	f04f 6300 	mov.w	r3, #134217728	; 0x8000000
 800423a:	e9c4 0300 	strd	r0, r3, [r4]
 800423e:	f44f 6380 	mov.w	r3, #1024	; 0x400
 8004242:	4620      	mov	r0, r4
 8004244:	e9c4 5502 	strd	r5, r5, [r4, #8]
 8004248:	e9c4 3504 	strd	r3, r5, [r4, #16]
 800424c:	e9c4 5506 	strd	r5, r5, [r4, #24]
 8004250:	e9c4 5508 	strd	r5, r5, [r4, #32]
 8004254:	f000 fcb8 	bl	8004bc8 <HAL_DMA_Init>
 8004258:	b108      	cbz	r0, 800425e <HAL_UART_MspInit+0x122>
 800425a:	f7ff fd8c 	bl	8003d76 <Error_Handler>
 800425e:	2200      	movs	r2, #0
 8004260:	63b4      	str	r4, [r6, #56]	; 0x38
 8004262:	2026      	movs	r0, #38	; 0x26
 8004264:	4611      	mov	r1, r2
 8004266:	63a6      	str	r6, [r4, #56]	; 0x38
 8004268:	f000 fc42 	bl	8004af0 <HAL_NVIC_SetPriority>
 800426c:	2026      	movs	r0, #38	; 0x26
 800426e:	e7b6      	b.n	80041de <HAL_UART_MspInit+0xa2>
 8004270:	40011000 	.word	0x40011000
 8004274:	40023800 	.word	0x40023800
 8004278:	40020000 	.word	0x40020000
 800427c:	200015cc 	.word	0x200015cc
 8004280:	40004400 	.word	0x40004400
 8004284:	20000a54 	.word	0x20000a54
 8004288:	40026088 	.word	0x40026088
 800428c:	40026440 	.word	0x40026440

08004290 <NMI_Handler>:
 8004290:	e7fe      	b.n	8004290 <NMI_Handler>

08004292 <HardFault_Handler>:
 8004292:	e7fe      	b.n	8004292 <HardFault_Handler>

08004294 <MemManage_Handler>:
 8004294:	e7fe      	b.n	8004294 <MemManage_Handler>

08004296 <BusFault_Handler>:
 8004296:	e7fe      	b.n	8004296 <BusFault_Handler>

08004298 <UsageFault_Handler>:
 8004298:	e7fe      	b.n	8004298 <UsageFault_Handler>

0800429a <SVC_Handler>:
 800429a:	4770      	bx	lr

0800429c <DebugMon_Handler>:
 800429c:	4770      	bx	lr

0800429e <PendSV_Handler>:
 800429e:	4770      	bx	lr

080042a0 <SysTick_Handler>:
 80042a0:	f000 b92c 	b.w	80044fc <HAL_IncTick>

080042a4 <DMA1_Stream5_IRQHandler>:
 80042a4:	4801      	ldr	r0, [pc, #4]	; (80042ac <DMA1_Stream5_IRQHandler+0x8>)
 80042a6:	f000 bd9f 	b.w	8004de8 <HAL_DMA_IRQHandler>
 80042aa:	bf00      	nop
 80042ac:	20000a54 	.word	0x20000a54

080042b0 <ADC_IRQHandler>:
 80042b0:	4801      	ldr	r0, [pc, #4]	; (80042b8 <ADC_IRQHandler+0x8>)
 80042b2:	f000 baa1 	b.w	80047f8 <HAL_ADC_IRQHandler>
 80042b6:	bf00      	nop
 80042b8:	20001184 	.word	0x20001184

080042bc <TIM2_IRQHandler>:
 80042bc:	4801      	ldr	r0, [pc, #4]	; (80042c4 <TIM2_IRQHandler+0x8>)
 80042be:	f002 bcce 	b.w	8006c5e <HAL_TIM_IRQHandler>
 80042c2:	bf00      	nop
 80042c4:	20001f48 	.word	0x20001f48

080042c8 <USART1_IRQHandler>:
 80042c8:	b510      	push	{r4, lr}
 80042ca:	4c07      	ldr	r4, [pc, #28]	; (80042e8 <USART1_IRQHandler+0x20>)
 80042cc:	4620      	mov	r0, r4
 80042ce:	f003 f9db 	bl	8007688 <HAL_UART_IRQHandler>
 80042d2:	6823      	ldr	r3, [r4, #0]
 80042d4:	681b      	ldr	r3, [r3, #0]
 80042d6:	06db      	lsls	r3, r3, #27
 80042d8:	d504      	bpl.n	80042e4 <USART1_IRQHandler+0x1c>
 80042da:	4620      	mov	r0, r4
 80042dc:	e8bd 4010 	ldmia.w	sp!, {r4, lr}
 80042e0:	f7ff bd14 	b.w	8003d0c <HAL_UART_RxCpltCallback_UART1>
 80042e4:	bd10      	pop	{r4, pc}
 80042e6:	bf00      	nop
 80042e8:	20001a2c 	.word	0x20001a2c

080042ec <USART2_IRQHandler>:
 80042ec:	b510      	push	{r4, lr}
 80042ee:	4c07      	ldr	r4, [pc, #28]	; (800430c <USART2_IRQHandler+0x20>)
 80042f0:	4620      	mov	r0, r4
 80042f2:	f003 f9c9 	bl	8007688 <HAL_UART_IRQHandler>
 80042f6:	6823      	ldr	r3, [r4, #0]
 80042f8:	681b      	ldr	r3, [r3, #0]
 80042fa:	06db      	lsls	r3, r3, #27
 80042fc:	d504      	bpl.n	8004308 <USART2_IRQHandler+0x1c>
 80042fe:	4620      	mov	r0, r4
 8004300:	e8bd 4010 	ldmia.w	sp!, {r4, lr}
 8004304:	f7ff bd1c 	b.w	8003d40 <HAL_UART_RxCpltCallback_UART2>
 8004308:	bd10      	pop	{r4, pc}
 800430a:	bf00      	nop
 800430c:	20001f90 	.word	0x20001f90

08004310 <TIM5_IRQHandler>:
 8004310:	4801      	ldr	r0, [pc, #4]	; (8004318 <TIM5_IRQHandler+0x8>)
 8004312:	f002 bca4 	b.w	8006c5e <HAL_TIM_IRQHandler>
 8004316:	bf00      	nop
 8004318:	200010dc 	.word	0x200010dc

0800431c <DMA2_Stream0_IRQHandler>:
 800431c:	4801      	ldr	r0, [pc, #4]	; (8004324 <DMA2_Stream0_IRQHandler+0x8>)
 800431e:	f000 bd63 	b.w	8004de8 <HAL_DMA_IRQHandler>
 8004322:	bf00      	nop
 8004324:	20001a70 	.word	0x20001a70

08004328 <DMA2_Stream2_IRQHandler>:
 8004328:	4801      	ldr	r0, [pc, #4]	; (8004330 <DMA2_Stream2_IRQHandler+0x8>)
 800432a:	f000 bd5d 	b.w	8004de8 <HAL_DMA_IRQHandler>
 800432e:	bf00      	nop
 8004330:	200015cc 	.word	0x200015cc

08004334 <HASH_RNG_IRQHandler>:
 8004334:	4801      	ldr	r0, [pc, #4]	; (800433c <HASH_RNG_IRQHandler+0x8>)
 8004336:	f002 b9bc 	b.w	80066b2 <HAL_RNG_IRQHandler>
 800433a:	bf00      	nop
 800433c:	20001f34 	.word	0x20001f34

08004340 <_getpid>:
 8004340:	2001      	movs	r0, #1
 8004342:	4770      	bx	lr

08004344 <_kill>:
 8004344:	b508      	push	{r3, lr}
 8004346:	f003 fd9d 	bl	8007e84 <__errno>
 800434a:	2316      	movs	r3, #22
 800434c:	6003      	str	r3, [r0, #0]
 800434e:	f04f 30ff 	mov.w	r0, #4294967295
 8004352:	bd08      	pop	{r3, pc}

08004354 <_exit>:
 8004354:	b508      	push	{r3, lr}
 8004356:	f003 fd95 	bl	8007e84 <__errno>
 800435a:	2316      	movs	r3, #22
 800435c:	6003      	str	r3, [r0, #0]
 800435e:	e7fe      	b.n	800435e <_exit+0xa>

08004360 <_read>:
 8004360:	b570      	push	{r4, r5, r6, lr}
 8004362:	460e      	mov	r6, r1
 8004364:	4614      	mov	r4, r2
 8004366:	2500      	movs	r5, #0
 8004368:	42a5      	cmp	r5, r4
 800436a:	db01      	blt.n	8004370 <_read+0x10>
 800436c:	4620      	mov	r0, r4
 800436e:	bd70      	pop	{r4, r5, r6, pc}
 8004370:	f3af 8000 	nop.w
 8004374:	5570      	strb	r0, [r6, r5]
 8004376:	3501      	adds	r5, #1
 8004378:	e7f6      	b.n	8004368 <_read+0x8>

0800437a <_write>:
 800437a:	b570      	push	{r4, r5, r6, lr}
 800437c:	460e      	mov	r6, r1
 800437e:	4614      	mov	r4, r2
 8004380:	2500      	movs	r5, #0
 8004382:	42a5      	cmp	r5, r4
 8004384:	db01      	blt.n	800438a <_write+0x10>
 8004386:	4620      	mov	r0, r4
 8004388:	bd70      	pop	{r4, r5, r6, pc}
 800438a:	5d70      	ldrb	r0, [r6, r5]
 800438c:	f3af 8000 	nop.w
 8004390:	3501      	adds	r5, #1
 8004392:	e7f6      	b.n	8004382 <_write+0x8>

08004394 <_close>:
 8004394:	f04f 30ff 	mov.w	r0, #4294967295
 8004398:	4770      	bx	lr

0800439a <_fstat>:
 800439a:	f44f 5300 	mov.w	r3, #8192	; 0x2000
 800439e:	604b      	str	r3, [r1, #4]
 80043a0:	2000      	movs	r0, #0
 80043a2:	4770      	bx	lr

080043a4 <_isatty>:
 80043a4:	2001      	movs	r0, #1
 80043a6:	4770      	bx	lr

080043a8 <_lseek>:
 80043a8:	2000      	movs	r0, #0
 80043aa:	4770      	bx	lr

080043ac <_sbrk>:
 80043ac:	4b0b      	ldr	r3, [pc, #44]	; (80043dc <_sbrk+0x30>)
 80043ae:	6819      	ldr	r1, [r3, #0]
 80043b0:	b510      	push	{r4, lr}
 80043b2:	4602      	mov	r2, r0
 80043b4:	b909      	cbnz	r1, 80043ba <_sbrk+0xe>
 80043b6:	490a      	ldr	r1, [pc, #40]	; (80043e0 <_sbrk+0x34>)
 80043b8:	6019      	str	r1, [r3, #0]
 80043ba:	6818      	ldr	r0, [r3, #0]
 80043bc:	4909      	ldr	r1, [pc, #36]	; (80043e4 <_sbrk+0x38>)
 80043be:	4c0a      	ldr	r4, [pc, #40]	; (80043e8 <_sbrk+0x3c>)
 80043c0:	4402      	add	r2, r0
 80043c2:	1b09      	subs	r1, r1, r4
 80043c4:	428a      	cmp	r2, r1
 80043c6:	d906      	bls.n	80043d6 <_sbrk+0x2a>
 80043c8:	f003 fd5c 	bl	8007e84 <__errno>
 80043cc:	230c      	movs	r3, #12
 80043ce:	6003      	str	r3, [r0, #0]
 80043d0:	f04f 30ff 	mov.w	r0, #4294967295
 80043d4:	bd10      	pop	{r4, pc}
 80043d6:	601a      	str	r2, [r3, #0]
 80043d8:	e7fc      	b.n	80043d4 <_sbrk+0x28>
 80043da:	bf00      	nop
 80043dc:	200009f4 	.word	0x200009f4
 80043e0:	20001ff8 	.word	0x20001ff8
 80043e4:	20020000 	.word	0x20020000
 80043e8:	00000400 	.word	0x00000400

080043ec <SystemInit>:
 80043ec:	4a03      	ldr	r2, [pc, #12]	; (80043fc <SystemInit+0x10>)
 80043ee:	f8d2 3088 	ldr.w	r3, [r2, #136]	; 0x88
 80043f2:	f443 0370 	orr.w	r3, r3, #15728640	; 0xf00000
 80043f6:	f8c2 3088 	str.w	r3, [r2, #136]	; 0x88
 80043fa:	4770      	bx	lr
 80043fc:	e000ed00 	.word	0xe000ed00

08004400 <Reset_Handler>:
 8004400:	f8df d034 	ldr.w	sp, [pc, #52]	; 8004438 <LoopFillZerobss+0x12>
 8004404:	480d      	ldr	r0, [pc, #52]	; (800443c <LoopFillZerobss+0x16>)
 8004406:	490e      	ldr	r1, [pc, #56]	; (8004440 <LoopFillZerobss+0x1a>)
 8004408:	4a0e      	ldr	r2, [pc, #56]	; (8004444 <LoopFillZerobss+0x1e>)
 800440a:	2300      	movs	r3, #0
 800440c:	e002      	b.n	8004414 <LoopCopyDataInit>

0800440e <CopyDataInit>:
 800440e:	58d4      	ldr	r4, [r2, r3]
 8004410:	50c4      	str	r4, [r0, r3]
 8004412:	3304      	adds	r3, #4

08004414 <LoopCopyDataInit>:
 8004414:	18c4      	adds	r4, r0, r3
 8004416:	428c      	cmp	r4, r1
 8004418:	d3f9      	bcc.n	800440e <CopyDataInit>
 800441a:	4a0b      	ldr	r2, [pc, #44]	; (8004448 <LoopFillZerobss+0x22>)
 800441c:	4c0b      	ldr	r4, [pc, #44]	; (800444c <LoopFillZerobss+0x26>)
 800441e:	2300      	movs	r3, #0
 8004420:	e001      	b.n	8004426 <LoopFillZerobss>

08004422 <FillZerobss>:
 8004422:	6013      	str	r3, [r2, #0]
 8004424:	3204      	adds	r2, #4

08004426 <LoopFillZerobss>:
 8004426:	42a2      	cmp	r2, r4
 8004428:	d3fb      	bcc.n	8004422 <FillZerobss>
 800442a:	f7ff ffdf 	bl	80043ec <SystemInit>
 800442e:	f003 fd2f 	bl	8007e90 <__libc_init_array>
 8004432:	f7fd fab9 	bl	80019a8 <main>
 8004436:	4770      	bx	lr
 8004438:	20020000 	.word	0x20020000
 800443c:	20000000 	.word	0x20000000
 8004440:	200003a4 	.word	0x200003a4
 8004444:	0800e748 	.word	0x0800e748
 8004448:	200003a8 	.word	0x200003a8
 800444c:	20001ff4 	.word	0x20001ff4

08004450 <CAN1_RX0_IRQHandler>:
 8004450:	e7fe      	b.n	8004450 <CAN1_RX0_IRQHandler>

08004452 <HAL_MspDeInit>:
 8004452:	4770      	bx	lr

08004454 <HAL_DeInit>:
 8004454:	b510      	push	{r4, lr}
 8004456:	4b09      	ldr	r3, [pc, #36]	; (800447c <HAL_DeInit+0x28>)
 8004458:	f04f 32ff 	mov.w	r2, #4294967295
 800445c:	2400      	movs	r4, #0
 800445e:	621a      	str	r2, [r3, #32]
 8004460:	621c      	str	r4, [r3, #32]
 8004462:	625a      	str	r2, [r3, #36]	; 0x24
 8004464:	625c      	str	r4, [r3, #36]	; 0x24
 8004466:	611a      	str	r2, [r3, #16]
 8004468:	611c      	str	r4, [r3, #16]
 800446a:	615a      	str	r2, [r3, #20]
 800446c:	615c      	str	r4, [r3, #20]
 800446e:	619a      	str	r2, [r3, #24]
 8004470:	619c      	str	r4, [r3, #24]
 8004472:	f7ff ffee 	bl	8004452 <HAL_MspDeInit>
 8004476:	4620      	mov	r0, r4
 8004478:	bd10      	pop	{r4, pc}
 800447a:	bf00      	nop
 800447c:	40023800 	.word	0x40023800

08004480 <HAL_InitTick>:
 8004480:	b538      	push	{r3, r4, r5, lr}
 8004482:	4a0e      	ldr	r2, [pc, #56]	; (80044bc <HAL_InitTick+0x3c>)
 8004484:	4b0e      	ldr	r3, [pc, #56]	; (80044c0 <HAL_InitTick+0x40>)
 8004486:	4605      	mov	r5, r0
 8004488:	7818      	ldrb	r0, [r3, #0]
 800448a:	f44f 737a 	mov.w	r3, #1000	; 0x3e8
 800448e:	fbb3 f3f0 	udiv	r3, r3, r0
 8004492:	6810      	ldr	r0, [r2, #0]
 8004494:	fbb0 f0f3 	udiv	r0, r0, r3
 8004498:	f000 fb6a 	bl	8004b70 <HAL_SYSTICK_Config>
 800449c:	4604      	mov	r4, r0
 800449e:	b958      	cbnz	r0, 80044b8 <HAL_InitTick+0x38>
 80044a0:	2d0f      	cmp	r5, #15
 80044a2:	d809      	bhi.n	80044b8 <HAL_InitTick+0x38>
 80044a4:	4602      	mov	r2, r0
 80044a6:	4629      	mov	r1, r5
 80044a8:	f04f 30ff 	mov.w	r0, #4294967295
 80044ac:	f000 fb20 	bl	8004af0 <HAL_NVIC_SetPriority>
 80044b0:	4b04      	ldr	r3, [pc, #16]	; (80044c4 <HAL_InitTick+0x44>)
 80044b2:	4620      	mov	r0, r4
 80044b4:	601d      	str	r5, [r3, #0]
 80044b6:	bd38      	pop	{r3, r4, r5, pc}
 80044b8:	2001      	movs	r0, #1
 80044ba:	e7fc      	b.n	80044b6 <HAL_InitTick+0x36>
 80044bc:	200001c0 	.word	0x200001c0
 80044c0:	200001c4 	.word	0x200001c4
 80044c4:	200001c8 	.word	0x200001c8

080044c8 <HAL_Init>:
 80044c8:	b508      	push	{r3, lr}
 80044ca:	4b0b      	ldr	r3, [pc, #44]	; (80044f8 <HAL_Init+0x30>)
 80044cc:	681a      	ldr	r2, [r3, #0]
 80044ce:	f442 7200 	orr.w	r2, r2, #512	; 0x200
 80044d2:	601a      	str	r2, [r3, #0]
 80044d4:	681a      	ldr	r2, [r3, #0]
 80044d6:	f442 6280 	orr.w	r2, r2, #1024	; 0x400
 80044da:	601a      	str	r2, [r3, #0]
 80044dc:	681a      	ldr	r2, [r3, #0]
 80044de:	f442 7280 	orr.w	r2, r2, #256	; 0x100
 80044e2:	601a      	str	r2, [r3, #0]
 80044e4:	2003      	movs	r0, #3
 80044e6:	f000 faf1 	bl	8004acc <HAL_NVIC_SetPriorityGrouping>
 80044ea:	2000      	movs	r0, #0
 80044ec:	f7ff ffc8 	bl	8004480 <HAL_InitTick>
 80044f0:	f7ff fc44 	bl	8003d7c <HAL_MspInit>
 80044f4:	2000      	movs	r0, #0
 80044f6:	bd08      	pop	{r3, pc}
 80044f8:	40023c00 	.word	0x40023c00

080044fc <HAL_IncTick>:
 80044fc:	4a03      	ldr	r2, [pc, #12]	; (800450c <HAL_IncTick+0x10>)
 80044fe:	4b04      	ldr	r3, [pc, #16]	; (8004510 <HAL_IncTick+0x14>)
 8004500:	6811      	ldr	r1, [r2, #0]
 8004502:	781b      	ldrb	r3, [r3, #0]
 8004504:	440b      	add	r3, r1
 8004506:	6013      	str	r3, [r2, #0]
 8004508:	4770      	bx	lr
 800450a:	bf00      	nop
 800450c:	20001fe0 	.word	0x20001fe0
 8004510:	200001c4 	.word	0x200001c4

08004514 <HAL_GetTick>:
 8004514:	4b01      	ldr	r3, [pc, #4]	; (800451c <HAL_GetTick+0x8>)
 8004516:	6818      	ldr	r0, [r3, #0]
 8004518:	4770      	bx	lr
 800451a:	bf00      	nop
 800451c:	20001fe0 	.word	0x20001fe0

08004520 <HAL_Delay>:
 8004520:	b538      	push	{r3, r4, r5, lr}
 8004522:	4604      	mov	r4, r0
 8004524:	f7ff fff6 	bl	8004514 <HAL_GetTick>
 8004528:	1c63      	adds	r3, r4, #1
 800452a:	bf1c      	itt	ne
 800452c:	4b05      	ldrne	r3, [pc, #20]	; (8004544 <HAL_Delay+0x24>)
 800452e:	781b      	ldrbne	r3, [r3, #0]
 8004530:	4605      	mov	r5, r0
 8004532:	bf18      	it	ne
 8004534:	18e4      	addne	r4, r4, r3
 8004536:	f7ff ffed 	bl	8004514 <HAL_GetTick>
 800453a:	1b43      	subs	r3, r0, r5
 800453c:	42a3      	cmp	r3, r4
 800453e:	d3fa      	bcc.n	8004536 <HAL_Delay+0x16>
 8004540:	bd38      	pop	{r3, r4, r5, pc}
 8004542:	bf00      	nop
 8004544:	200001c4 	.word	0x200001c4

08004548 <HAL_ADC_Init>:
 8004548:	b538      	push	{r3, r4, r5, lr}
 800454a:	4604      	mov	r4, r0
 800454c:	2800      	cmp	r0, #0
 800454e:	f000 809b 	beq.w	8004688 <HAL_ADC_Init+0x140>
 8004552:	6c05      	ldr	r5, [r0, #64]	; 0x40
 8004554:	b925      	cbnz	r5, 8004560 <HAL_ADC_Init+0x18>
 8004556:	f7ff fc2d 	bl	8003db4 <HAL_ADC_MspInit>
 800455a:	6465      	str	r5, [r4, #68]	; 0x44
 800455c:	f884 503c 	strb.w	r5, [r4, #60]	; 0x3c
 8004560:	6c23      	ldr	r3, [r4, #64]	; 0x40
 8004562:	06db      	lsls	r3, r3, #27
 8004564:	f100 808e 	bmi.w	8004684 <HAL_ADC_Init+0x13c>
 8004568:	6c23      	ldr	r3, [r4, #64]	; 0x40
 800456a:	f423 5388 	bic.w	r3, r3, #4352	; 0x1100
 800456e:	f023 0302 	bic.w	r3, r3, #2
 8004572:	f043 0302 	orr.w	r3, r3, #2
 8004576:	6423      	str	r3, [r4, #64]	; 0x40
 8004578:	4b44      	ldr	r3, [pc, #272]	; (800468c <HAL_ADC_Init+0x144>)
 800457a:	685a      	ldr	r2, [r3, #4]
 800457c:	f422 3240 	bic.w	r2, r2, #196608	; 0x30000
 8004580:	605a      	str	r2, [r3, #4]
 8004582:	685a      	ldr	r2, [r3, #4]
 8004584:	6861      	ldr	r1, [r4, #4]
 8004586:	430a      	orrs	r2, r1
 8004588:	605a      	str	r2, [r3, #4]
 800458a:	6823      	ldr	r3, [r4, #0]
 800458c:	6921      	ldr	r1, [r4, #16]
 800458e:	685a      	ldr	r2, [r3, #4]
 8004590:	f422 7280 	bic.w	r2, r2, #256	; 0x100
 8004594:	605a      	str	r2, [r3, #4]
 8004596:	685a      	ldr	r2, [r3, #4]
 8004598:	ea42 2201 	orr.w	r2, r2, r1, lsl #8
 800459c:	605a      	str	r2, [r3, #4]
 800459e:	685a      	ldr	r2, [r3, #4]
 80045a0:	68a1      	ldr	r1, [r4, #8]
 80045a2:	f022 7240 	bic.w	r2, r2, #50331648	; 0x3000000
 80045a6:	605a      	str	r2, [r3, #4]
 80045a8:	685a      	ldr	r2, [r3, #4]
 80045aa:	430a      	orrs	r2, r1
 80045ac:	605a      	str	r2, [r3, #4]
 80045ae:	689a      	ldr	r2, [r3, #8]
 80045b0:	68e1      	ldr	r1, [r4, #12]
 80045b2:	f422 6200 	bic.w	r2, r2, #2048	; 0x800
 80045b6:	609a      	str	r2, [r3, #8]
 80045b8:	689a      	ldr	r2, [r3, #8]
 80045ba:	430a      	orrs	r2, r1
 80045bc:	609a      	str	r2, [r3, #8]
 80045be:	4934      	ldr	r1, [pc, #208]	; (8004690 <HAL_ADC_Init+0x148>)
 80045c0:	6aa2      	ldr	r2, [r4, #40]	; 0x28
 80045c2:	428a      	cmp	r2, r1
 80045c4:	d052      	beq.n	800466c <HAL_ADC_Init+0x124>
 80045c6:	6899      	ldr	r1, [r3, #8]
 80045c8:	f021 6170 	bic.w	r1, r1, #251658240	; 0xf000000
 80045cc:	6099      	str	r1, [r3, #8]
 80045ce:	6899      	ldr	r1, [r3, #8]
 80045d0:	430a      	orrs	r2, r1
 80045d2:	609a      	str	r2, [r3, #8]
 80045d4:	689a      	ldr	r2, [r3, #8]
 80045d6:	6ae1      	ldr	r1, [r4, #44]	; 0x2c
 80045d8:	f022 5240 	bic.w	r2, r2, #805306368	; 0x30000000
 80045dc:	609a      	str	r2, [r3, #8]
 80045de:	689a      	ldr	r2, [r3, #8]
 80045e0:	430a      	orrs	r2, r1
 80045e2:	609a      	str	r2, [r3, #8]
 80045e4:	689a      	ldr	r2, [r3, #8]
 80045e6:	f022 0202 	bic.w	r2, r2, #2
 80045ea:	609a      	str	r2, [r3, #8]
 80045ec:	689a      	ldr	r2, [r3, #8]
 80045ee:	7e21      	ldrb	r1, [r4, #24]
 80045f0:	ea42 0241 	orr.w	r2, r2, r1, lsl #1
 80045f4:	609a      	str	r2, [r3, #8]
 80045f6:	f894 2020 	ldrb.w	r2, [r4, #32]
 80045fa:	2a00      	cmp	r2, #0
 80045fc:	d03e      	beq.n	800467c <HAL_ADC_Init+0x134>
 80045fe:	685a      	ldr	r2, [r3, #4]
 8004600:	6a61      	ldr	r1, [r4, #36]	; 0x24
 8004602:	f442 6200 	orr.w	r2, r2, #2048	; 0x800
 8004606:	605a      	str	r2, [r3, #4]
 8004608:	685a      	ldr	r2, [r3, #4]
 800460a:	f422 4260 	bic.w	r2, r2, #57344	; 0xe000
 800460e:	605a      	str	r2, [r3, #4]
 8004610:	685a      	ldr	r2, [r3, #4]
 8004612:	3901      	subs	r1, #1
 8004614:	ea42 3241 	orr.w	r2, r2, r1, lsl #13
 8004618:	605a      	str	r2, [r3, #4]
 800461a:	6ada      	ldr	r2, [r3, #44]	; 0x2c
 800461c:	69e1      	ldr	r1, [r4, #28]
 800461e:	f422 0270 	bic.w	r2, r2, #15728640	; 0xf00000
 8004622:	62da      	str	r2, [r3, #44]	; 0x2c
 8004624:	6ada      	ldr	r2, [r3, #44]	; 0x2c
 8004626:	3901      	subs	r1, #1
 8004628:	ea42 5201 	orr.w	r2, r2, r1, lsl #20
 800462c:	62da      	str	r2, [r3, #44]	; 0x2c
 800462e:	689a      	ldr	r2, [r3, #8]
 8004630:	f422 7200 	bic.w	r2, r2, #512	; 0x200
 8004634:	609a      	str	r2, [r3, #8]
 8004636:	689a      	ldr	r2, [r3, #8]
 8004638:	f894 1030 	ldrb.w	r1, [r4, #48]	; 0x30
 800463c:	ea42 2241 	orr.w	r2, r2, r1, lsl #9
 8004640:	609a      	str	r2, [r3, #8]
 8004642:	689a      	ldr	r2, [r3, #8]
 8004644:	6961      	ldr	r1, [r4, #20]
 8004646:	f422 6280 	bic.w	r2, r2, #1024	; 0x400
 800464a:	609a      	str	r2, [r3, #8]
 800464c:	689a      	ldr	r2, [r3, #8]
 800464e:	2000      	movs	r0, #0
 8004650:	ea42 2281 	orr.w	r2, r2, r1, lsl #10
 8004654:	609a      	str	r2, [r3, #8]
 8004656:	6460      	str	r0, [r4, #68]	; 0x44
 8004658:	6c23      	ldr	r3, [r4, #64]	; 0x40
 800465a:	f023 0303 	bic.w	r3, r3, #3
 800465e:	f043 0301 	orr.w	r3, r3, #1
 8004662:	6423      	str	r3, [r4, #64]	; 0x40
 8004664:	2300      	movs	r3, #0
 8004666:	f884 303c 	strb.w	r3, [r4, #60]	; 0x3c
 800466a:	bd38      	pop	{r3, r4, r5, pc}
 800466c:	689a      	ldr	r2, [r3, #8]
 800466e:	f022 6270 	bic.w	r2, r2, #251658240	; 0xf000000
 8004672:	609a      	str	r2, [r3, #8]
 8004674:	689a      	ldr	r2, [r3, #8]
 8004676:	f022 5240 	bic.w	r2, r2, #805306368	; 0x30000000
 800467a:	e7b2      	b.n	80045e2 <HAL_ADC_Init+0x9a>
 800467c:	685a      	ldr	r2, [r3, #4]
 800467e:	f422 6200 	bic.w	r2, r2, #2048	; 0x800
 8004682:	e7c9      	b.n	8004618 <HAL_ADC_Init+0xd0>
 8004684:	2001      	movs	r0, #1
 8004686:	e7ed      	b.n	8004664 <HAL_ADC_Init+0x11c>
 8004688:	2001      	movs	r0, #1
 800468a:	e7ee      	b.n	800466a <HAL_ADC_Init+0x122>
 800468c:	40012300 	.word	0x40012300
 8004690:	0f000001 	.word	0x0f000001

08004694 <HAL_ADC_Start_DMA>:
 8004694:	b573      	push	{r0, r1, r4, r5, r6, lr}
 8004696:	4613      	mov	r3, r2
 8004698:	2200      	movs	r2, #0
 800469a:	9201      	str	r2, [sp, #4]
 800469c:	f890 203c 	ldrb.w	r2, [r0, #60]	; 0x3c
 80046a0:	2a01      	cmp	r2, #1
 80046a2:	4605      	mov	r5, r0
 80046a4:	f000 808c 	beq.w	80047c0 <HAL_ADC_Start_DMA+0x12c>
 80046a8:	2201      	movs	r2, #1
 80046aa:	6806      	ldr	r6, [r0, #0]
 80046ac:	f880 203c 	strb.w	r2, [r0, #60]	; 0x3c
 80046b0:	68b2      	ldr	r2, [r6, #8]
 80046b2:	07d4      	lsls	r4, r2, #31
 80046b4:	d554      	bpl.n	8004760 <HAL_ADC_Start_DMA+0xcc>
 80046b6:	68b2      	ldr	r2, [r6, #8]
 80046b8:	05d0      	lsls	r0, r2, #23
 80046ba:	d464      	bmi.n	8004786 <HAL_ADC_Start_DMA+0xf2>
 80046bc:	68b4      	ldr	r4, [r6, #8]
 80046be:	f014 0401 	ands.w	r4, r4, #1
 80046c2:	d074      	beq.n	80047ae <HAL_ADC_Start_DMA+0x11a>
 80046c4:	6c28      	ldr	r0, [r5, #64]	; 0x40
 80046c6:	f420 60e0 	bic.w	r0, r0, #1792	; 0x700
 80046ca:	f020 0001 	bic.w	r0, r0, #1
 80046ce:	f440 7080 	orr.w	r0, r0, #256	; 0x100
 80046d2:	6428      	str	r0, [r5, #64]	; 0x40
 80046d4:	6872      	ldr	r2, [r6, #4]
 80046d6:	0552      	lsls	r2, r2, #21
 80046d8:	bf41      	itttt	mi
 80046da:	6c28      	ldrmi	r0, [r5, #64]	; 0x40
 80046dc:	f420 5040 	bicmi.w	r0, r0, #12288	; 0x3000
 80046e0:	f440 5080 	orrmi.w	r0, r0, #4096	; 0x1000
 80046e4:	6428      	strmi	r0, [r5, #64]	; 0x40
 80046e6:	6c2a      	ldr	r2, [r5, #64]	; 0x40
 80046e8:	6ba8      	ldr	r0, [r5, #56]	; 0x38
 80046ea:	f412 5280 	ands.w	r2, r2, #4096	; 0x1000
 80046ee:	bf1c      	itt	ne
 80046f0:	6c6a      	ldrne	r2, [r5, #68]	; 0x44
 80046f2:	f022 0206 	bicne.w	r2, r2, #6
 80046f6:	646a      	str	r2, [r5, #68]	; 0x44
 80046f8:	2400      	movs	r4, #0
 80046fa:	4a33      	ldr	r2, [pc, #204]	; (80047c8 <HAL_ADC_Start_DMA+0x134>)
 80046fc:	f885 403c 	strb.w	r4, [r5, #60]	; 0x3c
 8004700:	63c2      	str	r2, [r0, #60]	; 0x3c
 8004702:	4a32      	ldr	r2, [pc, #200]	; (80047cc <HAL_ADC_Start_DMA+0x138>)
 8004704:	6402      	str	r2, [r0, #64]	; 0x40
 8004706:	4a32      	ldr	r2, [pc, #200]	; (80047d0 <HAL_ADC_Start_DMA+0x13c>)
 8004708:	64c2      	str	r2, [r0, #76]	; 0x4c
 800470a:	f06f 0222 	mvn.w	r2, #34	; 0x22
 800470e:	6032      	str	r2, [r6, #0]
 8004710:	6872      	ldr	r2, [r6, #4]
 8004712:	f042 6280 	orr.w	r2, r2, #67108864	; 0x4000000
 8004716:	6072      	str	r2, [r6, #4]
 8004718:	68b2      	ldr	r2, [r6, #8]
 800471a:	f442 7280 	orr.w	r2, r2, #256	; 0x100
 800471e:	60b2      	str	r2, [r6, #8]
 8004720:	460a      	mov	r2, r1
 8004722:	f106 014c 	add.w	r1, r6, #76	; 0x4c
 8004726:	f000 facf 	bl	8004cc8 <HAL_DMA_Start_IT>
 800472a:	4a2a      	ldr	r2, [pc, #168]	; (80047d4 <HAL_ADC_Start_DMA+0x140>)
 800472c:	682b      	ldr	r3, [r5, #0]
 800472e:	6850      	ldr	r0, [r2, #4]
 8004730:	4929      	ldr	r1, [pc, #164]	; (80047d8 <HAL_ADC_Start_DMA+0x144>)
 8004732:	f010 001f 	ands.w	r0, r0, #31
 8004736:	d132      	bne.n	800479e <HAL_ADC_Start_DMA+0x10a>
 8004738:	428b      	cmp	r3, r1
 800473a:	d007      	beq.n	800474c <HAL_ADC_Start_DMA+0xb8>
 800473c:	f501 7180 	add.w	r1, r1, #256	; 0x100
 8004740:	428b      	cmp	r3, r1
 8004742:	d125      	bne.n	8004790 <HAL_ADC_Start_DMA+0xfc>
 8004744:	6852      	ldr	r2, [r2, #4]
 8004746:	f012 0f1f 	tst.w	r2, #31
 800474a:	d107      	bne.n	800475c <HAL_ADC_Start_DMA+0xc8>
 800474c:	6898      	ldr	r0, [r3, #8]
 800474e:	f010 5040 	ands.w	r0, r0, #805306368	; 0x30000000
 8004752:	d137      	bne.n	80047c4 <HAL_ADC_Start_DMA+0x130>
 8004754:	689a      	ldr	r2, [r3, #8]
 8004756:	f042 4280 	orr.w	r2, r2, #1073741824	; 0x40000000
 800475a:	609a      	str	r2, [r3, #8]
 800475c:	b002      	add	sp, #8
 800475e:	bd70      	pop	{r4, r5, r6, pc}
 8004760:	68b2      	ldr	r2, [r6, #8]
 8004762:	f042 0201 	orr.w	r2, r2, #1
 8004766:	60b2      	str	r2, [r6, #8]
 8004768:	4a1c      	ldr	r2, [pc, #112]	; (80047dc <HAL_ADC_Start_DMA+0x148>)
 800476a:	6810      	ldr	r0, [r2, #0]
 800476c:	4a1c      	ldr	r2, [pc, #112]	; (80047e0 <HAL_ADC_Start_DMA+0x14c>)
 800476e:	fbb0 f0f2 	udiv	r0, r0, r2
 8004772:	eb00 0040 	add.w	r0, r0, r0, lsl #1
 8004776:	9001      	str	r0, [sp, #4]
 8004778:	9a01      	ldr	r2, [sp, #4]
 800477a:	2a00      	cmp	r2, #0
 800477c:	d09b      	beq.n	80046b6 <HAL_ADC_Start_DMA+0x22>
 800477e:	9a01      	ldr	r2, [sp, #4]
 8004780:	3a01      	subs	r2, #1
 8004782:	9201      	str	r2, [sp, #4]
 8004784:	e7f8      	b.n	8004778 <HAL_ADC_Start_DMA+0xe4>
 8004786:	68b2      	ldr	r2, [r6, #8]
 8004788:	f422 7280 	bic.w	r2, r2, #256	; 0x100
 800478c:	60b2      	str	r2, [r6, #8]
 800478e:	e795      	b.n	80046bc <HAL_ADC_Start_DMA+0x28>
 8004790:	4914      	ldr	r1, [pc, #80]	; (80047e4 <HAL_ADC_Start_DMA+0x150>)
 8004792:	428b      	cmp	r3, r1
 8004794:	d1e2      	bne.n	800475c <HAL_ADC_Start_DMA+0xc8>
 8004796:	6852      	ldr	r2, [r2, #4]
 8004798:	f012 0f10 	tst.w	r2, #16
 800479c:	e7d5      	b.n	800474a <HAL_ADC_Start_DMA+0xb6>
 800479e:	428b      	cmp	r3, r1
 80047a0:	d110      	bne.n	80047c4 <HAL_ADC_Start_DMA+0x130>
 80047a2:	6898      	ldr	r0, [r3, #8]
 80047a4:	f010 5040 	ands.w	r0, r0, #805306368	; 0x30000000
 80047a8:	d0d4      	beq.n	8004754 <HAL_ADC_Start_DMA+0xc0>
 80047aa:	4620      	mov	r0, r4
 80047ac:	e7d6      	b.n	800475c <HAL_ADC_Start_DMA+0xc8>
 80047ae:	6c2b      	ldr	r3, [r5, #64]	; 0x40
 80047b0:	f043 0310 	orr.w	r3, r3, #16
 80047b4:	642b      	str	r3, [r5, #64]	; 0x40
 80047b6:	6c6b      	ldr	r3, [r5, #68]	; 0x44
 80047b8:	f043 0301 	orr.w	r3, r3, #1
 80047bc:	646b      	str	r3, [r5, #68]	; 0x44
 80047be:	e7f4      	b.n	80047aa <HAL_ADC_Start_DMA+0x116>
 80047c0:	2002      	movs	r0, #2
 80047c2:	e7cb      	b.n	800475c <HAL_ADC_Start_DMA+0xc8>
 80047c4:	2000      	movs	r0, #0
 80047c6:	e7c9      	b.n	800475c <HAL_ADC_Start_DMA+0xc8>
 80047c8:	08004937 	.word	0x08004937
 80047cc:	080047eb 	.word	0x080047eb
 80047d0:	08004921 	.word	0x08004921
 80047d4:	40012300 	.word	0x40012300
 80047d8:	40012000 	.word	0x40012000
 80047dc:	200001c0 	.word	0x200001c0
 80047e0:	000f4240 	.word	0x000f4240
 80047e4:	40012200 	.word	0x40012200

080047e8 <HAL_ADC_ConvHalfCpltCallback>:
 80047e8:	4770      	bx	lr

080047ea <ADC_DMAHalfConvCplt>:
 80047ea:	b508      	push	{r3, lr}
 80047ec:	6b80      	ldr	r0, [r0, #56]	; 0x38
 80047ee:	f7ff fffb 	bl	80047e8 <HAL_ADC_ConvHalfCpltCallback>
 80047f2:	bd08      	pop	{r3, pc}

080047f4 <HAL_ADC_LevelOutOfWindowCallback>:
 80047f4:	4770      	bx	lr

080047f6 <HAL_ADC_ErrorCallback>:
 80047f6:	4770      	bx	lr

080047f8 <HAL_ADC_IRQHandler>:
 80047f8:	b538      	push	{r3, r4, r5, lr}
 80047fa:	6803      	ldr	r3, [r0, #0]
 80047fc:	6819      	ldr	r1, [r3, #0]
 80047fe:	685a      	ldr	r2, [r3, #4]
 8004800:	078d      	lsls	r5, r1, #30
 8004802:	4604      	mov	r4, r0
 8004804:	d52b      	bpl.n	800485e <HAL_ADC_IRQHandler+0x66>
 8004806:	0690      	lsls	r0, r2, #26
 8004808:	d529      	bpl.n	800485e <HAL_ADC_IRQHandler+0x66>
 800480a:	6c22      	ldr	r2, [r4, #64]	; 0x40
 800480c:	06d1      	lsls	r1, r2, #27
 800480e:	bf5e      	ittt	pl
 8004810:	6c22      	ldrpl	r2, [r4, #64]	; 0x40
 8004812:	f442 7200 	orrpl.w	r2, r2, #512	; 0x200
 8004816:	6422      	strpl	r2, [r4, #64]	; 0x40
 8004818:	689a      	ldr	r2, [r3, #8]
 800481a:	f012 5f40 	tst.w	r2, #805306368	; 0x30000000
 800481e:	d117      	bne.n	8004850 <HAL_ADC_IRQHandler+0x58>
 8004820:	7e22      	ldrb	r2, [r4, #24]
 8004822:	b9aa      	cbnz	r2, 8004850 <HAL_ADC_IRQHandler+0x58>
 8004824:	6ada      	ldr	r2, [r3, #44]	; 0x2c
 8004826:	f412 0f70 	tst.w	r2, #15728640	; 0xf00000
 800482a:	d002      	beq.n	8004832 <HAL_ADC_IRQHandler+0x3a>
 800482c:	689a      	ldr	r2, [r3, #8]
 800482e:	0552      	lsls	r2, r2, #21
 8004830:	d40e      	bmi.n	8004850 <HAL_ADC_IRQHandler+0x58>
 8004832:	685a      	ldr	r2, [r3, #4]
 8004834:	f022 0220 	bic.w	r2, r2, #32
 8004838:	605a      	str	r2, [r3, #4]
 800483a:	6c23      	ldr	r3, [r4, #64]	; 0x40
 800483c:	f423 7380 	bic.w	r3, r3, #256	; 0x100
 8004840:	6423      	str	r3, [r4, #64]	; 0x40
 8004842:	6c23      	ldr	r3, [r4, #64]	; 0x40
 8004844:	04db      	lsls	r3, r3, #19
 8004846:	bf5e      	ittt	pl
 8004848:	6c23      	ldrpl	r3, [r4, #64]	; 0x40
 800484a:	f043 0301 	orrpl.w	r3, r3, #1
 800484e:	6423      	strpl	r3, [r4, #64]	; 0x40
 8004850:	4620      	mov	r0, r4
 8004852:	f7ff fa59 	bl	8003d08 <HAL_ADC_ConvCpltCallback>
 8004856:	6823      	ldr	r3, [r4, #0]
 8004858:	f06f 0212 	mvn.w	r2, #18
 800485c:	601a      	str	r2, [r3, #0]
 800485e:	6823      	ldr	r3, [r4, #0]
 8004860:	6819      	ldr	r1, [r3, #0]
 8004862:	685a      	ldr	r2, [r3, #4]
 8004864:	074d      	lsls	r5, r1, #29
 8004866:	d532      	bpl.n	80048ce <HAL_ADC_IRQHandler+0xd6>
 8004868:	0610      	lsls	r0, r2, #24
 800486a:	d530      	bpl.n	80048ce <HAL_ADC_IRQHandler+0xd6>
 800486c:	6c22      	ldr	r2, [r4, #64]	; 0x40
 800486e:	06d1      	lsls	r1, r2, #27
 8004870:	bf5e      	ittt	pl
 8004872:	6c22      	ldrpl	r2, [r4, #64]	; 0x40
 8004874:	f442 5200 	orrpl.w	r2, r2, #8192	; 0x2000
 8004878:	6422      	strpl	r2, [r4, #64]	; 0x40
 800487a:	689a      	ldr	r2, [r3, #8]
 800487c:	f412 1f40 	tst.w	r2, #3145728	; 0x300000
 8004880:	d11e      	bne.n	80048c0 <HAL_ADC_IRQHandler+0xc8>
 8004882:	6b9a      	ldr	r2, [r3, #56]	; 0x38
 8004884:	f412 1f40 	tst.w	r2, #3145728	; 0x300000
 8004888:	d002      	beq.n	8004890 <HAL_ADC_IRQHandler+0x98>
 800488a:	689a      	ldr	r2, [r3, #8]
 800488c:	0552      	lsls	r2, r2, #21
 800488e:	d417      	bmi.n	80048c0 <HAL_ADC_IRQHandler+0xc8>
 8004890:	685a      	ldr	r2, [r3, #4]
 8004892:	0555      	lsls	r5, r2, #21
 8004894:	d414      	bmi.n	80048c0 <HAL_ADC_IRQHandler+0xc8>
 8004896:	689a      	ldr	r2, [r3, #8]
 8004898:	f012 5f40 	tst.w	r2, #805306368	; 0x30000000
 800489c:	d110      	bne.n	80048c0 <HAL_ADC_IRQHandler+0xc8>
 800489e:	7e22      	ldrb	r2, [r4, #24]
 80048a0:	b972      	cbnz	r2, 80048c0 <HAL_ADC_IRQHandler+0xc8>
 80048a2:	685a      	ldr	r2, [r3, #4]
 80048a4:	f022 0280 	bic.w	r2, r2, #128	; 0x80
 80048a8:	605a      	str	r2, [r3, #4]
 80048aa:	6c23      	ldr	r3, [r4, #64]	; 0x40
 80048ac:	f423 5380 	bic.w	r3, r3, #4096	; 0x1000
 80048b0:	6423      	str	r3, [r4, #64]	; 0x40
 80048b2:	6c23      	ldr	r3, [r4, #64]	; 0x40
 80048b4:	05d8      	lsls	r0, r3, #23
 80048b6:	bf5e      	ittt	pl
 80048b8:	6c23      	ldrpl	r3, [r4, #64]	; 0x40
 80048ba:	f043 0301 	orrpl.w	r3, r3, #1
 80048be:	6423      	strpl	r3, [r4, #64]	; 0x40
 80048c0:	4620      	mov	r0, r4
 80048c2:	f000 f901 	bl	8004ac8 <HAL_ADCEx_InjectedConvCpltCallback>
 80048c6:	6823      	ldr	r3, [r4, #0]
 80048c8:	f06f 020c 	mvn.w	r2, #12
 80048cc:	601a      	str	r2, [r3, #0]
 80048ce:	6823      	ldr	r3, [r4, #0]
 80048d0:	6819      	ldr	r1, [r3, #0]
 80048d2:	685a      	ldr	r2, [r3, #4]
 80048d4:	07c9      	lsls	r1, r1, #31
 80048d6:	d50f      	bpl.n	80048f8 <HAL_ADC_IRQHandler+0x100>
 80048d8:	0655      	lsls	r5, r2, #25
 80048da:	d50d      	bpl.n	80048f8 <HAL_ADC_IRQHandler+0x100>
 80048dc:	681b      	ldr	r3, [r3, #0]
 80048de:	07d8      	lsls	r0, r3, #31
 80048e0:	d50a      	bpl.n	80048f8 <HAL_ADC_IRQHandler+0x100>
 80048e2:	6c23      	ldr	r3, [r4, #64]	; 0x40
 80048e4:	f443 3380 	orr.w	r3, r3, #65536	; 0x10000
 80048e8:	6423      	str	r3, [r4, #64]	; 0x40
 80048ea:	4620      	mov	r0, r4
 80048ec:	f7ff ff82 	bl	80047f4 <HAL_ADC_LevelOutOfWindowCallback>
 80048f0:	6823      	ldr	r3, [r4, #0]
 80048f2:	f06f 0201 	mvn.w	r2, #1
 80048f6:	601a      	str	r2, [r3, #0]
 80048f8:	6823      	ldr	r3, [r4, #0]
 80048fa:	6819      	ldr	r1, [r3, #0]
 80048fc:	685a      	ldr	r2, [r3, #4]
 80048fe:	0689      	lsls	r1, r1, #26
 8004900:	d50d      	bpl.n	800491e <HAL_ADC_IRQHandler+0x126>
 8004902:	0152      	lsls	r2, r2, #5
 8004904:	d50b      	bpl.n	800491e <HAL_ADC_IRQHandler+0x126>
 8004906:	6c62      	ldr	r2, [r4, #68]	; 0x44
 8004908:	f06f 0520 	mvn.w	r5, #32
 800490c:	f042 0202 	orr.w	r2, r2, #2
 8004910:	6462      	str	r2, [r4, #68]	; 0x44
 8004912:	4620      	mov	r0, r4
 8004914:	601d      	str	r5, [r3, #0]
 8004916:	f7ff ff6e 	bl	80047f6 <HAL_ADC_ErrorCallback>
 800491a:	6823      	ldr	r3, [r4, #0]
 800491c:	601d      	str	r5, [r3, #0]
 800491e:	bd38      	pop	{r3, r4, r5, pc}

08004920 <ADC_DMAError>:
 8004920:	6b80      	ldr	r0, [r0, #56]	; 0x38
 8004922:	b508      	push	{r3, lr}
 8004924:	2340      	movs	r3, #64	; 0x40
 8004926:	6403      	str	r3, [r0, #64]	; 0x40
 8004928:	6c43      	ldr	r3, [r0, #68]	; 0x44
 800492a:	f043 0304 	orr.w	r3, r3, #4
 800492e:	6443      	str	r3, [r0, #68]	; 0x44
 8004930:	f7ff ff61 	bl	80047f6 <HAL_ADC_ErrorCallback>
 8004934:	bd08      	pop	{r3, pc}

08004936 <ADC_DMAConvCplt>:
 8004936:	6b83      	ldr	r3, [r0, #56]	; 0x38
 8004938:	6c1a      	ldr	r2, [r3, #64]	; 0x40
 800493a:	f012 0f50 	tst.w	r2, #80	; 0x50
 800493e:	b510      	push	{r4, lr}
 8004940:	6c1a      	ldr	r2, [r3, #64]	; 0x40
 8004942:	d123      	bne.n	800498c <ADC_DMAConvCplt+0x56>
 8004944:	f442 7200 	orr.w	r2, r2, #512	; 0x200
 8004948:	641a      	str	r2, [r3, #64]	; 0x40
 800494a:	681a      	ldr	r2, [r3, #0]
 800494c:	6891      	ldr	r1, [r2, #8]
 800494e:	f011 5f40 	tst.w	r1, #805306368	; 0x30000000
 8004952:	d117      	bne.n	8004984 <ADC_DMAConvCplt+0x4e>
 8004954:	7e19      	ldrb	r1, [r3, #24]
 8004956:	b9a9      	cbnz	r1, 8004984 <ADC_DMAConvCplt+0x4e>
 8004958:	6ad1      	ldr	r1, [r2, #44]	; 0x2c
 800495a:	f411 0f70 	tst.w	r1, #15728640	; 0xf00000
 800495e:	d002      	beq.n	8004966 <ADC_DMAConvCplt+0x30>
 8004960:	6891      	ldr	r1, [r2, #8]
 8004962:	0548      	lsls	r0, r1, #21
 8004964:	d40e      	bmi.n	8004984 <ADC_DMAConvCplt+0x4e>
 8004966:	6851      	ldr	r1, [r2, #4]
 8004968:	f021 0120 	bic.w	r1, r1, #32
 800496c:	6051      	str	r1, [r2, #4]
 800496e:	6c1a      	ldr	r2, [r3, #64]	; 0x40
 8004970:	f422 7280 	bic.w	r2, r2, #256	; 0x100
 8004974:	641a      	str	r2, [r3, #64]	; 0x40
 8004976:	6c1a      	ldr	r2, [r3, #64]	; 0x40
 8004978:	04d1      	lsls	r1, r2, #19
 800497a:	bf5e      	ittt	pl
 800497c:	6c1a      	ldrpl	r2, [r3, #64]	; 0x40
 800497e:	f042 0201 	orrpl.w	r2, r2, #1
 8004982:	641a      	strpl	r2, [r3, #64]	; 0x40
 8004984:	4618      	mov	r0, r3
 8004986:	f7ff f9bf 	bl	8003d08 <HAL_ADC_ConvCpltCallback>
 800498a:	bd10      	pop	{r4, pc}
 800498c:	06d2      	lsls	r2, r2, #27
 800498e:	d503      	bpl.n	8004998 <ADC_DMAConvCplt+0x62>
 8004990:	4618      	mov	r0, r3
 8004992:	f7ff ff30 	bl	80047f6 <HAL_ADC_ErrorCallback>
 8004996:	e7f8      	b.n	800498a <ADC_DMAConvCplt+0x54>
 8004998:	6b9b      	ldr	r3, [r3, #56]	; 0x38
 800499a:	e8bd 4010 	ldmia.w	sp!, {r4, lr}
 800499e:	6cdb      	ldr	r3, [r3, #76]	; 0x4c
 80049a0:	4718      	bx	r3
	...

080049a4 <HAL_ADC_ConfigChannel>:
 80049a4:	b5f7      	push	{r0, r1, r2, r4, r5, r6, r7, lr}
 80049a6:	2300      	movs	r3, #0
 80049a8:	9301      	str	r3, [sp, #4]
 80049aa:	f890 303c 	ldrb.w	r3, [r0, #60]	; 0x3c
 80049ae:	2b01      	cmp	r3, #1
 80049b0:	d066      	beq.n	8004a80 <HAL_ADC_ConfigChannel+0xdc>
 80049b2:	2301      	movs	r3, #1
 80049b4:	f880 303c 	strb.w	r3, [r0, #60]	; 0x3c
 80049b8:	680d      	ldr	r5, [r1, #0]
 80049ba:	6803      	ldr	r3, [r0, #0]
 80049bc:	688e      	ldr	r6, [r1, #8]
 80049be:	2d09      	cmp	r5, #9
 80049c0:	b2ac      	uxth	r4, r5
 80049c2:	d931      	bls.n	8004a28 <HAL_ADC_ConfigChannel+0x84>
 80049c4:	eb04 0244 	add.w	r2, r4, r4, lsl #1
 80049c8:	68df      	ldr	r7, [r3, #12]
 80049ca:	3a1e      	subs	r2, #30
 80049cc:	f04f 0c07 	mov.w	ip, #7
 80049d0:	fa0c fc02 	lsl.w	ip, ip, r2
 80049d4:	ea27 070c 	bic.w	r7, r7, ip
 80049d8:	60df      	str	r7, [r3, #12]
 80049da:	68df      	ldr	r7, [r3, #12]
 80049dc:	fa06 f202 	lsl.w	r2, r6, r2
 80049e0:	433a      	orrs	r2, r7
 80049e2:	60da      	str	r2, [r3, #12]
 80049e4:	6849      	ldr	r1, [r1, #4]
 80049e6:	2906      	cmp	r1, #6
 80049e8:	eb01 0281 	add.w	r2, r1, r1, lsl #2
 80049ec:	d82c      	bhi.n	8004a48 <HAL_ADC_ConfigChannel+0xa4>
 80049ee:	6b59      	ldr	r1, [r3, #52]	; 0x34
 80049f0:	3a05      	subs	r2, #5
 80049f2:	261f      	movs	r6, #31
 80049f4:	4096      	lsls	r6, r2
 80049f6:	ea21 0106 	bic.w	r1, r1, r6
 80049fa:	6359      	str	r1, [r3, #52]	; 0x34
 80049fc:	6b59      	ldr	r1, [r3, #52]	; 0x34
 80049fe:	fa04 f202 	lsl.w	r2, r4, r2
 8004a02:	430a      	orrs	r2, r1
 8004a04:	635a      	str	r2, [r3, #52]	; 0x34
 8004a06:	4a2c      	ldr	r2, [pc, #176]	; (8004ab8 <HAL_ADC_ConfigChannel+0x114>)
 8004a08:	4293      	cmp	r3, r2
 8004a0a:	d107      	bne.n	8004a1c <HAL_ADC_ConfigChannel+0x78>
 8004a0c:	2d12      	cmp	r5, #18
 8004a0e:	d139      	bne.n	8004a84 <HAL_ADC_ConfigChannel+0xe0>
 8004a10:	f8d2 3304 	ldr.w	r3, [r2, #772]	; 0x304
 8004a14:	f443 0380 	orr.w	r3, r3, #4194304	; 0x400000
 8004a18:	f8c2 3304 	str.w	r3, [r2, #772]	; 0x304
 8004a1c:	2300      	movs	r3, #0
 8004a1e:	f880 303c 	strb.w	r3, [r0, #60]	; 0x3c
 8004a22:	4618      	mov	r0, r3
 8004a24:	b003      	add	sp, #12
 8004a26:	bdf0      	pop	{r4, r5, r6, r7, pc}
 8004a28:	691f      	ldr	r7, [r3, #16]
 8004a2a:	eb05 0245 	add.w	r2, r5, r5, lsl #1
 8004a2e:	f04f 0c07 	mov.w	ip, #7
 8004a32:	fa0c fc02 	lsl.w	ip, ip, r2
 8004a36:	ea27 070c 	bic.w	r7, r7, ip
 8004a3a:	611f      	str	r7, [r3, #16]
 8004a3c:	691f      	ldr	r7, [r3, #16]
 8004a3e:	fa06 f202 	lsl.w	r2, r6, r2
 8004a42:	433a      	orrs	r2, r7
 8004a44:	611a      	str	r2, [r3, #16]
 8004a46:	e7cd      	b.n	80049e4 <HAL_ADC_ConfigChannel+0x40>
 8004a48:	290c      	cmp	r1, #12
 8004a4a:	f04f 011f 	mov.w	r1, #31
 8004a4e:	d80b      	bhi.n	8004a68 <HAL_ADC_ConfigChannel+0xc4>
 8004a50:	6b1e      	ldr	r6, [r3, #48]	; 0x30
 8004a52:	3a23      	subs	r2, #35	; 0x23
 8004a54:	4091      	lsls	r1, r2
 8004a56:	ea26 0101 	bic.w	r1, r6, r1
 8004a5a:	6319      	str	r1, [r3, #48]	; 0x30
 8004a5c:	6b19      	ldr	r1, [r3, #48]	; 0x30
 8004a5e:	fa04 f202 	lsl.w	r2, r4, r2
 8004a62:	430a      	orrs	r2, r1
 8004a64:	631a      	str	r2, [r3, #48]	; 0x30
 8004a66:	e7ce      	b.n	8004a06 <HAL_ADC_ConfigChannel+0x62>
 8004a68:	6ade      	ldr	r6, [r3, #44]	; 0x2c
 8004a6a:	3a41      	subs	r2, #65	; 0x41
 8004a6c:	4091      	lsls	r1, r2
 8004a6e:	ea26 0101 	bic.w	r1, r6, r1
 8004a72:	62d9      	str	r1, [r3, #44]	; 0x2c
 8004a74:	6ad9      	ldr	r1, [r3, #44]	; 0x2c
 8004a76:	fa04 f202 	lsl.w	r2, r4, r2
 8004a7a:	430a      	orrs	r2, r1
 8004a7c:	62da      	str	r2, [r3, #44]	; 0x2c
 8004a7e:	e7c2      	b.n	8004a06 <HAL_ADC_ConfigChannel+0x62>
 8004a80:	2002      	movs	r0, #2
 8004a82:	e7cf      	b.n	8004a24 <HAL_ADC_ConfigChannel+0x80>
 8004a84:	f1a5 0310 	sub.w	r3, r5, #16
 8004a88:	2b01      	cmp	r3, #1
 8004a8a:	d8c7      	bhi.n	8004a1c <HAL_ADC_ConfigChannel+0x78>
 8004a8c:	4a0b      	ldr	r2, [pc, #44]	; (8004abc <HAL_ADC_ConfigChannel+0x118>)
 8004a8e:	6853      	ldr	r3, [r2, #4]
 8004a90:	2d10      	cmp	r5, #16
 8004a92:	f443 0300 	orr.w	r3, r3, #8388608	; 0x800000
 8004a96:	6053      	str	r3, [r2, #4]
 8004a98:	d1c0      	bne.n	8004a1c <HAL_ADC_ConfigChannel+0x78>
 8004a9a:	4b09      	ldr	r3, [pc, #36]	; (8004ac0 <HAL_ADC_ConfigChannel+0x11c>)
 8004a9c:	4a09      	ldr	r2, [pc, #36]	; (8004ac4 <HAL_ADC_ConfigChannel+0x120>)
 8004a9e:	681b      	ldr	r3, [r3, #0]
 8004aa0:	fbb3 f2f2 	udiv	r2, r3, r2
 8004aa4:	230a      	movs	r3, #10
 8004aa6:	4353      	muls	r3, r2
 8004aa8:	9301      	str	r3, [sp, #4]
 8004aaa:	9b01      	ldr	r3, [sp, #4]
 8004aac:	2b00      	cmp	r3, #0
 8004aae:	d0b5      	beq.n	8004a1c <HAL_ADC_ConfigChannel+0x78>
 8004ab0:	9b01      	ldr	r3, [sp, #4]
 8004ab2:	3b01      	subs	r3, #1
 8004ab4:	e7f8      	b.n	8004aa8 <HAL_ADC_ConfigChannel+0x104>
 8004ab6:	bf00      	nop
 8004ab8:	40012000 	.word	0x40012000
 8004abc:	40012300 	.word	0x40012300
 8004ac0:	200001c0 	.word	0x200001c0
 8004ac4:	000f4240 	.word	0x000f4240

08004ac8 <HAL_ADCEx_InjectedConvCpltCallback>:
 8004ac8:	4770      	bx	lr
	...

08004acc <HAL_NVIC_SetPriorityGrouping>:
 8004acc:	4907      	ldr	r1, [pc, #28]	; (8004aec <HAL_NVIC_SetPriorityGrouping+0x20>)
 8004ace:	68ca      	ldr	r2, [r1, #12]
 8004ad0:	f422 62e0 	bic.w	r2, r2, #1792	; 0x700
 8004ad4:	0203      	lsls	r3, r0, #8
 8004ad6:	0412      	lsls	r2, r2, #16
 8004ad8:	f403 63e0 	and.w	r3, r3, #1792	; 0x700
 8004adc:	0c12      	lsrs	r2, r2, #16
 8004ade:	4313      	orrs	r3, r2
 8004ae0:	f043 63bf 	orr.w	r3, r3, #100139008	; 0x5f80000
 8004ae4:	f443 3300 	orr.w	r3, r3, #131072	; 0x20000
 8004ae8:	60cb      	str	r3, [r1, #12]
 8004aea:	4770      	bx	lr
 8004aec:	e000ed00 	.word	0xe000ed00

08004af0 <HAL_NVIC_SetPriority>:
 8004af0:	4b16      	ldr	r3, [pc, #88]	; (8004b4c <HAL_NVIC_SetPriority+0x5c>)
 8004af2:	b530      	push	{r4, r5, lr}
 8004af4:	68dc      	ldr	r4, [r3, #12]
 8004af6:	f3c4 2402 	ubfx	r4, r4, #8, #3
 8004afa:	f1c4 0507 	rsb	r5, r4, #7
 8004afe:	1d23      	adds	r3, r4, #4
 8004b00:	2d04      	cmp	r5, #4
 8004b02:	bf28      	it	cs
 8004b04:	2504      	movcs	r5, #4
 8004b06:	2b06      	cmp	r3, #6
 8004b08:	f04f 33ff 	mov.w	r3, #4294967295
 8004b0c:	bf8c      	ite	hi
 8004b0e:	3c03      	subhi	r4, #3
 8004b10:	2400      	movls	r4, #0
 8004b12:	fa03 f505 	lsl.w	r5, r3, r5
 8004b16:	ea21 0105 	bic.w	r1, r1, r5
 8004b1a:	40a3      	lsls	r3, r4
 8004b1c:	ea22 0203 	bic.w	r2, r2, r3
 8004b20:	40a1      	lsls	r1, r4
 8004b22:	2800      	cmp	r0, #0
 8004b24:	ea41 0302 	orr.w	r3, r1, r2
 8004b28:	bfac      	ite	ge
 8004b2a:	f100 4060 	addge.w	r0, r0, #3758096384	; 0xe0000000
 8004b2e:	4a08      	ldrlt	r2, [pc, #32]	; (8004b50 <HAL_NVIC_SetPriority+0x60>)
 8004b30:	ea4f 1303 	mov.w	r3, r3, lsl #4
 8004b34:	bfb8      	it	lt
 8004b36:	f000 000f 	andlt.w	r0, r0, #15
 8004b3a:	b2db      	uxtb	r3, r3
 8004b3c:	bfaa      	itet	ge
 8004b3e:	f500 4061 	addge.w	r0, r0, #57600	; 0xe100
 8004b42:	5413      	strblt	r3, [r2, r0]
 8004b44:	f880 3300 	strbge.w	r3, [r0, #768]	; 0x300
 8004b48:	bd30      	pop	{r4, r5, pc}
 8004b4a:	bf00      	nop
 8004b4c:	e000ed00 	.word	0xe000ed00
 8004b50:	e000ed14 	.word	0xe000ed14

08004b54 <HAL_NVIC_EnableIRQ>:
 8004b54:	2800      	cmp	r0, #0
 8004b56:	db08      	blt.n	8004b6a <HAL_NVIC_EnableIRQ+0x16>
 8004b58:	0942      	lsrs	r2, r0, #5
 8004b5a:	2301      	movs	r3, #1
 8004b5c:	f000 001f 	and.w	r0, r0, #31
 8004b60:	fa03 f000 	lsl.w	r0, r3, r0
 8004b64:	4b01      	ldr	r3, [pc, #4]	; (8004b6c <HAL_NVIC_EnableIRQ+0x18>)
 8004b66:	f843 0022 	str.w	r0, [r3, r2, lsl #2]
 8004b6a:	4770      	bx	lr
 8004b6c:	e000e100 	.word	0xe000e100

08004b70 <HAL_SYSTICK_Config>:
 8004b70:	3801      	subs	r0, #1
 8004b72:	f1b0 7f80 	cmp.w	r0, #16777216	; 0x1000000
 8004b76:	d20a      	bcs.n	8004b8e <HAL_SYSTICK_Config+0x1e>
 8004b78:	4b06      	ldr	r3, [pc, #24]	; (8004b94 <HAL_SYSTICK_Config+0x24>)
 8004b7a:	4a07      	ldr	r2, [pc, #28]	; (8004b98 <HAL_SYSTICK_Config+0x28>)
 8004b7c:	6058      	str	r0, [r3, #4]
 8004b7e:	21f0      	movs	r1, #240	; 0xf0
 8004b80:	f882 1023 	strb.w	r1, [r2, #35]	; 0x23
 8004b84:	2000      	movs	r0, #0
 8004b86:	2207      	movs	r2, #7
 8004b88:	6098      	str	r0, [r3, #8]
 8004b8a:	601a      	str	r2, [r3, #0]
 8004b8c:	4770      	bx	lr
 8004b8e:	2001      	movs	r0, #1
 8004b90:	4770      	bx	lr
 8004b92:	bf00      	nop
 8004b94:	e000e010 	.word	0xe000e010
 8004b98:	e000ed00 	.word	0xe000ed00

08004b9c <DMA_CalcBaseAndBitshift>:
 8004b9c:	6803      	ldr	r3, [r0, #0]
 8004b9e:	b510      	push	{r4, lr}
 8004ba0:	4c08      	ldr	r4, [pc, #32]	; (8004bc4 <DMA_CalcBaseAndBitshift+0x28>)
 8004ba2:	4602      	mov	r2, r0
 8004ba4:	b2d9      	uxtb	r1, r3
 8004ba6:	3910      	subs	r1, #16
 8004ba8:	2018      	movs	r0, #24
 8004baa:	fbb1 f0f0 	udiv	r0, r1, r0
 8004bae:	5c20      	ldrb	r0, [r4, r0]
 8004bb0:	65d0      	str	r0, [r2, #92]	; 0x5c
 8004bb2:	f423 707f 	bic.w	r0, r3, #1020	; 0x3fc
 8004bb6:	f020 0003 	bic.w	r0, r0, #3
 8004bba:	295f      	cmp	r1, #95	; 0x5f
 8004bbc:	bf88      	it	hi
 8004bbe:	3004      	addhi	r0, #4
 8004bc0:	6590      	str	r0, [r2, #88]	; 0x58
 8004bc2:	bd10      	pop	{r4, pc}
 8004bc4:	0800e1ed 	.word	0x0800e1ed

08004bc8 <HAL_DMA_Init>:
 8004bc8:	b570      	push	{r4, r5, r6, lr}
 8004bca:	4604      	mov	r4, r0
 8004bcc:	f7ff fca2 	bl	8004514 <HAL_GetTick>
 8004bd0:	4605      	mov	r5, r0
 8004bd2:	2c00      	cmp	r4, #0
 8004bd4:	d073      	beq.n	8004cbe <HAL_DMA_Init+0xf6>
 8004bd6:	2300      	movs	r3, #0
 8004bd8:	f884 3034 	strb.w	r3, [r4, #52]	; 0x34
 8004bdc:	6822      	ldr	r2, [r4, #0]
 8004bde:	2302      	movs	r3, #2
 8004be0:	f884 3035 	strb.w	r3, [r4, #53]	; 0x35
 8004be4:	6813      	ldr	r3, [r2, #0]
 8004be6:	f023 0301 	bic.w	r3, r3, #1
 8004bea:	6013      	str	r3, [r2, #0]
 8004bec:	6821      	ldr	r1, [r4, #0]
 8004bee:	680b      	ldr	r3, [r1, #0]
 8004bf0:	07d8      	lsls	r0, r3, #31
 8004bf2:	d42f      	bmi.n	8004c54 <HAL_DMA_Init+0x8c>
 8004bf4:	680b      	ldr	r3, [r1, #0]
 8004bf6:	4d33      	ldr	r5, [pc, #204]	; (8004cc4 <HAL_DMA_Init+0xfc>)
 8004bf8:	69a0      	ldr	r0, [r4, #24]
 8004bfa:	401d      	ands	r5, r3
 8004bfc:	e9d4 2301 	ldrd	r2, r3, [r4, #4]
 8004c00:	4313      	orrs	r3, r2
 8004c02:	68e2      	ldr	r2, [r4, #12]
 8004c04:	4313      	orrs	r3, r2
 8004c06:	6922      	ldr	r2, [r4, #16]
 8004c08:	4313      	orrs	r3, r2
 8004c0a:	6962      	ldr	r2, [r4, #20]
 8004c0c:	4313      	orrs	r3, r2
 8004c0e:	69e2      	ldr	r2, [r4, #28]
 8004c10:	4303      	orrs	r3, r0
 8004c12:	4313      	orrs	r3, r2
 8004c14:	6a22      	ldr	r2, [r4, #32]
 8004c16:	4313      	orrs	r3, r2
 8004c18:	6a62      	ldr	r2, [r4, #36]	; 0x24
 8004c1a:	2a04      	cmp	r2, #4
 8004c1c:	ea43 0305 	orr.w	r3, r3, r5
 8004c20:	bf02      	ittt	eq
 8004c22:	e9d4 560b 	ldrdeq	r5, r6, [r4, #44]	; 0x2c
 8004c26:	4335      	orreq	r5, r6
 8004c28:	432b      	orreq	r3, r5
 8004c2a:	600b      	str	r3, [r1, #0]
 8004c2c:	694b      	ldr	r3, [r1, #20]
 8004c2e:	2a04      	cmp	r2, #4
 8004c30:	f023 0307 	bic.w	r3, r3, #7
 8004c34:	ea43 0302 	orr.w	r3, r3, r2
 8004c38:	d133      	bne.n	8004ca2 <HAL_DMA_Init+0xda>
 8004c3a:	6aa2      	ldr	r2, [r4, #40]	; 0x28
 8004c3c:	6ae5      	ldr	r5, [r4, #44]	; 0x2c
 8004c3e:	4313      	orrs	r3, r2
 8004c40:	b37d      	cbz	r5, 8004ca2 <HAL_DMA_Init+0xda>
 8004c42:	b990      	cbnz	r0, 8004c6a <HAL_DMA_Init+0xa2>
 8004c44:	2a01      	cmp	r2, #1
 8004c46:	d021      	beq.n	8004c8c <HAL_DMA_Init+0xc4>
 8004c48:	f032 0202 	bics.w	r2, r2, #2
 8004c4c:	d129      	bne.n	8004ca2 <HAL_DMA_Init+0xda>
 8004c4e:	01ea      	lsls	r2, r5, #7
 8004c50:	d527      	bpl.n	8004ca2 <HAL_DMA_Init+0xda>
 8004c52:	e01e      	b.n	8004c92 <HAL_DMA_Init+0xca>
 8004c54:	f7ff fc5e 	bl	8004514 <HAL_GetTick>
 8004c58:	1b40      	subs	r0, r0, r5
 8004c5a:	2805      	cmp	r0, #5
 8004c5c:	d9c6      	bls.n	8004bec <HAL_DMA_Init+0x24>
 8004c5e:	2320      	movs	r3, #32
 8004c60:	6563      	str	r3, [r4, #84]	; 0x54
 8004c62:	2003      	movs	r0, #3
 8004c64:	f884 0035 	strb.w	r0, [r4, #53]	; 0x35
 8004c68:	bd70      	pop	{r4, r5, r6, pc}
 8004c6a:	f5b0 5f00 	cmp.w	r0, #8192	; 0x2000
 8004c6e:	d114      	bne.n	8004c9a <HAL_DMA_Init+0xd2>
 8004c70:	2a03      	cmp	r2, #3
 8004c72:	d816      	bhi.n	8004ca2 <HAL_DMA_Init+0xda>
 8004c74:	a001      	add	r0, pc, #4	; (adr r0, 8004c7c <HAL_DMA_Init+0xb4>)
 8004c76:	f850 f022 	ldr.w	pc, [r0, r2, lsl #2]
 8004c7a:	bf00      	nop
 8004c7c:	08004c93 	.word	0x08004c93
 8004c80:	08004c4f 	.word	0x08004c4f
 8004c84:	08004c93 	.word	0x08004c93
 8004c88:	08004c8d 	.word	0x08004c8d
 8004c8c:	f1b5 7fc0 	cmp.w	r5, #25165824	; 0x1800000
 8004c90:	d107      	bne.n	8004ca2 <HAL_DMA_Init+0xda>
 8004c92:	2340      	movs	r3, #64	; 0x40
 8004c94:	6563      	str	r3, [r4, #84]	; 0x54
 8004c96:	2001      	movs	r0, #1
 8004c98:	e7e4      	b.n	8004c64 <HAL_DMA_Init+0x9c>
 8004c9a:	2a02      	cmp	r2, #2
 8004c9c:	d9f9      	bls.n	8004c92 <HAL_DMA_Init+0xca>
 8004c9e:	2a03      	cmp	r2, #3
 8004ca0:	d0d5      	beq.n	8004c4e <HAL_DMA_Init+0x86>
 8004ca2:	614b      	str	r3, [r1, #20]
 8004ca4:	4620      	mov	r0, r4
 8004ca6:	f7ff ff79 	bl	8004b9c <DMA_CalcBaseAndBitshift>
 8004caa:	6de2      	ldr	r2, [r4, #92]	; 0x5c
 8004cac:	233f      	movs	r3, #63	; 0x3f
 8004cae:	4093      	lsls	r3, r2
 8004cb0:	6083      	str	r3, [r0, #8]
 8004cb2:	2000      	movs	r0, #0
 8004cb4:	2301      	movs	r3, #1
 8004cb6:	6560      	str	r0, [r4, #84]	; 0x54
 8004cb8:	f884 3035 	strb.w	r3, [r4, #53]	; 0x35
 8004cbc:	e7d4      	b.n	8004c68 <HAL_DMA_Init+0xa0>
 8004cbe:	2001      	movs	r0, #1
 8004cc0:	e7d2      	b.n	8004c68 <HAL_DMA_Init+0xa0>
 8004cc2:	bf00      	nop
 8004cc4:	f010803f 	.word	0xf010803f

08004cc8 <HAL_DMA_Start_IT>:
 8004cc8:	b570      	push	{r4, r5, r6, lr}
 8004cca:	f890 4034 	ldrb.w	r4, [r0, #52]	; 0x34
 8004cce:	6d86      	ldr	r6, [r0, #88]	; 0x58
 8004cd0:	2c01      	cmp	r4, #1
 8004cd2:	d031      	beq.n	8004d38 <HAL_DMA_Start_IT+0x70>
 8004cd4:	2401      	movs	r4, #1
 8004cd6:	f880 4034 	strb.w	r4, [r0, #52]	; 0x34
 8004cda:	f890 4035 	ldrb.w	r4, [r0, #53]	; 0x35
 8004cde:	2c01      	cmp	r4, #1
 8004ce0:	f04f 0500 	mov.w	r5, #0
 8004ce4:	f04f 0402 	mov.w	r4, #2
 8004ce8:	d124      	bne.n	8004d34 <HAL_DMA_Start_IT+0x6c>
 8004cea:	f880 4035 	strb.w	r4, [r0, #53]	; 0x35
 8004cee:	6804      	ldr	r4, [r0, #0]
 8004cf0:	6545      	str	r5, [r0, #84]	; 0x54
 8004cf2:	6825      	ldr	r5, [r4, #0]
 8004cf4:	f425 2580 	bic.w	r5, r5, #262144	; 0x40000
 8004cf8:	6025      	str	r5, [r4, #0]
 8004cfa:	6063      	str	r3, [r4, #4]
 8004cfc:	6883      	ldr	r3, [r0, #8]
 8004cfe:	2b40      	cmp	r3, #64	; 0x40
 8004d00:	bf0e      	itee	eq
 8004d02:	60a2      	streq	r2, [r4, #8]
 8004d04:	60a1      	strne	r1, [r4, #8]
 8004d06:	60e2      	strne	r2, [r4, #12]
 8004d08:	6dc2      	ldr	r2, [r0, #92]	; 0x5c
 8004d0a:	bf08      	it	eq
 8004d0c:	60e1      	streq	r1, [r4, #12]
 8004d0e:	233f      	movs	r3, #63	; 0x3f
 8004d10:	4093      	lsls	r3, r2
 8004d12:	60b3      	str	r3, [r6, #8]
 8004d14:	6823      	ldr	r3, [r4, #0]
 8004d16:	f043 0316 	orr.w	r3, r3, #22
 8004d1a:	6023      	str	r3, [r4, #0]
 8004d1c:	6c03      	ldr	r3, [r0, #64]	; 0x40
 8004d1e:	b11b      	cbz	r3, 8004d28 <HAL_DMA_Start_IT+0x60>
 8004d20:	6823      	ldr	r3, [r4, #0]
 8004d22:	f043 0308 	orr.w	r3, r3, #8
 8004d26:	6023      	str	r3, [r4, #0]
 8004d28:	6823      	ldr	r3, [r4, #0]
 8004d2a:	f043 0301 	orr.w	r3, r3, #1
 8004d2e:	6023      	str	r3, [r4, #0]
 8004d30:	2000      	movs	r0, #0
 8004d32:	bd70      	pop	{r4, r5, r6, pc}
 8004d34:	f880 5034 	strb.w	r5, [r0, #52]	; 0x34
 8004d38:	2002      	movs	r0, #2
 8004d3a:	e7fa      	b.n	8004d32 <HAL_DMA_Start_IT+0x6a>

08004d3c <HAL_DMA_Abort>:
 8004d3c:	b570      	push	{r4, r5, r6, lr}
 8004d3e:	4604      	mov	r4, r0
 8004d40:	6d86      	ldr	r6, [r0, #88]	; 0x58
 8004d42:	f7ff fbe7 	bl	8004514 <HAL_GetTick>
 8004d46:	f894 3035 	ldrb.w	r3, [r4, #53]	; 0x35
 8004d4a:	2b02      	cmp	r3, #2
 8004d4c:	4605      	mov	r5, r0
 8004d4e:	d006      	beq.n	8004d5e <HAL_DMA_Abort+0x22>
 8004d50:	2380      	movs	r3, #128	; 0x80
 8004d52:	6563      	str	r3, [r4, #84]	; 0x54
 8004d54:	2300      	movs	r3, #0
 8004d56:	f884 3034 	strb.w	r3, [r4, #52]	; 0x34
 8004d5a:	2001      	movs	r0, #1
 8004d5c:	bd70      	pop	{r4, r5, r6, pc}
 8004d5e:	6823      	ldr	r3, [r4, #0]
 8004d60:	681a      	ldr	r2, [r3, #0]
 8004d62:	f022 0216 	bic.w	r2, r2, #22
 8004d66:	601a      	str	r2, [r3, #0]
 8004d68:	695a      	ldr	r2, [r3, #20]
 8004d6a:	f022 0280 	bic.w	r2, r2, #128	; 0x80
 8004d6e:	615a      	str	r2, [r3, #20]
 8004d70:	6c22      	ldr	r2, [r4, #64]	; 0x40
 8004d72:	b90a      	cbnz	r2, 8004d78 <HAL_DMA_Abort+0x3c>
 8004d74:	6ca2      	ldr	r2, [r4, #72]	; 0x48
 8004d76:	b11a      	cbz	r2, 8004d80 <HAL_DMA_Abort+0x44>
 8004d78:	681a      	ldr	r2, [r3, #0]
 8004d7a:	f022 0208 	bic.w	r2, r2, #8
 8004d7e:	601a      	str	r2, [r3, #0]
 8004d80:	681a      	ldr	r2, [r3, #0]
 8004d82:	f022 0201 	bic.w	r2, r2, #1
 8004d86:	601a      	str	r2, [r3, #0]
 8004d88:	6823      	ldr	r3, [r4, #0]
 8004d8a:	681b      	ldr	r3, [r3, #0]
 8004d8c:	f013 0301 	ands.w	r3, r3, #1
 8004d90:	d10a      	bne.n	8004da8 <HAL_DMA_Abort+0x6c>
 8004d92:	6de1      	ldr	r1, [r4, #92]	; 0x5c
 8004d94:	223f      	movs	r2, #63	; 0x3f
 8004d96:	408a      	lsls	r2, r1
 8004d98:	60b2      	str	r2, [r6, #8]
 8004d9a:	2201      	movs	r2, #1
 8004d9c:	f884 3034 	strb.w	r3, [r4, #52]	; 0x34
 8004da0:	f884 2035 	strb.w	r2, [r4, #53]	; 0x35
 8004da4:	4618      	mov	r0, r3
 8004da6:	e7d9      	b.n	8004d5c <HAL_DMA_Abort+0x20>
 8004da8:	f7ff fbb4 	bl	8004514 <HAL_GetTick>
 8004dac:	1b40      	subs	r0, r0, r5
 8004dae:	2805      	cmp	r0, #5
 8004db0:	d9ea      	bls.n	8004d88 <HAL_DMA_Abort+0x4c>
 8004db2:	2320      	movs	r3, #32
 8004db4:	6563      	str	r3, [r4, #84]	; 0x54
 8004db6:	2003      	movs	r0, #3
 8004db8:	2300      	movs	r3, #0
 8004dba:	f884 3034 	strb.w	r3, [r4, #52]	; 0x34
 8004dbe:	f884 0035 	strb.w	r0, [r4, #53]	; 0x35
 8004dc2:	e7cb      	b.n	8004d5c <HAL_DMA_Abort+0x20>

08004dc4 <HAL_DMA_Abort_IT>:
 8004dc4:	f890 3035 	ldrb.w	r3, [r0, #53]	; 0x35
 8004dc8:	2b02      	cmp	r3, #2
 8004dca:	d003      	beq.n	8004dd4 <HAL_DMA_Abort_IT+0x10>
 8004dcc:	2380      	movs	r3, #128	; 0x80
 8004dce:	6543      	str	r3, [r0, #84]	; 0x54
 8004dd0:	2001      	movs	r0, #1
 8004dd2:	4770      	bx	lr
 8004dd4:	6802      	ldr	r2, [r0, #0]
 8004dd6:	2305      	movs	r3, #5
 8004dd8:	f880 3035 	strb.w	r3, [r0, #53]	; 0x35
 8004ddc:	6813      	ldr	r3, [r2, #0]
 8004dde:	f023 0301 	bic.w	r3, r3, #1
 8004de2:	6013      	str	r3, [r2, #0]
 8004de4:	2000      	movs	r0, #0
 8004de6:	4770      	bx	lr

08004de8 <HAL_DMA_IRQHandler>:
 8004de8:	b5f7      	push	{r0, r1, r2, r4, r5, r6, r7, lr}
 8004dea:	2300      	movs	r3, #0
 8004dec:	9301      	str	r3, [sp, #4]
 8004dee:	4b5c      	ldr	r3, [pc, #368]	; (8004f60 <HAL_DMA_IRQHandler+0x178>)
 8004df0:	6d85      	ldr	r5, [r0, #88]	; 0x58
 8004df2:	681f      	ldr	r7, [r3, #0]
 8004df4:	6dc3      	ldr	r3, [r0, #92]	; 0x5c
 8004df6:	682e      	ldr	r6, [r5, #0]
 8004df8:	2208      	movs	r2, #8
 8004dfa:	409a      	lsls	r2, r3
 8004dfc:	4232      	tst	r2, r6
 8004dfe:	4604      	mov	r4, r0
 8004e00:	d00c      	beq.n	8004e1c <HAL_DMA_IRQHandler+0x34>
 8004e02:	6801      	ldr	r1, [r0, #0]
 8004e04:	6808      	ldr	r0, [r1, #0]
 8004e06:	0740      	lsls	r0, r0, #29
 8004e08:	d508      	bpl.n	8004e1c <HAL_DMA_IRQHandler+0x34>
 8004e0a:	6808      	ldr	r0, [r1, #0]
 8004e0c:	f020 0004 	bic.w	r0, r0, #4
 8004e10:	6008      	str	r0, [r1, #0]
 8004e12:	60aa      	str	r2, [r5, #8]
 8004e14:	6d62      	ldr	r2, [r4, #84]	; 0x54
 8004e16:	f042 0201 	orr.w	r2, r2, #1
 8004e1a:	6562      	str	r2, [r4, #84]	; 0x54
 8004e1c:	2201      	movs	r2, #1
 8004e1e:	409a      	lsls	r2, r3
 8004e20:	4232      	tst	r2, r6
 8004e22:	d008      	beq.n	8004e36 <HAL_DMA_IRQHandler+0x4e>
 8004e24:	6821      	ldr	r1, [r4, #0]
 8004e26:	6949      	ldr	r1, [r1, #20]
 8004e28:	0609      	lsls	r1, r1, #24
 8004e2a:	bf41      	itttt	mi
 8004e2c:	60aa      	strmi	r2, [r5, #8]
 8004e2e:	6d62      	ldrmi	r2, [r4, #84]	; 0x54
 8004e30:	f042 0202 	orrmi.w	r2, r2, #2
 8004e34:	6562      	strmi	r2, [r4, #84]	; 0x54
 8004e36:	2204      	movs	r2, #4
 8004e38:	409a      	lsls	r2, r3
 8004e3a:	4232      	tst	r2, r6
 8004e3c:	d008      	beq.n	8004e50 <HAL_DMA_IRQHandler+0x68>
 8004e3e:	6821      	ldr	r1, [r4, #0]
 8004e40:	6809      	ldr	r1, [r1, #0]
 8004e42:	0788      	lsls	r0, r1, #30
 8004e44:	bf41      	itttt	mi
 8004e46:	60aa      	strmi	r2, [r5, #8]
 8004e48:	6d62      	ldrmi	r2, [r4, #84]	; 0x54
 8004e4a:	f042 0204 	orrmi.w	r2, r2, #4
 8004e4e:	6562      	strmi	r2, [r4, #84]	; 0x54
 8004e50:	2210      	movs	r2, #16
 8004e52:	409a      	lsls	r2, r3
 8004e54:	4232      	tst	r2, r6
 8004e56:	d010      	beq.n	8004e7a <HAL_DMA_IRQHandler+0x92>
 8004e58:	6823      	ldr	r3, [r4, #0]
 8004e5a:	6819      	ldr	r1, [r3, #0]
 8004e5c:	0709      	lsls	r1, r1, #28
 8004e5e:	d50c      	bpl.n	8004e7a <HAL_DMA_IRQHandler+0x92>
 8004e60:	60aa      	str	r2, [r5, #8]
 8004e62:	681a      	ldr	r2, [r3, #0]
 8004e64:	0350      	lsls	r0, r2, #13
 8004e66:	d537      	bpl.n	8004ed8 <HAL_DMA_IRQHandler+0xf0>
 8004e68:	681b      	ldr	r3, [r3, #0]
 8004e6a:	0319      	lsls	r1, r3, #12
 8004e6c:	d401      	bmi.n	8004e72 <HAL_DMA_IRQHandler+0x8a>
 8004e6e:	6c23      	ldr	r3, [r4, #64]	; 0x40
 8004e70:	e000      	b.n	8004e74 <HAL_DMA_IRQHandler+0x8c>
 8004e72:	6ca3      	ldr	r3, [r4, #72]	; 0x48
 8004e74:	b10b      	cbz	r3, 8004e7a <HAL_DMA_IRQHandler+0x92>
 8004e76:	4620      	mov	r0, r4
 8004e78:	4798      	blx	r3
 8004e7a:	6de1      	ldr	r1, [r4, #92]	; 0x5c
 8004e7c:	2220      	movs	r2, #32
 8004e7e:	408a      	lsls	r2, r1
 8004e80:	4232      	tst	r2, r6
 8004e82:	d03a      	beq.n	8004efa <HAL_DMA_IRQHandler+0x112>
 8004e84:	6823      	ldr	r3, [r4, #0]
 8004e86:	6818      	ldr	r0, [r3, #0]
 8004e88:	06c6      	lsls	r6, r0, #27
 8004e8a:	d536      	bpl.n	8004efa <HAL_DMA_IRQHandler+0x112>
 8004e8c:	60aa      	str	r2, [r5, #8]
 8004e8e:	f894 2035 	ldrb.w	r2, [r4, #53]	; 0x35
 8004e92:	2a05      	cmp	r2, #5
 8004e94:	681a      	ldr	r2, [r3, #0]
 8004e96:	d127      	bne.n	8004ee8 <HAL_DMA_IRQHandler+0x100>
 8004e98:	f022 0216 	bic.w	r2, r2, #22
 8004e9c:	601a      	str	r2, [r3, #0]
 8004e9e:	695a      	ldr	r2, [r3, #20]
 8004ea0:	f022 0280 	bic.w	r2, r2, #128	; 0x80
 8004ea4:	615a      	str	r2, [r3, #20]
 8004ea6:	6c22      	ldr	r2, [r4, #64]	; 0x40
 8004ea8:	b90a      	cbnz	r2, 8004eae <HAL_DMA_IRQHandler+0xc6>
 8004eaa:	6ca2      	ldr	r2, [r4, #72]	; 0x48
 8004eac:	b11a      	cbz	r2, 8004eb6 <HAL_DMA_IRQHandler+0xce>
 8004eae:	681a      	ldr	r2, [r3, #0]
 8004eb0:	f022 0208 	bic.w	r2, r2, #8
 8004eb4:	601a      	str	r2, [r3, #0]
 8004eb6:	233f      	movs	r3, #63	; 0x3f
 8004eb8:	408b      	lsls	r3, r1
 8004eba:	60ab      	str	r3, [r5, #8]
 8004ebc:	2300      	movs	r3, #0
 8004ebe:	f884 3034 	strb.w	r3, [r4, #52]	; 0x34
 8004ec2:	2301      	movs	r3, #1
 8004ec4:	f884 3035 	strb.w	r3, [r4, #53]	; 0x35
 8004ec8:	6d23      	ldr	r3, [r4, #80]	; 0x50
 8004eca:	2b00      	cmp	r3, #0
 8004ecc:	d045      	beq.n	8004f5a <HAL_DMA_IRQHandler+0x172>
 8004ece:	4620      	mov	r0, r4
 8004ed0:	b003      	add	sp, #12
 8004ed2:	e8bd 40f0 	ldmia.w	sp!, {r4, r5, r6, r7, lr}
 8004ed6:	4718      	bx	r3
 8004ed8:	681a      	ldr	r2, [r3, #0]
 8004eda:	05d2      	lsls	r2, r2, #23
 8004edc:	bf5e      	ittt	pl
 8004ede:	681a      	ldrpl	r2, [r3, #0]
 8004ee0:	f022 0208 	bicpl.w	r2, r2, #8
 8004ee4:	601a      	strpl	r2, [r3, #0]
 8004ee6:	e7c2      	b.n	8004e6e <HAL_DMA_IRQHandler+0x86>
 8004ee8:	0350      	lsls	r0, r2, #13
 8004eea:	d527      	bpl.n	8004f3c <HAL_DMA_IRQHandler+0x154>
 8004eec:	681b      	ldr	r3, [r3, #0]
 8004eee:	0319      	lsls	r1, r3, #12
 8004ef0:	d431      	bmi.n	8004f56 <HAL_DMA_IRQHandler+0x16e>
 8004ef2:	6c63      	ldr	r3, [r4, #68]	; 0x44
 8004ef4:	b10b      	cbz	r3, 8004efa <HAL_DMA_IRQHandler+0x112>
 8004ef6:	4620      	mov	r0, r4
 8004ef8:	4798      	blx	r3
 8004efa:	6d63      	ldr	r3, [r4, #84]	; 0x54
 8004efc:	b36b      	cbz	r3, 8004f5a <HAL_DMA_IRQHandler+0x172>
 8004efe:	6d63      	ldr	r3, [r4, #84]	; 0x54
 8004f00:	07da      	lsls	r2, r3, #31
 8004f02:	d519      	bpl.n	8004f38 <HAL_DMA_IRQHandler+0x150>
 8004f04:	6822      	ldr	r2, [r4, #0]
 8004f06:	f44f 5316 	mov.w	r3, #9600	; 0x2580
 8004f0a:	fbb7 f7f3 	udiv	r7, r7, r3
 8004f0e:	2305      	movs	r3, #5
 8004f10:	f884 3035 	strb.w	r3, [r4, #53]	; 0x35
 8004f14:	6813      	ldr	r3, [r2, #0]
 8004f16:	f023 0301 	bic.w	r3, r3, #1
 8004f1a:	6013      	str	r3, [r2, #0]
 8004f1c:	9b01      	ldr	r3, [sp, #4]
 8004f1e:	3301      	adds	r3, #1
 8004f20:	42bb      	cmp	r3, r7
 8004f22:	9301      	str	r3, [sp, #4]
 8004f24:	d802      	bhi.n	8004f2c <HAL_DMA_IRQHandler+0x144>
 8004f26:	6813      	ldr	r3, [r2, #0]
 8004f28:	07db      	lsls	r3, r3, #31
 8004f2a:	d4f7      	bmi.n	8004f1c <HAL_DMA_IRQHandler+0x134>
 8004f2c:	2300      	movs	r3, #0
 8004f2e:	f884 3034 	strb.w	r3, [r4, #52]	; 0x34
 8004f32:	2301      	movs	r3, #1
 8004f34:	f884 3035 	strb.w	r3, [r4, #53]	; 0x35
 8004f38:	6ce3      	ldr	r3, [r4, #76]	; 0x4c
 8004f3a:	e7c6      	b.n	8004eca <HAL_DMA_IRQHandler+0xe2>
 8004f3c:	681a      	ldr	r2, [r3, #0]
 8004f3e:	f412 7280 	ands.w	r2, r2, #256	; 0x100
 8004f42:	d108      	bne.n	8004f56 <HAL_DMA_IRQHandler+0x16e>
 8004f44:	6819      	ldr	r1, [r3, #0]
 8004f46:	f021 0110 	bic.w	r1, r1, #16
 8004f4a:	6019      	str	r1, [r3, #0]
 8004f4c:	2301      	movs	r3, #1
 8004f4e:	f884 2034 	strb.w	r2, [r4, #52]	; 0x34
 8004f52:	f884 3035 	strb.w	r3, [r4, #53]	; 0x35
 8004f56:	6be3      	ldr	r3, [r4, #60]	; 0x3c
 8004f58:	e7cc      	b.n	8004ef4 <HAL_DMA_IRQHandler+0x10c>
 8004f5a:	b003      	add	sp, #12
 8004f5c:	bdf0      	pop	{r4, r5, r6, r7, pc}
 8004f5e:	bf00      	nop
 8004f60:	200001c0 	.word	0x200001c0

08004f64 <HAL_GPIO_Init>:
 8004f64:	e92d 4ff7 	stmdb	sp!, {r0, r1, r2, r4, r5, r6, r7, r8, r9, sl, fp, lr}
 8004f68:	f8df 91a8 	ldr.w	r9, [pc, #424]	; 8005114 <HAL_GPIO_Init+0x1b0>
 8004f6c:	4a67      	ldr	r2, [pc, #412]	; (800510c <HAL_GPIO_Init+0x1a8>)
 8004f6e:	2300      	movs	r3, #0
 8004f70:	680d      	ldr	r5, [r1, #0]
 8004f72:	2401      	movs	r4, #1
 8004f74:	409c      	lsls	r4, r3
 8004f76:	ea04 0c05 	and.w	ip, r4, r5
 8004f7a:	43ac      	bics	r4, r5
 8004f7c:	f040 80b0 	bne.w	80050e0 <HAL_GPIO_Init+0x17c>
 8004f80:	684d      	ldr	r5, [r1, #4]
 8004f82:	f005 0403 	and.w	r4, r5, #3
 8004f86:	ea4f 0843 	mov.w	r8, r3, lsl #1
 8004f8a:	2603      	movs	r6, #3
 8004f8c:	1e67      	subs	r7, r4, #1
 8004f8e:	fa06 f608 	lsl.w	r6, r6, r8
 8004f92:	2f01      	cmp	r7, #1
 8004f94:	ea6f 0606 	mvn.w	r6, r6
 8004f98:	d834      	bhi.n	8005004 <HAL_GPIO_Init+0xa0>
 8004f9a:	6887      	ldr	r7, [r0, #8]
 8004f9c:	ea07 0e06 	and.w	lr, r7, r6
 8004fa0:	68cf      	ldr	r7, [r1, #12]
 8004fa2:	fa07 f708 	lsl.w	r7, r7, r8
 8004fa6:	ea47 070e 	orr.w	r7, r7, lr
 8004faa:	6087      	str	r7, [r0, #8]
 8004fac:	6847      	ldr	r7, [r0, #4]
 8004fae:	ea27 0e0c 	bic.w	lr, r7, ip
 8004fb2:	f3c5 1700 	ubfx	r7, r5, #4, #1
 8004fb6:	409f      	lsls	r7, r3
 8004fb8:	ea47 070e 	orr.w	r7, r7, lr
 8004fbc:	6047      	str	r7, [r0, #4]
 8004fbe:	68c7      	ldr	r7, [r0, #12]
 8004fc0:	ea07 0e06 	and.w	lr, r7, r6
 8004fc4:	688f      	ldr	r7, [r1, #8]
 8004fc6:	fa07 f708 	lsl.w	r7, r7, r8
 8004fca:	ea47 070e 	orr.w	r7, r7, lr
 8004fce:	2c02      	cmp	r4, #2
 8004fd0:	60c7      	str	r7, [r0, #12]
 8004fd2:	d119      	bne.n	8005008 <HAL_GPIO_Init+0xa4>
 8004fd4:	ea4f 0ad3 	mov.w	sl, r3, lsr #3
 8004fd8:	eb00 0a8a 	add.w	sl, r0, sl, lsl #2
 8004fdc:	f003 0b07 	and.w	fp, r3, #7
 8004fe0:	f8da 7020 	ldr.w	r7, [sl, #32]
 8004fe4:	ea4f 0b8b 	mov.w	fp, fp, lsl #2
 8004fe8:	f04f 0e0f 	mov.w	lr, #15
 8004fec:	fa0e fe0b 	lsl.w	lr, lr, fp
 8004ff0:	ea27 0e0e 	bic.w	lr, r7, lr
 8004ff4:	690f      	ldr	r7, [r1, #16]
 8004ff6:	fa07 f70b 	lsl.w	r7, r7, fp
 8004ffa:	ea47 070e 	orr.w	r7, r7, lr
 8004ffe:	f8ca 7020 	str.w	r7, [sl, #32]
 8005002:	e001      	b.n	8005008 <HAL_GPIO_Init+0xa4>
 8005004:	2c03      	cmp	r4, #3
 8005006:	d1da      	bne.n	8004fbe <HAL_GPIO_Init+0x5a>
 8005008:	6807      	ldr	r7, [r0, #0]
 800500a:	fa04 f408 	lsl.w	r4, r4, r8
 800500e:	403e      	ands	r6, r7
 8005010:	4326      	orrs	r6, r4
 8005012:	00ec      	lsls	r4, r5, #3
 8005014:	6006      	str	r6, [r0, #0]
 8005016:	d563      	bpl.n	80050e0 <HAL_GPIO_Init+0x17c>
 8005018:	f04f 0a00 	mov.w	sl, #0
 800501c:	f8cd a004 	str.w	sl, [sp, #4]
 8005020:	f8d9 6044 	ldr.w	r6, [r9, #68]	; 0x44
 8005024:	4c3a      	ldr	r4, [pc, #232]	; (8005110 <HAL_GPIO_Init+0x1ac>)
 8005026:	f446 4680 	orr.w	r6, r6, #16384	; 0x4000
 800502a:	f8c9 6044 	str.w	r6, [r9, #68]	; 0x44
 800502e:	f8d9 6044 	ldr.w	r6, [r9, #68]	; 0x44
 8005032:	f406 4680 	and.w	r6, r6, #16384	; 0x4000
 8005036:	9601      	str	r6, [sp, #4]
 8005038:	9e01      	ldr	r6, [sp, #4]
 800503a:	f023 0603 	bic.w	r6, r3, #3
 800503e:	f106 4680 	add.w	r6, r6, #1073741824	; 0x40000000
 8005042:	f506 369c 	add.w	r6, r6, #79872	; 0x13800
 8005046:	f003 0e03 	and.w	lr, r3, #3
 800504a:	f8d6 8008 	ldr.w	r8, [r6, #8]
 800504e:	ea4f 0e8e 	mov.w	lr, lr, lsl #2
 8005052:	270f      	movs	r7, #15
 8005054:	fa07 f70e 	lsl.w	r7, r7, lr
 8005058:	42a0      	cmp	r0, r4
 800505a:	ea28 0707 	bic.w	r7, r8, r7
 800505e:	d046      	beq.n	80050ee <HAL_GPIO_Init+0x18a>
 8005060:	f504 6480 	add.w	r4, r4, #1024	; 0x400
 8005064:	42a0      	cmp	r0, r4
 8005066:	d044      	beq.n	80050f2 <HAL_GPIO_Init+0x18e>
 8005068:	f504 6480 	add.w	r4, r4, #1024	; 0x400
 800506c:	42a0      	cmp	r0, r4
 800506e:	d042      	beq.n	80050f6 <HAL_GPIO_Init+0x192>
 8005070:	f504 6480 	add.w	r4, r4, #1024	; 0x400
 8005074:	42a0      	cmp	r0, r4
 8005076:	d040      	beq.n	80050fa <HAL_GPIO_Init+0x196>
 8005078:	f504 6480 	add.w	r4, r4, #1024	; 0x400
 800507c:	42a0      	cmp	r0, r4
 800507e:	d03e      	beq.n	80050fe <HAL_GPIO_Init+0x19a>
 8005080:	f504 6480 	add.w	r4, r4, #1024	; 0x400
 8005084:	42a0      	cmp	r0, r4
 8005086:	d03c      	beq.n	8005102 <HAL_GPIO_Init+0x19e>
 8005088:	f504 6480 	add.w	r4, r4, #1024	; 0x400
 800508c:	42a0      	cmp	r0, r4
 800508e:	d03a      	beq.n	8005106 <HAL_GPIO_Init+0x1a2>
 8005090:	f504 6480 	add.w	r4, r4, #1024	; 0x400
 8005094:	42a0      	cmp	r0, r4
 8005096:	bf0c      	ite	eq
 8005098:	2407      	moveq	r4, #7
 800509a:	2408      	movne	r4, #8
 800509c:	fa04 f40e 	lsl.w	r4, r4, lr
 80050a0:	433c      	orrs	r4, r7
 80050a2:	60b4      	str	r4, [r6, #8]
 80050a4:	6814      	ldr	r4, [r2, #0]
 80050a6:	ea6f 060c 	mvn.w	r6, ip
 80050aa:	03ef      	lsls	r7, r5, #15
 80050ac:	bf54      	ite	pl
 80050ae:	4034      	andpl	r4, r6
 80050b0:	ea4c 0404 	orrmi.w	r4, ip, r4
 80050b4:	6014      	str	r4, [r2, #0]
 80050b6:	6854      	ldr	r4, [r2, #4]
 80050b8:	03af      	lsls	r7, r5, #14
 80050ba:	bf54      	ite	pl
 80050bc:	4034      	andpl	r4, r6
 80050be:	ea4c 0404 	orrmi.w	r4, ip, r4
 80050c2:	6054      	str	r4, [r2, #4]
 80050c4:	6894      	ldr	r4, [r2, #8]
 80050c6:	02ef      	lsls	r7, r5, #11
 80050c8:	bf54      	ite	pl
 80050ca:	4034      	andpl	r4, r6
 80050cc:	ea4c 0404 	orrmi.w	r4, ip, r4
 80050d0:	6094      	str	r4, [r2, #8]
 80050d2:	68d4      	ldr	r4, [r2, #12]
 80050d4:	02ad      	lsls	r5, r5, #10
 80050d6:	bf54      	ite	pl
 80050d8:	4034      	andpl	r4, r6
 80050da:	ea4c 0404 	orrmi.w	r4, ip, r4
 80050de:	60d4      	str	r4, [r2, #12]
 80050e0:	3301      	adds	r3, #1
 80050e2:	2b10      	cmp	r3, #16
 80050e4:	f47f af44 	bne.w	8004f70 <HAL_GPIO_Init+0xc>
 80050e8:	b003      	add	sp, #12
 80050ea:	e8bd 8ff0 	ldmia.w	sp!, {r4, r5, r6, r7, r8, r9, sl, fp, pc}
 80050ee:	4654      	mov	r4, sl
 80050f0:	e7d4      	b.n	800509c <HAL_GPIO_Init+0x138>
 80050f2:	2401      	movs	r4, #1
 80050f4:	e7d2      	b.n	800509c <HAL_GPIO_Init+0x138>
 80050f6:	2402      	movs	r4, #2
 80050f8:	e7d0      	b.n	800509c <HAL_GPIO_Init+0x138>
 80050fa:	2403      	movs	r4, #3
 80050fc:	e7ce      	b.n	800509c <HAL_GPIO_Init+0x138>
 80050fe:	2404      	movs	r4, #4
 8005100:	e7cc      	b.n	800509c <HAL_GPIO_Init+0x138>
 8005102:	2405      	movs	r4, #5
 8005104:	e7ca      	b.n	800509c <HAL_GPIO_Init+0x138>
 8005106:	2406      	movs	r4, #6
 8005108:	e7c8      	b.n	800509c <HAL_GPIO_Init+0x138>
 800510a:	bf00      	nop
 800510c:	40013c00 	.word	0x40013c00
 8005110:	40020000 	.word	0x40020000
 8005114:	40023800 	.word	0x40023800

08005118 <HAL_GPIO_DeInit>:
 8005118:	e92d 4ff0 	stmdb	sp!, {r4, r5, r6, r7, r8, r9, sl, fp, lr}
 800511c:	4c44      	ldr	r4, [pc, #272]	; (8005230 <HAL_GPIO_DeInit+0x118>)
 800511e:	f8df 9118 	ldr.w	r9, [pc, #280]	; 8005238 <HAL_GPIO_DeInit+0x120>
 8005122:	f8df a118 	ldr.w	sl, [pc, #280]	; 800523c <HAL_GPIO_DeInit+0x124>
 8005126:	f8df b118 	ldr.w	fp, [pc, #280]	; 8005240 <HAL_GPIO_DeInit+0x128>
 800512a:	2200      	movs	r2, #0
 800512c:	2301      	movs	r3, #1
 800512e:	fa03 fe02 	lsl.w	lr, r3, r2
 8005132:	ea3e 0301 	bics.w	r3, lr, r1
 8005136:	ea0e 0701 	and.w	r7, lr, r1
 800513a:	d166      	bne.n	800520a <HAL_GPIO_DeInit+0xf2>
 800513c:	f022 0503 	bic.w	r5, r2, #3
 8005140:	f105 4580 	add.w	r5, r5, #1073741824	; 0x40000000
 8005144:	f505 359c 	add.w	r5, r5, #79872	; 0x13800
 8005148:	4b3a      	ldr	r3, [pc, #232]	; (8005234 <HAL_GPIO_DeInit+0x11c>)
 800514a:	f8d5 8008 	ldr.w	r8, [r5, #8]
 800514e:	f002 0c03 	and.w	ip, r2, #3
 8005152:	ea4f 0c8c 	mov.w	ip, ip, lsl #2
 8005156:	260f      	movs	r6, #15
 8005158:	fa06 f60c 	lsl.w	r6, r6, ip
 800515c:	4298      	cmp	r0, r3
 800515e:	ea06 0808 	and.w	r8, r6, r8
 8005162:	d057      	beq.n	8005214 <HAL_GPIO_DeInit+0xfc>
 8005164:	f503 6380 	add.w	r3, r3, #1024	; 0x400
 8005168:	4298      	cmp	r0, r3
 800516a:	d055      	beq.n	8005218 <HAL_GPIO_DeInit+0x100>
 800516c:	f503 6380 	add.w	r3, r3, #1024	; 0x400
 8005170:	4298      	cmp	r0, r3
 8005172:	d053      	beq.n	800521c <HAL_GPIO_DeInit+0x104>
 8005174:	f503 6380 	add.w	r3, r3, #1024	; 0x400
 8005178:	4298      	cmp	r0, r3
 800517a:	d051      	beq.n	8005220 <HAL_GPIO_DeInit+0x108>
 800517c:	f503 6380 	add.w	r3, r3, #1024	; 0x400
 8005180:	4298      	cmp	r0, r3
 8005182:	d04f      	beq.n	8005224 <HAL_GPIO_DeInit+0x10c>
 8005184:	4548      	cmp	r0, r9
 8005186:	d04f      	beq.n	8005228 <HAL_GPIO_DeInit+0x110>
 8005188:	4550      	cmp	r0, sl
 800518a:	d04f      	beq.n	800522c <HAL_GPIO_DeInit+0x114>
 800518c:	4558      	cmp	r0, fp
 800518e:	bf0c      	ite	eq
 8005190:	2307      	moveq	r3, #7
 8005192:	2308      	movne	r3, #8
 8005194:	fa03 f30c 	lsl.w	r3, r3, ip
 8005198:	4543      	cmp	r3, r8
 800519a:	d113      	bne.n	80051c4 <HAL_GPIO_DeInit+0xac>
 800519c:	6823      	ldr	r3, [r4, #0]
 800519e:	ea23 0307 	bic.w	r3, r3, r7
 80051a2:	6023      	str	r3, [r4, #0]
 80051a4:	6863      	ldr	r3, [r4, #4]
 80051a6:	ea23 0307 	bic.w	r3, r3, r7
 80051aa:	6063      	str	r3, [r4, #4]
 80051ac:	68a3      	ldr	r3, [r4, #8]
 80051ae:	ea23 0307 	bic.w	r3, r3, r7
 80051b2:	60a3      	str	r3, [r4, #8]
 80051b4:	68e3      	ldr	r3, [r4, #12]
 80051b6:	ea23 0707 	bic.w	r7, r3, r7
 80051ba:	60e7      	str	r7, [r4, #12]
 80051bc:	68ab      	ldr	r3, [r5, #8]
 80051be:	ea23 0606 	bic.w	r6, r3, r6
 80051c2:	60ae      	str	r6, [r5, #8]
 80051c4:	6805      	ldr	r5, [r0, #0]
 80051c6:	2603      	movs	r6, #3
 80051c8:	0053      	lsls	r3, r2, #1
 80051ca:	fa06 f303 	lsl.w	r3, r6, r3
 80051ce:	ea25 0503 	bic.w	r5, r5, r3
 80051d2:	6005      	str	r5, [r0, #0]
 80051d4:	fa22 f506 	lsr.w	r5, r2, r6
 80051d8:	eb00 0585 	add.w	r5, r0, r5, lsl #2
 80051dc:	f002 0c07 	and.w	ip, r2, #7
 80051e0:	6a2e      	ldr	r6, [r5, #32]
 80051e2:	ea4f 0c8c 	mov.w	ip, ip, lsl #2
 80051e6:	270f      	movs	r7, #15
 80051e8:	fa07 f70c 	lsl.w	r7, r7, ip
 80051ec:	ea26 0707 	bic.w	r7, r6, r7
 80051f0:	622f      	str	r7, [r5, #32]
 80051f2:	68c5      	ldr	r5, [r0, #12]
 80051f4:	ea25 0503 	bic.w	r5, r5, r3
 80051f8:	60c5      	str	r5, [r0, #12]
 80051fa:	6845      	ldr	r5, [r0, #4]
 80051fc:	ea25 050e 	bic.w	r5, r5, lr
 8005200:	6045      	str	r5, [r0, #4]
 8005202:	6885      	ldr	r5, [r0, #8]
 8005204:	ea25 0303 	bic.w	r3, r5, r3
 8005208:	6083      	str	r3, [r0, #8]
 800520a:	3201      	adds	r2, #1
 800520c:	2a10      	cmp	r2, #16
 800520e:	d18d      	bne.n	800512c <HAL_GPIO_DeInit+0x14>
 8005210:	e8bd 8ff0 	ldmia.w	sp!, {r4, r5, r6, r7, r8, r9, sl, fp, pc}
 8005214:	2300      	movs	r3, #0
 8005216:	e7bd      	b.n	8005194 <HAL_GPIO_DeInit+0x7c>
 8005218:	2301      	movs	r3, #1
 800521a:	e7bb      	b.n	8005194 <HAL_GPIO_DeInit+0x7c>
 800521c:	2302      	movs	r3, #2
 800521e:	e7b9      	b.n	8005194 <HAL_GPIO_DeInit+0x7c>
 8005220:	2303      	movs	r3, #3
 8005222:	e7b7      	b.n	8005194 <HAL_GPIO_DeInit+0x7c>
 8005224:	2304      	movs	r3, #4
 8005226:	e7b5      	b.n	8005194 <HAL_GPIO_DeInit+0x7c>
 8005228:	2305      	movs	r3, #5
 800522a:	e7b3      	b.n	8005194 <HAL_GPIO_DeInit+0x7c>
 800522c:	2306      	movs	r3, #6
 800522e:	e7b1      	b.n	8005194 <HAL_GPIO_DeInit+0x7c>
 8005230:	40013c00 	.word	0x40013c00
 8005234:	40020000 	.word	0x40020000
 8005238:	40021400 	.word	0x40021400
 800523c:	40021800 	.word	0x40021800
 8005240:	40021c00 	.word	0x40021c00

08005244 <HAL_GPIO_ReadPin>:
 8005244:	6903      	ldr	r3, [r0, #16]
 8005246:	4219      	tst	r1, r3
 8005248:	bf14      	ite	ne
 800524a:	2001      	movne	r0, #1
 800524c:	2000      	moveq	r0, #0
 800524e:	4770      	bx	lr

08005250 <HAL_GPIO_WritePin>:
 8005250:	b10a      	cbz	r2, 8005256 <HAL_GPIO_WritePin+0x6>
 8005252:	6181      	str	r1, [r0, #24]
 8005254:	4770      	bx	lr
 8005256:	0409      	lsls	r1, r1, #16
 8005258:	e7fb      	b.n	8005252 <HAL_GPIO_WritePin+0x2>

0800525a <I2C_IsAcknowledgeFailed>:
 800525a:	6801      	ldr	r1, [r0, #0]
 800525c:	694b      	ldr	r3, [r1, #20]
 800525e:	f413 6380 	ands.w	r3, r3, #1024	; 0x400
 8005262:	f04f 0200 	mov.w	r2, #0
 8005266:	d010      	beq.n	800528a <I2C_IsAcknowledgeFailed+0x30>
 8005268:	f46f 6380 	mvn.w	r3, #1024	; 0x400
 800526c:	614b      	str	r3, [r1, #20]
 800526e:	2320      	movs	r3, #32
 8005270:	6302      	str	r2, [r0, #48]	; 0x30
 8005272:	f880 303d 	strb.w	r3, [r0, #61]	; 0x3d
 8005276:	f880 203e 	strb.w	r2, [r0, #62]	; 0x3e
 800527a:	6c03      	ldr	r3, [r0, #64]	; 0x40
 800527c:	f880 203c 	strb.w	r2, [r0, #60]	; 0x3c
 8005280:	f043 0304 	orr.w	r3, r3, #4
 8005284:	6403      	str	r3, [r0, #64]	; 0x40
 8005286:	2001      	movs	r0, #1
 8005288:	4770      	bx	lr
 800528a:	4618      	mov	r0, r3
 800528c:	4770      	bx	lr

0800528e <I2C_WaitOnMasterAddressFlagUntilTimeout>:
 800528e:	e92d 41f0 	stmdb	sp!, {r4, r5, r6, r7, r8, lr}
 8005292:	4604      	mov	r4, r0
 8005294:	460f      	mov	r7, r1
 8005296:	4616      	mov	r6, r2
 8005298:	4698      	mov	r8, r3
 800529a:	6825      	ldr	r5, [r4, #0]
 800529c:	6968      	ldr	r0, [r5, #20]
 800529e:	ea27 0000 	bic.w	r0, r7, r0
 80052a2:	b280      	uxth	r0, r0
 80052a4:	b1b8      	cbz	r0, 80052d6 <I2C_WaitOnMasterAddressFlagUntilTimeout+0x48>
 80052a6:	696b      	ldr	r3, [r5, #20]
 80052a8:	055a      	lsls	r2, r3, #21
 80052aa:	d516      	bpl.n	80052da <I2C_WaitOnMasterAddressFlagUntilTimeout+0x4c>
 80052ac:	682b      	ldr	r3, [r5, #0]
 80052ae:	f443 7300 	orr.w	r3, r3, #512	; 0x200
 80052b2:	602b      	str	r3, [r5, #0]
 80052b4:	f46f 6380 	mvn.w	r3, #1024	; 0x400
 80052b8:	616b      	str	r3, [r5, #20]
 80052ba:	2220      	movs	r2, #32
 80052bc:	2300      	movs	r3, #0
 80052be:	6323      	str	r3, [r4, #48]	; 0x30
 80052c0:	f884 203d 	strb.w	r2, [r4, #61]	; 0x3d
 80052c4:	f884 303e 	strb.w	r3, [r4, #62]	; 0x3e
 80052c8:	6c22      	ldr	r2, [r4, #64]	; 0x40
 80052ca:	f042 0204 	orr.w	r2, r2, #4
 80052ce:	6422      	str	r2, [r4, #64]	; 0x40
 80052d0:	f884 303c 	strb.w	r3, [r4, #60]	; 0x3c
 80052d4:	2001      	movs	r0, #1
 80052d6:	e8bd 81f0 	ldmia.w	sp!, {r4, r5, r6, r7, r8, pc}
 80052da:	1c73      	adds	r3, r6, #1
 80052dc:	d0de      	beq.n	800529c <I2C_WaitOnMasterAddressFlagUntilTimeout+0xe>
 80052de:	f7ff f919 	bl	8004514 <HAL_GetTick>
 80052e2:	eba0 0008 	sub.w	r0, r0, r8
 80052e6:	42b0      	cmp	r0, r6
 80052e8:	d801      	bhi.n	80052ee <I2C_WaitOnMasterAddressFlagUntilTimeout+0x60>
 80052ea:	2e00      	cmp	r6, #0
 80052ec:	d1d5      	bne.n	800529a <I2C_WaitOnMasterAddressFlagUntilTimeout+0xc>
 80052ee:	2300      	movs	r3, #0
 80052f0:	2220      	movs	r2, #32
 80052f2:	6323      	str	r3, [r4, #48]	; 0x30
 80052f4:	f884 203d 	strb.w	r2, [r4, #61]	; 0x3d
 80052f8:	f884 303e 	strb.w	r3, [r4, #62]	; 0x3e
 80052fc:	6c22      	ldr	r2, [r4, #64]	; 0x40
 80052fe:	f042 0220 	orr.w	r2, r2, #32
 8005302:	e7e4      	b.n	80052ce <I2C_WaitOnMasterAddressFlagUntilTimeout+0x40>

08005304 <I2C_WaitOnBTFFlagUntilTimeout>:
 8005304:	b570      	push	{r4, r5, r6, lr}
 8005306:	4604      	mov	r4, r0
 8005308:	460d      	mov	r5, r1
 800530a:	4616      	mov	r6, r2
 800530c:	6823      	ldr	r3, [r4, #0]
 800530e:	695b      	ldr	r3, [r3, #20]
 8005310:	075b      	lsls	r3, r3, #29
 8005312:	d501      	bpl.n	8005318 <I2C_WaitOnBTFFlagUntilTimeout+0x14>
 8005314:	2000      	movs	r0, #0
 8005316:	bd70      	pop	{r4, r5, r6, pc}
 8005318:	4620      	mov	r0, r4
 800531a:	f7ff ff9e 	bl	800525a <I2C_IsAcknowledgeFailed>
 800531e:	b9a8      	cbnz	r0, 800534c <I2C_WaitOnBTFFlagUntilTimeout+0x48>
 8005320:	1c6a      	adds	r2, r5, #1
 8005322:	d0f3      	beq.n	800530c <I2C_WaitOnBTFFlagUntilTimeout+0x8>
 8005324:	f7ff f8f6 	bl	8004514 <HAL_GetTick>
 8005328:	1b80      	subs	r0, r0, r6
 800532a:	42a8      	cmp	r0, r5
 800532c:	d801      	bhi.n	8005332 <I2C_WaitOnBTFFlagUntilTimeout+0x2e>
 800532e:	2d00      	cmp	r5, #0
 8005330:	d1ec      	bne.n	800530c <I2C_WaitOnBTFFlagUntilTimeout+0x8>
 8005332:	2300      	movs	r3, #0
 8005334:	2220      	movs	r2, #32
 8005336:	6323      	str	r3, [r4, #48]	; 0x30
 8005338:	f884 203d 	strb.w	r2, [r4, #61]	; 0x3d
 800533c:	f884 303e 	strb.w	r3, [r4, #62]	; 0x3e
 8005340:	6c22      	ldr	r2, [r4, #64]	; 0x40
 8005342:	f884 303c 	strb.w	r3, [r4, #60]	; 0x3c
 8005346:	f042 0220 	orr.w	r2, r2, #32
 800534a:	6422      	str	r2, [r4, #64]	; 0x40
 800534c:	2001      	movs	r0, #1
 800534e:	e7e2      	b.n	8005316 <I2C_WaitOnBTFFlagUntilTimeout+0x12>

08005350 <I2C_WaitOnRXNEFlagUntilTimeout>:
 8005350:	b570      	push	{r4, r5, r6, lr}
 8005352:	4604      	mov	r4, r0
 8005354:	460d      	mov	r5, r1
 8005356:	4616      	mov	r6, r2
 8005358:	6821      	ldr	r1, [r4, #0]
 800535a:	694b      	ldr	r3, [r1, #20]
 800535c:	f013 0340 	ands.w	r3, r3, #64	; 0x40
 8005360:	d001      	beq.n	8005366 <I2C_WaitOnRXNEFlagUntilTimeout+0x16>
 8005362:	2000      	movs	r0, #0
 8005364:	e010      	b.n	8005388 <I2C_WaitOnRXNEFlagUntilTimeout+0x38>
 8005366:	694a      	ldr	r2, [r1, #20]
 8005368:	06d2      	lsls	r2, r2, #27
 800536a:	d50e      	bpl.n	800538a <I2C_WaitOnRXNEFlagUntilTimeout+0x3a>
 800536c:	f06f 0210 	mvn.w	r2, #16
 8005370:	614a      	str	r2, [r1, #20]
 8005372:	2220      	movs	r2, #32
 8005374:	6323      	str	r3, [r4, #48]	; 0x30
 8005376:	f884 203d 	strb.w	r2, [r4, #61]	; 0x3d
 800537a:	f884 303e 	strb.w	r3, [r4, #62]	; 0x3e
 800537e:	6c22      	ldr	r2, [r4, #64]	; 0x40
 8005380:	6422      	str	r2, [r4, #64]	; 0x40
 8005382:	f884 303c 	strb.w	r3, [r4, #60]	; 0x3c
 8005386:	2001      	movs	r0, #1
 8005388:	bd70      	pop	{r4, r5, r6, pc}
 800538a:	f7ff f8c3 	bl	8004514 <HAL_GetTick>
 800538e:	1b80      	subs	r0, r0, r6
 8005390:	42a8      	cmp	r0, r5
 8005392:	d801      	bhi.n	8005398 <I2C_WaitOnRXNEFlagUntilTimeout+0x48>
 8005394:	2d00      	cmp	r5, #0
 8005396:	d1df      	bne.n	8005358 <I2C_WaitOnRXNEFlagUntilTimeout+0x8>
 8005398:	2300      	movs	r3, #0
 800539a:	2220      	movs	r2, #32
 800539c:	6323      	str	r3, [r4, #48]	; 0x30
 800539e:	f884 203d 	strb.w	r2, [r4, #61]	; 0x3d
 80053a2:	f884 303e 	strb.w	r3, [r4, #62]	; 0x3e
 80053a6:	6c22      	ldr	r2, [r4, #64]	; 0x40
 80053a8:	f042 0220 	orr.w	r2, r2, #32
 80053ac:	e7e8      	b.n	8005380 <I2C_WaitOnRXNEFlagUntilTimeout+0x30>

080053ae <I2C_WaitOnFlagUntilTimeout>:
 80053ae:	e92d 46f8 	stmdb	sp!, {r3, r4, r5, r6, r7, r9, sl, lr}
 80053b2:	4606      	mov	r6, r0
 80053b4:	460f      	mov	r7, r1
 80053b6:	4691      	mov	r9, r2
 80053b8:	461d      	mov	r5, r3
 80053ba:	ea4f 4a11 	mov.w	sl, r1, lsr #16
 80053be:	6833      	ldr	r3, [r6, #0]
 80053c0:	f1ba 0f01 	cmp.w	sl, #1
 80053c4:	bf0c      	ite	eq
 80053c6:	695c      	ldreq	r4, [r3, #20]
 80053c8:	699c      	ldrne	r4, [r3, #24]
 80053ca:	ea27 0404 	bic.w	r4, r7, r4
 80053ce:	b2a4      	uxth	r4, r4
 80053d0:	fab4 f484 	clz	r4, r4
 80053d4:	0964      	lsrs	r4, r4, #5
 80053d6:	45a1      	cmp	r9, r4
 80053d8:	d001      	beq.n	80053de <I2C_WaitOnFlagUntilTimeout+0x30>
 80053da:	2000      	movs	r0, #0
 80053dc:	e017      	b.n	800540e <I2C_WaitOnFlagUntilTimeout+0x60>
 80053de:	1c6a      	adds	r2, r5, #1
 80053e0:	d0ee      	beq.n	80053c0 <I2C_WaitOnFlagUntilTimeout+0x12>
 80053e2:	f7ff f897 	bl	8004514 <HAL_GetTick>
 80053e6:	9b08      	ldr	r3, [sp, #32]
 80053e8:	1ac0      	subs	r0, r0, r3
 80053ea:	42a8      	cmp	r0, r5
 80053ec:	d801      	bhi.n	80053f2 <I2C_WaitOnFlagUntilTimeout+0x44>
 80053ee:	2d00      	cmp	r5, #0
 80053f0:	d1e5      	bne.n	80053be <I2C_WaitOnFlagUntilTimeout+0x10>
 80053f2:	2300      	movs	r3, #0
 80053f4:	2220      	movs	r2, #32
 80053f6:	6333      	str	r3, [r6, #48]	; 0x30
 80053f8:	f886 203d 	strb.w	r2, [r6, #61]	; 0x3d
 80053fc:	f886 303e 	strb.w	r3, [r6, #62]	; 0x3e
 8005400:	6c32      	ldr	r2, [r6, #64]	; 0x40
 8005402:	f886 303c 	strb.w	r3, [r6, #60]	; 0x3c
 8005406:	f042 0220 	orr.w	r2, r2, #32
 800540a:	6432      	str	r2, [r6, #64]	; 0x40
 800540c:	2001      	movs	r0, #1
 800540e:	e8bd 86f8 	ldmia.w	sp!, {r3, r4, r5, r6, r7, r9, sl, pc}

08005412 <I2C_WaitOnTXEFlagUntilTimeout>:
 8005412:	b570      	push	{r4, r5, r6, lr}
 8005414:	4604      	mov	r4, r0
 8005416:	460d      	mov	r5, r1
 8005418:	4616      	mov	r6, r2
 800541a:	6823      	ldr	r3, [r4, #0]
 800541c:	695b      	ldr	r3, [r3, #20]
 800541e:	061b      	lsls	r3, r3, #24
 8005420:	d501      	bpl.n	8005426 <I2C_WaitOnTXEFlagUntilTimeout+0x14>
 8005422:	2000      	movs	r0, #0
 8005424:	bd70      	pop	{r4, r5, r6, pc}
 8005426:	4620      	mov	r0, r4
 8005428:	f7ff ff17 	bl	800525a <I2C_IsAcknowledgeFailed>
 800542c:	b9a8      	cbnz	r0, 800545a <I2C_WaitOnTXEFlagUntilTimeout+0x48>
 800542e:	1c6a      	adds	r2, r5, #1
 8005430:	d0f3      	beq.n	800541a <I2C_WaitOnTXEFlagUntilTimeout+0x8>
 8005432:	f7ff f86f 	bl	8004514 <HAL_GetTick>
 8005436:	1b80      	subs	r0, r0, r6
 8005438:	42a8      	cmp	r0, r5
 800543a:	d801      	bhi.n	8005440 <I2C_WaitOnTXEFlagUntilTimeout+0x2e>
 800543c:	2d00      	cmp	r5, #0
 800543e:	d1ec      	bne.n	800541a <I2C_WaitOnTXEFlagUntilTimeout+0x8>
 8005440:	2300      	movs	r3, #0
 8005442:	2220      	movs	r2, #32
 8005444:	6323      	str	r3, [r4, #48]	; 0x30
 8005446:	f884 203d 	strb.w	r2, [r4, #61]	; 0x3d
 800544a:	f884 303e 	strb.w	r3, [r4, #62]	; 0x3e
 800544e:	6c22      	ldr	r2, [r4, #64]	; 0x40
 8005450:	f884 303c 	strb.w	r3, [r4, #60]	; 0x3c
 8005454:	f042 0220 	orr.w	r2, r2, #32
 8005458:	6422      	str	r2, [r4, #64]	; 0x40
 800545a:	2001      	movs	r0, #1
 800545c:	e7e2      	b.n	8005424 <I2C_WaitOnTXEFlagUntilTimeout+0x12>
	...

08005460 <I2C_RequestMemoryWrite>:
 8005460:	e92d 43f0 	stmdb	sp!, {r4, r5, r6, r7, r8, r9, lr}
 8005464:	4615      	mov	r5, r2
 8005466:	6802      	ldr	r2, [r0, #0]
 8005468:	b085      	sub	sp, #20
 800546a:	e9dd 780c 	ldrd	r7, r8, [sp, #48]	; 0x30
 800546e:	4699      	mov	r9, r3
 8005470:	6813      	ldr	r3, [r2, #0]
 8005472:	f443 7380 	orr.w	r3, r3, #256	; 0x100
 8005476:	6013      	str	r3, [r2, #0]
 8005478:	460e      	mov	r6, r1
 800547a:	463b      	mov	r3, r7
 800547c:	f8cd 8000 	str.w	r8, [sp]
 8005480:	2200      	movs	r2, #0
 8005482:	f04f 1101 	mov.w	r1, #65537	; 0x10001
 8005486:	4604      	mov	r4, r0
 8005488:	f7ff ff91 	bl	80053ae <I2C_WaitOnFlagUntilTimeout>
 800548c:	6823      	ldr	r3, [r4, #0]
 800548e:	b138      	cbz	r0, 80054a0 <I2C_RequestMemoryWrite+0x40>
 8005490:	681b      	ldr	r3, [r3, #0]
 8005492:	05db      	lsls	r3, r3, #23
 8005494:	d502      	bpl.n	800549c <I2C_RequestMemoryWrite+0x3c>
 8005496:	f44f 7300 	mov.w	r3, #512	; 0x200
 800549a:	6423      	str	r3, [r4, #64]	; 0x40
 800549c:	2003      	movs	r0, #3
 800549e:	e00a      	b.n	80054b6 <I2C_RequestMemoryWrite+0x56>
 80054a0:	f006 06fe 	and.w	r6, r6, #254	; 0xfe
 80054a4:	611e      	str	r6, [r3, #16]
 80054a6:	4919      	ldr	r1, [pc, #100]	; (800550c <I2C_RequestMemoryWrite+0xac>)
 80054a8:	4643      	mov	r3, r8
 80054aa:	463a      	mov	r2, r7
 80054ac:	4620      	mov	r0, r4
 80054ae:	f7ff feee 	bl	800528e <I2C_WaitOnMasterAddressFlagUntilTimeout>
 80054b2:	b118      	cbz	r0, 80054bc <I2C_RequestMemoryWrite+0x5c>
 80054b4:	2001      	movs	r0, #1
 80054b6:	b005      	add	sp, #20
 80054b8:	e8bd 83f0 	ldmia.w	sp!, {r4, r5, r6, r7, r8, r9, pc}
 80054bc:	6823      	ldr	r3, [r4, #0]
 80054be:	9003      	str	r0, [sp, #12]
 80054c0:	695a      	ldr	r2, [r3, #20]
 80054c2:	9203      	str	r2, [sp, #12]
 80054c4:	699b      	ldr	r3, [r3, #24]
 80054c6:	9303      	str	r3, [sp, #12]
 80054c8:	4642      	mov	r2, r8
 80054ca:	4639      	mov	r1, r7
 80054cc:	4620      	mov	r0, r4
 80054ce:	9b03      	ldr	r3, [sp, #12]
 80054d0:	f7ff ff9f 	bl	8005412 <I2C_WaitOnTXEFlagUntilTimeout>
 80054d4:	b140      	cbz	r0, 80054e8 <I2C_RequestMemoryWrite+0x88>
 80054d6:	6c23      	ldr	r3, [r4, #64]	; 0x40
 80054d8:	2b04      	cmp	r3, #4
 80054da:	bf01      	itttt	eq
 80054dc:	6822      	ldreq	r2, [r4, #0]
 80054de:	6813      	ldreq	r3, [r2, #0]
 80054e0:	f443 7300 	orreq.w	r3, r3, #512	; 0x200
 80054e4:	6013      	streq	r3, [r2, #0]
 80054e6:	e7e5      	b.n	80054b4 <I2C_RequestMemoryWrite+0x54>
 80054e8:	f1b9 0f01 	cmp.w	r9, #1
 80054ec:	6823      	ldr	r3, [r4, #0]
 80054ee:	d102      	bne.n	80054f6 <I2C_RequestMemoryWrite+0x96>
 80054f0:	b2ed      	uxtb	r5, r5
 80054f2:	611d      	str	r5, [r3, #16]
 80054f4:	e7df      	b.n	80054b6 <I2C_RequestMemoryWrite+0x56>
 80054f6:	0a2a      	lsrs	r2, r5, #8
 80054f8:	611a      	str	r2, [r3, #16]
 80054fa:	4639      	mov	r1, r7
 80054fc:	4642      	mov	r2, r8
 80054fe:	4620      	mov	r0, r4
 8005500:	f7ff ff87 	bl	8005412 <I2C_WaitOnTXEFlagUntilTimeout>
 8005504:	2800      	cmp	r0, #0
 8005506:	d1e6      	bne.n	80054d6 <I2C_RequestMemoryWrite+0x76>
 8005508:	6823      	ldr	r3, [r4, #0]
 800550a:	e7f1      	b.n	80054f0 <I2C_RequestMemoryWrite+0x90>
 800550c:	00010002 	.word	0x00010002

08005510 <I2C_RequestMemoryRead>:
 8005510:	e92d 47ff 	stmdb	sp!, {r0, r1, r2, r3, r4, r5, r6, r7, r8, r9, sl, lr}
 8005514:	469a      	mov	sl, r3
 8005516:	6803      	ldr	r3, [r0, #0]
 8005518:	4615      	mov	r5, r2
 800551a:	681a      	ldr	r2, [r3, #0]
 800551c:	f442 6280 	orr.w	r2, r2, #1024	; 0x400
 8005520:	601a      	str	r2, [r3, #0]
 8005522:	681a      	ldr	r2, [r3, #0]
 8005524:	e9dd 780c 	ldrd	r7, r8, [sp, #48]	; 0x30
 8005528:	f442 7280 	orr.w	r2, r2, #256	; 0x100
 800552c:	601a      	str	r2, [r3, #0]
 800552e:	460e      	mov	r6, r1
 8005530:	463b      	mov	r3, r7
 8005532:	f8cd 8000 	str.w	r8, [sp]
 8005536:	2200      	movs	r2, #0
 8005538:	f04f 1101 	mov.w	r1, #65537	; 0x10001
 800553c:	4604      	mov	r4, r0
 800553e:	f7ff ff36 	bl	80053ae <I2C_WaitOnFlagUntilTimeout>
 8005542:	6823      	ldr	r3, [r4, #0]
 8005544:	b148      	cbz	r0, 800555a <I2C_RequestMemoryRead+0x4a>
 8005546:	681b      	ldr	r3, [r3, #0]
 8005548:	05db      	lsls	r3, r3, #23
 800554a:	d502      	bpl.n	8005552 <I2C_RequestMemoryRead+0x42>
 800554c:	f44f 7300 	mov.w	r3, #512	; 0x200
 8005550:	6423      	str	r3, [r4, #64]	; 0x40
 8005552:	2003      	movs	r0, #3
 8005554:	b004      	add	sp, #16
 8005556:	e8bd 87f0 	ldmia.w	sp!, {r4, r5, r6, r7, r8, r9, sl, pc}
 800555a:	fa5f f986 	uxtb.w	r9, r6
 800555e:	f006 06fe 	and.w	r6, r6, #254	; 0xfe
 8005562:	611e      	str	r6, [r3, #16]
 8005564:	492a      	ldr	r1, [pc, #168]	; (8005610 <I2C_RequestMemoryRead+0x100>)
 8005566:	4643      	mov	r3, r8
 8005568:	463a      	mov	r2, r7
 800556a:	4620      	mov	r0, r4
 800556c:	f7ff fe8f 	bl	800528e <I2C_WaitOnMasterAddressFlagUntilTimeout>
 8005570:	b108      	cbz	r0, 8005576 <I2C_RequestMemoryRead+0x66>
 8005572:	2001      	movs	r0, #1
 8005574:	e7ee      	b.n	8005554 <I2C_RequestMemoryRead+0x44>
 8005576:	6823      	ldr	r3, [r4, #0]
 8005578:	9003      	str	r0, [sp, #12]
 800557a:	695a      	ldr	r2, [r3, #20]
 800557c:	9203      	str	r2, [sp, #12]
 800557e:	699b      	ldr	r3, [r3, #24]
 8005580:	9303      	str	r3, [sp, #12]
 8005582:	4642      	mov	r2, r8
 8005584:	4639      	mov	r1, r7
 8005586:	4620      	mov	r0, r4
 8005588:	9b03      	ldr	r3, [sp, #12]
 800558a:	f7ff ff42 	bl	8005412 <I2C_WaitOnTXEFlagUntilTimeout>
 800558e:	b140      	cbz	r0, 80055a2 <I2C_RequestMemoryRead+0x92>
 8005590:	6c23      	ldr	r3, [r4, #64]	; 0x40
 8005592:	2b04      	cmp	r3, #4
 8005594:	bf01      	itttt	eq
 8005596:	6822      	ldreq	r2, [r4, #0]
 8005598:	6813      	ldreq	r3, [r2, #0]
 800559a:	f443 7300 	orreq.w	r3, r3, #512	; 0x200
 800559e:	6013      	streq	r3, [r2, #0]
 80055a0:	e7e7      	b.n	8005572 <I2C_RequestMemoryRead+0x62>
 80055a2:	f1ba 0f01 	cmp.w	sl, #1
 80055a6:	6823      	ldr	r3, [r4, #0]
 80055a8:	d11a      	bne.n	80055e0 <I2C_RequestMemoryRead+0xd0>
 80055aa:	b2ed      	uxtb	r5, r5
 80055ac:	611d      	str	r5, [r3, #16]
 80055ae:	4642      	mov	r2, r8
 80055b0:	4639      	mov	r1, r7
 80055b2:	4620      	mov	r0, r4
 80055b4:	f7ff ff2d 	bl	8005412 <I2C_WaitOnTXEFlagUntilTimeout>
 80055b8:	2800      	cmp	r0, #0
 80055ba:	d1e9      	bne.n	8005590 <I2C_RequestMemoryRead+0x80>
 80055bc:	6822      	ldr	r2, [r4, #0]
 80055be:	6813      	ldr	r3, [r2, #0]
 80055c0:	f443 7380 	orr.w	r3, r3, #256	; 0x100
 80055c4:	6013      	str	r3, [r2, #0]
 80055c6:	f04f 1101 	mov.w	r1, #65537	; 0x10001
 80055ca:	4602      	mov	r2, r0
 80055cc:	f8cd 8000 	str.w	r8, [sp]
 80055d0:	463b      	mov	r3, r7
 80055d2:	4620      	mov	r0, r4
 80055d4:	f7ff feeb 	bl	80053ae <I2C_WaitOnFlagUntilTimeout>
 80055d8:	6822      	ldr	r2, [r4, #0]
 80055da:	b160      	cbz	r0, 80055f6 <I2C_RequestMemoryRead+0xe6>
 80055dc:	6813      	ldr	r3, [r2, #0]
 80055de:	e7b3      	b.n	8005548 <I2C_RequestMemoryRead+0x38>
 80055e0:	0a2a      	lsrs	r2, r5, #8
 80055e2:	611a      	str	r2, [r3, #16]
 80055e4:	4639      	mov	r1, r7
 80055e6:	4642      	mov	r2, r8
 80055e8:	4620      	mov	r0, r4
 80055ea:	f7ff ff12 	bl	8005412 <I2C_WaitOnTXEFlagUntilTimeout>
 80055ee:	2800      	cmp	r0, #0
 80055f0:	d1ce      	bne.n	8005590 <I2C_RequestMemoryRead+0x80>
 80055f2:	6823      	ldr	r3, [r4, #0]
 80055f4:	e7d9      	b.n	80055aa <I2C_RequestMemoryRead+0x9a>
 80055f6:	f049 0301 	orr.w	r3, r9, #1
 80055fa:	6113      	str	r3, [r2, #16]
 80055fc:	4904      	ldr	r1, [pc, #16]	; (8005610 <I2C_RequestMemoryRead+0x100>)
 80055fe:	4643      	mov	r3, r8
 8005600:	463a      	mov	r2, r7
 8005602:	4620      	mov	r0, r4
 8005604:	f7ff fe43 	bl	800528e <I2C_WaitOnMasterAddressFlagUntilTimeout>
 8005608:	3800      	subs	r0, #0
 800560a:	bf18      	it	ne
 800560c:	2001      	movne	r0, #1
 800560e:	e7a1      	b.n	8005554 <I2C_RequestMemoryRead+0x44>
 8005610:	00010002 	.word	0x00010002

08005614 <HAL_I2C_Init>:
 8005614:	b570      	push	{r4, r5, r6, lr}
 8005616:	4604      	mov	r4, r0
 8005618:	b908      	cbnz	r0, 800561e <HAL_I2C_Init+0xa>
 800561a:	2001      	movs	r0, #1
 800561c:	bd70      	pop	{r4, r5, r6, pc}
 800561e:	f890 303d 	ldrb.w	r3, [r0, #61]	; 0x3d
 8005622:	f003 02ff 	and.w	r2, r3, #255	; 0xff
 8005626:	b91b      	cbnz	r3, 8005630 <HAL_I2C_Init+0x1c>
 8005628:	f880 203c 	strb.w	r2, [r0, #60]	; 0x3c
 800562c:	f7fe fc1c 	bl	8003e68 <HAL_I2C_MspInit>
 8005630:	2324      	movs	r3, #36	; 0x24
 8005632:	f884 303d 	strb.w	r3, [r4, #61]	; 0x3d
 8005636:	6823      	ldr	r3, [r4, #0]
 8005638:	681a      	ldr	r2, [r3, #0]
 800563a:	f022 0201 	bic.w	r2, r2, #1
 800563e:	601a      	str	r2, [r3, #0]
 8005640:	681a      	ldr	r2, [r3, #0]
 8005642:	f442 4200 	orr.w	r2, r2, #32768	; 0x8000
 8005646:	601a      	str	r2, [r3, #0]
 8005648:	681a      	ldr	r2, [r3, #0]
 800564a:	f422 4200 	bic.w	r2, r2, #32768	; 0x8000
 800564e:	601a      	str	r2, [r3, #0]
 8005650:	f000 ff1e 	bl	8006490 <HAL_RCC_GetPCLK1Freq>
 8005654:	4a3f      	ldr	r2, [pc, #252]	; (8005754 <HAL_I2C_Init+0x140>)
 8005656:	6863      	ldr	r3, [r4, #4]
 8005658:	4293      	cmp	r3, r2
 800565a:	bf94      	ite	ls
 800565c:	4a3e      	ldrls	r2, [pc, #248]	; (8005758 <HAL_I2C_Init+0x144>)
 800565e:	4a3f      	ldrhi	r2, [pc, #252]	; (800575c <HAL_I2C_Init+0x148>)
 8005660:	4290      	cmp	r0, r2
 8005662:	bf8c      	ite	hi
 8005664:	2200      	movhi	r2, #0
 8005666:	2201      	movls	r2, #1
 8005668:	2a00      	cmp	r2, #0
 800566a:	d1d6      	bne.n	800561a <HAL_I2C_Init+0x6>
 800566c:	6821      	ldr	r1, [r4, #0]
 800566e:	4e3c      	ldr	r6, [pc, #240]	; (8005760 <HAL_I2C_Init+0x14c>)
 8005670:	684a      	ldr	r2, [r1, #4]
 8005672:	fbb0 f6f6 	udiv	r6, r0, r6
 8005676:	f022 023f 	bic.w	r2, r2, #63	; 0x3f
 800567a:	4332      	orrs	r2, r6
 800567c:	604a      	str	r2, [r1, #4]
 800567e:	4a35      	ldr	r2, [pc, #212]	; (8005754 <HAL_I2C_Init+0x140>)
 8005680:	6a0d      	ldr	r5, [r1, #32]
 8005682:	4293      	cmp	r3, r2
 8005684:	bf84      	itt	hi
 8005686:	f44f 7296 	movhi.w	r2, #300	; 0x12c
 800568a:	4372      	mulhi	r2, r6
 800568c:	f025 053f 	bic.w	r5, r5, #63	; 0x3f
 8005690:	bf91      	iteee	ls
 8005692:	1c72      	addls	r2, r6, #1
 8005694:	f44f 767a 	movhi.w	r6, #1000	; 0x3e8
 8005698:	fbb2 f2f6 	udivhi	r2, r2, r6
 800569c:	3201      	addhi	r2, #1
 800569e:	432a      	orrs	r2, r5
 80056a0:	620a      	str	r2, [r1, #32]
 80056a2:	69cd      	ldr	r5, [r1, #28]
 80056a4:	1e42      	subs	r2, r0, #1
 80056a6:	482b      	ldr	r0, [pc, #172]	; (8005754 <HAL_I2C_Init+0x140>)
 80056a8:	f425 454f 	bic.w	r5, r5, #52992	; 0xcf00
 80056ac:	4283      	cmp	r3, r0
 80056ae:	f025 05ff 	bic.w	r5, r5, #255	; 0xff
 80056b2:	d832      	bhi.n	800571a <HAL_I2C_Init+0x106>
 80056b4:	005b      	lsls	r3, r3, #1
 80056b6:	fbb2 f3f3 	udiv	r3, r2, r3
 80056ba:	f640 72fc 	movw	r2, #4092	; 0xffc
 80056be:	3301      	adds	r3, #1
 80056c0:	4213      	tst	r3, r2
 80056c2:	d042      	beq.n	800574a <HAL_I2C_Init+0x136>
 80056c4:	f3c3 030b 	ubfx	r3, r3, #0, #12
 80056c8:	432b      	orrs	r3, r5
 80056ca:	61cb      	str	r3, [r1, #28]
 80056cc:	e9d4 3007 	ldrd	r3, r0, [r4, #28]
 80056d0:	680a      	ldr	r2, [r1, #0]
 80056d2:	4303      	orrs	r3, r0
 80056d4:	f022 02c0 	bic.w	r2, r2, #192	; 0xc0
 80056d8:	4313      	orrs	r3, r2
 80056da:	600b      	str	r3, [r1, #0]
 80056dc:	688a      	ldr	r2, [r1, #8]
 80056de:	e9d4 0303 	ldrd	r0, r3, [r4, #12]
 80056e2:	f422 4203 	bic.w	r2, r2, #33536	; 0x8300
 80056e6:	4303      	orrs	r3, r0
 80056e8:	f022 02ff 	bic.w	r2, r2, #255	; 0xff
 80056ec:	4313      	orrs	r3, r2
 80056ee:	608b      	str	r3, [r1, #8]
 80056f0:	e9d4 3005 	ldrd	r3, r0, [r4, #20]
 80056f4:	68ca      	ldr	r2, [r1, #12]
 80056f6:	4303      	orrs	r3, r0
 80056f8:	f022 02ff 	bic.w	r2, r2, #255	; 0xff
 80056fc:	4313      	orrs	r3, r2
 80056fe:	60cb      	str	r3, [r1, #12]
 8005700:	680b      	ldr	r3, [r1, #0]
 8005702:	f043 0301 	orr.w	r3, r3, #1
 8005706:	600b      	str	r3, [r1, #0]
 8005708:	2000      	movs	r0, #0
 800570a:	2320      	movs	r3, #32
 800570c:	6420      	str	r0, [r4, #64]	; 0x40
 800570e:	f884 303d 	strb.w	r3, [r4, #61]	; 0x3d
 8005712:	6320      	str	r0, [r4, #48]	; 0x30
 8005714:	f884 003e 	strb.w	r0, [r4, #62]	; 0x3e
 8005718:	e780      	b.n	800561c <HAL_I2C_Init+0x8>
 800571a:	68a0      	ldr	r0, [r4, #8]
 800571c:	b950      	cbnz	r0, 8005734 <HAL_I2C_Init+0x120>
 800571e:	eb03 0343 	add.w	r3, r3, r3, lsl #1
 8005722:	fbb2 f3f3 	udiv	r3, r2, r3
 8005726:	3301      	adds	r3, #1
 8005728:	f3c3 030b 	ubfx	r3, r3, #0, #12
 800572c:	b17b      	cbz	r3, 800574e <HAL_I2C_Init+0x13a>
 800572e:	f443 4300 	orr.w	r3, r3, #32768	; 0x8000
 8005732:	e7c9      	b.n	80056c8 <HAL_I2C_Init+0xb4>
 8005734:	2019      	movs	r0, #25
 8005736:	4343      	muls	r3, r0
 8005738:	fbb2 f3f3 	udiv	r3, r2, r3
 800573c:	3301      	adds	r3, #1
 800573e:	f3c3 030b 	ubfx	r3, r3, #0, #12
 8005742:	b123      	cbz	r3, 800574e <HAL_I2C_Init+0x13a>
 8005744:	f443 4340 	orr.w	r3, r3, #49152	; 0xc000
 8005748:	e7be      	b.n	80056c8 <HAL_I2C_Init+0xb4>
 800574a:	2304      	movs	r3, #4
 800574c:	e7bc      	b.n	80056c8 <HAL_I2C_Init+0xb4>
 800574e:	2301      	movs	r3, #1
 8005750:	e7ba      	b.n	80056c8 <HAL_I2C_Init+0xb4>
 8005752:	bf00      	nop
 8005754:	000186a0 	.word	0x000186a0
 8005758:	001e847f 	.word	0x001e847f
 800575c:	003d08ff 	.word	0x003d08ff
 8005760:	000f4240 	.word	0x000f4240

08005764 <HAL_I2C_DeInit>:
 8005764:	b510      	push	{r4, lr}
 8005766:	4604      	mov	r4, r0
 8005768:	b198      	cbz	r0, 8005792 <HAL_I2C_DeInit+0x2e>
 800576a:	6802      	ldr	r2, [r0, #0]
 800576c:	2324      	movs	r3, #36	; 0x24
 800576e:	f880 303d 	strb.w	r3, [r0, #61]	; 0x3d
 8005772:	6813      	ldr	r3, [r2, #0]
 8005774:	f023 0301 	bic.w	r3, r3, #1
 8005778:	6013      	str	r3, [r2, #0]
 800577a:	f7fe fbdb 	bl	8003f34 <HAL_I2C_MspDeInit>
 800577e:	2000      	movs	r0, #0
 8005780:	6420      	str	r0, [r4, #64]	; 0x40
 8005782:	f884 003c 	strb.w	r0, [r4, #60]	; 0x3c
 8005786:	f884 003d 	strb.w	r0, [r4, #61]	; 0x3d
 800578a:	6320      	str	r0, [r4, #48]	; 0x30
 800578c:	f884 003e 	strb.w	r0, [r4, #62]	; 0x3e
 8005790:	bd10      	pop	{r4, pc}
 8005792:	2001      	movs	r0, #1
 8005794:	e7fc      	b.n	8005790 <HAL_I2C_DeInit+0x2c>
	...

08005798 <HAL_I2C_Master_Transmit>:
 8005798:	e92d 43f0 	stmdb	sp!, {r4, r5, r6, r7, r8, r9, lr}
 800579c:	4604      	mov	r4, r0
 800579e:	b085      	sub	sp, #20
 80057a0:	4698      	mov	r8, r3
 80057a2:	9f0c      	ldr	r7, [sp, #48]	; 0x30
 80057a4:	460d      	mov	r5, r1
 80057a6:	4691      	mov	r9, r2
 80057a8:	f7fe feb4 	bl	8004514 <HAL_GetTick>
 80057ac:	f894 303d 	ldrb.w	r3, [r4, #61]	; 0x3d
 80057b0:	2b20      	cmp	r3, #32
 80057b2:	4606      	mov	r6, r0
 80057b4:	d004      	beq.n	80057c0 <HAL_I2C_Master_Transmit+0x28>
 80057b6:	2502      	movs	r5, #2
 80057b8:	4628      	mov	r0, r5
 80057ba:	b005      	add	sp, #20
 80057bc:	e8bd 83f0 	ldmia.w	sp!, {r4, r5, r6, r7, r8, r9, pc}
 80057c0:	9000      	str	r0, [sp, #0]
 80057c2:	495d      	ldr	r1, [pc, #372]	; (8005938 <HAL_I2C_Master_Transmit+0x1a0>)
 80057c4:	2319      	movs	r3, #25
 80057c6:	2201      	movs	r2, #1
 80057c8:	4620      	mov	r0, r4
 80057ca:	f7ff fdf0 	bl	80053ae <I2C_WaitOnFlagUntilTimeout>
 80057ce:	2800      	cmp	r0, #0
 80057d0:	d1f1      	bne.n	80057b6 <HAL_I2C_Master_Transmit+0x1e>
 80057d2:	f894 303c 	ldrb.w	r3, [r4, #60]	; 0x3c
 80057d6:	2b01      	cmp	r3, #1
 80057d8:	d0ed      	beq.n	80057b6 <HAL_I2C_Master_Transmit+0x1e>
 80057da:	6821      	ldr	r1, [r4, #0]
 80057dc:	2301      	movs	r3, #1
 80057de:	f884 303c 	strb.w	r3, [r4, #60]	; 0x3c
 80057e2:	680b      	ldr	r3, [r1, #0]
 80057e4:	07da      	lsls	r2, r3, #31
 80057e6:	bf5e      	ittt	pl
 80057e8:	680b      	ldrpl	r3, [r1, #0]
 80057ea:	f043 0301 	orrpl.w	r3, r3, #1
 80057ee:	600b      	strpl	r3, [r1, #0]
 80057f0:	680b      	ldr	r3, [r1, #0]
 80057f2:	f423 6300 	bic.w	r3, r3, #2048	; 0x800
 80057f6:	600b      	str	r3, [r1, #0]
 80057f8:	2321      	movs	r3, #33	; 0x21
 80057fa:	f884 303d 	strb.w	r3, [r4, #61]	; 0x3d
 80057fe:	2310      	movs	r3, #16
 8005800:	f884 303e 	strb.w	r3, [r4, #62]	; 0x3e
 8005804:	2300      	movs	r3, #0
 8005806:	6423      	str	r3, [r4, #64]	; 0x40
 8005808:	f8a4 802a 	strh.w	r8, [r4, #42]	; 0x2a
 800580c:	8d63      	ldrh	r3, [r4, #42]	; 0x2a
 800580e:	8523      	strh	r3, [r4, #40]	; 0x28
 8005810:	4b4a      	ldr	r3, [pc, #296]	; (800593c <HAL_I2C_Master_Transmit+0x1a4>)
 8005812:	62e3      	str	r3, [r4, #44]	; 0x2c
 8005814:	6ae3      	ldr	r3, [r4, #44]	; 0x2c
 8005816:	f8c4 9024 	str.w	r9, [r4, #36]	; 0x24
 800581a:	2b08      	cmp	r3, #8
 800581c:	d004      	beq.n	8005828 <HAL_I2C_Master_Transmit+0x90>
 800581e:	2b01      	cmp	r3, #1
 8005820:	d002      	beq.n	8005828 <HAL_I2C_Master_Transmit+0x90>
 8005822:	f513 3f80 	cmn.w	r3, #65536	; 0x10000
 8005826:	d104      	bne.n	8005832 <HAL_I2C_Master_Transmit+0x9a>
 8005828:	680b      	ldr	r3, [r1, #0]
 800582a:	f443 7380 	orr.w	r3, r3, #256	; 0x100
 800582e:	600b      	str	r3, [r1, #0]
 8005830:	e002      	b.n	8005838 <HAL_I2C_Master_Transmit+0xa0>
 8005832:	6b23      	ldr	r3, [r4, #48]	; 0x30
 8005834:	2b12      	cmp	r3, #18
 8005836:	d0f7      	beq.n	8005828 <HAL_I2C_Master_Transmit+0x90>
 8005838:	2200      	movs	r2, #0
 800583a:	9600      	str	r6, [sp, #0]
 800583c:	463b      	mov	r3, r7
 800583e:	f04f 1101 	mov.w	r1, #65537	; 0x10001
 8005842:	4620      	mov	r0, r4
 8005844:	f7ff fdb3 	bl	80053ae <I2C_WaitOnFlagUntilTimeout>
 8005848:	6822      	ldr	r2, [r4, #0]
 800584a:	b138      	cbz	r0, 800585c <HAL_I2C_Master_Transmit+0xc4>
 800584c:	6813      	ldr	r3, [r2, #0]
 800584e:	05db      	lsls	r3, r3, #23
 8005850:	bf44      	itt	mi
 8005852:	f44f 7300 	movmi.w	r3, #512	; 0x200
 8005856:	6423      	strmi	r3, [r4, #64]	; 0x40
 8005858:	2501      	movs	r5, #1
 800585a:	e7ad      	b.n	80057b8 <HAL_I2C_Master_Transmit+0x20>
 800585c:	6923      	ldr	r3, [r4, #16]
 800585e:	f5b3 4f80 	cmp.w	r3, #16384	; 0x4000
 8005862:	d121      	bne.n	80058a8 <HAL_I2C_Master_Transmit+0x110>
 8005864:	f005 05fe 	and.w	r5, r5, #254	; 0xfe
 8005868:	6115      	str	r5, [r2, #16]
 800586a:	4935      	ldr	r1, [pc, #212]	; (8005940 <HAL_I2C_Master_Transmit+0x1a8>)
 800586c:	4633      	mov	r3, r6
 800586e:	463a      	mov	r2, r7
 8005870:	4620      	mov	r0, r4
 8005872:	f7ff fd0c 	bl	800528e <I2C_WaitOnMasterAddressFlagUntilTimeout>
 8005876:	4605      	mov	r5, r0
 8005878:	2800      	cmp	r0, #0
 800587a:	d1ed      	bne.n	8005858 <HAL_I2C_Master_Transmit+0xc0>
 800587c:	6823      	ldr	r3, [r4, #0]
 800587e:	9003      	str	r0, [sp, #12]
 8005880:	695a      	ldr	r2, [r3, #20]
 8005882:	9203      	str	r2, [sp, #12]
 8005884:	699b      	ldr	r3, [r3, #24]
 8005886:	9303      	str	r3, [sp, #12]
 8005888:	9b03      	ldr	r3, [sp, #12]
 800588a:	8d23      	ldrh	r3, [r4, #40]	; 0x28
 800588c:	b9f3      	cbnz	r3, 80058cc <HAL_I2C_Master_Transmit+0x134>
 800588e:	6821      	ldr	r1, [r4, #0]
 8005890:	680a      	ldr	r2, [r1, #0]
 8005892:	f442 7200 	orr.w	r2, r2, #512	; 0x200
 8005896:	600a      	str	r2, [r1, #0]
 8005898:	2220      	movs	r2, #32
 800589a:	f884 203d 	strb.w	r2, [r4, #61]	; 0x3d
 800589e:	f884 303c 	strb.w	r3, [r4, #60]	; 0x3c
 80058a2:	f884 303e 	strb.w	r3, [r4, #62]	; 0x3e
 80058a6:	e787      	b.n	80057b8 <HAL_I2C_Master_Transmit+0x20>
 80058a8:	11eb      	asrs	r3, r5, #7
 80058aa:	f003 0306 	and.w	r3, r3, #6
 80058ae:	f043 03f0 	orr.w	r3, r3, #240	; 0xf0
 80058b2:	6113      	str	r3, [r2, #16]
 80058b4:	4923      	ldr	r1, [pc, #140]	; (8005944 <HAL_I2C_Master_Transmit+0x1ac>)
 80058b6:	4633      	mov	r3, r6
 80058b8:	463a      	mov	r2, r7
 80058ba:	4620      	mov	r0, r4
 80058bc:	f7ff fce7 	bl	800528e <I2C_WaitOnMasterAddressFlagUntilTimeout>
 80058c0:	2800      	cmp	r0, #0
 80058c2:	d1c9      	bne.n	8005858 <HAL_I2C_Master_Transmit+0xc0>
 80058c4:	6823      	ldr	r3, [r4, #0]
 80058c6:	b2ed      	uxtb	r5, r5
 80058c8:	611d      	str	r5, [r3, #16]
 80058ca:	e7ce      	b.n	800586a <HAL_I2C_Master_Transmit+0xd2>
 80058cc:	4632      	mov	r2, r6
 80058ce:	4639      	mov	r1, r7
 80058d0:	4620      	mov	r0, r4
 80058d2:	f7ff fd9e 	bl	8005412 <I2C_WaitOnTXEFlagUntilTimeout>
 80058d6:	b140      	cbz	r0, 80058ea <HAL_I2C_Master_Transmit+0x152>
 80058d8:	6c23      	ldr	r3, [r4, #64]	; 0x40
 80058da:	2b04      	cmp	r3, #4
 80058dc:	d1bc      	bne.n	8005858 <HAL_I2C_Master_Transmit+0xc0>
 80058de:	6822      	ldr	r2, [r4, #0]
 80058e0:	6813      	ldr	r3, [r2, #0]
 80058e2:	f443 7300 	orr.w	r3, r3, #512	; 0x200
 80058e6:	6013      	str	r3, [r2, #0]
 80058e8:	e7b6      	b.n	8005858 <HAL_I2C_Master_Transmit+0xc0>
 80058ea:	6a63      	ldr	r3, [r4, #36]	; 0x24
 80058ec:	6820      	ldr	r0, [r4, #0]
 80058ee:	461a      	mov	r2, r3
 80058f0:	f812 1b01 	ldrb.w	r1, [r2], #1
 80058f4:	6101      	str	r1, [r0, #16]
 80058f6:	6262      	str	r2, [r4, #36]	; 0x24
 80058f8:	8d62      	ldrh	r2, [r4, #42]	; 0x2a
 80058fa:	3a01      	subs	r2, #1
 80058fc:	b292      	uxth	r2, r2
 80058fe:	8562      	strh	r2, [r4, #42]	; 0x2a
 8005900:	8d22      	ldrh	r2, [r4, #40]	; 0x28
 8005902:	f8d0 c014 	ldr.w	ip, [r0, #20]
 8005906:	1e51      	subs	r1, r2, #1
 8005908:	b289      	uxth	r1, r1
 800590a:	f01c 0f04 	tst.w	ip, #4
 800590e:	8521      	strh	r1, [r4, #40]	; 0x28
 8005910:	d00a      	beq.n	8005928 <HAL_I2C_Master_Transmit+0x190>
 8005912:	b149      	cbz	r1, 8005928 <HAL_I2C_Master_Transmit+0x190>
 8005914:	7859      	ldrb	r1, [r3, #1]
 8005916:	6101      	str	r1, [r0, #16]
 8005918:	3302      	adds	r3, #2
 800591a:	6263      	str	r3, [r4, #36]	; 0x24
 800591c:	8d63      	ldrh	r3, [r4, #42]	; 0x2a
 800591e:	3b01      	subs	r3, #1
 8005920:	b29b      	uxth	r3, r3
 8005922:	3a02      	subs	r2, #2
 8005924:	8563      	strh	r3, [r4, #42]	; 0x2a
 8005926:	8522      	strh	r2, [r4, #40]	; 0x28
 8005928:	4632      	mov	r2, r6
 800592a:	4639      	mov	r1, r7
 800592c:	4620      	mov	r0, r4
 800592e:	f7ff fce9 	bl	8005304 <I2C_WaitOnBTFFlagUntilTimeout>
 8005932:	2800      	cmp	r0, #0
 8005934:	d0a9      	beq.n	800588a <HAL_I2C_Master_Transmit+0xf2>
 8005936:	e7cf      	b.n	80058d8 <HAL_I2C_Master_Transmit+0x140>
 8005938:	00100002 	.word	0x00100002
 800593c:	ffff0000 	.word	0xffff0000
 8005940:	00010002 	.word	0x00010002
 8005944:	00010008 	.word	0x00010008

08005948 <HAL_I2C_Master_Receive>:
 8005948:	e92d 43f0 	stmdb	sp!, {r4, r5, r6, r7, r8, r9, lr}
 800594c:	4604      	mov	r4, r0
 800594e:	b089      	sub	sp, #36	; 0x24
 8005950:	4698      	mov	r8, r3
 8005952:	9f10      	ldr	r7, [sp, #64]	; 0x40
 8005954:	460e      	mov	r6, r1
 8005956:	4691      	mov	r9, r2
 8005958:	f7fe fddc 	bl	8004514 <HAL_GetTick>
 800595c:	f894 303d 	ldrb.w	r3, [r4, #61]	; 0x3d
 8005960:	2b20      	cmp	r3, #32
 8005962:	4605      	mov	r5, r0
 8005964:	d004      	beq.n	8005970 <HAL_I2C_Master_Receive+0x28>
 8005966:	2602      	movs	r6, #2
 8005968:	4630      	mov	r0, r6
 800596a:	b009      	add	sp, #36	; 0x24
 800596c:	e8bd 83f0 	ldmia.w	sp!, {r4, r5, r6, r7, r8, r9, pc}
 8005970:	9000      	str	r0, [sp, #0]
 8005972:	499a      	ldr	r1, [pc, #616]	; (8005bdc <HAL_I2C_Master_Receive+0x294>)
 8005974:	2319      	movs	r3, #25
 8005976:	2201      	movs	r2, #1
 8005978:	4620      	mov	r0, r4
 800597a:	f7ff fd18 	bl	80053ae <I2C_WaitOnFlagUntilTimeout>
 800597e:	2800      	cmp	r0, #0
 8005980:	d1f1      	bne.n	8005966 <HAL_I2C_Master_Receive+0x1e>
 8005982:	f894 303c 	ldrb.w	r3, [r4, #60]	; 0x3c
 8005986:	2b01      	cmp	r3, #1
 8005988:	d0ed      	beq.n	8005966 <HAL_I2C_Master_Receive+0x1e>
 800598a:	6821      	ldr	r1, [r4, #0]
 800598c:	2301      	movs	r3, #1
 800598e:	f884 303c 	strb.w	r3, [r4, #60]	; 0x3c
 8005992:	680b      	ldr	r3, [r1, #0]
 8005994:	07db      	lsls	r3, r3, #31
 8005996:	bf5e      	ittt	pl
 8005998:	680b      	ldrpl	r3, [r1, #0]
 800599a:	f043 0301 	orrpl.w	r3, r3, #1
 800599e:	600b      	strpl	r3, [r1, #0]
 80059a0:	680b      	ldr	r3, [r1, #0]
 80059a2:	f423 6300 	bic.w	r3, r3, #2048	; 0x800
 80059a6:	600b      	str	r3, [r1, #0]
 80059a8:	2322      	movs	r3, #34	; 0x22
 80059aa:	f884 303d 	strb.w	r3, [r4, #61]	; 0x3d
 80059ae:	2310      	movs	r3, #16
 80059b0:	f884 303e 	strb.w	r3, [r4, #62]	; 0x3e
 80059b4:	2300      	movs	r3, #0
 80059b6:	6423      	str	r3, [r4, #64]	; 0x40
 80059b8:	f8a4 802a 	strh.w	r8, [r4, #42]	; 0x2a
 80059bc:	8d63      	ldrh	r3, [r4, #42]	; 0x2a
 80059be:	8523      	strh	r3, [r4, #40]	; 0x28
 80059c0:	4b87      	ldr	r3, [pc, #540]	; (8005be0 <HAL_I2C_Master_Receive+0x298>)
 80059c2:	62e3      	str	r3, [r4, #44]	; 0x2c
 80059c4:	6ae3      	ldr	r3, [r4, #44]	; 0x2c
 80059c6:	680a      	ldr	r2, [r1, #0]
 80059c8:	f8c4 9024 	str.w	r9, [r4, #36]	; 0x24
 80059cc:	f442 6280 	orr.w	r2, r2, #1024	; 0x400
 80059d0:	2b08      	cmp	r3, #8
 80059d2:	600a      	str	r2, [r1, #0]
 80059d4:	d004      	beq.n	80059e0 <HAL_I2C_Master_Receive+0x98>
 80059d6:	2b01      	cmp	r3, #1
 80059d8:	d002      	beq.n	80059e0 <HAL_I2C_Master_Receive+0x98>
 80059da:	f513 3f80 	cmn.w	r3, #65536	; 0x10000
 80059de:	d104      	bne.n	80059ea <HAL_I2C_Master_Receive+0xa2>
 80059e0:	680b      	ldr	r3, [r1, #0]
 80059e2:	f443 7380 	orr.w	r3, r3, #256	; 0x100
 80059e6:	600b      	str	r3, [r1, #0]
 80059e8:	e002      	b.n	80059f0 <HAL_I2C_Master_Receive+0xa8>
 80059ea:	6b23      	ldr	r3, [r4, #48]	; 0x30
 80059ec:	2b11      	cmp	r3, #17
 80059ee:	d0f7      	beq.n	80059e0 <HAL_I2C_Master_Receive+0x98>
 80059f0:	463b      	mov	r3, r7
 80059f2:	9500      	str	r5, [sp, #0]
 80059f4:	2200      	movs	r2, #0
 80059f6:	f04f 1101 	mov.w	r1, #65537	; 0x10001
 80059fa:	4620      	mov	r0, r4
 80059fc:	f7ff fcd7 	bl	80053ae <I2C_WaitOnFlagUntilTimeout>
 8005a00:	6823      	ldr	r3, [r4, #0]
 8005a02:	b138      	cbz	r0, 8005a14 <HAL_I2C_Master_Receive+0xcc>
 8005a04:	681b      	ldr	r3, [r3, #0]
 8005a06:	05d8      	lsls	r0, r3, #23
 8005a08:	d502      	bpl.n	8005a10 <HAL_I2C_Master_Receive+0xc8>
 8005a0a:	f44f 7300 	mov.w	r3, #512	; 0x200
 8005a0e:	6423      	str	r3, [r4, #64]	; 0x40
 8005a10:	2601      	movs	r6, #1
 8005a12:	e7a9      	b.n	8005968 <HAL_I2C_Master_Receive+0x20>
 8005a14:	6922      	ldr	r2, [r4, #16]
 8005a16:	f5b2 4f80 	cmp.w	r2, #16384	; 0x4000
 8005a1a:	d127      	bne.n	8005a6c <HAL_I2C_Master_Receive+0x124>
 8005a1c:	f046 0601 	orr.w	r6, r6, #1
 8005a20:	b2f6      	uxtb	r6, r6
 8005a22:	611e      	str	r6, [r3, #16]
 8005a24:	496f      	ldr	r1, [pc, #444]	; (8005be4 <HAL_I2C_Master_Receive+0x29c>)
 8005a26:	462b      	mov	r3, r5
 8005a28:	463a      	mov	r2, r7
 8005a2a:	4620      	mov	r0, r4
 8005a2c:	f7ff fc2f 	bl	800528e <I2C_WaitOnMasterAddressFlagUntilTimeout>
 8005a30:	4606      	mov	r6, r0
 8005a32:	2800      	cmp	r0, #0
 8005a34:	d1ec      	bne.n	8005a10 <HAL_I2C_Master_Receive+0xc8>
 8005a36:	8d22      	ldrh	r2, [r4, #40]	; 0x28
 8005a38:	6823      	ldr	r3, [r4, #0]
 8005a3a:	2a00      	cmp	r2, #0
 8005a3c:	d14b      	bne.n	8005ad6 <HAL_I2C_Master_Receive+0x18e>
 8005a3e:	9003      	str	r0, [sp, #12]
 8005a40:	695a      	ldr	r2, [r3, #20]
 8005a42:	9203      	str	r2, [sp, #12]
 8005a44:	699a      	ldr	r2, [r3, #24]
 8005a46:	9203      	str	r2, [sp, #12]
 8005a48:	9a03      	ldr	r2, [sp, #12]
 8005a4a:	681a      	ldr	r2, [r3, #0]
 8005a4c:	f442 7200 	orr.w	r2, r2, #512	; 0x200
 8005a50:	601a      	str	r2, [r3, #0]
 8005a52:	f8df 8198 	ldr.w	r8, [pc, #408]	; 8005bec <HAL_I2C_Master_Receive+0x2a4>
 8005a56:	8d23      	ldrh	r3, [r4, #40]	; 0x28
 8005a58:	2b00      	cmp	r3, #0
 8005a5a:	d164      	bne.n	8005b26 <HAL_I2C_Master_Receive+0x1de>
 8005a5c:	2220      	movs	r2, #32
 8005a5e:	f884 203d 	strb.w	r2, [r4, #61]	; 0x3d
 8005a62:	f884 303c 	strb.w	r3, [r4, #60]	; 0x3c
 8005a66:	f884 303e 	strb.w	r3, [r4, #62]	; 0x3e
 8005a6a:	e77d      	b.n	8005968 <HAL_I2C_Master_Receive+0x20>
 8005a6c:	ea4f 18e6 	mov.w	r8, r6, asr #7
 8005a70:	f008 0806 	and.w	r8, r8, #6
 8005a74:	f048 02f0 	orr.w	r2, r8, #240	; 0xf0
 8005a78:	611a      	str	r2, [r3, #16]
 8005a7a:	495b      	ldr	r1, [pc, #364]	; (8005be8 <HAL_I2C_Master_Receive+0x2a0>)
 8005a7c:	462b      	mov	r3, r5
 8005a7e:	463a      	mov	r2, r7
 8005a80:	4620      	mov	r0, r4
 8005a82:	f7ff fc04 	bl	800528e <I2C_WaitOnMasterAddressFlagUntilTimeout>
 8005a86:	2800      	cmp	r0, #0
 8005a88:	d1c2      	bne.n	8005a10 <HAL_I2C_Master_Receive+0xc8>
 8005a8a:	6823      	ldr	r3, [r4, #0]
 8005a8c:	4955      	ldr	r1, [pc, #340]	; (8005be4 <HAL_I2C_Master_Receive+0x29c>)
 8005a8e:	b2f6      	uxtb	r6, r6
 8005a90:	611e      	str	r6, [r3, #16]
 8005a92:	463a      	mov	r2, r7
 8005a94:	462b      	mov	r3, r5
 8005a96:	4620      	mov	r0, r4
 8005a98:	f7ff fbf9 	bl	800528e <I2C_WaitOnMasterAddressFlagUntilTimeout>
 8005a9c:	2800      	cmp	r0, #0
 8005a9e:	d1b7      	bne.n	8005a10 <HAL_I2C_Master_Receive+0xc8>
 8005aa0:	6823      	ldr	r3, [r4, #0]
 8005aa2:	9007      	str	r0, [sp, #28]
 8005aa4:	695a      	ldr	r2, [r3, #20]
 8005aa6:	9207      	str	r2, [sp, #28]
 8005aa8:	699a      	ldr	r2, [r3, #24]
 8005aaa:	9207      	str	r2, [sp, #28]
 8005aac:	9a07      	ldr	r2, [sp, #28]
 8005aae:	681a      	ldr	r2, [r3, #0]
 8005ab0:	f442 7280 	orr.w	r2, r2, #256	; 0x100
 8005ab4:	601a      	str	r2, [r3, #0]
 8005ab6:	f04f 1101 	mov.w	r1, #65537	; 0x10001
 8005aba:	4602      	mov	r2, r0
 8005abc:	9500      	str	r5, [sp, #0]
 8005abe:	463b      	mov	r3, r7
 8005ac0:	4620      	mov	r0, r4
 8005ac2:	f7ff fc74 	bl	80053ae <I2C_WaitOnFlagUntilTimeout>
 8005ac6:	6822      	ldr	r2, [r4, #0]
 8005ac8:	b108      	cbz	r0, 8005ace <HAL_I2C_Master_Receive+0x186>
 8005aca:	6813      	ldr	r3, [r2, #0]
 8005acc:	e79b      	b.n	8005a06 <HAL_I2C_Master_Receive+0xbe>
 8005ace:	f048 03f1 	orr.w	r3, r8, #241	; 0xf1
 8005ad2:	6113      	str	r3, [r2, #16]
 8005ad4:	e7a6      	b.n	8005a24 <HAL_I2C_Master_Receive+0xdc>
 8005ad6:	2a01      	cmp	r2, #1
 8005ad8:	d10a      	bne.n	8005af0 <HAL_I2C_Master_Receive+0x1a8>
 8005ada:	681a      	ldr	r2, [r3, #0]
 8005adc:	f422 6280 	bic.w	r2, r2, #1024	; 0x400
 8005ae0:	601a      	str	r2, [r3, #0]
 8005ae2:	9004      	str	r0, [sp, #16]
 8005ae4:	695a      	ldr	r2, [r3, #20]
 8005ae6:	9204      	str	r2, [sp, #16]
 8005ae8:	699a      	ldr	r2, [r3, #24]
 8005aea:	9204      	str	r2, [sp, #16]
 8005aec:	9a04      	ldr	r2, [sp, #16]
 8005aee:	e7ac      	b.n	8005a4a <HAL_I2C_Master_Receive+0x102>
 8005af0:	2a02      	cmp	r2, #2
 8005af2:	681a      	ldr	r2, [r3, #0]
 8005af4:	d10d      	bne.n	8005b12 <HAL_I2C_Master_Receive+0x1ca>
 8005af6:	f422 6280 	bic.w	r2, r2, #1024	; 0x400
 8005afa:	601a      	str	r2, [r3, #0]
 8005afc:	681a      	ldr	r2, [r3, #0]
 8005afe:	f442 6200 	orr.w	r2, r2, #2048	; 0x800
 8005b02:	601a      	str	r2, [r3, #0]
 8005b04:	9005      	str	r0, [sp, #20]
 8005b06:	695a      	ldr	r2, [r3, #20]
 8005b08:	9205      	str	r2, [sp, #20]
 8005b0a:	699b      	ldr	r3, [r3, #24]
 8005b0c:	9305      	str	r3, [sp, #20]
 8005b0e:	9b05      	ldr	r3, [sp, #20]
 8005b10:	e79f      	b.n	8005a52 <HAL_I2C_Master_Receive+0x10a>
 8005b12:	f442 6280 	orr.w	r2, r2, #1024	; 0x400
 8005b16:	601a      	str	r2, [r3, #0]
 8005b18:	9006      	str	r0, [sp, #24]
 8005b1a:	695a      	ldr	r2, [r3, #20]
 8005b1c:	9206      	str	r2, [sp, #24]
 8005b1e:	699b      	ldr	r3, [r3, #24]
 8005b20:	9306      	str	r3, [sp, #24]
 8005b22:	9b06      	ldr	r3, [sp, #24]
 8005b24:	e795      	b.n	8005a52 <HAL_I2C_Master_Receive+0x10a>
 8005b26:	2b03      	cmp	r3, #3
 8005b28:	d862      	bhi.n	8005bf0 <HAL_I2C_Master_Receive+0x2a8>
 8005b2a:	2b01      	cmp	r3, #1
 8005b2c:	d116      	bne.n	8005b5c <HAL_I2C_Master_Receive+0x214>
 8005b2e:	462a      	mov	r2, r5
 8005b30:	4639      	mov	r1, r7
 8005b32:	4620      	mov	r0, r4
 8005b34:	f7ff fc0c 	bl	8005350 <I2C_WaitOnRXNEFlagUntilTimeout>
 8005b38:	2800      	cmp	r0, #0
 8005b3a:	f47f af69 	bne.w	8005a10 <HAL_I2C_Master_Receive+0xc8>
 8005b3e:	6823      	ldr	r3, [r4, #0]
 8005b40:	691a      	ldr	r2, [r3, #16]
 8005b42:	6a63      	ldr	r3, [r4, #36]	; 0x24
 8005b44:	701a      	strb	r2, [r3, #0]
 8005b46:	6a63      	ldr	r3, [r4, #36]	; 0x24
 8005b48:	3301      	adds	r3, #1
 8005b4a:	6263      	str	r3, [r4, #36]	; 0x24
 8005b4c:	8d23      	ldrh	r3, [r4, #40]	; 0x28
 8005b4e:	3b01      	subs	r3, #1
 8005b50:	8523      	strh	r3, [r4, #40]	; 0x28
 8005b52:	8d63      	ldrh	r3, [r4, #42]	; 0x2a
 8005b54:	3b01      	subs	r3, #1
 8005b56:	b29b      	uxth	r3, r3
 8005b58:	8563      	strh	r3, [r4, #42]	; 0x2a
 8005b5a:	e77c      	b.n	8005a56 <HAL_I2C_Master_Receive+0x10e>
 8005b5c:	2b02      	cmp	r3, #2
 8005b5e:	9500      	str	r5, [sp, #0]
 8005b60:	463b      	mov	r3, r7
 8005b62:	f04f 0200 	mov.w	r2, #0
 8005b66:	4641      	mov	r1, r8
 8005b68:	4620      	mov	r0, r4
 8005b6a:	d11a      	bne.n	8005ba2 <HAL_I2C_Master_Receive+0x25a>
 8005b6c:	f7ff fc1f 	bl	80053ae <I2C_WaitOnFlagUntilTimeout>
 8005b70:	2800      	cmp	r0, #0
 8005b72:	f47f af4d 	bne.w	8005a10 <HAL_I2C_Master_Receive+0xc8>
 8005b76:	6823      	ldr	r3, [r4, #0]
 8005b78:	681a      	ldr	r2, [r3, #0]
 8005b7a:	f442 7200 	orr.w	r2, r2, #512	; 0x200
 8005b7e:	601a      	str	r2, [r3, #0]
 8005b80:	691a      	ldr	r2, [r3, #16]
 8005b82:	6a63      	ldr	r3, [r4, #36]	; 0x24
 8005b84:	701a      	strb	r2, [r3, #0]
 8005b86:	6a62      	ldr	r2, [r4, #36]	; 0x24
 8005b88:	1c53      	adds	r3, r2, #1
 8005b8a:	6263      	str	r3, [r4, #36]	; 0x24
 8005b8c:	8d23      	ldrh	r3, [r4, #40]	; 0x28
 8005b8e:	3b01      	subs	r3, #1
 8005b90:	8523      	strh	r3, [r4, #40]	; 0x28
 8005b92:	8d63      	ldrh	r3, [r4, #42]	; 0x2a
 8005b94:	3b01      	subs	r3, #1
 8005b96:	b29b      	uxth	r3, r3
 8005b98:	8563      	strh	r3, [r4, #42]	; 0x2a
 8005b9a:	6823      	ldr	r3, [r4, #0]
 8005b9c:	691b      	ldr	r3, [r3, #16]
 8005b9e:	7053      	strb	r3, [r2, #1]
 8005ba0:	e7d1      	b.n	8005b46 <HAL_I2C_Master_Receive+0x1fe>
 8005ba2:	f7ff fc04 	bl	80053ae <I2C_WaitOnFlagUntilTimeout>
 8005ba6:	2800      	cmp	r0, #0
 8005ba8:	f47f af32 	bne.w	8005a10 <HAL_I2C_Master_Receive+0xc8>
 8005bac:	6823      	ldr	r3, [r4, #0]
 8005bae:	681a      	ldr	r2, [r3, #0]
 8005bb0:	f422 6280 	bic.w	r2, r2, #1024	; 0x400
 8005bb4:	601a      	str	r2, [r3, #0]
 8005bb6:	691a      	ldr	r2, [r3, #16]
 8005bb8:	6a63      	ldr	r3, [r4, #36]	; 0x24
 8005bba:	701a      	strb	r2, [r3, #0]
 8005bbc:	6a63      	ldr	r3, [r4, #36]	; 0x24
 8005bbe:	9500      	str	r5, [sp, #0]
 8005bc0:	3301      	adds	r3, #1
 8005bc2:	6263      	str	r3, [r4, #36]	; 0x24
 8005bc4:	8d23      	ldrh	r3, [r4, #40]	; 0x28
 8005bc6:	3b01      	subs	r3, #1
 8005bc8:	8523      	strh	r3, [r4, #40]	; 0x28
 8005bca:	8d63      	ldrh	r3, [r4, #42]	; 0x2a
 8005bcc:	3b01      	subs	r3, #1
 8005bce:	b29b      	uxth	r3, r3
 8005bd0:	8563      	strh	r3, [r4, #42]	; 0x2a
 8005bd2:	4602      	mov	r2, r0
 8005bd4:	463b      	mov	r3, r7
 8005bd6:	4641      	mov	r1, r8
 8005bd8:	4620      	mov	r0, r4
 8005bda:	e7c7      	b.n	8005b6c <HAL_I2C_Master_Receive+0x224>
 8005bdc:	00100002 	.word	0x00100002
 8005be0:	ffff0000 	.word	0xffff0000
 8005be4:	00010002 	.word	0x00010002
 8005be8:	00010008 	.word	0x00010008
 8005bec:	00010004 	.word	0x00010004
 8005bf0:	462a      	mov	r2, r5
 8005bf2:	4639      	mov	r1, r7
 8005bf4:	4620      	mov	r0, r4
 8005bf6:	f7ff fbab 	bl	8005350 <I2C_WaitOnRXNEFlagUntilTimeout>
 8005bfa:	2800      	cmp	r0, #0
 8005bfc:	f47f af08 	bne.w	8005a10 <HAL_I2C_Master_Receive+0xc8>
 8005c00:	6823      	ldr	r3, [r4, #0]
 8005c02:	691a      	ldr	r2, [r3, #16]
 8005c04:	6a63      	ldr	r3, [r4, #36]	; 0x24
 8005c06:	701a      	strb	r2, [r3, #0]
 8005c08:	6a62      	ldr	r2, [r4, #36]	; 0x24
 8005c0a:	1c53      	adds	r3, r2, #1
 8005c0c:	6263      	str	r3, [r4, #36]	; 0x24
 8005c0e:	8d23      	ldrh	r3, [r4, #40]	; 0x28
 8005c10:	3b01      	subs	r3, #1
 8005c12:	8523      	strh	r3, [r4, #40]	; 0x28
 8005c14:	8d63      	ldrh	r3, [r4, #42]	; 0x2a
 8005c16:	3b01      	subs	r3, #1
 8005c18:	b29b      	uxth	r3, r3
 8005c1a:	8563      	strh	r3, [r4, #42]	; 0x2a
 8005c1c:	6823      	ldr	r3, [r4, #0]
 8005c1e:	6959      	ldr	r1, [r3, #20]
 8005c20:	0749      	lsls	r1, r1, #29
 8005c22:	f57f af18 	bpl.w	8005a56 <HAL_I2C_Master_Receive+0x10e>
 8005c26:	e7b9      	b.n	8005b9c <HAL_I2C_Master_Receive+0x254>

08005c28 <HAL_I2C_Mem_Write>:
 8005c28:	e92d 43f7 	stmdb	sp!, {r0, r1, r2, r4, r5, r6, r7, r8, r9, lr}
 8005c2c:	4604      	mov	r4, r0
 8005c2e:	4699      	mov	r9, r3
 8005c30:	9e0c      	ldr	r6, [sp, #48]	; 0x30
 8005c32:	460f      	mov	r7, r1
 8005c34:	4690      	mov	r8, r2
 8005c36:	f7fe fc6d 	bl	8004514 <HAL_GetTick>
 8005c3a:	f894 303d 	ldrb.w	r3, [r4, #61]	; 0x3d
 8005c3e:	2b20      	cmp	r3, #32
 8005c40:	4605      	mov	r5, r0
 8005c42:	d003      	beq.n	8005c4c <HAL_I2C_Mem_Write+0x24>
 8005c44:	2002      	movs	r0, #2
 8005c46:	b003      	add	sp, #12
 8005c48:	e8bd 83f0 	ldmia.w	sp!, {r4, r5, r6, r7, r8, r9, pc}
 8005c4c:	9000      	str	r0, [sp, #0]
 8005c4e:	493c      	ldr	r1, [pc, #240]	; (8005d40 <HAL_I2C_Mem_Write+0x118>)
 8005c50:	2319      	movs	r3, #25
 8005c52:	2201      	movs	r2, #1
 8005c54:	4620      	mov	r0, r4
 8005c56:	f7ff fbaa 	bl	80053ae <I2C_WaitOnFlagUntilTimeout>
 8005c5a:	2800      	cmp	r0, #0
 8005c5c:	d1f2      	bne.n	8005c44 <HAL_I2C_Mem_Write+0x1c>
 8005c5e:	f894 303c 	ldrb.w	r3, [r4, #60]	; 0x3c
 8005c62:	2b01      	cmp	r3, #1
 8005c64:	d0ee      	beq.n	8005c44 <HAL_I2C_Mem_Write+0x1c>
 8005c66:	6820      	ldr	r0, [r4, #0]
 8005c68:	2301      	movs	r3, #1
 8005c6a:	f884 303c 	strb.w	r3, [r4, #60]	; 0x3c
 8005c6e:	6803      	ldr	r3, [r0, #0]
 8005c70:	07d9      	lsls	r1, r3, #31
 8005c72:	bf5e      	ittt	pl
 8005c74:	6803      	ldrpl	r3, [r0, #0]
 8005c76:	f043 0301 	orrpl.w	r3, r3, #1
 8005c7a:	6003      	strpl	r3, [r0, #0]
 8005c7c:	6803      	ldr	r3, [r0, #0]
 8005c7e:	f423 6300 	bic.w	r3, r3, #2048	; 0x800
 8005c82:	6003      	str	r3, [r0, #0]
 8005c84:	2321      	movs	r3, #33	; 0x21
 8005c86:	f884 303d 	strb.w	r3, [r4, #61]	; 0x3d
 8005c8a:	2340      	movs	r3, #64	; 0x40
 8005c8c:	f884 303e 	strb.w	r3, [r4, #62]	; 0x3e
 8005c90:	2300      	movs	r3, #0
 8005c92:	6423      	str	r3, [r4, #64]	; 0x40
 8005c94:	9b0a      	ldr	r3, [sp, #40]	; 0x28
 8005c96:	6263      	str	r3, [r4, #36]	; 0x24
 8005c98:	f8bd 302c 	ldrh.w	r3, [sp, #44]	; 0x2c
 8005c9c:	8563      	strh	r3, [r4, #42]	; 0x2a
 8005c9e:	8d63      	ldrh	r3, [r4, #42]	; 0x2a
 8005ca0:	8523      	strh	r3, [r4, #40]	; 0x28
 8005ca2:	4b28      	ldr	r3, [pc, #160]	; (8005d44 <HAL_I2C_Mem_Write+0x11c>)
 8005ca4:	62e3      	str	r3, [r4, #44]	; 0x2c
 8005ca6:	e9cd 6500 	strd	r6, r5, [sp]
 8005caa:	464b      	mov	r3, r9
 8005cac:	4642      	mov	r2, r8
 8005cae:	4639      	mov	r1, r7
 8005cb0:	4620      	mov	r0, r4
 8005cb2:	f7ff fbd5 	bl	8005460 <I2C_RequestMemoryWrite>
 8005cb6:	2800      	cmp	r0, #0
 8005cb8:	d02a      	beq.n	8005d10 <HAL_I2C_Mem_Write+0xe8>
 8005cba:	2001      	movs	r0, #1
 8005cbc:	e7c3      	b.n	8005c46 <HAL_I2C_Mem_Write+0x1e>
 8005cbe:	f7ff fba8 	bl	8005412 <I2C_WaitOnTXEFlagUntilTimeout>
 8005cc2:	b140      	cbz	r0, 8005cd6 <HAL_I2C_Mem_Write+0xae>
 8005cc4:	6c23      	ldr	r3, [r4, #64]	; 0x40
 8005cc6:	2b04      	cmp	r3, #4
 8005cc8:	bf01      	itttt	eq
 8005cca:	6822      	ldreq	r2, [r4, #0]
 8005ccc:	6813      	ldreq	r3, [r2, #0]
 8005cce:	f443 7300 	orreq.w	r3, r3, #512	; 0x200
 8005cd2:	6013      	streq	r3, [r2, #0]
 8005cd4:	e7f1      	b.n	8005cba <HAL_I2C_Mem_Write+0x92>
 8005cd6:	6a63      	ldr	r3, [r4, #36]	; 0x24
 8005cd8:	6827      	ldr	r7, [r4, #0]
 8005cda:	461a      	mov	r2, r3
 8005cdc:	f812 1b01 	ldrb.w	r1, [r2], #1
 8005ce0:	6139      	str	r1, [r7, #16]
 8005ce2:	6262      	str	r2, [r4, #36]	; 0x24
 8005ce4:	8d62      	ldrh	r2, [r4, #42]	; 0x2a
 8005ce6:	8d21      	ldrh	r1, [r4, #40]	; 0x28
 8005ce8:	3a01      	subs	r2, #1
 8005cea:	b292      	uxth	r2, r2
 8005cec:	8562      	strh	r2, [r4, #42]	; 0x2a
 8005cee:	697a      	ldr	r2, [r7, #20]
 8005cf0:	1e48      	subs	r0, r1, #1
 8005cf2:	b280      	uxth	r0, r0
 8005cf4:	0752      	lsls	r2, r2, #29
 8005cf6:	8520      	strh	r0, [r4, #40]	; 0x28
 8005cf8:	d50a      	bpl.n	8005d10 <HAL_I2C_Mem_Write+0xe8>
 8005cfa:	b148      	cbz	r0, 8005d10 <HAL_I2C_Mem_Write+0xe8>
 8005cfc:	785a      	ldrb	r2, [r3, #1]
 8005cfe:	613a      	str	r2, [r7, #16]
 8005d00:	3302      	adds	r3, #2
 8005d02:	6263      	str	r3, [r4, #36]	; 0x24
 8005d04:	8d63      	ldrh	r3, [r4, #42]	; 0x2a
 8005d06:	3b01      	subs	r3, #1
 8005d08:	3902      	subs	r1, #2
 8005d0a:	b29b      	uxth	r3, r3
 8005d0c:	8521      	strh	r1, [r4, #40]	; 0x28
 8005d0e:	8563      	strh	r3, [r4, #42]	; 0x2a
 8005d10:	8d23      	ldrh	r3, [r4, #40]	; 0x28
 8005d12:	462a      	mov	r2, r5
 8005d14:	4631      	mov	r1, r6
 8005d16:	4620      	mov	r0, r4
 8005d18:	2b00      	cmp	r3, #0
 8005d1a:	d1d0      	bne.n	8005cbe <HAL_I2C_Mem_Write+0x96>
 8005d1c:	f7ff faf2 	bl	8005304 <I2C_WaitOnBTFFlagUntilTimeout>
 8005d20:	2800      	cmp	r0, #0
 8005d22:	d1cf      	bne.n	8005cc4 <HAL_I2C_Mem_Write+0x9c>
 8005d24:	6822      	ldr	r2, [r4, #0]
 8005d26:	6813      	ldr	r3, [r2, #0]
 8005d28:	f443 7300 	orr.w	r3, r3, #512	; 0x200
 8005d2c:	6013      	str	r3, [r2, #0]
 8005d2e:	2320      	movs	r3, #32
 8005d30:	f884 303d 	strb.w	r3, [r4, #61]	; 0x3d
 8005d34:	f884 003c 	strb.w	r0, [r4, #60]	; 0x3c
 8005d38:	f884 003e 	strb.w	r0, [r4, #62]	; 0x3e
 8005d3c:	e783      	b.n	8005c46 <HAL_I2C_Mem_Write+0x1e>
 8005d3e:	bf00      	nop
 8005d40:	00100002 	.word	0x00100002
 8005d44:	ffff0000 	.word	0xffff0000

08005d48 <HAL_I2C_Mem_Read>:
 8005d48:	e92d 43f0 	stmdb	sp!, {r4, r5, r6, r7, r8, r9, lr}
 8005d4c:	4604      	mov	r4, r0
 8005d4e:	b087      	sub	sp, #28
 8005d50:	4699      	mov	r9, r3
 8005d52:	9f10      	ldr	r7, [sp, #64]	; 0x40
 8005d54:	460d      	mov	r5, r1
 8005d56:	4690      	mov	r8, r2
 8005d58:	f7fe fbdc 	bl	8004514 <HAL_GetTick>
 8005d5c:	f894 303d 	ldrb.w	r3, [r4, #61]	; 0x3d
 8005d60:	2b20      	cmp	r3, #32
 8005d62:	4606      	mov	r6, r0
 8005d64:	d004      	beq.n	8005d70 <HAL_I2C_Mem_Read+0x28>
 8005d66:	2502      	movs	r5, #2
 8005d68:	4628      	mov	r0, r5
 8005d6a:	b007      	add	sp, #28
 8005d6c:	e8bd 83f0 	ldmia.w	sp!, {r4, r5, r6, r7, r8, r9, pc}
 8005d70:	9000      	str	r0, [sp, #0]
 8005d72:	4976      	ldr	r1, [pc, #472]	; (8005f4c <HAL_I2C_Mem_Read+0x204>)
 8005d74:	2319      	movs	r3, #25
 8005d76:	2201      	movs	r2, #1
 8005d78:	4620      	mov	r0, r4
 8005d7a:	f7ff fb18 	bl	80053ae <I2C_WaitOnFlagUntilTimeout>
 8005d7e:	2800      	cmp	r0, #0
 8005d80:	d1f1      	bne.n	8005d66 <HAL_I2C_Mem_Read+0x1e>
 8005d82:	f894 303c 	ldrb.w	r3, [r4, #60]	; 0x3c
 8005d86:	2b01      	cmp	r3, #1
 8005d88:	d0ed      	beq.n	8005d66 <HAL_I2C_Mem_Read+0x1e>
 8005d8a:	6820      	ldr	r0, [r4, #0]
 8005d8c:	2301      	movs	r3, #1
 8005d8e:	f884 303c 	strb.w	r3, [r4, #60]	; 0x3c
 8005d92:	6803      	ldr	r3, [r0, #0]
 8005d94:	07db      	lsls	r3, r3, #31
 8005d96:	bf5e      	ittt	pl
 8005d98:	6803      	ldrpl	r3, [r0, #0]
 8005d9a:	f043 0301 	orrpl.w	r3, r3, #1
 8005d9e:	6003      	strpl	r3, [r0, #0]
 8005da0:	6803      	ldr	r3, [r0, #0]
 8005da2:	f423 6300 	bic.w	r3, r3, #2048	; 0x800
 8005da6:	6003      	str	r3, [r0, #0]
 8005da8:	2322      	movs	r3, #34	; 0x22
 8005daa:	f884 303d 	strb.w	r3, [r4, #61]	; 0x3d
 8005dae:	2340      	movs	r3, #64	; 0x40
 8005db0:	f884 303e 	strb.w	r3, [r4, #62]	; 0x3e
 8005db4:	2300      	movs	r3, #0
 8005db6:	6423      	str	r3, [r4, #64]	; 0x40
 8005db8:	9b0e      	ldr	r3, [sp, #56]	; 0x38
 8005dba:	6263      	str	r3, [r4, #36]	; 0x24
 8005dbc:	f8bd 303c 	ldrh.w	r3, [sp, #60]	; 0x3c
 8005dc0:	8563      	strh	r3, [r4, #42]	; 0x2a
 8005dc2:	8d63      	ldrh	r3, [r4, #42]	; 0x2a
 8005dc4:	8523      	strh	r3, [r4, #40]	; 0x28
 8005dc6:	4b62      	ldr	r3, [pc, #392]	; (8005f50 <HAL_I2C_Mem_Read+0x208>)
 8005dc8:	62e3      	str	r3, [r4, #44]	; 0x2c
 8005dca:	4629      	mov	r1, r5
 8005dcc:	e9cd 7600 	strd	r7, r6, [sp]
 8005dd0:	464b      	mov	r3, r9
 8005dd2:	4642      	mov	r2, r8
 8005dd4:	4620      	mov	r0, r4
 8005dd6:	f7ff fb9b 	bl	8005510 <I2C_RequestMemoryRead>
 8005dda:	4605      	mov	r5, r0
 8005ddc:	b108      	cbz	r0, 8005de2 <HAL_I2C_Mem_Read+0x9a>
 8005dde:	2501      	movs	r5, #1
 8005de0:	e7c2      	b.n	8005d68 <HAL_I2C_Mem_Read+0x20>
 8005de2:	8d22      	ldrh	r2, [r4, #40]	; 0x28
 8005de4:	6823      	ldr	r3, [r4, #0]
 8005de6:	b9b2      	cbnz	r2, 8005e16 <HAL_I2C_Mem_Read+0xce>
 8005de8:	9002      	str	r0, [sp, #8]
 8005dea:	695a      	ldr	r2, [r3, #20]
 8005dec:	9202      	str	r2, [sp, #8]
 8005dee:	699a      	ldr	r2, [r3, #24]
 8005df0:	9202      	str	r2, [sp, #8]
 8005df2:	9a02      	ldr	r2, [sp, #8]
 8005df4:	681a      	ldr	r2, [r3, #0]
 8005df6:	f442 7200 	orr.w	r2, r2, #512	; 0x200
 8005dfa:	601a      	str	r2, [r3, #0]
 8005dfc:	f8df 8154 	ldr.w	r8, [pc, #340]	; 8005f54 <HAL_I2C_Mem_Read+0x20c>
 8005e00:	8d23      	ldrh	r3, [r4, #40]	; 0x28
 8005e02:	2b00      	cmp	r3, #0
 8005e04:	d12c      	bne.n	8005e60 <HAL_I2C_Mem_Read+0x118>
 8005e06:	2220      	movs	r2, #32
 8005e08:	f884 203d 	strb.w	r2, [r4, #61]	; 0x3d
 8005e0c:	f884 303c 	strb.w	r3, [r4, #60]	; 0x3c
 8005e10:	f884 303e 	strb.w	r3, [r4, #62]	; 0x3e
 8005e14:	e7a8      	b.n	8005d68 <HAL_I2C_Mem_Read+0x20>
 8005e16:	2a01      	cmp	r2, #1
 8005e18:	d10a      	bne.n	8005e30 <HAL_I2C_Mem_Read+0xe8>
 8005e1a:	681a      	ldr	r2, [r3, #0]
 8005e1c:	f422 6280 	bic.w	r2, r2, #1024	; 0x400
 8005e20:	601a      	str	r2, [r3, #0]
 8005e22:	9003      	str	r0, [sp, #12]
 8005e24:	695a      	ldr	r2, [r3, #20]
 8005e26:	9203      	str	r2, [sp, #12]
 8005e28:	699a      	ldr	r2, [r3, #24]
 8005e2a:	9203      	str	r2, [sp, #12]
 8005e2c:	9a03      	ldr	r2, [sp, #12]
 8005e2e:	e7e1      	b.n	8005df4 <HAL_I2C_Mem_Read+0xac>
 8005e30:	2a02      	cmp	r2, #2
 8005e32:	d10e      	bne.n	8005e52 <HAL_I2C_Mem_Read+0x10a>
 8005e34:	681a      	ldr	r2, [r3, #0]
 8005e36:	f422 6280 	bic.w	r2, r2, #1024	; 0x400
 8005e3a:	601a      	str	r2, [r3, #0]
 8005e3c:	681a      	ldr	r2, [r3, #0]
 8005e3e:	f442 6200 	orr.w	r2, r2, #2048	; 0x800
 8005e42:	601a      	str	r2, [r3, #0]
 8005e44:	9004      	str	r0, [sp, #16]
 8005e46:	695a      	ldr	r2, [r3, #20]
 8005e48:	9204      	str	r2, [sp, #16]
 8005e4a:	699b      	ldr	r3, [r3, #24]
 8005e4c:	9304      	str	r3, [sp, #16]
 8005e4e:	9b04      	ldr	r3, [sp, #16]
 8005e50:	e7d4      	b.n	8005dfc <HAL_I2C_Mem_Read+0xb4>
 8005e52:	9005      	str	r0, [sp, #20]
 8005e54:	695a      	ldr	r2, [r3, #20]
 8005e56:	9205      	str	r2, [sp, #20]
 8005e58:	699b      	ldr	r3, [r3, #24]
 8005e5a:	9305      	str	r3, [sp, #20]
 8005e5c:	9b05      	ldr	r3, [sp, #20]
 8005e5e:	e7cd      	b.n	8005dfc <HAL_I2C_Mem_Read+0xb4>
 8005e60:	2b03      	cmp	r3, #3
 8005e62:	d856      	bhi.n	8005f12 <HAL_I2C_Mem_Read+0x1ca>
 8005e64:	2b01      	cmp	r3, #1
 8005e66:	d115      	bne.n	8005e94 <HAL_I2C_Mem_Read+0x14c>
 8005e68:	4632      	mov	r2, r6
 8005e6a:	4639      	mov	r1, r7
 8005e6c:	4620      	mov	r0, r4
 8005e6e:	f7ff fa6f 	bl	8005350 <I2C_WaitOnRXNEFlagUntilTimeout>
 8005e72:	2800      	cmp	r0, #0
 8005e74:	d1b3      	bne.n	8005dde <HAL_I2C_Mem_Read+0x96>
 8005e76:	6823      	ldr	r3, [r4, #0]
 8005e78:	691a      	ldr	r2, [r3, #16]
 8005e7a:	6a63      	ldr	r3, [r4, #36]	; 0x24
 8005e7c:	701a      	strb	r2, [r3, #0]
 8005e7e:	6a63      	ldr	r3, [r4, #36]	; 0x24
 8005e80:	3301      	adds	r3, #1
 8005e82:	6263      	str	r3, [r4, #36]	; 0x24
 8005e84:	8d23      	ldrh	r3, [r4, #40]	; 0x28
 8005e86:	3b01      	subs	r3, #1
 8005e88:	8523      	strh	r3, [r4, #40]	; 0x28
 8005e8a:	8d63      	ldrh	r3, [r4, #42]	; 0x2a
 8005e8c:	3b01      	subs	r3, #1
 8005e8e:	b29b      	uxth	r3, r3
 8005e90:	8563      	strh	r3, [r4, #42]	; 0x2a
 8005e92:	e7b5      	b.n	8005e00 <HAL_I2C_Mem_Read+0xb8>
 8005e94:	2b02      	cmp	r3, #2
 8005e96:	9600      	str	r6, [sp, #0]
 8005e98:	463b      	mov	r3, r7
 8005e9a:	f04f 0200 	mov.w	r2, #0
 8005e9e:	4641      	mov	r1, r8
 8005ea0:	4620      	mov	r0, r4
 8005ea2:	d119      	bne.n	8005ed8 <HAL_I2C_Mem_Read+0x190>
 8005ea4:	f7ff fa83 	bl	80053ae <I2C_WaitOnFlagUntilTimeout>
 8005ea8:	2800      	cmp	r0, #0
 8005eaa:	d198      	bne.n	8005dde <HAL_I2C_Mem_Read+0x96>
 8005eac:	6823      	ldr	r3, [r4, #0]
 8005eae:	681a      	ldr	r2, [r3, #0]
 8005eb0:	f442 7200 	orr.w	r2, r2, #512	; 0x200
 8005eb4:	601a      	str	r2, [r3, #0]
 8005eb6:	691a      	ldr	r2, [r3, #16]
 8005eb8:	6a63      	ldr	r3, [r4, #36]	; 0x24
 8005eba:	701a      	strb	r2, [r3, #0]
 8005ebc:	6a62      	ldr	r2, [r4, #36]	; 0x24
 8005ebe:	1c53      	adds	r3, r2, #1
 8005ec0:	6263      	str	r3, [r4, #36]	; 0x24
 8005ec2:	8d23      	ldrh	r3, [r4, #40]	; 0x28
 8005ec4:	3b01      	subs	r3, #1
 8005ec6:	8523      	strh	r3, [r4, #40]	; 0x28
 8005ec8:	8d63      	ldrh	r3, [r4, #42]	; 0x2a
 8005eca:	3b01      	subs	r3, #1
 8005ecc:	b29b      	uxth	r3, r3
 8005ece:	8563      	strh	r3, [r4, #42]	; 0x2a
 8005ed0:	6823      	ldr	r3, [r4, #0]
 8005ed2:	691b      	ldr	r3, [r3, #16]
 8005ed4:	7053      	strb	r3, [r2, #1]
 8005ed6:	e7d2      	b.n	8005e7e <HAL_I2C_Mem_Read+0x136>
 8005ed8:	f7ff fa69 	bl	80053ae <I2C_WaitOnFlagUntilTimeout>
 8005edc:	2800      	cmp	r0, #0
 8005ede:	f47f af7e 	bne.w	8005dde <HAL_I2C_Mem_Read+0x96>
 8005ee2:	6823      	ldr	r3, [r4, #0]
 8005ee4:	681a      	ldr	r2, [r3, #0]
 8005ee6:	f422 6280 	bic.w	r2, r2, #1024	; 0x400
 8005eea:	601a      	str	r2, [r3, #0]
 8005eec:	691a      	ldr	r2, [r3, #16]
 8005eee:	6a63      	ldr	r3, [r4, #36]	; 0x24
 8005ef0:	701a      	strb	r2, [r3, #0]
 8005ef2:	6a63      	ldr	r3, [r4, #36]	; 0x24
 8005ef4:	9600      	str	r6, [sp, #0]
 8005ef6:	3301      	adds	r3, #1
 8005ef8:	6263      	str	r3, [r4, #36]	; 0x24
 8005efa:	8d23      	ldrh	r3, [r4, #40]	; 0x28
 8005efc:	3b01      	subs	r3, #1
 8005efe:	8523      	strh	r3, [r4, #40]	; 0x28
 8005f00:	8d63      	ldrh	r3, [r4, #42]	; 0x2a
 8005f02:	3b01      	subs	r3, #1
 8005f04:	b29b      	uxth	r3, r3
 8005f06:	8563      	strh	r3, [r4, #42]	; 0x2a
 8005f08:	4602      	mov	r2, r0
 8005f0a:	463b      	mov	r3, r7
 8005f0c:	4641      	mov	r1, r8
 8005f0e:	4620      	mov	r0, r4
 8005f10:	e7c8      	b.n	8005ea4 <HAL_I2C_Mem_Read+0x15c>
 8005f12:	4632      	mov	r2, r6
 8005f14:	4639      	mov	r1, r7
 8005f16:	4620      	mov	r0, r4
 8005f18:	f7ff fa1a 	bl	8005350 <I2C_WaitOnRXNEFlagUntilTimeout>
 8005f1c:	2800      	cmp	r0, #0
 8005f1e:	f47f af5e 	bne.w	8005dde <HAL_I2C_Mem_Read+0x96>
 8005f22:	6823      	ldr	r3, [r4, #0]
 8005f24:	691a      	ldr	r2, [r3, #16]
 8005f26:	6a63      	ldr	r3, [r4, #36]	; 0x24
 8005f28:	701a      	strb	r2, [r3, #0]
 8005f2a:	6a62      	ldr	r2, [r4, #36]	; 0x24
 8005f2c:	1c53      	adds	r3, r2, #1
 8005f2e:	6263      	str	r3, [r4, #36]	; 0x24
 8005f30:	8d23      	ldrh	r3, [r4, #40]	; 0x28
 8005f32:	3b01      	subs	r3, #1
 8005f34:	8523      	strh	r3, [r4, #40]	; 0x28
 8005f36:	8d63      	ldrh	r3, [r4, #42]	; 0x2a
 8005f38:	3b01      	subs	r3, #1
 8005f3a:	b29b      	uxth	r3, r3
 8005f3c:	8563      	strh	r3, [r4, #42]	; 0x2a
 8005f3e:	6823      	ldr	r3, [r4, #0]
 8005f40:	6959      	ldr	r1, [r3, #20]
 8005f42:	0749      	lsls	r1, r1, #29
 8005f44:	f57f af5c 	bpl.w	8005e00 <HAL_I2C_Mem_Read+0xb8>
 8005f48:	e7c3      	b.n	8005ed2 <HAL_I2C_Mem_Read+0x18a>
 8005f4a:	bf00      	nop
 8005f4c:	00100002 	.word	0x00100002
 8005f50:	ffff0000 	.word	0xffff0000
 8005f54:	00010004 	.word	0x00010004

08005f58 <HAL_IWDG_Init>:
 8005f58:	b538      	push	{r3, r4, r5, lr}
 8005f5a:	4604      	mov	r4, r0
 8005f5c:	b310      	cbz	r0, 8005fa4 <HAL_IWDG_Init+0x4c>
 8005f5e:	6803      	ldr	r3, [r0, #0]
 8005f60:	f64c 42cc 	movw	r2, #52428	; 0xcccc
 8005f64:	601a      	str	r2, [r3, #0]
 8005f66:	f245 5255 	movw	r2, #21845	; 0x5555
 8005f6a:	601a      	str	r2, [r3, #0]
 8005f6c:	6842      	ldr	r2, [r0, #4]
 8005f6e:	605a      	str	r2, [r3, #4]
 8005f70:	6882      	ldr	r2, [r0, #8]
 8005f72:	609a      	str	r2, [r3, #8]
 8005f74:	f7fe face 	bl	8004514 <HAL_GetTick>
 8005f78:	4605      	mov	r5, r0
 8005f7a:	6822      	ldr	r2, [r4, #0]
 8005f7c:	68d3      	ldr	r3, [r2, #12]
 8005f7e:	f013 0303 	ands.w	r3, r3, #3
 8005f82:	d104      	bne.n	8005f8e <HAL_IWDG_Init+0x36>
 8005f84:	f64a 21aa 	movw	r1, #43690	; 0xaaaa
 8005f88:	6011      	str	r1, [r2, #0]
 8005f8a:	4618      	mov	r0, r3
 8005f8c:	bd38      	pop	{r3, r4, r5, pc}
 8005f8e:	f7fe fac1 	bl	8004514 <HAL_GetTick>
 8005f92:	1b40      	subs	r0, r0, r5
 8005f94:	2830      	cmp	r0, #48	; 0x30
 8005f96:	d9f0      	bls.n	8005f7a <HAL_IWDG_Init+0x22>
 8005f98:	6823      	ldr	r3, [r4, #0]
 8005f9a:	68db      	ldr	r3, [r3, #12]
 8005f9c:	079b      	lsls	r3, r3, #30
 8005f9e:	d0ec      	beq.n	8005f7a <HAL_IWDG_Init+0x22>
 8005fa0:	2003      	movs	r0, #3
 8005fa2:	e7f3      	b.n	8005f8c <HAL_IWDG_Init+0x34>
 8005fa4:	2001      	movs	r0, #1
 8005fa6:	e7f1      	b.n	8005f8c <HAL_IWDG_Init+0x34>

08005fa8 <HAL_IWDG_Refresh>:
 8005fa8:	6803      	ldr	r3, [r0, #0]
 8005faa:	f64a 22aa 	movw	r2, #43690	; 0xaaaa
 8005fae:	601a      	str	r2, [r3, #0]
 8005fb0:	2000      	movs	r0, #0
 8005fb2:	4770      	bx	lr

08005fb4 <HAL_RCC_OscConfig>:
 8005fb4:	e92d 41f3 	stmdb	sp!, {r0, r1, r4, r5, r6, r7, r8, lr}
 8005fb8:	4604      	mov	r4, r0
 8005fba:	b340      	cbz	r0, 800600e <HAL_RCC_OscConfig+0x5a>
 8005fbc:	6803      	ldr	r3, [r0, #0]
 8005fbe:	07dd      	lsls	r5, r3, #31
 8005fc0:	d410      	bmi.n	8005fe4 <HAL_RCC_OscConfig+0x30>
 8005fc2:	6823      	ldr	r3, [r4, #0]
 8005fc4:	0798      	lsls	r0, r3, #30
 8005fc6:	d45e      	bmi.n	8006086 <HAL_RCC_OscConfig+0xd2>
 8005fc8:	6823      	ldr	r3, [r4, #0]
 8005fca:	071a      	lsls	r2, r3, #28
 8005fcc:	f100 80a0 	bmi.w	8006110 <HAL_RCC_OscConfig+0x15c>
 8005fd0:	6823      	ldr	r3, [r4, #0]
 8005fd2:	075b      	lsls	r3, r3, #29
 8005fd4:	f100 80be 	bmi.w	8006154 <HAL_RCC_OscConfig+0x1a0>
 8005fd8:	69a0      	ldr	r0, [r4, #24]
 8005fda:	2800      	cmp	r0, #0
 8005fdc:	f040 811f 	bne.w	800621e <HAL_RCC_OscConfig+0x26a>
 8005fe0:	2000      	movs	r0, #0
 8005fe2:	e02b      	b.n	800603c <HAL_RCC_OscConfig+0x88>
 8005fe4:	4ba6      	ldr	r3, [pc, #664]	; (8006280 <HAL_RCC_OscConfig+0x2cc>)
 8005fe6:	689a      	ldr	r2, [r3, #8]
 8005fe8:	f002 020c 	and.w	r2, r2, #12
 8005fec:	2a04      	cmp	r2, #4
 8005fee:	d007      	beq.n	8006000 <HAL_RCC_OscConfig+0x4c>
 8005ff0:	689a      	ldr	r2, [r3, #8]
 8005ff2:	f002 020c 	and.w	r2, r2, #12
 8005ff6:	2a08      	cmp	r2, #8
 8005ff8:	d10b      	bne.n	8006012 <HAL_RCC_OscConfig+0x5e>
 8005ffa:	685a      	ldr	r2, [r3, #4]
 8005ffc:	0251      	lsls	r1, r2, #9
 8005ffe:	d508      	bpl.n	8006012 <HAL_RCC_OscConfig+0x5e>
 8006000:	4b9f      	ldr	r3, [pc, #636]	; (8006280 <HAL_RCC_OscConfig+0x2cc>)
 8006002:	681b      	ldr	r3, [r3, #0]
 8006004:	039a      	lsls	r2, r3, #14
 8006006:	d5dc      	bpl.n	8005fc2 <HAL_RCC_OscConfig+0xe>
 8006008:	6863      	ldr	r3, [r4, #4]
 800600a:	2b00      	cmp	r3, #0
 800600c:	d1d9      	bne.n	8005fc2 <HAL_RCC_OscConfig+0xe>
 800600e:	2001      	movs	r0, #1
 8006010:	e014      	b.n	800603c <HAL_RCC_OscConfig+0x88>
 8006012:	6862      	ldr	r2, [r4, #4]
 8006014:	f5b2 3f80 	cmp.w	r2, #65536	; 0x10000
 8006018:	d113      	bne.n	8006042 <HAL_RCC_OscConfig+0x8e>
 800601a:	681a      	ldr	r2, [r3, #0]
 800601c:	f442 3280 	orr.w	r2, r2, #65536	; 0x10000
 8006020:	601a      	str	r2, [r3, #0]
 8006022:	f7fe fa77 	bl	8004514 <HAL_GetTick>
 8006026:	4e96      	ldr	r6, [pc, #600]	; (8006280 <HAL_RCC_OscConfig+0x2cc>)
 8006028:	4605      	mov	r5, r0
 800602a:	6833      	ldr	r3, [r6, #0]
 800602c:	039b      	lsls	r3, r3, #14
 800602e:	d4c8      	bmi.n	8005fc2 <HAL_RCC_OscConfig+0xe>
 8006030:	f7fe fa70 	bl	8004514 <HAL_GetTick>
 8006034:	1b40      	subs	r0, r0, r5
 8006036:	2864      	cmp	r0, #100	; 0x64
 8006038:	d9f7      	bls.n	800602a <HAL_RCC_OscConfig+0x76>
 800603a:	2003      	movs	r0, #3
 800603c:	b002      	add	sp, #8
 800603e:	e8bd 81f0 	ldmia.w	sp!, {r4, r5, r6, r7, r8, pc}
 8006042:	4d8f      	ldr	r5, [pc, #572]	; (8006280 <HAL_RCC_OscConfig+0x2cc>)
 8006044:	f5b2 2fa0 	cmp.w	r2, #327680	; 0x50000
 8006048:	682b      	ldr	r3, [r5, #0]
 800604a:	d107      	bne.n	800605c <HAL_RCC_OscConfig+0xa8>
 800604c:	f443 2380 	orr.w	r3, r3, #262144	; 0x40000
 8006050:	602b      	str	r3, [r5, #0]
 8006052:	682b      	ldr	r3, [r5, #0]
 8006054:	f443 3380 	orr.w	r3, r3, #65536	; 0x10000
 8006058:	602b      	str	r3, [r5, #0]
 800605a:	e7e2      	b.n	8006022 <HAL_RCC_OscConfig+0x6e>
 800605c:	f423 3380 	bic.w	r3, r3, #65536	; 0x10000
 8006060:	602b      	str	r3, [r5, #0]
 8006062:	682b      	ldr	r3, [r5, #0]
 8006064:	f423 2380 	bic.w	r3, r3, #262144	; 0x40000
 8006068:	602b      	str	r3, [r5, #0]
 800606a:	2a00      	cmp	r2, #0
 800606c:	d1d9      	bne.n	8006022 <HAL_RCC_OscConfig+0x6e>
 800606e:	f7fe fa51 	bl	8004514 <HAL_GetTick>
 8006072:	4606      	mov	r6, r0
 8006074:	682b      	ldr	r3, [r5, #0]
 8006076:	039f      	lsls	r7, r3, #14
 8006078:	d5a3      	bpl.n	8005fc2 <HAL_RCC_OscConfig+0xe>
 800607a:	f7fe fa4b 	bl	8004514 <HAL_GetTick>
 800607e:	1b80      	subs	r0, r0, r6
 8006080:	2864      	cmp	r0, #100	; 0x64
 8006082:	d9f7      	bls.n	8006074 <HAL_RCC_OscConfig+0xc0>
 8006084:	e7d9      	b.n	800603a <HAL_RCC_OscConfig+0x86>
 8006086:	4b7e      	ldr	r3, [pc, #504]	; (8006280 <HAL_RCC_OscConfig+0x2cc>)
 8006088:	689a      	ldr	r2, [r3, #8]
 800608a:	f012 0f0c 	tst.w	r2, #12
 800608e:	d007      	beq.n	80060a0 <HAL_RCC_OscConfig+0xec>
 8006090:	689a      	ldr	r2, [r3, #8]
 8006092:	f002 020c 	and.w	r2, r2, #12
 8006096:	2a08      	cmp	r2, #8
 8006098:	d111      	bne.n	80060be <HAL_RCC_OscConfig+0x10a>
 800609a:	685b      	ldr	r3, [r3, #4]
 800609c:	025e      	lsls	r6, r3, #9
 800609e:	d40e      	bmi.n	80060be <HAL_RCC_OscConfig+0x10a>
 80060a0:	4b77      	ldr	r3, [pc, #476]	; (8006280 <HAL_RCC_OscConfig+0x2cc>)
 80060a2:	681a      	ldr	r2, [r3, #0]
 80060a4:	0795      	lsls	r5, r2, #30
 80060a6:	d502      	bpl.n	80060ae <HAL_RCC_OscConfig+0xfa>
 80060a8:	68e2      	ldr	r2, [r4, #12]
 80060aa:	2a01      	cmp	r2, #1
 80060ac:	d1af      	bne.n	800600e <HAL_RCC_OscConfig+0x5a>
 80060ae:	681a      	ldr	r2, [r3, #0]
 80060b0:	6921      	ldr	r1, [r4, #16]
 80060b2:	f022 02f8 	bic.w	r2, r2, #248	; 0xf8
 80060b6:	ea42 02c1 	orr.w	r2, r2, r1, lsl #3
 80060ba:	601a      	str	r2, [r3, #0]
 80060bc:	e784      	b.n	8005fc8 <HAL_RCC_OscConfig+0x14>
 80060be:	68e2      	ldr	r2, [r4, #12]
 80060c0:	4b70      	ldr	r3, [pc, #448]	; (8006284 <HAL_RCC_OscConfig+0x2d0>)
 80060c2:	b1b2      	cbz	r2, 80060f2 <HAL_RCC_OscConfig+0x13e>
 80060c4:	2201      	movs	r2, #1
 80060c6:	601a      	str	r2, [r3, #0]
 80060c8:	f7fe fa24 	bl	8004514 <HAL_GetTick>
 80060cc:	4d6c      	ldr	r5, [pc, #432]	; (8006280 <HAL_RCC_OscConfig+0x2cc>)
 80060ce:	4606      	mov	r6, r0
 80060d0:	682b      	ldr	r3, [r5, #0]
 80060d2:	0798      	lsls	r0, r3, #30
 80060d4:	d507      	bpl.n	80060e6 <HAL_RCC_OscConfig+0x132>
 80060d6:	682b      	ldr	r3, [r5, #0]
 80060d8:	6922      	ldr	r2, [r4, #16]
 80060da:	f023 03f8 	bic.w	r3, r3, #248	; 0xf8
 80060de:	ea43 03c2 	orr.w	r3, r3, r2, lsl #3
 80060e2:	602b      	str	r3, [r5, #0]
 80060e4:	e770      	b.n	8005fc8 <HAL_RCC_OscConfig+0x14>
 80060e6:	f7fe fa15 	bl	8004514 <HAL_GetTick>
 80060ea:	1b80      	subs	r0, r0, r6
 80060ec:	2802      	cmp	r0, #2
 80060ee:	d9ef      	bls.n	80060d0 <HAL_RCC_OscConfig+0x11c>
 80060f0:	e7a3      	b.n	800603a <HAL_RCC_OscConfig+0x86>
 80060f2:	601a      	str	r2, [r3, #0]
 80060f4:	f7fe fa0e 	bl	8004514 <HAL_GetTick>
 80060f8:	4e61      	ldr	r6, [pc, #388]	; (8006280 <HAL_RCC_OscConfig+0x2cc>)
 80060fa:	4605      	mov	r5, r0
 80060fc:	6833      	ldr	r3, [r6, #0]
 80060fe:	0799      	lsls	r1, r3, #30
 8006100:	f57f af62 	bpl.w	8005fc8 <HAL_RCC_OscConfig+0x14>
 8006104:	f7fe fa06 	bl	8004514 <HAL_GetTick>
 8006108:	1b40      	subs	r0, r0, r5
 800610a:	2802      	cmp	r0, #2
 800610c:	d9f6      	bls.n	80060fc <HAL_RCC_OscConfig+0x148>
 800610e:	e794      	b.n	800603a <HAL_RCC_OscConfig+0x86>
 8006110:	6962      	ldr	r2, [r4, #20]
 8006112:	4b5d      	ldr	r3, [pc, #372]	; (8006288 <HAL_RCC_OscConfig+0x2d4>)
 8006114:	b17a      	cbz	r2, 8006136 <HAL_RCC_OscConfig+0x182>
 8006116:	2201      	movs	r2, #1
 8006118:	601a      	str	r2, [r3, #0]
 800611a:	f7fe f9fb 	bl	8004514 <HAL_GetTick>
 800611e:	4e58      	ldr	r6, [pc, #352]	; (8006280 <HAL_RCC_OscConfig+0x2cc>)
 8006120:	4605      	mov	r5, r0
 8006122:	6f73      	ldr	r3, [r6, #116]	; 0x74
 8006124:	079f      	lsls	r7, r3, #30
 8006126:	f53f af53 	bmi.w	8005fd0 <HAL_RCC_OscConfig+0x1c>
 800612a:	f7fe f9f3 	bl	8004514 <HAL_GetTick>
 800612e:	1b40      	subs	r0, r0, r5
 8006130:	2802      	cmp	r0, #2
 8006132:	d9f6      	bls.n	8006122 <HAL_RCC_OscConfig+0x16e>
 8006134:	e781      	b.n	800603a <HAL_RCC_OscConfig+0x86>
 8006136:	601a      	str	r2, [r3, #0]
 8006138:	f7fe f9ec 	bl	8004514 <HAL_GetTick>
 800613c:	4e50      	ldr	r6, [pc, #320]	; (8006280 <HAL_RCC_OscConfig+0x2cc>)
 800613e:	4605      	mov	r5, r0
 8006140:	6f73      	ldr	r3, [r6, #116]	; 0x74
 8006142:	0798      	lsls	r0, r3, #30
 8006144:	f57f af44 	bpl.w	8005fd0 <HAL_RCC_OscConfig+0x1c>
 8006148:	f7fe f9e4 	bl	8004514 <HAL_GetTick>
 800614c:	1b40      	subs	r0, r0, r5
 800614e:	2802      	cmp	r0, #2
 8006150:	d9f6      	bls.n	8006140 <HAL_RCC_OscConfig+0x18c>
 8006152:	e772      	b.n	800603a <HAL_RCC_OscConfig+0x86>
 8006154:	4b4a      	ldr	r3, [pc, #296]	; (8006280 <HAL_RCC_OscConfig+0x2cc>)
 8006156:	6c1a      	ldr	r2, [r3, #64]	; 0x40
 8006158:	f012 5280 	ands.w	r2, r2, #268435456	; 0x10000000
 800615c:	d128      	bne.n	80061b0 <HAL_RCC_OscConfig+0x1fc>
 800615e:	9201      	str	r2, [sp, #4]
 8006160:	6c1a      	ldr	r2, [r3, #64]	; 0x40
 8006162:	f042 5280 	orr.w	r2, r2, #268435456	; 0x10000000
 8006166:	641a      	str	r2, [r3, #64]	; 0x40
 8006168:	6c1b      	ldr	r3, [r3, #64]	; 0x40
 800616a:	f003 5380 	and.w	r3, r3, #268435456	; 0x10000000
 800616e:	9301      	str	r3, [sp, #4]
 8006170:	9b01      	ldr	r3, [sp, #4]
 8006172:	2701      	movs	r7, #1
 8006174:	4d45      	ldr	r5, [pc, #276]	; (800628c <HAL_RCC_OscConfig+0x2d8>)
 8006176:	682b      	ldr	r3, [r5, #0]
 8006178:	05d9      	lsls	r1, r3, #23
 800617a:	d51b      	bpl.n	80061b4 <HAL_RCC_OscConfig+0x200>
 800617c:	68a3      	ldr	r3, [r4, #8]
 800617e:	4d40      	ldr	r5, [pc, #256]	; (8006280 <HAL_RCC_OscConfig+0x2cc>)
 8006180:	2b01      	cmp	r3, #1
 8006182:	d127      	bne.n	80061d4 <HAL_RCC_OscConfig+0x220>
 8006184:	6f2b      	ldr	r3, [r5, #112]	; 0x70
 8006186:	f043 0301 	orr.w	r3, r3, #1
 800618a:	672b      	str	r3, [r5, #112]	; 0x70
 800618c:	f7fe f9c2 	bl	8004514 <HAL_GetTick>
 8006190:	4e3b      	ldr	r6, [pc, #236]	; (8006280 <HAL_RCC_OscConfig+0x2cc>)
 8006192:	4605      	mov	r5, r0
 8006194:	f241 3888 	movw	r8, #5000	; 0x1388
 8006198:	6f33      	ldr	r3, [r6, #112]	; 0x70
 800619a:	079b      	lsls	r3, r3, #30
 800619c:	d539      	bpl.n	8006212 <HAL_RCC_OscConfig+0x25e>
 800619e:	2f00      	cmp	r7, #0
 80061a0:	f43f af1a 	beq.w	8005fd8 <HAL_RCC_OscConfig+0x24>
 80061a4:	4a36      	ldr	r2, [pc, #216]	; (8006280 <HAL_RCC_OscConfig+0x2cc>)
 80061a6:	6c13      	ldr	r3, [r2, #64]	; 0x40
 80061a8:	f023 5380 	bic.w	r3, r3, #268435456	; 0x10000000
 80061ac:	6413      	str	r3, [r2, #64]	; 0x40
 80061ae:	e713      	b.n	8005fd8 <HAL_RCC_OscConfig+0x24>
 80061b0:	2700      	movs	r7, #0
 80061b2:	e7df      	b.n	8006174 <HAL_RCC_OscConfig+0x1c0>
 80061b4:	682b      	ldr	r3, [r5, #0]
 80061b6:	f443 7380 	orr.w	r3, r3, #256	; 0x100
 80061ba:	602b      	str	r3, [r5, #0]
 80061bc:	f7fe f9aa 	bl	8004514 <HAL_GetTick>
 80061c0:	4606      	mov	r6, r0
 80061c2:	682b      	ldr	r3, [r5, #0]
 80061c4:	05da      	lsls	r2, r3, #23
 80061c6:	d4d9      	bmi.n	800617c <HAL_RCC_OscConfig+0x1c8>
 80061c8:	f7fe f9a4 	bl	8004514 <HAL_GetTick>
 80061cc:	1b80      	subs	r0, r0, r6
 80061ce:	2802      	cmp	r0, #2
 80061d0:	d9f7      	bls.n	80061c2 <HAL_RCC_OscConfig+0x20e>
 80061d2:	e732      	b.n	800603a <HAL_RCC_OscConfig+0x86>
 80061d4:	2b05      	cmp	r3, #5
 80061d6:	d104      	bne.n	80061e2 <HAL_RCC_OscConfig+0x22e>
 80061d8:	6f2b      	ldr	r3, [r5, #112]	; 0x70
 80061da:	f043 0304 	orr.w	r3, r3, #4
 80061de:	672b      	str	r3, [r5, #112]	; 0x70
 80061e0:	e7d0      	b.n	8006184 <HAL_RCC_OscConfig+0x1d0>
 80061e2:	6f2a      	ldr	r2, [r5, #112]	; 0x70
 80061e4:	f022 0201 	bic.w	r2, r2, #1
 80061e8:	672a      	str	r2, [r5, #112]	; 0x70
 80061ea:	6f2a      	ldr	r2, [r5, #112]	; 0x70
 80061ec:	f022 0204 	bic.w	r2, r2, #4
 80061f0:	672a      	str	r2, [r5, #112]	; 0x70
 80061f2:	2b00      	cmp	r3, #0
 80061f4:	d1ca      	bne.n	800618c <HAL_RCC_OscConfig+0x1d8>
 80061f6:	f7fe f98d 	bl	8004514 <HAL_GetTick>
 80061fa:	f241 3888 	movw	r8, #5000	; 0x1388
 80061fe:	4606      	mov	r6, r0
 8006200:	6f2b      	ldr	r3, [r5, #112]	; 0x70
 8006202:	0798      	lsls	r0, r3, #30
 8006204:	d5cb      	bpl.n	800619e <HAL_RCC_OscConfig+0x1ea>
 8006206:	f7fe f985 	bl	8004514 <HAL_GetTick>
 800620a:	1b80      	subs	r0, r0, r6
 800620c:	4540      	cmp	r0, r8
 800620e:	d9f7      	bls.n	8006200 <HAL_RCC_OscConfig+0x24c>
 8006210:	e713      	b.n	800603a <HAL_RCC_OscConfig+0x86>
 8006212:	f7fe f97f 	bl	8004514 <HAL_GetTick>
 8006216:	1b40      	subs	r0, r0, r5
 8006218:	4540      	cmp	r0, r8
 800621a:	d9bd      	bls.n	8006198 <HAL_RCC_OscConfig+0x1e4>
 800621c:	e70d      	b.n	800603a <HAL_RCC_OscConfig+0x86>
 800621e:	4d18      	ldr	r5, [pc, #96]	; (8006280 <HAL_RCC_OscConfig+0x2cc>)
 8006220:	68ab      	ldr	r3, [r5, #8]
 8006222:	f003 030c 	and.w	r3, r3, #12
 8006226:	2b08      	cmp	r3, #8
 8006228:	d047      	beq.n	80062ba <HAL_RCC_OscConfig+0x306>
 800622a:	4e19      	ldr	r6, [pc, #100]	; (8006290 <HAL_RCC_OscConfig+0x2dc>)
 800622c:	2300      	movs	r3, #0
 800622e:	2802      	cmp	r0, #2
 8006230:	6033      	str	r3, [r6, #0]
 8006232:	d135      	bne.n	80062a0 <HAL_RCC_OscConfig+0x2ec>
 8006234:	f7fe f96e 	bl	8004514 <HAL_GetTick>
 8006238:	4607      	mov	r7, r0
 800623a:	682b      	ldr	r3, [r5, #0]
 800623c:	0199      	lsls	r1, r3, #6
 800623e:	d429      	bmi.n	8006294 <HAL_RCC_OscConfig+0x2e0>
 8006240:	e9d4 3207 	ldrd	r3, r2, [r4, #28]
 8006244:	4313      	orrs	r3, r2
 8006246:	6a62      	ldr	r2, [r4, #36]	; 0x24
 8006248:	ea43 1382 	orr.w	r3, r3, r2, lsl #6
 800624c:	6ae2      	ldr	r2, [r4, #44]	; 0x2c
 800624e:	ea43 6302 	orr.w	r3, r3, r2, lsl #24
 8006252:	6aa2      	ldr	r2, [r4, #40]	; 0x28
 8006254:	0852      	lsrs	r2, r2, #1
 8006256:	3a01      	subs	r2, #1
 8006258:	ea43 4302 	orr.w	r3, r3, r2, lsl #16
 800625c:	606b      	str	r3, [r5, #4]
 800625e:	2301      	movs	r3, #1
 8006260:	6033      	str	r3, [r6, #0]
 8006262:	f7fe f957 	bl	8004514 <HAL_GetTick>
 8006266:	4d06      	ldr	r5, [pc, #24]	; (8006280 <HAL_RCC_OscConfig+0x2cc>)
 8006268:	4604      	mov	r4, r0
 800626a:	682b      	ldr	r3, [r5, #0]
 800626c:	019a      	lsls	r2, r3, #6
 800626e:	f53f aeb7 	bmi.w	8005fe0 <HAL_RCC_OscConfig+0x2c>
 8006272:	f7fe f94f 	bl	8004514 <HAL_GetTick>
 8006276:	1b00      	subs	r0, r0, r4
 8006278:	2802      	cmp	r0, #2
 800627a:	d9f6      	bls.n	800626a <HAL_RCC_OscConfig+0x2b6>
 800627c:	e6dd      	b.n	800603a <HAL_RCC_OscConfig+0x86>
 800627e:	bf00      	nop
 8006280:	40023800 	.word	0x40023800
 8006284:	42470000 	.word	0x42470000
 8006288:	42470e80 	.word	0x42470e80
 800628c:	40007000 	.word	0x40007000
 8006290:	42470060 	.word	0x42470060
 8006294:	f7fe f93e 	bl	8004514 <HAL_GetTick>
 8006298:	1bc0      	subs	r0, r0, r7
 800629a:	2802      	cmp	r0, #2
 800629c:	d9cd      	bls.n	800623a <HAL_RCC_OscConfig+0x286>
 800629e:	e6cc      	b.n	800603a <HAL_RCC_OscConfig+0x86>
 80062a0:	f7fe f938 	bl	8004514 <HAL_GetTick>
 80062a4:	4604      	mov	r4, r0
 80062a6:	682b      	ldr	r3, [r5, #0]
 80062a8:	019b      	lsls	r3, r3, #6
 80062aa:	f57f ae99 	bpl.w	8005fe0 <HAL_RCC_OscConfig+0x2c>
 80062ae:	f7fe f931 	bl	8004514 <HAL_GetTick>
 80062b2:	1b00      	subs	r0, r0, r4
 80062b4:	2802      	cmp	r0, #2
 80062b6:	d9f6      	bls.n	80062a6 <HAL_RCC_OscConfig+0x2f2>
 80062b8:	e6bf      	b.n	800603a <HAL_RCC_OscConfig+0x86>
 80062ba:	2801      	cmp	r0, #1
 80062bc:	f43f aebe 	beq.w	800603c <HAL_RCC_OscConfig+0x88>
 80062c0:	686b      	ldr	r3, [r5, #4]
 80062c2:	69e2      	ldr	r2, [r4, #28]
 80062c4:	f403 0180 	and.w	r1, r3, #4194304	; 0x400000
 80062c8:	4291      	cmp	r1, r2
 80062ca:	f47f aea0 	bne.w	800600e <HAL_RCC_OscConfig+0x5a>
 80062ce:	6a21      	ldr	r1, [r4, #32]
 80062d0:	f003 023f 	and.w	r2, r3, #63	; 0x3f
 80062d4:	428a      	cmp	r2, r1
 80062d6:	f47f ae9a 	bne.w	800600e <HAL_RCC_OscConfig+0x5a>
 80062da:	6a61      	ldr	r1, [r4, #36]	; 0x24
 80062dc:	f647 72c0 	movw	r2, #32704	; 0x7fc0
 80062e0:	401a      	ands	r2, r3
 80062e2:	ebb2 1f81 	cmp.w	r2, r1, lsl #6
 80062e6:	f47f ae92 	bne.w	800600e <HAL_RCC_OscConfig+0x5a>
 80062ea:	6aa2      	ldr	r2, [r4, #40]	; 0x28
 80062ec:	0852      	lsrs	r2, r2, #1
 80062ee:	f403 3140 	and.w	r1, r3, #196608	; 0x30000
 80062f2:	3a01      	subs	r2, #1
 80062f4:	ebb1 4f02 	cmp.w	r1, r2, lsl #16
 80062f8:	f47f ae89 	bne.w	800600e <HAL_RCC_OscConfig+0x5a>
 80062fc:	6ae2      	ldr	r2, [r4, #44]	; 0x2c
 80062fe:	f003 6370 	and.w	r3, r3, #251658240	; 0xf000000
 8006302:	ebb3 6f02 	cmp.w	r3, r2, lsl #24
 8006306:	f43f ae6b 	beq.w	8005fe0 <HAL_RCC_OscConfig+0x2c>
 800630a:	e680      	b.n	800600e <HAL_RCC_OscConfig+0x5a>

0800630c <HAL_RCC_GetSysClockFreq>:
 800630c:	4910      	ldr	r1, [pc, #64]	; (8006350 <HAL_RCC_GetSysClockFreq+0x44>)
 800630e:	b508      	push	{r3, lr}
 8006310:	688b      	ldr	r3, [r1, #8]
 8006312:	f003 030c 	and.w	r3, r3, #12
 8006316:	2b08      	cmp	r3, #8
 8006318:	d118      	bne.n	800634c <HAL_RCC_GetSysClockFreq+0x40>
 800631a:	684a      	ldr	r2, [r1, #4]
 800631c:	684b      	ldr	r3, [r1, #4]
 800631e:	6849      	ldr	r1, [r1, #4]
 8006320:	480c      	ldr	r0, [pc, #48]	; (8006354 <HAL_RCC_GetSysClockFreq+0x48>)
 8006322:	f413 0380 	ands.w	r3, r3, #4194304	; 0x400000
 8006326:	f3c1 1188 	ubfx	r1, r1, #6, #9
 800632a:	bf18      	it	ne
 800632c:	2300      	movne	r3, #0
 800632e:	f002 023f 	and.w	r2, r2, #63	; 0x3f
 8006332:	fba1 0100 	umull	r0, r1, r1, r0
 8006336:	f7fa fcb7 	bl	8000ca8 <__aeabi_uldivmod>
 800633a:	4b05      	ldr	r3, [pc, #20]	; (8006350 <HAL_RCC_GetSysClockFreq+0x44>)
 800633c:	685b      	ldr	r3, [r3, #4]
 800633e:	f3c3 4301 	ubfx	r3, r3, #16, #2
 8006342:	3301      	adds	r3, #1
 8006344:	005b      	lsls	r3, r3, #1
 8006346:	fbb0 f0f3 	udiv	r0, r0, r3
 800634a:	bd08      	pop	{r3, pc}
 800634c:	4801      	ldr	r0, [pc, #4]	; (8006354 <HAL_RCC_GetSysClockFreq+0x48>)
 800634e:	e7fc      	b.n	800634a <HAL_RCC_GetSysClockFreq+0x3e>
 8006350:	40023800 	.word	0x40023800
 8006354:	00f42400 	.word	0x00f42400

08006358 <HAL_RCC_ClockConfig>:
 8006358:	e92d 41f0 	stmdb	sp!, {r4, r5, r6, r7, r8, lr}
 800635c:	460d      	mov	r5, r1
 800635e:	4604      	mov	r4, r0
 8006360:	b910      	cbnz	r0, 8006368 <HAL_RCC_ClockConfig+0x10>
 8006362:	2001      	movs	r0, #1
 8006364:	e8bd 81f0 	ldmia.w	sp!, {r4, r5, r6, r7, r8, pc}
 8006368:	4b44      	ldr	r3, [pc, #272]	; (800647c <HAL_RCC_ClockConfig+0x124>)
 800636a:	681a      	ldr	r2, [r3, #0]
 800636c:	f002 0207 	and.w	r2, r2, #7
 8006370:	428a      	cmp	r2, r1
 8006372:	d328      	bcc.n	80063c6 <HAL_RCC_ClockConfig+0x6e>
 8006374:	6822      	ldr	r2, [r4, #0]
 8006376:	0797      	lsls	r7, r2, #30
 8006378:	d42d      	bmi.n	80063d6 <HAL_RCC_ClockConfig+0x7e>
 800637a:	07d0      	lsls	r0, r2, #31
 800637c:	d441      	bmi.n	8006402 <HAL_RCC_ClockConfig+0xaa>
 800637e:	4b3f      	ldr	r3, [pc, #252]	; (800647c <HAL_RCC_ClockConfig+0x124>)
 8006380:	681a      	ldr	r2, [r3, #0]
 8006382:	f002 0207 	and.w	r2, r2, #7
 8006386:	42aa      	cmp	r2, r5
 8006388:	d866      	bhi.n	8006458 <HAL_RCC_ClockConfig+0x100>
 800638a:	6822      	ldr	r2, [r4, #0]
 800638c:	0751      	lsls	r1, r2, #29
 800638e:	d46c      	bmi.n	800646a <HAL_RCC_ClockConfig+0x112>
 8006390:	0713      	lsls	r3, r2, #28
 8006392:	d507      	bpl.n	80063a4 <HAL_RCC_ClockConfig+0x4c>
 8006394:	4a3a      	ldr	r2, [pc, #232]	; (8006480 <HAL_RCC_ClockConfig+0x128>)
 8006396:	6921      	ldr	r1, [r4, #16]
 8006398:	6893      	ldr	r3, [r2, #8]
 800639a:	f423 4360 	bic.w	r3, r3, #57344	; 0xe000
 800639e:	ea43 03c1 	orr.w	r3, r3, r1, lsl #3
 80063a2:	6093      	str	r3, [r2, #8]
 80063a4:	f7ff ffb2 	bl	800630c <HAL_RCC_GetSysClockFreq>
 80063a8:	4b35      	ldr	r3, [pc, #212]	; (8006480 <HAL_RCC_ClockConfig+0x128>)
 80063aa:	4a36      	ldr	r2, [pc, #216]	; (8006484 <HAL_RCC_ClockConfig+0x12c>)
 80063ac:	689b      	ldr	r3, [r3, #8]
 80063ae:	f3c3 1303 	ubfx	r3, r3, #4, #4
 80063b2:	5cd3      	ldrb	r3, [r2, r3]
 80063b4:	40d8      	lsrs	r0, r3
 80063b6:	4b34      	ldr	r3, [pc, #208]	; (8006488 <HAL_RCC_ClockConfig+0x130>)
 80063b8:	6018      	str	r0, [r3, #0]
 80063ba:	4b34      	ldr	r3, [pc, #208]	; (800648c <HAL_RCC_ClockConfig+0x134>)
 80063bc:	6818      	ldr	r0, [r3, #0]
 80063be:	f7fe f85f 	bl	8004480 <HAL_InitTick>
 80063c2:	2000      	movs	r0, #0
 80063c4:	e7ce      	b.n	8006364 <HAL_RCC_ClockConfig+0xc>
 80063c6:	b2ca      	uxtb	r2, r1
 80063c8:	701a      	strb	r2, [r3, #0]
 80063ca:	681b      	ldr	r3, [r3, #0]
 80063cc:	f003 0307 	and.w	r3, r3, #7
 80063d0:	428b      	cmp	r3, r1
 80063d2:	d1c6      	bne.n	8006362 <HAL_RCC_ClockConfig+0xa>
 80063d4:	e7ce      	b.n	8006374 <HAL_RCC_ClockConfig+0x1c>
 80063d6:	4b2a      	ldr	r3, [pc, #168]	; (8006480 <HAL_RCC_ClockConfig+0x128>)
 80063d8:	f012 0f04 	tst.w	r2, #4
 80063dc:	bf1e      	ittt	ne
 80063de:	6899      	ldrne	r1, [r3, #8]
 80063e0:	f441 51e0 	orrne.w	r1, r1, #7168	; 0x1c00
 80063e4:	6099      	strne	r1, [r3, #8]
 80063e6:	0716      	lsls	r6, r2, #28
 80063e8:	bf42      	ittt	mi
 80063ea:	6899      	ldrmi	r1, [r3, #8]
 80063ec:	f441 4160 	orrmi.w	r1, r1, #57344	; 0xe000
 80063f0:	6099      	strmi	r1, [r3, #8]
 80063f2:	4923      	ldr	r1, [pc, #140]	; (8006480 <HAL_RCC_ClockConfig+0x128>)
 80063f4:	68a0      	ldr	r0, [r4, #8]
 80063f6:	688b      	ldr	r3, [r1, #8]
 80063f8:	f023 03f0 	bic.w	r3, r3, #240	; 0xf0
 80063fc:	4303      	orrs	r3, r0
 80063fe:	608b      	str	r3, [r1, #8]
 8006400:	e7bb      	b.n	800637a <HAL_RCC_ClockConfig+0x22>
 8006402:	6862      	ldr	r2, [r4, #4]
 8006404:	4b1e      	ldr	r3, [pc, #120]	; (8006480 <HAL_RCC_ClockConfig+0x128>)
 8006406:	2a01      	cmp	r2, #1
 8006408:	d11c      	bne.n	8006444 <HAL_RCC_ClockConfig+0xec>
 800640a:	681b      	ldr	r3, [r3, #0]
 800640c:	f413 3f00 	tst.w	r3, #131072	; 0x20000
 8006410:	d0a7      	beq.n	8006362 <HAL_RCC_ClockConfig+0xa>
 8006412:	4e1b      	ldr	r6, [pc, #108]	; (8006480 <HAL_RCC_ClockConfig+0x128>)
 8006414:	68b3      	ldr	r3, [r6, #8]
 8006416:	f023 0303 	bic.w	r3, r3, #3
 800641a:	4313      	orrs	r3, r2
 800641c:	60b3      	str	r3, [r6, #8]
 800641e:	f7fe f879 	bl	8004514 <HAL_GetTick>
 8006422:	f241 3888 	movw	r8, #5000	; 0x1388
 8006426:	4607      	mov	r7, r0
 8006428:	68b3      	ldr	r3, [r6, #8]
 800642a:	6862      	ldr	r2, [r4, #4]
 800642c:	f003 030c 	and.w	r3, r3, #12
 8006430:	ebb3 0f82 	cmp.w	r3, r2, lsl #2
 8006434:	d0a3      	beq.n	800637e <HAL_RCC_ClockConfig+0x26>
 8006436:	f7fe f86d 	bl	8004514 <HAL_GetTick>
 800643a:	1bc0      	subs	r0, r0, r7
 800643c:	4540      	cmp	r0, r8
 800643e:	d9f3      	bls.n	8006428 <HAL_RCC_ClockConfig+0xd0>
 8006440:	2003      	movs	r0, #3
 8006442:	e78f      	b.n	8006364 <HAL_RCC_ClockConfig+0xc>
 8006444:	1e91      	subs	r1, r2, #2
 8006446:	2901      	cmp	r1, #1
 8006448:	681b      	ldr	r3, [r3, #0]
 800644a:	d802      	bhi.n	8006452 <HAL_RCC_ClockConfig+0xfa>
 800644c:	f013 7f00 	tst.w	r3, #33554432	; 0x2000000
 8006450:	e7de      	b.n	8006410 <HAL_RCC_ClockConfig+0xb8>
 8006452:	f013 0f02 	tst.w	r3, #2
 8006456:	e7db      	b.n	8006410 <HAL_RCC_ClockConfig+0xb8>
 8006458:	b2ea      	uxtb	r2, r5
 800645a:	701a      	strb	r2, [r3, #0]
 800645c:	681b      	ldr	r3, [r3, #0]
 800645e:	f003 0307 	and.w	r3, r3, #7
 8006462:	42ab      	cmp	r3, r5
 8006464:	f47f af7d 	bne.w	8006362 <HAL_RCC_ClockConfig+0xa>
 8006468:	e78f      	b.n	800638a <HAL_RCC_ClockConfig+0x32>
 800646a:	4905      	ldr	r1, [pc, #20]	; (8006480 <HAL_RCC_ClockConfig+0x128>)
 800646c:	68e0      	ldr	r0, [r4, #12]
 800646e:	688b      	ldr	r3, [r1, #8]
 8006470:	f423 53e0 	bic.w	r3, r3, #7168	; 0x1c00
 8006474:	4303      	orrs	r3, r0
 8006476:	608b      	str	r3, [r1, #8]
 8006478:	e78a      	b.n	8006390 <HAL_RCC_ClockConfig+0x38>
 800647a:	bf00      	nop
 800647c:	40023c00 	.word	0x40023c00
 8006480:	40023800 	.word	0x40023800
 8006484:	0800e1d5 	.word	0x0800e1d5
 8006488:	200001c0 	.word	0x200001c0
 800648c:	200001c8 	.word	0x200001c8

08006490 <HAL_RCC_GetPCLK1Freq>:
 8006490:	4b04      	ldr	r3, [pc, #16]	; (80064a4 <HAL_RCC_GetPCLK1Freq+0x14>)
 8006492:	4a05      	ldr	r2, [pc, #20]	; (80064a8 <HAL_RCC_GetPCLK1Freq+0x18>)
 8006494:	689b      	ldr	r3, [r3, #8]
 8006496:	f3c3 2382 	ubfx	r3, r3, #10, #3
 800649a:	5cd3      	ldrb	r3, [r2, r3]
 800649c:	4a03      	ldr	r2, [pc, #12]	; (80064ac <HAL_RCC_GetPCLK1Freq+0x1c>)
 800649e:	6810      	ldr	r0, [r2, #0]
 80064a0:	40d8      	lsrs	r0, r3
 80064a2:	4770      	bx	lr
 80064a4:	40023800 	.word	0x40023800
 80064a8:	0800e1e5 	.word	0x0800e1e5
 80064ac:	200001c0 	.word	0x200001c0

080064b0 <HAL_RCC_GetPCLK2Freq>:
 80064b0:	4b04      	ldr	r3, [pc, #16]	; (80064c4 <HAL_RCC_GetPCLK2Freq+0x14>)
 80064b2:	4a05      	ldr	r2, [pc, #20]	; (80064c8 <HAL_RCC_GetPCLK2Freq+0x18>)
 80064b4:	689b      	ldr	r3, [r3, #8]
 80064b6:	f3c3 3342 	ubfx	r3, r3, #13, #3
 80064ba:	5cd3      	ldrb	r3, [r2, r3]
 80064bc:	4a03      	ldr	r2, [pc, #12]	; (80064cc <HAL_RCC_GetPCLK2Freq+0x1c>)
 80064be:	6810      	ldr	r0, [r2, #0]
 80064c0:	40d8      	lsrs	r0, r3
 80064c2:	4770      	bx	lr
 80064c4:	40023800 	.word	0x40023800
 80064c8:	0800e1e5 	.word	0x0800e1e5
 80064cc:	200001c0 	.word	0x200001c0

080064d0 <HAL_RCCEx_PeriphCLKConfig>:
 80064d0:	6803      	ldr	r3, [r0, #0]
 80064d2:	f013 0f05 	tst.w	r3, #5
 80064d6:	b5f7      	push	{r0, r1, r2, r4, r5, r6, r7, lr}
 80064d8:	4604      	mov	r4, r0
 80064da:	d105      	bne.n	80064e8 <HAL_RCCEx_PeriphCLKConfig+0x18>
 80064dc:	6823      	ldr	r3, [r4, #0]
 80064de:	f013 0302 	ands.w	r3, r3, #2
 80064e2:	d129      	bne.n	8006538 <HAL_RCCEx_PeriphCLKConfig+0x68>
 80064e4:	2000      	movs	r0, #0
 80064e6:	e025      	b.n	8006534 <HAL_RCCEx_PeriphCLKConfig+0x64>
 80064e8:	4f41      	ldr	r7, [pc, #260]	; (80065f0 <HAL_RCCEx_PeriphCLKConfig+0x120>)
 80064ea:	4e42      	ldr	r6, [pc, #264]	; (80065f4 <HAL_RCCEx_PeriphCLKConfig+0x124>)
 80064ec:	2300      	movs	r3, #0
 80064ee:	603b      	str	r3, [r7, #0]
 80064f0:	f7fe f810 	bl	8004514 <HAL_GetTick>
 80064f4:	4605      	mov	r5, r0
 80064f6:	6833      	ldr	r3, [r6, #0]
 80064f8:	011b      	lsls	r3, r3, #4
 80064fa:	d415      	bmi.n	8006528 <HAL_RCCEx_PeriphCLKConfig+0x58>
 80064fc:	e9d4 2301 	ldrd	r2, r3, [r4, #4]
 8006500:	071b      	lsls	r3, r3, #28
 8006502:	ea43 1382 	orr.w	r3, r3, r2, lsl #6
 8006506:	f8c6 3084 	str.w	r3, [r6, #132]	; 0x84
 800650a:	2301      	movs	r3, #1
 800650c:	603b      	str	r3, [r7, #0]
 800650e:	f7fe f801 	bl	8004514 <HAL_GetTick>
 8006512:	4e38      	ldr	r6, [pc, #224]	; (80065f4 <HAL_RCCEx_PeriphCLKConfig+0x124>)
 8006514:	4605      	mov	r5, r0
 8006516:	6833      	ldr	r3, [r6, #0]
 8006518:	0118      	lsls	r0, r3, #4
 800651a:	d4df      	bmi.n	80064dc <HAL_RCCEx_PeriphCLKConfig+0xc>
 800651c:	f7fd fffa 	bl	8004514 <HAL_GetTick>
 8006520:	1b40      	subs	r0, r0, r5
 8006522:	2802      	cmp	r0, #2
 8006524:	d9f7      	bls.n	8006516 <HAL_RCCEx_PeriphCLKConfig+0x46>
 8006526:	e004      	b.n	8006532 <HAL_RCCEx_PeriphCLKConfig+0x62>
 8006528:	f7fd fff4 	bl	8004514 <HAL_GetTick>
 800652c:	1b40      	subs	r0, r0, r5
 800652e:	2802      	cmp	r0, #2
 8006530:	d9e1      	bls.n	80064f6 <HAL_RCCEx_PeriphCLKConfig+0x26>
 8006532:	2003      	movs	r0, #3
 8006534:	b003      	add	sp, #12
 8006536:	bdf0      	pop	{r4, r5, r6, r7, pc}
 8006538:	2300      	movs	r3, #0
 800653a:	9301      	str	r3, [sp, #4]
 800653c:	4b2d      	ldr	r3, [pc, #180]	; (80065f4 <HAL_RCCEx_PeriphCLKConfig+0x124>)
 800653e:	4d2e      	ldr	r5, [pc, #184]	; (80065f8 <HAL_RCCEx_PeriphCLKConfig+0x128>)
 8006540:	6c1a      	ldr	r2, [r3, #64]	; 0x40
 8006542:	f042 5280 	orr.w	r2, r2, #268435456	; 0x10000000
 8006546:	641a      	str	r2, [r3, #64]	; 0x40
 8006548:	6c1b      	ldr	r3, [r3, #64]	; 0x40
 800654a:	f003 5380 	and.w	r3, r3, #268435456	; 0x10000000
 800654e:	9301      	str	r3, [sp, #4]
 8006550:	9b01      	ldr	r3, [sp, #4]
 8006552:	682b      	ldr	r3, [r5, #0]
 8006554:	f443 7380 	orr.w	r3, r3, #256	; 0x100
 8006558:	602b      	str	r3, [r5, #0]
 800655a:	f7fd ffdb 	bl	8004514 <HAL_GetTick>
 800655e:	4606      	mov	r6, r0
 8006560:	682b      	ldr	r3, [r5, #0]
 8006562:	05d9      	lsls	r1, r3, #23
 8006564:	d51a      	bpl.n	800659c <HAL_RCCEx_PeriphCLKConfig+0xcc>
 8006566:	4d23      	ldr	r5, [pc, #140]	; (80065f4 <HAL_RCCEx_PeriphCLKConfig+0x124>)
 8006568:	6f2b      	ldr	r3, [r5, #112]	; 0x70
 800656a:	f413 7340 	ands.w	r3, r3, #768	; 0x300
 800656e:	d11b      	bne.n	80065a8 <HAL_RCCEx_PeriphCLKConfig+0xd8>
 8006570:	68e3      	ldr	r3, [r4, #12]
 8006572:	f403 7240 	and.w	r2, r3, #768	; 0x300
 8006576:	f5b2 7f40 	cmp.w	r2, #768	; 0x300
 800657a:	4a1e      	ldr	r2, [pc, #120]	; (80065f4 <HAL_RCCEx_PeriphCLKConfig+0x124>)
 800657c:	d133      	bne.n	80065e6 <HAL_RCCEx_PeriphCLKConfig+0x116>
 800657e:	6891      	ldr	r1, [r2, #8]
 8006580:	f023 4070 	bic.w	r0, r3, #4026531840	; 0xf0000000
 8006584:	f421 11f8 	bic.w	r1, r1, #2031616	; 0x1f0000
 8006588:	f420 7040 	bic.w	r0, r0, #768	; 0x300
 800658c:	4301      	orrs	r1, r0
 800658e:	6091      	str	r1, [r2, #8]
 8006590:	6f11      	ldr	r1, [r2, #112]	; 0x70
 8006592:	f3c3 030b 	ubfx	r3, r3, #0, #12
 8006596:	430b      	orrs	r3, r1
 8006598:	6713      	str	r3, [r2, #112]	; 0x70
 800659a:	e7a3      	b.n	80064e4 <HAL_RCCEx_PeriphCLKConfig+0x14>
 800659c:	f7fd ffba 	bl	8004514 <HAL_GetTick>
 80065a0:	1b80      	subs	r0, r0, r6
 80065a2:	2802      	cmp	r0, #2
 80065a4:	d9dc      	bls.n	8006560 <HAL_RCCEx_PeriphCLKConfig+0x90>
 80065a6:	e7c4      	b.n	8006532 <HAL_RCCEx_PeriphCLKConfig+0x62>
 80065a8:	68e2      	ldr	r2, [r4, #12]
 80065aa:	f402 7240 	and.w	r2, r2, #768	; 0x300
 80065ae:	4293      	cmp	r3, r2
 80065b0:	d0de      	beq.n	8006570 <HAL_RCCEx_PeriphCLKConfig+0xa0>
 80065b2:	6f2b      	ldr	r3, [r5, #112]	; 0x70
 80065b4:	4a11      	ldr	r2, [pc, #68]	; (80065fc <HAL_RCCEx_PeriphCLKConfig+0x12c>)
 80065b6:	2101      	movs	r1, #1
 80065b8:	6011      	str	r1, [r2, #0]
 80065ba:	f423 7340 	bic.w	r3, r3, #768	; 0x300
 80065be:	2100      	movs	r1, #0
 80065c0:	6011      	str	r1, [r2, #0]
 80065c2:	672b      	str	r3, [r5, #112]	; 0x70
 80065c4:	6f2b      	ldr	r3, [r5, #112]	; 0x70
 80065c6:	07da      	lsls	r2, r3, #31
 80065c8:	d5d2      	bpl.n	8006570 <HAL_RCCEx_PeriphCLKConfig+0xa0>
 80065ca:	f7fd ffa3 	bl	8004514 <HAL_GetTick>
 80065ce:	f241 3788 	movw	r7, #5000	; 0x1388
 80065d2:	4606      	mov	r6, r0
 80065d4:	6f2b      	ldr	r3, [r5, #112]	; 0x70
 80065d6:	079b      	lsls	r3, r3, #30
 80065d8:	d4ca      	bmi.n	8006570 <HAL_RCCEx_PeriphCLKConfig+0xa0>
 80065da:	f7fd ff9b 	bl	8004514 <HAL_GetTick>
 80065de:	1b80      	subs	r0, r0, r6
 80065e0:	42b8      	cmp	r0, r7
 80065e2:	d9f7      	bls.n	80065d4 <HAL_RCCEx_PeriphCLKConfig+0x104>
 80065e4:	e7a5      	b.n	8006532 <HAL_RCCEx_PeriphCLKConfig+0x62>
 80065e6:	6891      	ldr	r1, [r2, #8]
 80065e8:	f421 11f8 	bic.w	r1, r1, #2031616	; 0x1f0000
 80065ec:	e7cf      	b.n	800658e <HAL_RCCEx_PeriphCLKConfig+0xbe>
 80065ee:	bf00      	nop
 80065f0:	42470068 	.word	0x42470068
 80065f4:	40023800 	.word	0x40023800
 80065f8:	40007000 	.word	0x40007000
 80065fc:	42470e40 	.word	0x42470e40

08006600 <HAL_RNG_Init>:
 8006600:	b510      	push	{r4, lr}
 8006602:	4604      	mov	r4, r0
 8006604:	b190      	cbz	r0, 800662c <HAL_RNG_Init+0x2c>
 8006606:	7943      	ldrb	r3, [r0, #5]
 8006608:	f003 02ff 	and.w	r2, r3, #255	; 0xff
 800660c:	b913      	cbnz	r3, 8006614 <HAL_RNG_Init+0x14>
 800660e:	7102      	strb	r2, [r0, #4]
 8006610:	f7fd fcbe 	bl	8003f90 <HAL_RNG_MspInit>
 8006614:	6822      	ldr	r2, [r4, #0]
 8006616:	2302      	movs	r3, #2
 8006618:	7163      	strb	r3, [r4, #5]
 800661a:	6813      	ldr	r3, [r2, #0]
 800661c:	f043 0304 	orr.w	r3, r3, #4
 8006620:	6013      	str	r3, [r2, #0]
 8006622:	2000      	movs	r0, #0
 8006624:	2301      	movs	r3, #1
 8006626:	7163      	strb	r3, [r4, #5]
 8006628:	60a0      	str	r0, [r4, #8]
 800662a:	bd10      	pop	{r4, pc}
 800662c:	2001      	movs	r0, #1
 800662e:	e7fc      	b.n	800662a <HAL_RNG_Init+0x2a>

08006630 <HAL_RNG_GenerateRandomNumber>:
 8006630:	e92d 41f0 	stmdb	sp!, {r4, r5, r6, r7, r8, lr}
 8006634:	7903      	ldrb	r3, [r0, #4]
 8006636:	2b01      	cmp	r3, #1
 8006638:	4604      	mov	r4, r0
 800663a:	460f      	mov	r7, r1
 800663c:	d02a      	beq.n	8006694 <HAL_RNG_GenerateRandomNumber+0x64>
 800663e:	7942      	ldrb	r2, [r0, #5]
 8006640:	2301      	movs	r3, #1
 8006642:	429a      	cmp	r2, r3
 8006644:	7103      	strb	r3, [r0, #4]
 8006646:	b2d5      	uxtb	r5, r2
 8006648:	d120      	bne.n	800668c <HAL_RNG_GenerateRandomNumber+0x5c>
 800664a:	2302      	movs	r3, #2
 800664c:	7143      	strb	r3, [r0, #5]
 800664e:	f7fd ff61 	bl	8004514 <HAL_GetTick>
 8006652:	4680      	mov	r8, r0
 8006654:	6822      	ldr	r2, [r4, #0]
 8006656:	6856      	ldr	r6, [r2, #4]
 8006658:	f016 0601 	ands.w	r6, r6, #1
 800665c:	d008      	beq.n	8006670 <HAL_RNG_GenerateRandomNumber+0x40>
 800665e:	6893      	ldr	r3, [r2, #8]
 8006660:	60e3      	str	r3, [r4, #12]
 8006662:	603b      	str	r3, [r7, #0]
 8006664:	2301      	movs	r3, #1
 8006666:	7163      	strb	r3, [r4, #5]
 8006668:	2500      	movs	r5, #0
 800666a:	2300      	movs	r3, #0
 800666c:	7123      	strb	r3, [r4, #4]
 800666e:	e00a      	b.n	8006686 <HAL_RNG_GenerateRandomNumber+0x56>
 8006670:	f7fd ff50 	bl	8004514 <HAL_GetTick>
 8006674:	eba0 0008 	sub.w	r0, r0, r8
 8006678:	2802      	cmp	r0, #2
 800667a:	d9eb      	bls.n	8006654 <HAL_RNG_GenerateRandomNumber+0x24>
 800667c:	2301      	movs	r3, #1
 800667e:	7163      	strb	r3, [r4, #5]
 8006680:	2302      	movs	r3, #2
 8006682:	60a3      	str	r3, [r4, #8]
 8006684:	7126      	strb	r6, [r4, #4]
 8006686:	4628      	mov	r0, r5
 8006688:	e8bd 81f0 	ldmia.w	sp!, {r4, r5, r6, r7, r8, pc}
 800668c:	2204      	movs	r2, #4
 800668e:	6082      	str	r2, [r0, #8]
 8006690:	461d      	mov	r5, r3
 8006692:	e7ea      	b.n	800666a <HAL_RNG_GenerateRandomNumber+0x3a>
 8006694:	2502      	movs	r5, #2
 8006696:	e7f6      	b.n	8006686 <HAL_RNG_GenerateRandomNumber+0x56>

08006698 <HAL_RNG_GetRandomNumber>:
 8006698:	b510      	push	{r4, lr}
 800669a:	f100 010c 	add.w	r1, r0, #12
 800669e:	4604      	mov	r4, r0
 80066a0:	f7ff ffc6 	bl	8006630 <HAL_RNG_GenerateRandomNumber>
 80066a4:	b908      	cbnz	r0, 80066aa <HAL_RNG_GetRandomNumber+0x12>
 80066a6:	68e0      	ldr	r0, [r4, #12]
 80066a8:	bd10      	pop	{r4, pc}
 80066aa:	2000      	movs	r0, #0
 80066ac:	e7fc      	b.n	80066a8 <HAL_RNG_GetRandomNumber+0x10>

080066ae <HAL_RNG_ReadyDataCallback>:
 80066ae:	4770      	bx	lr

080066b0 <HAL_RNG_ErrorCallback>:
 80066b0:	4770      	bx	lr

080066b2 <HAL_RNG_IRQHandler>:
 80066b2:	6803      	ldr	r3, [r0, #0]
 80066b4:	685a      	ldr	r2, [r3, #4]
 80066b6:	b510      	push	{r4, lr}
 80066b8:	4604      	mov	r4, r0
 80066ba:	0690      	lsls	r0, r2, #26
 80066bc:	d51f      	bpl.n	80066fe <HAL_RNG_IRQHandler+0x4c>
 80066be:	2310      	movs	r3, #16
 80066c0:	60a3      	str	r3, [r4, #8]
 80066c2:	2304      	movs	r3, #4
 80066c4:	7163      	strb	r3, [r4, #5]
 80066c6:	4620      	mov	r0, r4
 80066c8:	f7ff fff2 	bl	80066b0 <HAL_RNG_ErrorCallback>
 80066cc:	6823      	ldr	r3, [r4, #0]
 80066ce:	f06f 0260 	mvn.w	r2, #96	; 0x60
 80066d2:	605a      	str	r2, [r3, #4]
 80066d4:	6823      	ldr	r3, [r4, #0]
 80066d6:	685a      	ldr	r2, [r3, #4]
 80066d8:	07d2      	lsls	r2, r2, #31
 80066da:	d50f      	bpl.n	80066fc <HAL_RNG_IRQHandler+0x4a>
 80066dc:	681a      	ldr	r2, [r3, #0]
 80066de:	f022 0208 	bic.w	r2, r2, #8
 80066e2:	601a      	str	r2, [r3, #0]
 80066e4:	6899      	ldr	r1, [r3, #8]
 80066e6:	7963      	ldrb	r3, [r4, #5]
 80066e8:	60e1      	str	r1, [r4, #12]
 80066ea:	2b04      	cmp	r3, #4
 80066ec:	d006      	beq.n	80066fc <HAL_RNG_IRQHandler+0x4a>
 80066ee:	2301      	movs	r3, #1
 80066f0:	7163      	strb	r3, [r4, #5]
 80066f2:	2300      	movs	r3, #0
 80066f4:	7123      	strb	r3, [r4, #4]
 80066f6:	4620      	mov	r0, r4
 80066f8:	f7ff ffd9 	bl	80066ae <HAL_RNG_ReadyDataCallback>
 80066fc:	bd10      	pop	{r4, pc}
 80066fe:	685b      	ldr	r3, [r3, #4]
 8006700:	0659      	lsls	r1, r3, #25
 8006702:	d5e7      	bpl.n	80066d4 <HAL_RNG_IRQHandler+0x22>
 8006704:	2308      	movs	r3, #8
 8006706:	e7db      	b.n	80066c0 <HAL_RNG_IRQHandler+0xe>

08006708 <HAL_RTC_WaitForSynchro>:
 8006708:	6802      	ldr	r2, [r0, #0]
 800670a:	b538      	push	{r3, r4, r5, lr}
 800670c:	68d3      	ldr	r3, [r2, #12]
 800670e:	f023 03a0 	bic.w	r3, r3, #160	; 0xa0
 8006712:	60d3      	str	r3, [r2, #12]
 8006714:	4604      	mov	r4, r0
 8006716:	f7fd fefd 	bl	8004514 <HAL_GetTick>
 800671a:	4605      	mov	r5, r0
 800671c:	6823      	ldr	r3, [r4, #0]
 800671e:	68db      	ldr	r3, [r3, #12]
 8006720:	069b      	lsls	r3, r3, #26
 8006722:	d501      	bpl.n	8006728 <HAL_RTC_WaitForSynchro+0x20>
 8006724:	2000      	movs	r0, #0
 8006726:	bd38      	pop	{r3, r4, r5, pc}
 8006728:	f7fd fef4 	bl	8004514 <HAL_GetTick>
 800672c:	1b40      	subs	r0, r0, r5
 800672e:	f5b0 7f7a 	cmp.w	r0, #1000	; 0x3e8
 8006732:	d9f3      	bls.n	800671c <HAL_RTC_WaitForSynchro+0x14>
 8006734:	2003      	movs	r0, #3
 8006736:	e7f6      	b.n	8006726 <HAL_RTC_WaitForSynchro+0x1e>

08006738 <RTC_EnterInitMode>:
 8006738:	b538      	push	{r3, r4, r5, lr}
 800673a:	6803      	ldr	r3, [r0, #0]
 800673c:	68da      	ldr	r2, [r3, #12]
 800673e:	0652      	lsls	r2, r2, #25
 8006740:	4604      	mov	r4, r0
 8006742:	d501      	bpl.n	8006748 <RTC_EnterInitMode+0x10>
 8006744:	2000      	movs	r0, #0
 8006746:	bd38      	pop	{r3, r4, r5, pc}
 8006748:	f04f 32ff 	mov.w	r2, #4294967295
 800674c:	60da      	str	r2, [r3, #12]
 800674e:	f7fd fee1 	bl	8004514 <HAL_GetTick>
 8006752:	4605      	mov	r5, r0
 8006754:	6823      	ldr	r3, [r4, #0]
 8006756:	68db      	ldr	r3, [r3, #12]
 8006758:	065b      	lsls	r3, r3, #25
 800675a:	d4f3      	bmi.n	8006744 <RTC_EnterInitMode+0xc>
 800675c:	f7fd feda 	bl	8004514 <HAL_GetTick>
 8006760:	1b40      	subs	r0, r0, r5
 8006762:	f5b0 7f7a 	cmp.w	r0, #1000	; 0x3e8
 8006766:	d9f5      	bls.n	8006754 <RTC_EnterInitMode+0x1c>
 8006768:	2003      	movs	r0, #3
 800676a:	e7ec      	b.n	8006746 <RTC_EnterInitMode+0xe>

0800676c <HAL_RTC_Init>:
 800676c:	b538      	push	{r3, r4, r5, lr}
 800676e:	4604      	mov	r4, r0
 8006770:	b1b8      	cbz	r0, 80067a2 <HAL_RTC_Init+0x36>
 8006772:	7f43      	ldrb	r3, [r0, #29]
 8006774:	f003 02ff 	and.w	r2, r3, #255	; 0xff
 8006778:	b913      	cbnz	r3, 8006780 <HAL_RTC_Init+0x14>
 800677a:	7702      	strb	r2, [r0, #28]
 800677c:	f7fd fc2a 	bl	8003fd4 <HAL_RTC_MspInit>
 8006780:	2302      	movs	r3, #2
 8006782:	7763      	strb	r3, [r4, #29]
 8006784:	6823      	ldr	r3, [r4, #0]
 8006786:	22ca      	movs	r2, #202	; 0xca
 8006788:	625a      	str	r2, [r3, #36]	; 0x24
 800678a:	2253      	movs	r2, #83	; 0x53
 800678c:	625a      	str	r2, [r3, #36]	; 0x24
 800678e:	4620      	mov	r0, r4
 8006790:	f7ff ffd2 	bl	8006738 <RTC_EnterInitMode>
 8006794:	6823      	ldr	r3, [r4, #0]
 8006796:	4605      	mov	r5, r0
 8006798:	b128      	cbz	r0, 80067a6 <HAL_RTC_Init+0x3a>
 800679a:	22ff      	movs	r2, #255	; 0xff
 800679c:	625a      	str	r2, [r3, #36]	; 0x24
 800679e:	2304      	movs	r3, #4
 80067a0:	7763      	strb	r3, [r4, #29]
 80067a2:	2501      	movs	r5, #1
 80067a4:	e02e      	b.n	8006804 <HAL_RTC_Init+0x98>
 80067a6:	689a      	ldr	r2, [r3, #8]
 80067a8:	6920      	ldr	r0, [r4, #16]
 80067aa:	f422 02e0 	bic.w	r2, r2, #7340032	; 0x700000
 80067ae:	f022 0240 	bic.w	r2, r2, #64	; 0x40
 80067b2:	609a      	str	r2, [r3, #8]
 80067b4:	6862      	ldr	r2, [r4, #4]
 80067b6:	6899      	ldr	r1, [r3, #8]
 80067b8:	4302      	orrs	r2, r0
 80067ba:	6960      	ldr	r0, [r4, #20]
 80067bc:	4302      	orrs	r2, r0
 80067be:	430a      	orrs	r2, r1
 80067c0:	609a      	str	r2, [r3, #8]
 80067c2:	68e2      	ldr	r2, [r4, #12]
 80067c4:	611a      	str	r2, [r3, #16]
 80067c6:	691a      	ldr	r2, [r3, #16]
 80067c8:	68a1      	ldr	r1, [r4, #8]
 80067ca:	ea42 4201 	orr.w	r2, r2, r1, lsl #16
 80067ce:	611a      	str	r2, [r3, #16]
 80067d0:	68da      	ldr	r2, [r3, #12]
 80067d2:	f022 0280 	bic.w	r2, r2, #128	; 0x80
 80067d6:	60da      	str	r2, [r3, #12]
 80067d8:	689b      	ldr	r3, [r3, #8]
 80067da:	069b      	lsls	r3, r3, #26
 80067dc:	d405      	bmi.n	80067ea <HAL_RTC_Init+0x7e>
 80067de:	4620      	mov	r0, r4
 80067e0:	f7ff ff92 	bl	8006708 <HAL_RTC_WaitForSynchro>
 80067e4:	b108      	cbz	r0, 80067ea <HAL_RTC_Init+0x7e>
 80067e6:	6823      	ldr	r3, [r4, #0]
 80067e8:	e7d7      	b.n	800679a <HAL_RTC_Init+0x2e>
 80067ea:	6823      	ldr	r3, [r4, #0]
 80067ec:	69a1      	ldr	r1, [r4, #24]
 80067ee:	6c1a      	ldr	r2, [r3, #64]	; 0x40
 80067f0:	f422 2280 	bic.w	r2, r2, #262144	; 0x40000
 80067f4:	641a      	str	r2, [r3, #64]	; 0x40
 80067f6:	6c1a      	ldr	r2, [r3, #64]	; 0x40
 80067f8:	430a      	orrs	r2, r1
 80067fa:	641a      	str	r2, [r3, #64]	; 0x40
 80067fc:	22ff      	movs	r2, #255	; 0xff
 80067fe:	625a      	str	r2, [r3, #36]	; 0x24
 8006800:	2301      	movs	r3, #1
 8006802:	7763      	strb	r3, [r4, #29]
 8006804:	4628      	mov	r0, r5
 8006806:	bd38      	pop	{r3, r4, r5, pc}

08006808 <RTC_ByteToBcd2>:
 8006808:	2300      	movs	r3, #0
 800680a:	2809      	cmp	r0, #9
 800680c:	d803      	bhi.n	8006816 <RTC_ByteToBcd2+0xe>
 800680e:	ea40 1003 	orr.w	r0, r0, r3, lsl #4
 8006812:	b2c0      	uxtb	r0, r0
 8006814:	4770      	bx	lr
 8006816:	380a      	subs	r0, #10
 8006818:	3301      	adds	r3, #1
 800681a:	b2c0      	uxtb	r0, r0
 800681c:	e7f5      	b.n	800680a <RTC_ByteToBcd2+0x2>

0800681e <HAL_RTC_SetTime>:
 800681e:	e92d 41f0 	stmdb	sp!, {r4, r5, r6, r7, r8, lr}
 8006822:	7f03      	ldrb	r3, [r0, #28]
 8006824:	2b01      	cmp	r3, #1
 8006826:	4605      	mov	r5, r0
 8006828:	460e      	mov	r6, r1
 800682a:	f04f 0702 	mov.w	r7, #2
 800682e:	d02e      	beq.n	800688e <HAL_RTC_SetTime+0x70>
 8006830:	2301      	movs	r3, #1
 8006832:	7703      	strb	r3, [r0, #28]
 8006834:	7747      	strb	r7, [r0, #29]
 8006836:	6801      	ldr	r1, [r0, #0]
 8006838:	7874      	ldrb	r4, [r6, #1]
 800683a:	7830      	ldrb	r0, [r6, #0]
 800683c:	78b7      	ldrb	r7, [r6, #2]
 800683e:	bb4a      	cbnz	r2, 8006894 <HAL_RTC_SetTime+0x76>
 8006840:	688a      	ldr	r2, [r1, #8]
 8006842:	f012 0240 	ands.w	r2, r2, #64	; 0x40
 8006846:	bf08      	it	eq
 8006848:	70f2      	strbeq	r2, [r6, #3]
 800684a:	f7ff ffdd 	bl	8006808 <RTC_ByteToBcd2>
 800684e:	4680      	mov	r8, r0
 8006850:	4620      	mov	r0, r4
 8006852:	f7ff ffd9 	bl	8006808 <RTC_ByteToBcd2>
 8006856:	4604      	mov	r4, r0
 8006858:	4638      	mov	r0, r7
 800685a:	f7ff ffd5 	bl	8006808 <RTC_ByteToBcd2>
 800685e:	78f3      	ldrb	r3, [r6, #3]
 8006860:	ea40 4203 	orr.w	r2, r0, r3, lsl #16
 8006864:	ea42 4308 	orr.w	r3, r2, r8, lsl #16
 8006868:	ea43 2404 	orr.w	r4, r3, r4, lsl #8
 800686c:	23ca      	movs	r3, #202	; 0xca
 800686e:	624b      	str	r3, [r1, #36]	; 0x24
 8006870:	2353      	movs	r3, #83	; 0x53
 8006872:	624b      	str	r3, [r1, #36]	; 0x24
 8006874:	4628      	mov	r0, r5
 8006876:	f7ff ff5f 	bl	8006738 <RTC_EnterInitMode>
 800687a:	682a      	ldr	r2, [r5, #0]
 800687c:	4607      	mov	r7, r0
 800687e:	b1b0      	cbz	r0, 80068ae <HAL_RTC_SetTime+0x90>
 8006880:	23ff      	movs	r3, #255	; 0xff
 8006882:	6253      	str	r3, [r2, #36]	; 0x24
 8006884:	2304      	movs	r3, #4
 8006886:	776b      	strb	r3, [r5, #29]
 8006888:	2300      	movs	r3, #0
 800688a:	772b      	strb	r3, [r5, #28]
 800688c:	2701      	movs	r7, #1
 800688e:	4638      	mov	r0, r7
 8006890:	e8bd 81f0 	ldmia.w	sp!, {r4, r5, r6, r7, r8, pc}
 8006894:	688a      	ldr	r2, [r1, #8]
 8006896:	f012 0240 	ands.w	r2, r2, #64	; 0x40
 800689a:	bf08      	it	eq
 800689c:	70f2      	strbeq	r2, [r6, #3]
 800689e:	0224      	lsls	r4, r4, #8
 80068a0:	78f3      	ldrb	r3, [r6, #3]
 80068a2:	ea44 4400 	orr.w	r4, r4, r0, lsl #16
 80068a6:	433c      	orrs	r4, r7
 80068a8:	ea44 4403 	orr.w	r4, r4, r3, lsl #16
 80068ac:	e7de      	b.n	800686c <HAL_RTC_SetTime+0x4e>
 80068ae:	f004 347f 	and.w	r4, r4, #2139062143	; 0x7f7f7f7f
 80068b2:	f024 44fe 	bic.w	r4, r4, #2130706432	; 0x7f000000
 80068b6:	6014      	str	r4, [r2, #0]
 80068b8:	6893      	ldr	r3, [r2, #8]
 80068ba:	f423 2380 	bic.w	r3, r3, #262144	; 0x40000
 80068be:	6093      	str	r3, [r2, #8]
 80068c0:	e9d6 3003 	ldrd	r3, r0, [r6, #12]
 80068c4:	6891      	ldr	r1, [r2, #8]
 80068c6:	4303      	orrs	r3, r0
 80068c8:	430b      	orrs	r3, r1
 80068ca:	6093      	str	r3, [r2, #8]
 80068cc:	68d3      	ldr	r3, [r2, #12]
 80068ce:	f023 0380 	bic.w	r3, r3, #128	; 0x80
 80068d2:	60d3      	str	r3, [r2, #12]
 80068d4:	6893      	ldr	r3, [r2, #8]
 80068d6:	069b      	lsls	r3, r3, #26
 80068d8:	d40a      	bmi.n	80068f0 <HAL_RTC_SetTime+0xd2>
 80068da:	4628      	mov	r0, r5
 80068dc:	f7ff ff14 	bl	8006708 <HAL_RTC_WaitForSynchro>
 80068e0:	b130      	cbz	r0, 80068f0 <HAL_RTC_SetTime+0xd2>
 80068e2:	682b      	ldr	r3, [r5, #0]
 80068e4:	22ff      	movs	r2, #255	; 0xff
 80068e6:	625a      	str	r2, [r3, #36]	; 0x24
 80068e8:	2304      	movs	r3, #4
 80068ea:	776b      	strb	r3, [r5, #29]
 80068ec:	772f      	strb	r7, [r5, #28]
 80068ee:	e7cd      	b.n	800688c <HAL_RTC_SetTime+0x6e>
 80068f0:	682b      	ldr	r3, [r5, #0]
 80068f2:	22ff      	movs	r2, #255	; 0xff
 80068f4:	625a      	str	r2, [r3, #36]	; 0x24
 80068f6:	2301      	movs	r3, #1
 80068f8:	776b      	strb	r3, [r5, #29]
 80068fa:	2300      	movs	r3, #0
 80068fc:	772b      	strb	r3, [r5, #28]
 80068fe:	e7c6      	b.n	800688e <HAL_RTC_SetTime+0x70>

08006900 <HAL_RTC_SetDate>:
 8006900:	b5f8      	push	{r3, r4, r5, r6, r7, lr}
 8006902:	7f03      	ldrb	r3, [r0, #28]
 8006904:	2b01      	cmp	r3, #1
 8006906:	4604      	mov	r4, r0
 8006908:	f04f 0602 	mov.w	r6, #2
 800690c:	d031      	beq.n	8006972 <HAL_RTC_SetDate+0x72>
 800690e:	2301      	movs	r3, #1
 8006910:	7703      	strb	r3, [r0, #28]
 8006912:	7746      	strb	r6, [r0, #29]
 8006914:	780d      	ldrb	r5, [r1, #0]
 8006916:	78c8      	ldrb	r0, [r1, #3]
 8006918:	784b      	ldrb	r3, [r1, #1]
 800691a:	788f      	ldrb	r7, [r1, #2]
 800691c:	036d      	lsls	r5, r5, #13
 800691e:	2a00      	cmp	r2, #0
 8006920:	d148      	bne.n	80069b4 <HAL_RTC_SetDate+0xb4>
 8006922:	06da      	lsls	r2, r3, #27
 8006924:	d503      	bpl.n	800692e <HAL_RTC_SetDate+0x2e>
 8006926:	f023 0310 	bic.w	r3, r3, #16
 800692a:	330a      	adds	r3, #10
 800692c:	704b      	strb	r3, [r1, #1]
 800692e:	f7ff ff6b 	bl	8006808 <RTC_ByteToBcd2>
 8006932:	4606      	mov	r6, r0
 8006934:	7848      	ldrb	r0, [r1, #1]
 8006936:	f7ff ff67 	bl	8006808 <RTC_ByteToBcd2>
 800693a:	4601      	mov	r1, r0
 800693c:	4638      	mov	r0, r7
 800693e:	f7ff ff63 	bl	8006808 <RTC_ByteToBcd2>
 8006942:	ea40 0205 	orr.w	r2, r0, r5
 8006946:	ea42 4306 	orr.w	r3, r2, r6, lsl #16
 800694a:	ea43 2501 	orr.w	r5, r3, r1, lsl #8
 800694e:	6823      	ldr	r3, [r4, #0]
 8006950:	22ca      	movs	r2, #202	; 0xca
 8006952:	625a      	str	r2, [r3, #36]	; 0x24
 8006954:	2253      	movs	r2, #83	; 0x53
 8006956:	625a      	str	r2, [r3, #36]	; 0x24
 8006958:	4620      	mov	r0, r4
 800695a:	f7ff feed 	bl	8006738 <RTC_EnterInitMode>
 800695e:	6822      	ldr	r2, [r4, #0]
 8006960:	4606      	mov	r6, r0
 8006962:	b140      	cbz	r0, 8006976 <HAL_RTC_SetDate+0x76>
 8006964:	23ff      	movs	r3, #255	; 0xff
 8006966:	6253      	str	r3, [r2, #36]	; 0x24
 8006968:	2304      	movs	r3, #4
 800696a:	7763      	strb	r3, [r4, #29]
 800696c:	2300      	movs	r3, #0
 800696e:	7723      	strb	r3, [r4, #28]
 8006970:	2601      	movs	r6, #1
 8006972:	4630      	mov	r0, r6
 8006974:	bdf8      	pop	{r3, r4, r5, r6, r7, pc}
 8006976:	f025 457f 	bic.w	r5, r5, #4278190080	; 0xff000000
 800697a:	f025 05c0 	bic.w	r5, r5, #192	; 0xc0
 800697e:	6055      	str	r5, [r2, #4]
 8006980:	68d3      	ldr	r3, [r2, #12]
 8006982:	f023 0380 	bic.w	r3, r3, #128	; 0x80
 8006986:	60d3      	str	r3, [r2, #12]
 8006988:	6893      	ldr	r3, [r2, #8]
 800698a:	069b      	lsls	r3, r3, #26
 800698c:	d40a      	bmi.n	80069a4 <HAL_RTC_SetDate+0xa4>
 800698e:	4620      	mov	r0, r4
 8006990:	f7ff feba 	bl	8006708 <HAL_RTC_WaitForSynchro>
 8006994:	b130      	cbz	r0, 80069a4 <HAL_RTC_SetDate+0xa4>
 8006996:	6823      	ldr	r3, [r4, #0]
 8006998:	22ff      	movs	r2, #255	; 0xff
 800699a:	625a      	str	r2, [r3, #36]	; 0x24
 800699c:	2304      	movs	r3, #4
 800699e:	7763      	strb	r3, [r4, #29]
 80069a0:	7726      	strb	r6, [r4, #28]
 80069a2:	e7e5      	b.n	8006970 <HAL_RTC_SetDate+0x70>
 80069a4:	6823      	ldr	r3, [r4, #0]
 80069a6:	22ff      	movs	r2, #255	; 0xff
 80069a8:	625a      	str	r2, [r3, #36]	; 0x24
 80069aa:	2301      	movs	r3, #1
 80069ac:	7763      	strb	r3, [r4, #29]
 80069ae:	2300      	movs	r3, #0
 80069b0:	7723      	strb	r3, [r4, #28]
 80069b2:	e7de      	b.n	8006972 <HAL_RTC_SetDate+0x72>
 80069b4:	ea45 4500 	orr.w	r5, r5, r0, lsl #16
 80069b8:	433d      	orrs	r5, r7
 80069ba:	ea45 2503 	orr.w	r5, r5, r3, lsl #8
 80069be:	e7c6      	b.n	800694e <HAL_RTC_SetDate+0x4e>

080069c0 <RTC_Bcd2ToByte>:
 80069c0:	0903      	lsrs	r3, r0, #4
 80069c2:	eb03 0383 	add.w	r3, r3, r3, lsl #2
 80069c6:	f000 000f 	and.w	r0, r0, #15
 80069ca:	eb00 0043 	add.w	r0, r0, r3, lsl #1
 80069ce:	b2c0      	uxtb	r0, r0
 80069d0:	4770      	bx	lr

080069d2 <HAL_RTC_GetTime>:
 80069d2:	6803      	ldr	r3, [r0, #0]
 80069d4:	6a98      	ldr	r0, [r3, #40]	; 0x28
 80069d6:	6048      	str	r0, [r1, #4]
 80069d8:	b570      	push	{r4, r5, r6, lr}
 80069da:	6918      	ldr	r0, [r3, #16]
 80069dc:	681c      	ldr	r4, [r3, #0]
 80069de:	f3c0 000e 	ubfx	r0, r0, #0, #15
 80069e2:	f3c4 4506 	ubfx	r5, r4, #16, #7
 80069e6:	f3c4 2606 	ubfx	r6, r4, #8, #7
 80069ea:	6088      	str	r0, [r1, #8]
 80069ec:	f005 0340 	and.w	r3, r5, #64	; 0x40
 80069f0:	f3c4 4005 	ubfx	r0, r4, #16, #6
 80069f4:	f004 047f 	and.w	r4, r4, #127	; 0x7f
 80069f8:	7008      	strb	r0, [r1, #0]
 80069fa:	704e      	strb	r6, [r1, #1]
 80069fc:	708c      	strb	r4, [r1, #2]
 80069fe:	70cb      	strb	r3, [r1, #3]
 8006a00:	b952      	cbnz	r2, 8006a18 <HAL_RTC_GetTime+0x46>
 8006a02:	f7ff ffdd 	bl	80069c0 <RTC_Bcd2ToByte>
 8006a06:	7008      	strb	r0, [r1, #0]
 8006a08:	4630      	mov	r0, r6
 8006a0a:	f7ff ffd9 	bl	80069c0 <RTC_Bcd2ToByte>
 8006a0e:	7048      	strb	r0, [r1, #1]
 8006a10:	4620      	mov	r0, r4
 8006a12:	f7ff ffd5 	bl	80069c0 <RTC_Bcd2ToByte>
 8006a16:	7088      	strb	r0, [r1, #2]
 8006a18:	2000      	movs	r0, #0
 8006a1a:	bd70      	pop	{r4, r5, r6, pc}

08006a1c <HAL_RTC_GetDate>:
 8006a1c:	b538      	push	{r3, r4, r5, lr}
 8006a1e:	6803      	ldr	r3, [r0, #0]
 8006a20:	685b      	ldr	r3, [r3, #4]
 8006a22:	f3c3 4007 	ubfx	r0, r3, #16, #8
 8006a26:	f3c3 2504 	ubfx	r5, r3, #8, #5
 8006a2a:	f003 043f 	and.w	r4, r3, #63	; 0x3f
 8006a2e:	f3c3 3342 	ubfx	r3, r3, #13, #3
 8006a32:	70c8      	strb	r0, [r1, #3]
 8006a34:	704d      	strb	r5, [r1, #1]
 8006a36:	708c      	strb	r4, [r1, #2]
 8006a38:	700b      	strb	r3, [r1, #0]
 8006a3a:	b952      	cbnz	r2, 8006a52 <HAL_RTC_GetDate+0x36>
 8006a3c:	f7ff ffc0 	bl	80069c0 <RTC_Bcd2ToByte>
 8006a40:	70c8      	strb	r0, [r1, #3]
 8006a42:	4628      	mov	r0, r5
 8006a44:	f7ff ffbc 	bl	80069c0 <RTC_Bcd2ToByte>
 8006a48:	7048      	strb	r0, [r1, #1]
 8006a4a:	4620      	mov	r0, r4
 8006a4c:	f7ff ffb8 	bl	80069c0 <RTC_Bcd2ToByte>
 8006a50:	7088      	strb	r0, [r1, #2]
 8006a52:	2000      	movs	r0, #0
 8006a54:	bd38      	pop	{r3, r4, r5, pc}
	...

08006a58 <TIM_OC1_SetConfig>:
 8006a58:	6a03      	ldr	r3, [r0, #32]
 8006a5a:	f023 0301 	bic.w	r3, r3, #1
 8006a5e:	6203      	str	r3, [r0, #32]
 8006a60:	6a03      	ldr	r3, [r0, #32]
 8006a62:	b570      	push	{r4, r5, r6, lr}
 8006a64:	6844      	ldr	r4, [r0, #4]
 8006a66:	6982      	ldr	r2, [r0, #24]
 8006a68:	680d      	ldr	r5, [r1, #0]
 8006a6a:	f022 0273 	bic.w	r2, r2, #115	; 0x73
 8006a6e:	432a      	orrs	r2, r5
 8006a70:	688d      	ldr	r5, [r1, #8]
 8006a72:	f023 0302 	bic.w	r3, r3, #2
 8006a76:	432b      	orrs	r3, r5
 8006a78:	4d0e      	ldr	r5, [pc, #56]	; (8006ab4 <TIM_OC1_SetConfig+0x5c>)
 8006a7a:	42a8      	cmp	r0, r5
 8006a7c:	d002      	beq.n	8006a84 <TIM_OC1_SetConfig+0x2c>
 8006a7e:	4e0e      	ldr	r6, [pc, #56]	; (8006ab8 <TIM_OC1_SetConfig+0x60>)
 8006a80:	42b0      	cmp	r0, r6
 8006a82:	d110      	bne.n	8006aa6 <TIM_OC1_SetConfig+0x4e>
 8006a84:	68ce      	ldr	r6, [r1, #12]
 8006a86:	f023 0308 	bic.w	r3, r3, #8
 8006a8a:	4333      	orrs	r3, r6
 8006a8c:	42a8      	cmp	r0, r5
 8006a8e:	f023 0304 	bic.w	r3, r3, #4
 8006a92:	d002      	beq.n	8006a9a <TIM_OC1_SetConfig+0x42>
 8006a94:	4d08      	ldr	r5, [pc, #32]	; (8006ab8 <TIM_OC1_SetConfig+0x60>)
 8006a96:	42a8      	cmp	r0, r5
 8006a98:	d105      	bne.n	8006aa6 <TIM_OC1_SetConfig+0x4e>
 8006a9a:	e9d1 5605 	ldrd	r5, r6, [r1, #20]
 8006a9e:	f424 7440 	bic.w	r4, r4, #768	; 0x300
 8006aa2:	4335      	orrs	r5, r6
 8006aa4:	432c      	orrs	r4, r5
 8006aa6:	6044      	str	r4, [r0, #4]
 8006aa8:	6182      	str	r2, [r0, #24]
 8006aaa:	684a      	ldr	r2, [r1, #4]
 8006aac:	6342      	str	r2, [r0, #52]	; 0x34
 8006aae:	6203      	str	r3, [r0, #32]
 8006ab0:	bd70      	pop	{r4, r5, r6, pc}
 8006ab2:	bf00      	nop
 8006ab4:	40010000 	.word	0x40010000
 8006ab8:	40010400 	.word	0x40010400

08006abc <TIM_OC3_SetConfig>:
 8006abc:	6a03      	ldr	r3, [r0, #32]
 8006abe:	f423 7380 	bic.w	r3, r3, #256	; 0x100
 8006ac2:	6203      	str	r3, [r0, #32]
 8006ac4:	6a03      	ldr	r3, [r0, #32]
 8006ac6:	b570      	push	{r4, r5, r6, lr}
 8006ac8:	6844      	ldr	r4, [r0, #4]
 8006aca:	69c2      	ldr	r2, [r0, #28]
 8006acc:	680d      	ldr	r5, [r1, #0]
 8006ace:	f022 0273 	bic.w	r2, r2, #115	; 0x73
 8006ad2:	432a      	orrs	r2, r5
 8006ad4:	688d      	ldr	r5, [r1, #8]
 8006ad6:	f423 7300 	bic.w	r3, r3, #512	; 0x200
 8006ada:	ea43 2305 	orr.w	r3, r3, r5, lsl #8
 8006ade:	4d11      	ldr	r5, [pc, #68]	; (8006b24 <TIM_OC3_SetConfig+0x68>)
 8006ae0:	42a8      	cmp	r0, r5
 8006ae2:	d003      	beq.n	8006aec <TIM_OC3_SetConfig+0x30>
 8006ae4:	f505 6580 	add.w	r5, r5, #1024	; 0x400
 8006ae8:	42a8      	cmp	r0, r5
 8006aea:	d114      	bne.n	8006b16 <TIM_OC3_SetConfig+0x5a>
 8006aec:	68cd      	ldr	r5, [r1, #12]
 8006aee:	f423 6300 	bic.w	r3, r3, #2048	; 0x800
 8006af2:	ea43 2305 	orr.w	r3, r3, r5, lsl #8
 8006af6:	4d0b      	ldr	r5, [pc, #44]	; (8006b24 <TIM_OC3_SetConfig+0x68>)
 8006af8:	42a8      	cmp	r0, r5
 8006afa:	f423 6380 	bic.w	r3, r3, #1024	; 0x400
 8006afe:	d003      	beq.n	8006b08 <TIM_OC3_SetConfig+0x4c>
 8006b00:	f505 6580 	add.w	r5, r5, #1024	; 0x400
 8006b04:	42a8      	cmp	r0, r5
 8006b06:	d106      	bne.n	8006b16 <TIM_OC3_SetConfig+0x5a>
 8006b08:	e9d1 5605 	ldrd	r5, r6, [r1, #20]
 8006b0c:	f424 5440 	bic.w	r4, r4, #12288	; 0x3000
 8006b10:	4335      	orrs	r5, r6
 8006b12:	ea44 1405 	orr.w	r4, r4, r5, lsl #4
 8006b16:	6044      	str	r4, [r0, #4]
 8006b18:	61c2      	str	r2, [r0, #28]
 8006b1a:	684a      	ldr	r2, [r1, #4]
 8006b1c:	63c2      	str	r2, [r0, #60]	; 0x3c
 8006b1e:	6203      	str	r3, [r0, #32]
 8006b20:	bd70      	pop	{r4, r5, r6, pc}
 8006b22:	bf00      	nop
 8006b24:	40010000 	.word	0x40010000

08006b28 <TIM_OC4_SetConfig>:
 8006b28:	6a03      	ldr	r3, [r0, #32]
 8006b2a:	f423 5380 	bic.w	r3, r3, #4096	; 0x1000
 8006b2e:	6203      	str	r3, [r0, #32]
 8006b30:	6a03      	ldr	r3, [r0, #32]
 8006b32:	b530      	push	{r4, r5, lr}
 8006b34:	6844      	ldr	r4, [r0, #4]
 8006b36:	69c2      	ldr	r2, [r0, #28]
 8006b38:	680d      	ldr	r5, [r1, #0]
 8006b3a:	f422 42e6 	bic.w	r2, r2, #29440	; 0x7300
 8006b3e:	ea42 2205 	orr.w	r2, r2, r5, lsl #8
 8006b42:	688d      	ldr	r5, [r1, #8]
 8006b44:	f423 5300 	bic.w	r3, r3, #8192	; 0x2000
 8006b48:	ea43 3305 	orr.w	r3, r3, r5, lsl #12
 8006b4c:	4d08      	ldr	r5, [pc, #32]	; (8006b70 <TIM_OC4_SetConfig+0x48>)
 8006b4e:	42a8      	cmp	r0, r5
 8006b50:	d003      	beq.n	8006b5a <TIM_OC4_SetConfig+0x32>
 8006b52:	f505 6580 	add.w	r5, r5, #1024	; 0x400
 8006b56:	42a8      	cmp	r0, r5
 8006b58:	d104      	bne.n	8006b64 <TIM_OC4_SetConfig+0x3c>
 8006b5a:	694d      	ldr	r5, [r1, #20]
 8006b5c:	f424 4480 	bic.w	r4, r4, #16384	; 0x4000
 8006b60:	ea44 1485 	orr.w	r4, r4, r5, lsl #6
 8006b64:	6044      	str	r4, [r0, #4]
 8006b66:	61c2      	str	r2, [r0, #28]
 8006b68:	684a      	ldr	r2, [r1, #4]
 8006b6a:	6402      	str	r2, [r0, #64]	; 0x40
 8006b6c:	6203      	str	r3, [r0, #32]
 8006b6e:	bd30      	pop	{r4, r5, pc}
 8006b70:	40010000 	.word	0x40010000

08006b74 <HAL_TIM_Base_Start>:
 8006b74:	f890 303d 	ldrb.w	r3, [r0, #61]	; 0x3d
 8006b78:	2b01      	cmp	r3, #1
 8006b7a:	d12c      	bne.n	8006bd6 <HAL_TIM_Base_Start+0x62>
 8006b7c:	2302      	movs	r3, #2
 8006b7e:	4a17      	ldr	r2, [pc, #92]	; (8006bdc <HAL_TIM_Base_Start+0x68>)
 8006b80:	f880 303d 	strb.w	r3, [r0, #61]	; 0x3d
 8006b84:	6803      	ldr	r3, [r0, #0]
 8006b86:	4293      	cmp	r3, r2
 8006b88:	d01a      	beq.n	8006bc0 <HAL_TIM_Base_Start+0x4c>
 8006b8a:	f1b3 4f80 	cmp.w	r3, #1073741824	; 0x40000000
 8006b8e:	d017      	beq.n	8006bc0 <HAL_TIM_Base_Start+0x4c>
 8006b90:	f5a2 427c 	sub.w	r2, r2, #64512	; 0xfc00
 8006b94:	4293      	cmp	r3, r2
 8006b96:	d013      	beq.n	8006bc0 <HAL_TIM_Base_Start+0x4c>
 8006b98:	f502 6280 	add.w	r2, r2, #1024	; 0x400
 8006b9c:	4293      	cmp	r3, r2
 8006b9e:	d00f      	beq.n	8006bc0 <HAL_TIM_Base_Start+0x4c>
 8006ba0:	f502 6280 	add.w	r2, r2, #1024	; 0x400
 8006ba4:	4293      	cmp	r3, r2
 8006ba6:	d00b      	beq.n	8006bc0 <HAL_TIM_Base_Start+0x4c>
 8006ba8:	f502 4278 	add.w	r2, r2, #63488	; 0xf800
 8006bac:	4293      	cmp	r3, r2
 8006bae:	d007      	beq.n	8006bc0 <HAL_TIM_Base_Start+0x4c>
 8006bb0:	f502 5270 	add.w	r2, r2, #15360	; 0x3c00
 8006bb4:	4293      	cmp	r3, r2
 8006bb6:	d003      	beq.n	8006bc0 <HAL_TIM_Base_Start+0x4c>
 8006bb8:	f5a2 3294 	sub.w	r2, r2, #75776	; 0x12800
 8006bbc:	4293      	cmp	r3, r2
 8006bbe:	d104      	bne.n	8006bca <HAL_TIM_Base_Start+0x56>
 8006bc0:	689a      	ldr	r2, [r3, #8]
 8006bc2:	f002 0207 	and.w	r2, r2, #7
 8006bc6:	2a06      	cmp	r2, #6
 8006bc8:	d003      	beq.n	8006bd2 <HAL_TIM_Base_Start+0x5e>
 8006bca:	681a      	ldr	r2, [r3, #0]
 8006bcc:	f042 0201 	orr.w	r2, r2, #1
 8006bd0:	601a      	str	r2, [r3, #0]
 8006bd2:	2000      	movs	r0, #0
 8006bd4:	4770      	bx	lr
 8006bd6:	2001      	movs	r0, #1
 8006bd8:	4770      	bx	lr
 8006bda:	bf00      	nop
 8006bdc:	40010000 	.word	0x40010000

08006be0 <HAL_TIM_Base_Start_IT>:
 8006be0:	f890 303d 	ldrb.w	r3, [r0, #61]	; 0x3d
 8006be4:	2b01      	cmp	r3, #1
 8006be6:	d130      	bne.n	8006c4a <HAL_TIM_Base_Start_IT+0x6a>
 8006be8:	2302      	movs	r3, #2
 8006bea:	f880 303d 	strb.w	r3, [r0, #61]	; 0x3d
 8006bee:	6803      	ldr	r3, [r0, #0]
 8006bf0:	68da      	ldr	r2, [r3, #12]
 8006bf2:	f042 0201 	orr.w	r2, r2, #1
 8006bf6:	60da      	str	r2, [r3, #12]
 8006bf8:	4a15      	ldr	r2, [pc, #84]	; (8006c50 <HAL_TIM_Base_Start_IT+0x70>)
 8006bfa:	4293      	cmp	r3, r2
 8006bfc:	d01a      	beq.n	8006c34 <HAL_TIM_Base_Start_IT+0x54>
 8006bfe:	f1b3 4f80 	cmp.w	r3, #1073741824	; 0x40000000
 8006c02:	d017      	beq.n	8006c34 <HAL_TIM_Base_Start_IT+0x54>
 8006c04:	f5a2 427c 	sub.w	r2, r2, #64512	; 0xfc00
 8006c08:	4293      	cmp	r3, r2
 8006c0a:	d013      	beq.n	8006c34 <HAL_TIM_Base_Start_IT+0x54>
 8006c0c:	f502 6280 	add.w	r2, r2, #1024	; 0x400
 8006c10:	4293      	cmp	r3, r2
 8006c12:	d00f      	beq.n	8006c34 <HAL_TIM_Base_Start_IT+0x54>
 8006c14:	f502 6280 	add.w	r2, r2, #1024	; 0x400
 8006c18:	4293      	cmp	r3, r2
 8006c1a:	d00b      	beq.n	8006c34 <HAL_TIM_Base_Start_IT+0x54>
 8006c1c:	f502 4278 	add.w	r2, r2, #63488	; 0xf800
 8006c20:	4293      	cmp	r3, r2
 8006c22:	d007      	beq.n	8006c34 <HAL_TIM_Base_Start_IT+0x54>
 8006c24:	f502 5270 	add.w	r2, r2, #15360	; 0x3c00
 8006c28:	4293      	cmp	r3, r2
 8006c2a:	d003      	beq.n	8006c34 <HAL_TIM_Base_Start_IT+0x54>
 8006c2c:	f5a2 3294 	sub.w	r2, r2, #75776	; 0x12800
 8006c30:	4293      	cmp	r3, r2
 8006c32:	d104      	bne.n	8006c3e <HAL_TIM_Base_Start_IT+0x5e>
 8006c34:	689a      	ldr	r2, [r3, #8]
 8006c36:	f002 0207 	and.w	r2, r2, #7
 8006c3a:	2a06      	cmp	r2, #6
 8006c3c:	d003      	beq.n	8006c46 <HAL_TIM_Base_Start_IT+0x66>
 8006c3e:	681a      	ldr	r2, [r3, #0]
 8006c40:	f042 0201 	orr.w	r2, r2, #1
 8006c44:	601a      	str	r2, [r3, #0]
 8006c46:	2000      	movs	r0, #0
 8006c48:	4770      	bx	lr
 8006c4a:	2001      	movs	r0, #1
 8006c4c:	4770      	bx	lr
 8006c4e:	bf00      	nop
 8006c50:	40010000 	.word	0x40010000

08006c54 <HAL_TIM_PWM_MspInit>:
 8006c54:	4770      	bx	lr

08006c56 <HAL_TIM_OC_DelayElapsedCallback>:
 8006c56:	4770      	bx	lr

08006c58 <HAL_TIM_IC_CaptureCallback>:
 8006c58:	4770      	bx	lr

08006c5a <HAL_TIM_PWM_PulseFinishedCallback>:
 8006c5a:	4770      	bx	lr

08006c5c <HAL_TIM_TriggerCallback>:
 8006c5c:	4770      	bx	lr

08006c5e <HAL_TIM_IRQHandler>:
 8006c5e:	6803      	ldr	r3, [r0, #0]
 8006c60:	691a      	ldr	r2, [r3, #16]
 8006c62:	0791      	lsls	r1, r2, #30
 8006c64:	b510      	push	{r4, lr}
 8006c66:	4604      	mov	r4, r0
 8006c68:	d50e      	bpl.n	8006c88 <HAL_TIM_IRQHandler+0x2a>
 8006c6a:	68da      	ldr	r2, [r3, #12]
 8006c6c:	0792      	lsls	r2, r2, #30
 8006c6e:	d50b      	bpl.n	8006c88 <HAL_TIM_IRQHandler+0x2a>
 8006c70:	f06f 0202 	mvn.w	r2, #2
 8006c74:	611a      	str	r2, [r3, #16]
 8006c76:	2201      	movs	r2, #1
 8006c78:	7702      	strb	r2, [r0, #28]
 8006c7a:	699b      	ldr	r3, [r3, #24]
 8006c7c:	079b      	lsls	r3, r3, #30
 8006c7e:	d077      	beq.n	8006d70 <HAL_TIM_IRQHandler+0x112>
 8006c80:	f7ff ffea 	bl	8006c58 <HAL_TIM_IC_CaptureCallback>
 8006c84:	2300      	movs	r3, #0
 8006c86:	7723      	strb	r3, [r4, #28]
 8006c88:	6823      	ldr	r3, [r4, #0]
 8006c8a:	691a      	ldr	r2, [r3, #16]
 8006c8c:	0750      	lsls	r0, r2, #29
 8006c8e:	d510      	bpl.n	8006cb2 <HAL_TIM_IRQHandler+0x54>
 8006c90:	68da      	ldr	r2, [r3, #12]
 8006c92:	0751      	lsls	r1, r2, #29
 8006c94:	d50d      	bpl.n	8006cb2 <HAL_TIM_IRQHandler+0x54>
 8006c96:	f06f 0204 	mvn.w	r2, #4
 8006c9a:	611a      	str	r2, [r3, #16]
 8006c9c:	2202      	movs	r2, #2
 8006c9e:	7722      	strb	r2, [r4, #28]
 8006ca0:	699b      	ldr	r3, [r3, #24]
 8006ca2:	f413 7f40 	tst.w	r3, #768	; 0x300
 8006ca6:	4620      	mov	r0, r4
 8006ca8:	d068      	beq.n	8006d7c <HAL_TIM_IRQHandler+0x11e>
 8006caa:	f7ff ffd5 	bl	8006c58 <HAL_TIM_IC_CaptureCallback>
 8006cae:	2300      	movs	r3, #0
 8006cb0:	7723      	strb	r3, [r4, #28]
 8006cb2:	6823      	ldr	r3, [r4, #0]
 8006cb4:	691a      	ldr	r2, [r3, #16]
 8006cb6:	0712      	lsls	r2, r2, #28
 8006cb8:	d50f      	bpl.n	8006cda <HAL_TIM_IRQHandler+0x7c>
 8006cba:	68da      	ldr	r2, [r3, #12]
 8006cbc:	0710      	lsls	r0, r2, #28
 8006cbe:	d50c      	bpl.n	8006cda <HAL_TIM_IRQHandler+0x7c>
 8006cc0:	f06f 0208 	mvn.w	r2, #8
 8006cc4:	611a      	str	r2, [r3, #16]
 8006cc6:	2204      	movs	r2, #4
 8006cc8:	7722      	strb	r2, [r4, #28]
 8006cca:	69db      	ldr	r3, [r3, #28]
 8006ccc:	0799      	lsls	r1, r3, #30
 8006cce:	4620      	mov	r0, r4
 8006cd0:	d05a      	beq.n	8006d88 <HAL_TIM_IRQHandler+0x12a>
 8006cd2:	f7ff ffc1 	bl	8006c58 <HAL_TIM_IC_CaptureCallback>
 8006cd6:	2300      	movs	r3, #0
 8006cd8:	7723      	strb	r3, [r4, #28]
 8006cda:	6823      	ldr	r3, [r4, #0]
 8006cdc:	691a      	ldr	r2, [r3, #16]
 8006cde:	06d2      	lsls	r2, r2, #27
 8006ce0:	d510      	bpl.n	8006d04 <HAL_TIM_IRQHandler+0xa6>
 8006ce2:	68da      	ldr	r2, [r3, #12]
 8006ce4:	06d0      	lsls	r0, r2, #27
 8006ce6:	d50d      	bpl.n	8006d04 <HAL_TIM_IRQHandler+0xa6>
 8006ce8:	f06f 0210 	mvn.w	r2, #16
 8006cec:	611a      	str	r2, [r3, #16]
 8006cee:	2208      	movs	r2, #8
 8006cf0:	7722      	strb	r2, [r4, #28]
 8006cf2:	69db      	ldr	r3, [r3, #28]
 8006cf4:	f413 7f40 	tst.w	r3, #768	; 0x300
 8006cf8:	4620      	mov	r0, r4
 8006cfa:	d04b      	beq.n	8006d94 <HAL_TIM_IRQHandler+0x136>
 8006cfc:	f7ff ffac 	bl	8006c58 <HAL_TIM_IC_CaptureCallback>
 8006d00:	2300      	movs	r3, #0
 8006d02:	7723      	strb	r3, [r4, #28]
 8006d04:	6823      	ldr	r3, [r4, #0]
 8006d06:	691a      	ldr	r2, [r3, #16]
 8006d08:	07d1      	lsls	r1, r2, #31
 8006d0a:	d508      	bpl.n	8006d1e <HAL_TIM_IRQHandler+0xc0>
 8006d0c:	68da      	ldr	r2, [r3, #12]
 8006d0e:	07d2      	lsls	r2, r2, #31
 8006d10:	d505      	bpl.n	8006d1e <HAL_TIM_IRQHandler+0xc0>
 8006d12:	f06f 0201 	mvn.w	r2, #1
 8006d16:	611a      	str	r2, [r3, #16]
 8006d18:	4620      	mov	r0, r4
 8006d1a:	f7fc ffe9 	bl	8003cf0 <HAL_TIM_PeriodElapsedCallback>
 8006d1e:	6823      	ldr	r3, [r4, #0]
 8006d20:	691a      	ldr	r2, [r3, #16]
 8006d22:	0610      	lsls	r0, r2, #24
 8006d24:	d508      	bpl.n	8006d38 <HAL_TIM_IRQHandler+0xda>
 8006d26:	68da      	ldr	r2, [r3, #12]
 8006d28:	0611      	lsls	r1, r2, #24
 8006d2a:	d505      	bpl.n	8006d38 <HAL_TIM_IRQHandler+0xda>
 8006d2c:	f06f 0280 	mvn.w	r2, #128	; 0x80
 8006d30:	611a      	str	r2, [r3, #16]
 8006d32:	4620      	mov	r0, r4
 8006d34:	f000 fad9 	bl	80072ea <HAL_TIMEx_BreakCallback>
 8006d38:	6823      	ldr	r3, [r4, #0]
 8006d3a:	691a      	ldr	r2, [r3, #16]
 8006d3c:	0652      	lsls	r2, r2, #25
 8006d3e:	d508      	bpl.n	8006d52 <HAL_TIM_IRQHandler+0xf4>
 8006d40:	68da      	ldr	r2, [r3, #12]
 8006d42:	0650      	lsls	r0, r2, #25
 8006d44:	d505      	bpl.n	8006d52 <HAL_TIM_IRQHandler+0xf4>
 8006d46:	f06f 0240 	mvn.w	r2, #64	; 0x40
 8006d4a:	611a      	str	r2, [r3, #16]
 8006d4c:	4620      	mov	r0, r4
 8006d4e:	f7ff ff85 	bl	8006c5c <HAL_TIM_TriggerCallback>
 8006d52:	6823      	ldr	r3, [r4, #0]
 8006d54:	691a      	ldr	r2, [r3, #16]
 8006d56:	0691      	lsls	r1, r2, #26
 8006d58:	d522      	bpl.n	8006da0 <HAL_TIM_IRQHandler+0x142>
 8006d5a:	68da      	ldr	r2, [r3, #12]
 8006d5c:	0692      	lsls	r2, r2, #26
 8006d5e:	d51f      	bpl.n	8006da0 <HAL_TIM_IRQHandler+0x142>
 8006d60:	f06f 0220 	mvn.w	r2, #32
 8006d64:	4620      	mov	r0, r4
 8006d66:	611a      	str	r2, [r3, #16]
 8006d68:	e8bd 4010 	ldmia.w	sp!, {r4, lr}
 8006d6c:	f000 babc 	b.w	80072e8 <HAL_TIMEx_CommutCallback>
 8006d70:	f7ff ff71 	bl	8006c56 <HAL_TIM_OC_DelayElapsedCallback>
 8006d74:	4620      	mov	r0, r4
 8006d76:	f7ff ff70 	bl	8006c5a <HAL_TIM_PWM_PulseFinishedCallback>
 8006d7a:	e783      	b.n	8006c84 <HAL_TIM_IRQHandler+0x26>
 8006d7c:	f7ff ff6b 	bl	8006c56 <HAL_TIM_OC_DelayElapsedCallback>
 8006d80:	4620      	mov	r0, r4
 8006d82:	f7ff ff6a 	bl	8006c5a <HAL_TIM_PWM_PulseFinishedCallback>
 8006d86:	e792      	b.n	8006cae <HAL_TIM_IRQHandler+0x50>
 8006d88:	f7ff ff65 	bl	8006c56 <HAL_TIM_OC_DelayElapsedCallback>
 8006d8c:	4620      	mov	r0, r4
 8006d8e:	f7ff ff64 	bl	8006c5a <HAL_TIM_PWM_PulseFinishedCallback>
 8006d92:	e7a0      	b.n	8006cd6 <HAL_TIM_IRQHandler+0x78>
 8006d94:	f7ff ff5f 	bl	8006c56 <HAL_TIM_OC_DelayElapsedCallback>
 8006d98:	4620      	mov	r0, r4
 8006d9a:	f7ff ff5e 	bl	8006c5a <HAL_TIM_PWM_PulseFinishedCallback>
 8006d9e:	e7af      	b.n	8006d00 <HAL_TIM_IRQHandler+0xa2>
 8006da0:	bd10      	pop	{r4, pc}
	...

08006da4 <TIM_Base_SetConfig>:
 8006da4:	4a30      	ldr	r2, [pc, #192]	; (8006e68 <TIM_Base_SetConfig+0xc4>)
 8006da6:	6803      	ldr	r3, [r0, #0]
 8006da8:	4290      	cmp	r0, r2
 8006daa:	d012      	beq.n	8006dd2 <TIM_Base_SetConfig+0x2e>
 8006dac:	f1b0 4f80 	cmp.w	r0, #1073741824	; 0x40000000
 8006db0:	d00f      	beq.n	8006dd2 <TIM_Base_SetConfig+0x2e>
 8006db2:	f5a2 427c 	sub.w	r2, r2, #64512	; 0xfc00
 8006db6:	4290      	cmp	r0, r2
 8006db8:	d00b      	beq.n	8006dd2 <TIM_Base_SetConfig+0x2e>
 8006dba:	f502 6280 	add.w	r2, r2, #1024	; 0x400
 8006dbe:	4290      	cmp	r0, r2
 8006dc0:	d007      	beq.n	8006dd2 <TIM_Base_SetConfig+0x2e>
 8006dc2:	f502 6280 	add.w	r2, r2, #1024	; 0x400
 8006dc6:	4290      	cmp	r0, r2
 8006dc8:	d003      	beq.n	8006dd2 <TIM_Base_SetConfig+0x2e>
 8006dca:	f502 4278 	add.w	r2, r2, #63488	; 0xf800
 8006dce:	4290      	cmp	r0, r2
 8006dd0:	d119      	bne.n	8006e06 <TIM_Base_SetConfig+0x62>
 8006dd2:	684a      	ldr	r2, [r1, #4]
 8006dd4:	f023 0370 	bic.w	r3, r3, #112	; 0x70
 8006dd8:	4313      	orrs	r3, r2
 8006dda:	4a23      	ldr	r2, [pc, #140]	; (8006e68 <TIM_Base_SetConfig+0xc4>)
 8006ddc:	4290      	cmp	r0, r2
 8006dde:	d029      	beq.n	8006e34 <TIM_Base_SetConfig+0x90>
 8006de0:	f1b0 4f80 	cmp.w	r0, #1073741824	; 0x40000000
 8006de4:	d026      	beq.n	8006e34 <TIM_Base_SetConfig+0x90>
 8006de6:	f5a2 427c 	sub.w	r2, r2, #64512	; 0xfc00
 8006dea:	4290      	cmp	r0, r2
 8006dec:	d022      	beq.n	8006e34 <TIM_Base_SetConfig+0x90>
 8006dee:	f502 6280 	add.w	r2, r2, #1024	; 0x400
 8006df2:	4290      	cmp	r0, r2
 8006df4:	d01e      	beq.n	8006e34 <TIM_Base_SetConfig+0x90>
 8006df6:	f502 6280 	add.w	r2, r2, #1024	; 0x400
 8006dfa:	4290      	cmp	r0, r2
 8006dfc:	d01a      	beq.n	8006e34 <TIM_Base_SetConfig+0x90>
 8006dfe:	f502 4278 	add.w	r2, r2, #63488	; 0xf800
 8006e02:	4290      	cmp	r0, r2
 8006e04:	d016      	beq.n	8006e34 <TIM_Base_SetConfig+0x90>
 8006e06:	4a19      	ldr	r2, [pc, #100]	; (8006e6c <TIM_Base_SetConfig+0xc8>)
 8006e08:	4290      	cmp	r0, r2
 8006e0a:	d013      	beq.n	8006e34 <TIM_Base_SetConfig+0x90>
 8006e0c:	f502 6280 	add.w	r2, r2, #1024	; 0x400
 8006e10:	4290      	cmp	r0, r2
 8006e12:	d00f      	beq.n	8006e34 <TIM_Base_SetConfig+0x90>
 8006e14:	f502 6280 	add.w	r2, r2, #1024	; 0x400
 8006e18:	4290      	cmp	r0, r2
 8006e1a:	d00b      	beq.n	8006e34 <TIM_Base_SetConfig+0x90>
 8006e1c:	f5a2 3298 	sub.w	r2, r2, #77824	; 0x13000
 8006e20:	4290      	cmp	r0, r2
 8006e22:	d007      	beq.n	8006e34 <TIM_Base_SetConfig+0x90>
 8006e24:	f502 6280 	add.w	r2, r2, #1024	; 0x400
 8006e28:	4290      	cmp	r0, r2
 8006e2a:	d003      	beq.n	8006e34 <TIM_Base_SetConfig+0x90>
 8006e2c:	f502 6280 	add.w	r2, r2, #1024	; 0x400
 8006e30:	4290      	cmp	r0, r2
 8006e32:	d103      	bne.n	8006e3c <TIM_Base_SetConfig+0x98>
 8006e34:	68ca      	ldr	r2, [r1, #12]
 8006e36:	f423 7340 	bic.w	r3, r3, #768	; 0x300
 8006e3a:	4313      	orrs	r3, r2
 8006e3c:	694a      	ldr	r2, [r1, #20]
 8006e3e:	f023 0380 	bic.w	r3, r3, #128	; 0x80
 8006e42:	4313      	orrs	r3, r2
 8006e44:	6003      	str	r3, [r0, #0]
 8006e46:	688b      	ldr	r3, [r1, #8]
 8006e48:	62c3      	str	r3, [r0, #44]	; 0x2c
 8006e4a:	680b      	ldr	r3, [r1, #0]
 8006e4c:	6283      	str	r3, [r0, #40]	; 0x28
 8006e4e:	4b06      	ldr	r3, [pc, #24]	; (8006e68 <TIM_Base_SetConfig+0xc4>)
 8006e50:	4298      	cmp	r0, r3
 8006e52:	d003      	beq.n	8006e5c <TIM_Base_SetConfig+0xb8>
 8006e54:	f503 6380 	add.w	r3, r3, #1024	; 0x400
 8006e58:	4298      	cmp	r0, r3
 8006e5a:	d101      	bne.n	8006e60 <TIM_Base_SetConfig+0xbc>
 8006e5c:	690b      	ldr	r3, [r1, #16]
 8006e5e:	6303      	str	r3, [r0, #48]	; 0x30
 8006e60:	2301      	movs	r3, #1
 8006e62:	6143      	str	r3, [r0, #20]
 8006e64:	4770      	bx	lr
 8006e66:	bf00      	nop
 8006e68:	40010000 	.word	0x40010000
 8006e6c:	40014000 	.word	0x40014000

08006e70 <HAL_TIM_Base_Init>:
 8006e70:	b510      	push	{r4, lr}
 8006e72:	4604      	mov	r4, r0
 8006e74:	b330      	cbz	r0, 8006ec4 <HAL_TIM_Base_Init+0x54>
 8006e76:	f890 303d 	ldrb.w	r3, [r0, #61]	; 0x3d
 8006e7a:	f003 02ff 	and.w	r2, r3, #255	; 0xff
 8006e7e:	b91b      	cbnz	r3, 8006e88 <HAL_TIM_Base_Init+0x18>
 8006e80:	f880 203c 	strb.w	r2, [r0, #60]	; 0x3c
 8006e84:	f7fd f8b2 	bl	8003fec <HAL_TIM_Base_MspInit>
 8006e88:	2302      	movs	r3, #2
 8006e8a:	6820      	ldr	r0, [r4, #0]
 8006e8c:	f884 303d 	strb.w	r3, [r4, #61]	; 0x3d
 8006e90:	1d21      	adds	r1, r4, #4
 8006e92:	f7ff ff87 	bl	8006da4 <TIM_Base_SetConfig>
 8006e96:	2301      	movs	r3, #1
 8006e98:	f884 3046 	strb.w	r3, [r4, #70]	; 0x46
 8006e9c:	2000      	movs	r0, #0
 8006e9e:	f884 303e 	strb.w	r3, [r4, #62]	; 0x3e
 8006ea2:	f884 303f 	strb.w	r3, [r4, #63]	; 0x3f
 8006ea6:	f884 3040 	strb.w	r3, [r4, #64]	; 0x40
 8006eaa:	f884 3041 	strb.w	r3, [r4, #65]	; 0x41
 8006eae:	f884 3042 	strb.w	r3, [r4, #66]	; 0x42
 8006eb2:	f884 3043 	strb.w	r3, [r4, #67]	; 0x43
 8006eb6:	f884 3044 	strb.w	r3, [r4, #68]	; 0x44
 8006eba:	f884 3045 	strb.w	r3, [r4, #69]	; 0x45
 8006ebe:	f884 303d 	strb.w	r3, [r4, #61]	; 0x3d
 8006ec2:	bd10      	pop	{r4, pc}
 8006ec4:	2001      	movs	r0, #1
 8006ec6:	e7fc      	b.n	8006ec2 <HAL_TIM_Base_Init+0x52>

08006ec8 <HAL_TIM_PWM_Init>:
 8006ec8:	b510      	push	{r4, lr}
 8006eca:	4604      	mov	r4, r0
 8006ecc:	b330      	cbz	r0, 8006f1c <HAL_TIM_PWM_Init+0x54>
 8006ece:	f890 303d 	ldrb.w	r3, [r0, #61]	; 0x3d
 8006ed2:	f003 02ff 	and.w	r2, r3, #255	; 0xff
 8006ed6:	b91b      	cbnz	r3, 8006ee0 <HAL_TIM_PWM_Init+0x18>
 8006ed8:	f880 203c 	strb.w	r2, [r0, #60]	; 0x3c
 8006edc:	f7ff feba 	bl	8006c54 <HAL_TIM_PWM_MspInit>
 8006ee0:	2302      	movs	r3, #2
 8006ee2:	6820      	ldr	r0, [r4, #0]
 8006ee4:	f884 303d 	strb.w	r3, [r4, #61]	; 0x3d
 8006ee8:	1d21      	adds	r1, r4, #4
 8006eea:	f7ff ff5b 	bl	8006da4 <TIM_Base_SetConfig>
 8006eee:	2301      	movs	r3, #1
 8006ef0:	f884 3046 	strb.w	r3, [r4, #70]	; 0x46
 8006ef4:	2000      	movs	r0, #0
 8006ef6:	f884 303e 	strb.w	r3, [r4, #62]	; 0x3e
 8006efa:	f884 303f 	strb.w	r3, [r4, #63]	; 0x3f
 8006efe:	f884 3040 	strb.w	r3, [r4, #64]	; 0x40
 8006f02:	f884 3041 	strb.w	r3, [r4, #65]	; 0x41
 8006f06:	f884 3042 	strb.w	r3, [r4, #66]	; 0x42
 8006f0a:	f884 3043 	strb.w	r3, [r4, #67]	; 0x43
 8006f0e:	f884 3044 	strb.w	r3, [r4, #68]	; 0x44
 8006f12:	f884 3045 	strb.w	r3, [r4, #69]	; 0x45
 8006f16:	f884 303d 	strb.w	r3, [r4, #61]	; 0x3d
 8006f1a:	bd10      	pop	{r4, pc}
 8006f1c:	2001      	movs	r0, #1
 8006f1e:	e7fc      	b.n	8006f1a <HAL_TIM_PWM_Init+0x52>

08006f20 <TIM_OC2_SetConfig>:
 8006f20:	6a03      	ldr	r3, [r0, #32]
 8006f22:	f023 0310 	bic.w	r3, r3, #16
 8006f26:	6203      	str	r3, [r0, #32]
 8006f28:	6a03      	ldr	r3, [r0, #32]
 8006f2a:	b570      	push	{r4, r5, r6, lr}
 8006f2c:	6844      	ldr	r4, [r0, #4]
 8006f2e:	6982      	ldr	r2, [r0, #24]
 8006f30:	680d      	ldr	r5, [r1, #0]
 8006f32:	f422 42e6 	bic.w	r2, r2, #29440	; 0x7300
 8006f36:	ea42 2205 	orr.w	r2, r2, r5, lsl #8
 8006f3a:	688d      	ldr	r5, [r1, #8]
 8006f3c:	f023 0320 	bic.w	r3, r3, #32
 8006f40:	ea43 1305 	orr.w	r3, r3, r5, lsl #4
 8006f44:	4d10      	ldr	r5, [pc, #64]	; (8006f88 <TIM_OC2_SetConfig+0x68>)
 8006f46:	42a8      	cmp	r0, r5
 8006f48:	d003      	beq.n	8006f52 <TIM_OC2_SetConfig+0x32>
 8006f4a:	f505 6580 	add.w	r5, r5, #1024	; 0x400
 8006f4e:	42a8      	cmp	r0, r5
 8006f50:	d114      	bne.n	8006f7c <TIM_OC2_SetConfig+0x5c>
 8006f52:	68cd      	ldr	r5, [r1, #12]
 8006f54:	f023 0380 	bic.w	r3, r3, #128	; 0x80
 8006f58:	ea43 1305 	orr.w	r3, r3, r5, lsl #4
 8006f5c:	4d0a      	ldr	r5, [pc, #40]	; (8006f88 <TIM_OC2_SetConfig+0x68>)
 8006f5e:	42a8      	cmp	r0, r5
 8006f60:	f023 0340 	bic.w	r3, r3, #64	; 0x40
 8006f64:	d003      	beq.n	8006f6e <TIM_OC2_SetConfig+0x4e>
 8006f66:	f505 6580 	add.w	r5, r5, #1024	; 0x400
 8006f6a:	42a8      	cmp	r0, r5
 8006f6c:	d106      	bne.n	8006f7c <TIM_OC2_SetConfig+0x5c>
 8006f6e:	e9d1 5605 	ldrd	r5, r6, [r1, #20]
 8006f72:	f424 6440 	bic.w	r4, r4, #3072	; 0xc00
 8006f76:	4335      	orrs	r5, r6
 8006f78:	ea44 0485 	orr.w	r4, r4, r5, lsl #2
 8006f7c:	6044      	str	r4, [r0, #4]
 8006f7e:	6182      	str	r2, [r0, #24]
 8006f80:	684a      	ldr	r2, [r1, #4]
 8006f82:	6382      	str	r2, [r0, #56]	; 0x38
 8006f84:	6203      	str	r3, [r0, #32]
 8006f86:	bd70      	pop	{r4, r5, r6, pc}
 8006f88:	40010000 	.word	0x40010000

08006f8c <HAL_TIM_PWM_ConfigChannel>:
 8006f8c:	b538      	push	{r3, r4, r5, lr}
 8006f8e:	f890 303c 	ldrb.w	r3, [r0, #60]	; 0x3c
 8006f92:	2b01      	cmp	r3, #1
 8006f94:	4604      	mov	r4, r0
 8006f96:	d052      	beq.n	800703e <HAL_TIM_PWM_ConfigChannel+0xb2>
 8006f98:	2301      	movs	r3, #1
 8006f9a:	2a08      	cmp	r2, #8
 8006f9c:	f880 303c 	strb.w	r3, [r0, #60]	; 0x3c
 8006fa0:	d03c      	beq.n	800701c <HAL_TIM_PWM_ConfigChannel+0x90>
 8006fa2:	d806      	bhi.n	8006fb2 <HAL_TIM_PWM_ConfigChannel+0x26>
 8006fa4:	b1c2      	cbz	r2, 8006fd8 <HAL_TIM_PWM_ConfigChannel+0x4c>
 8006fa6:	2a04      	cmp	r2, #4
 8006fa8:	d027      	beq.n	8006ffa <HAL_TIM_PWM_ConfigChannel+0x6e>
 8006faa:	2000      	movs	r0, #0
 8006fac:	f884 003c 	strb.w	r0, [r4, #60]	; 0x3c
 8006fb0:	bd38      	pop	{r3, r4, r5, pc}
 8006fb2:	2a0c      	cmp	r2, #12
 8006fb4:	d1f9      	bne.n	8006faa <HAL_TIM_PWM_ConfigChannel+0x1e>
 8006fb6:	6800      	ldr	r0, [r0, #0]
 8006fb8:	f7ff fdb6 	bl	8006b28 <TIM_OC4_SetConfig>
 8006fbc:	6823      	ldr	r3, [r4, #0]
 8006fbe:	6909      	ldr	r1, [r1, #16]
 8006fc0:	69da      	ldr	r2, [r3, #28]
 8006fc2:	f442 6200 	orr.w	r2, r2, #2048	; 0x800
 8006fc6:	61da      	str	r2, [r3, #28]
 8006fc8:	69da      	ldr	r2, [r3, #28]
 8006fca:	f422 6280 	bic.w	r2, r2, #1024	; 0x400
 8006fce:	61da      	str	r2, [r3, #28]
 8006fd0:	69da      	ldr	r2, [r3, #28]
 8006fd2:	ea42 2201 	orr.w	r2, r2, r1, lsl #8
 8006fd6:	e030      	b.n	800703a <HAL_TIM_PWM_ConfigChannel+0xae>
 8006fd8:	6800      	ldr	r0, [r0, #0]
 8006fda:	f7ff fd3d 	bl	8006a58 <TIM_OC1_SetConfig>
 8006fde:	6823      	ldr	r3, [r4, #0]
 8006fe0:	6909      	ldr	r1, [r1, #16]
 8006fe2:	699a      	ldr	r2, [r3, #24]
 8006fe4:	f042 0208 	orr.w	r2, r2, #8
 8006fe8:	619a      	str	r2, [r3, #24]
 8006fea:	699a      	ldr	r2, [r3, #24]
 8006fec:	f022 0204 	bic.w	r2, r2, #4
 8006ff0:	619a      	str	r2, [r3, #24]
 8006ff2:	699a      	ldr	r2, [r3, #24]
 8006ff4:	430a      	orrs	r2, r1
 8006ff6:	619a      	str	r2, [r3, #24]
 8006ff8:	e7d7      	b.n	8006faa <HAL_TIM_PWM_ConfigChannel+0x1e>
 8006ffa:	6800      	ldr	r0, [r0, #0]
 8006ffc:	f7ff ff90 	bl	8006f20 <TIM_OC2_SetConfig>
 8007000:	6823      	ldr	r3, [r4, #0]
 8007002:	6909      	ldr	r1, [r1, #16]
 8007004:	699a      	ldr	r2, [r3, #24]
 8007006:	f442 6200 	orr.w	r2, r2, #2048	; 0x800
 800700a:	619a      	str	r2, [r3, #24]
 800700c:	699a      	ldr	r2, [r3, #24]
 800700e:	f422 6280 	bic.w	r2, r2, #1024	; 0x400
 8007012:	619a      	str	r2, [r3, #24]
 8007014:	699a      	ldr	r2, [r3, #24]
 8007016:	ea42 2201 	orr.w	r2, r2, r1, lsl #8
 800701a:	e7ec      	b.n	8006ff6 <HAL_TIM_PWM_ConfigChannel+0x6a>
 800701c:	6800      	ldr	r0, [r0, #0]
 800701e:	f7ff fd4d 	bl	8006abc <TIM_OC3_SetConfig>
 8007022:	6823      	ldr	r3, [r4, #0]
 8007024:	6909      	ldr	r1, [r1, #16]
 8007026:	69da      	ldr	r2, [r3, #28]
 8007028:	f042 0208 	orr.w	r2, r2, #8
 800702c:	61da      	str	r2, [r3, #28]
 800702e:	69da      	ldr	r2, [r3, #28]
 8007030:	f022 0204 	bic.w	r2, r2, #4
 8007034:	61da      	str	r2, [r3, #28]
 8007036:	69da      	ldr	r2, [r3, #28]
 8007038:	430a      	orrs	r2, r1
 800703a:	61da      	str	r2, [r3, #28]
 800703c:	e7b5      	b.n	8006faa <HAL_TIM_PWM_ConfigChannel+0x1e>
 800703e:	2002      	movs	r0, #2
 8007040:	e7b6      	b.n	8006fb0 <HAL_TIM_PWM_ConfigChannel+0x24>

08007042 <TIM_ETR_SetConfig>:
 8007042:	b510      	push	{r4, lr}
 8007044:	6884      	ldr	r4, [r0, #8]
 8007046:	4311      	orrs	r1, r2
 8007048:	f424 447f 	bic.w	r4, r4, #65280	; 0xff00
 800704c:	ea41 2303 	orr.w	r3, r1, r3, lsl #8
 8007050:	4323      	orrs	r3, r4
 8007052:	6083      	str	r3, [r0, #8]
 8007054:	bd10      	pop	{r4, pc}

08007056 <HAL_TIM_ConfigClockSource>:
 8007056:	b570      	push	{r4, r5, r6, lr}
 8007058:	f890 303c 	ldrb.w	r3, [r0, #60]	; 0x3c
 800705c:	2b01      	cmp	r3, #1
 800705e:	4604      	mov	r4, r0
 8007060:	f04f 0002 	mov.w	r0, #2
 8007064:	d027      	beq.n	80070b6 <HAL_TIM_ConfigClockSource+0x60>
 8007066:	f884 003d 	strb.w	r0, [r4, #61]	; 0x3d
 800706a:	2301      	movs	r3, #1
 800706c:	6820      	ldr	r0, [r4, #0]
 800706e:	f884 303c 	strb.w	r3, [r4, #60]	; 0x3c
 8007072:	6883      	ldr	r3, [r0, #8]
 8007074:	f423 437f 	bic.w	r3, r3, #65280	; 0xff00
 8007078:	f023 0377 	bic.w	r3, r3, #119	; 0x77
 800707c:	6083      	str	r3, [r0, #8]
 800707e:	680b      	ldr	r3, [r1, #0]
 8007080:	2b60      	cmp	r3, #96	; 0x60
 8007082:	d04d      	beq.n	8007120 <HAL_TIM_ConfigClockSource+0xca>
 8007084:	d832      	bhi.n	80070ec <HAL_TIM_ConfigClockSource+0x96>
 8007086:	2b40      	cmp	r3, #64	; 0x40
 8007088:	d062      	beq.n	8007150 <HAL_TIM_ConfigClockSource+0xfa>
 800708a:	d815      	bhi.n	80070b8 <HAL_TIM_ConfigClockSource+0x62>
 800708c:	2b20      	cmp	r3, #32
 800708e:	d003      	beq.n	8007098 <HAL_TIM_ConfigClockSource+0x42>
 8007090:	d809      	bhi.n	80070a6 <HAL_TIM_ConfigClockSource+0x50>
 8007092:	f033 0210 	bics.w	r2, r3, #16
 8007096:	d108      	bne.n	80070aa <HAL_TIM_ConfigClockSource+0x54>
 8007098:	6882      	ldr	r2, [r0, #8]
 800709a:	f022 0270 	bic.w	r2, r2, #112	; 0x70
 800709e:	4313      	orrs	r3, r2
 80070a0:	f043 0307 	orr.w	r3, r3, #7
 80070a4:	e020      	b.n	80070e8 <HAL_TIM_ConfigClockSource+0x92>
 80070a6:	2b30      	cmp	r3, #48	; 0x30
 80070a8:	d0f6      	beq.n	8007098 <HAL_TIM_ConfigClockSource+0x42>
 80070aa:	2301      	movs	r3, #1
 80070ac:	2000      	movs	r0, #0
 80070ae:	f884 303d 	strb.w	r3, [r4, #61]	; 0x3d
 80070b2:	f884 003c 	strb.w	r0, [r4, #60]	; 0x3c
 80070b6:	bd70      	pop	{r4, r5, r6, pc}
 80070b8:	2b50      	cmp	r3, #80	; 0x50
 80070ba:	d1f6      	bne.n	80070aa <HAL_TIM_ConfigClockSource+0x54>
 80070bc:	684a      	ldr	r2, [r1, #4]
 80070be:	68ce      	ldr	r6, [r1, #12]
 80070c0:	6a01      	ldr	r1, [r0, #32]
 80070c2:	6a05      	ldr	r5, [r0, #32]
 80070c4:	f025 0501 	bic.w	r5, r5, #1
 80070c8:	6205      	str	r5, [r0, #32]
 80070ca:	6983      	ldr	r3, [r0, #24]
 80070cc:	f021 010a 	bic.w	r1, r1, #10
 80070d0:	f023 03f0 	bic.w	r3, r3, #240	; 0xf0
 80070d4:	ea43 1306 	orr.w	r3, r3, r6, lsl #4
 80070d8:	430a      	orrs	r2, r1
 80070da:	6183      	str	r3, [r0, #24]
 80070dc:	6202      	str	r2, [r0, #32]
 80070de:	6883      	ldr	r3, [r0, #8]
 80070e0:	f023 0370 	bic.w	r3, r3, #112	; 0x70
 80070e4:	f043 0357 	orr.w	r3, r3, #87	; 0x57
 80070e8:	6083      	str	r3, [r0, #8]
 80070ea:	e7de      	b.n	80070aa <HAL_TIM_ConfigClockSource+0x54>
 80070ec:	2b70      	cmp	r3, #112	; 0x70
 80070ee:	d00c      	beq.n	800710a <HAL_TIM_ConfigClockSource+0xb4>
 80070f0:	f5b3 5f00 	cmp.w	r3, #8192	; 0x2000
 80070f4:	d1d9      	bne.n	80070aa <HAL_TIM_ConfigClockSource+0x54>
 80070f6:	68cb      	ldr	r3, [r1, #12]
 80070f8:	e9d1 2101 	ldrd	r2, r1, [r1, #4]
 80070fc:	f7ff ffa1 	bl	8007042 <TIM_ETR_SetConfig>
 8007100:	6822      	ldr	r2, [r4, #0]
 8007102:	6893      	ldr	r3, [r2, #8]
 8007104:	f443 4380 	orr.w	r3, r3, #16384	; 0x4000
 8007108:	e008      	b.n	800711c <HAL_TIM_ConfigClockSource+0xc6>
 800710a:	68cb      	ldr	r3, [r1, #12]
 800710c:	e9d1 2101 	ldrd	r2, r1, [r1, #4]
 8007110:	f7ff ff97 	bl	8007042 <TIM_ETR_SetConfig>
 8007114:	6822      	ldr	r2, [r4, #0]
 8007116:	6893      	ldr	r3, [r2, #8]
 8007118:	f043 0377 	orr.w	r3, r3, #119	; 0x77
 800711c:	6093      	str	r3, [r2, #8]
 800711e:	e7c4      	b.n	80070aa <HAL_TIM_ConfigClockSource+0x54>
 8007120:	684d      	ldr	r5, [r1, #4]
 8007122:	68ce      	ldr	r6, [r1, #12]
 8007124:	6a01      	ldr	r1, [r0, #32]
 8007126:	f021 0110 	bic.w	r1, r1, #16
 800712a:	6201      	str	r1, [r0, #32]
 800712c:	6982      	ldr	r2, [r0, #24]
 800712e:	6a03      	ldr	r3, [r0, #32]
 8007130:	f422 4270 	bic.w	r2, r2, #61440	; 0xf000
 8007134:	f023 03a0 	bic.w	r3, r3, #160	; 0xa0
 8007138:	ea43 1305 	orr.w	r3, r3, r5, lsl #4
 800713c:	ea42 3206 	orr.w	r2, r2, r6, lsl #12
 8007140:	6182      	str	r2, [r0, #24]
 8007142:	6203      	str	r3, [r0, #32]
 8007144:	6883      	ldr	r3, [r0, #8]
 8007146:	f023 0370 	bic.w	r3, r3, #112	; 0x70
 800714a:	f043 0367 	orr.w	r3, r3, #103	; 0x67
 800714e:	e7cb      	b.n	80070e8 <HAL_TIM_ConfigClockSource+0x92>
 8007150:	684a      	ldr	r2, [r1, #4]
 8007152:	68ce      	ldr	r6, [r1, #12]
 8007154:	6a01      	ldr	r1, [r0, #32]
 8007156:	6a05      	ldr	r5, [r0, #32]
 8007158:	f025 0501 	bic.w	r5, r5, #1
 800715c:	6205      	str	r5, [r0, #32]
 800715e:	6983      	ldr	r3, [r0, #24]
 8007160:	f021 010a 	bic.w	r1, r1, #10
 8007164:	f023 03f0 	bic.w	r3, r3, #240	; 0xf0
 8007168:	ea43 1306 	orr.w	r3, r3, r6, lsl #4
 800716c:	430a      	orrs	r2, r1
 800716e:	6183      	str	r3, [r0, #24]
 8007170:	6202      	str	r2, [r0, #32]
 8007172:	6883      	ldr	r3, [r0, #8]
 8007174:	f023 0370 	bic.w	r3, r3, #112	; 0x70
 8007178:	f043 0347 	orr.w	r3, r3, #71	; 0x47
 800717c:	e7b4      	b.n	80070e8 <HAL_TIM_ConfigClockSource+0x92>

0800717e <TIM_CCxChannelCmd>:
 800717e:	6a03      	ldr	r3, [r0, #32]
 8007180:	f001 011f 	and.w	r1, r1, #31
 8007184:	b510      	push	{r4, lr}
 8007186:	2401      	movs	r4, #1
 8007188:	408c      	lsls	r4, r1
 800718a:	ea23 0304 	bic.w	r3, r3, r4
 800718e:	6203      	str	r3, [r0, #32]
 8007190:	6a03      	ldr	r3, [r0, #32]
 8007192:	408a      	lsls	r2, r1
 8007194:	431a      	orrs	r2, r3
 8007196:	6202      	str	r2, [r0, #32]
 8007198:	bd10      	pop	{r4, pc}
	...

0800719c <HAL_TIM_OC_Start>:
 800719c:	b510      	push	{r4, lr}
 800719e:	4604      	mov	r4, r0
 80071a0:	b929      	cbnz	r1, 80071ae <HAL_TIM_OC_Start+0x12>
 80071a2:	f890 303e 	ldrb.w	r3, [r0, #62]	; 0x3e
 80071a6:	2b01      	cmp	r3, #1
 80071a8:	d01d      	beq.n	80071e6 <HAL_TIM_OC_Start+0x4a>
 80071aa:	2001      	movs	r0, #1
 80071ac:	e032      	b.n	8007214 <HAL_TIM_OC_Start+0x78>
 80071ae:	2904      	cmp	r1, #4
 80071b0:	d107      	bne.n	80071c2 <HAL_TIM_OC_Start+0x26>
 80071b2:	f890 303f 	ldrb.w	r3, [r0, #63]	; 0x3f
 80071b6:	2b01      	cmp	r3, #1
 80071b8:	d1f7      	bne.n	80071aa <HAL_TIM_OC_Start+0xe>
 80071ba:	2302      	movs	r3, #2
 80071bc:	f880 303f 	strb.w	r3, [r0, #63]	; 0x3f
 80071c0:	e014      	b.n	80071ec <HAL_TIM_OC_Start+0x50>
 80071c2:	2908      	cmp	r1, #8
 80071c4:	d107      	bne.n	80071d6 <HAL_TIM_OC_Start+0x3a>
 80071c6:	f890 3040 	ldrb.w	r3, [r0, #64]	; 0x40
 80071ca:	2b01      	cmp	r3, #1
 80071cc:	d1ed      	bne.n	80071aa <HAL_TIM_OC_Start+0xe>
 80071ce:	2302      	movs	r3, #2
 80071d0:	f880 3040 	strb.w	r3, [r0, #64]	; 0x40
 80071d4:	e00a      	b.n	80071ec <HAL_TIM_OC_Start+0x50>
 80071d6:	f890 3041 	ldrb.w	r3, [r0, #65]	; 0x41
 80071da:	2b01      	cmp	r3, #1
 80071dc:	d1e5      	bne.n	80071aa <HAL_TIM_OC_Start+0xe>
 80071de:	2302      	movs	r3, #2
 80071e0:	f880 3041 	strb.w	r3, [r0, #65]	; 0x41
 80071e4:	e002      	b.n	80071ec <HAL_TIM_OC_Start+0x50>
 80071e6:	2302      	movs	r3, #2
 80071e8:	f880 303e 	strb.w	r3, [r0, #62]	; 0x3e
 80071ec:	2201      	movs	r2, #1
 80071ee:	6820      	ldr	r0, [r4, #0]
 80071f0:	f7ff ffc5 	bl	800717e <TIM_CCxChannelCmd>
 80071f4:	6823      	ldr	r3, [r4, #0]
 80071f6:	4a19      	ldr	r2, [pc, #100]	; (800725c <HAL_TIM_OC_Start+0xc0>)
 80071f8:	4293      	cmp	r3, r2
 80071fa:	d00c      	beq.n	8007216 <HAL_TIM_OC_Start+0x7a>
 80071fc:	4918      	ldr	r1, [pc, #96]	; (8007260 <HAL_TIM_OC_Start+0xc4>)
 80071fe:	428b      	cmp	r3, r1
 8007200:	d009      	beq.n	8007216 <HAL_TIM_OC_Start+0x7a>
 8007202:	f1b3 4f80 	cmp.w	r3, #1073741824	; 0x40000000
 8007206:	d10d      	bne.n	8007224 <HAL_TIM_OC_Start+0x88>
 8007208:	689a      	ldr	r2, [r3, #8]
 800720a:	f002 0207 	and.w	r2, r2, #7
 800720e:	2a06      	cmp	r2, #6
 8007210:	d11f      	bne.n	8007252 <HAL_TIM_OC_Start+0xb6>
 8007212:	2000      	movs	r0, #0
 8007214:	bd10      	pop	{r4, pc}
 8007216:	6c59      	ldr	r1, [r3, #68]	; 0x44
 8007218:	4293      	cmp	r3, r2
 800721a:	f441 4100 	orr.w	r1, r1, #32768	; 0x8000
 800721e:	6459      	str	r1, [r3, #68]	; 0x44
 8007220:	d0f2      	beq.n	8007208 <HAL_TIM_OC_Start+0x6c>
 8007222:	e7ee      	b.n	8007202 <HAL_TIM_OC_Start+0x66>
 8007224:	4a0f      	ldr	r2, [pc, #60]	; (8007264 <HAL_TIM_OC_Start+0xc8>)
 8007226:	4293      	cmp	r3, r2
 8007228:	d0ee      	beq.n	8007208 <HAL_TIM_OC_Start+0x6c>
 800722a:	f502 6280 	add.w	r2, r2, #1024	; 0x400
 800722e:	4293      	cmp	r3, r2
 8007230:	d0ea      	beq.n	8007208 <HAL_TIM_OC_Start+0x6c>
 8007232:	f502 6280 	add.w	r2, r2, #1024	; 0x400
 8007236:	4293      	cmp	r3, r2
 8007238:	d0e6      	beq.n	8007208 <HAL_TIM_OC_Start+0x6c>
 800723a:	f502 4278 	add.w	r2, r2, #63488	; 0xf800
 800723e:	4293      	cmp	r3, r2
 8007240:	d0e2      	beq.n	8007208 <HAL_TIM_OC_Start+0x6c>
 8007242:	f502 5270 	add.w	r2, r2, #15360	; 0x3c00
 8007246:	4293      	cmp	r3, r2
 8007248:	d0de      	beq.n	8007208 <HAL_TIM_OC_Start+0x6c>
 800724a:	f5a2 3294 	sub.w	r2, r2, #75776	; 0x12800
 800724e:	4293      	cmp	r3, r2
 8007250:	d0da      	beq.n	8007208 <HAL_TIM_OC_Start+0x6c>
 8007252:	681a      	ldr	r2, [r3, #0]
 8007254:	f042 0201 	orr.w	r2, r2, #1
 8007258:	601a      	str	r2, [r3, #0]
 800725a:	e7da      	b.n	8007212 <HAL_TIM_OC_Start+0x76>
 800725c:	40010000 	.word	0x40010000
 8007260:	40010400 	.word	0x40010400
 8007264:	40000400 	.word	0x40000400

08007268 <HAL_TIM_PWM_Start>:
 8007268:	f7ff bf98 	b.w	800719c <HAL_TIM_OC_Start>

0800726c <HAL_TIMEx_MasterConfigSynchronization>:
 800726c:	b530      	push	{r4, r5, lr}
 800726e:	f890 303c 	ldrb.w	r3, [r0, #60]	; 0x3c
 8007272:	2b01      	cmp	r3, #1
 8007274:	f04f 0302 	mov.w	r3, #2
 8007278:	d032      	beq.n	80072e0 <HAL_TIMEx_MasterConfigSynchronization+0x74>
 800727a:	f880 303d 	strb.w	r3, [r0, #61]	; 0x3d
 800727e:	6803      	ldr	r3, [r0, #0]
 8007280:	680d      	ldr	r5, [r1, #0]
 8007282:	685c      	ldr	r4, [r3, #4]
 8007284:	689a      	ldr	r2, [r3, #8]
 8007286:	f024 0470 	bic.w	r4, r4, #112	; 0x70
 800728a:	432c      	orrs	r4, r5
 800728c:	605c      	str	r4, [r3, #4]
 800728e:	4c15      	ldr	r4, [pc, #84]	; (80072e4 <HAL_TIMEx_MasterConfigSynchronization+0x78>)
 8007290:	42a3      	cmp	r3, r4
 8007292:	d01a      	beq.n	80072ca <HAL_TIMEx_MasterConfigSynchronization+0x5e>
 8007294:	f1b3 4f80 	cmp.w	r3, #1073741824	; 0x40000000
 8007298:	d017      	beq.n	80072ca <HAL_TIMEx_MasterConfigSynchronization+0x5e>
 800729a:	f5a4 447c 	sub.w	r4, r4, #64512	; 0xfc00
 800729e:	42a3      	cmp	r3, r4
 80072a0:	d013      	beq.n	80072ca <HAL_TIMEx_MasterConfigSynchronization+0x5e>
 80072a2:	f504 6480 	add.w	r4, r4, #1024	; 0x400
 80072a6:	42a3      	cmp	r3, r4
 80072a8:	d00f      	beq.n	80072ca <HAL_TIMEx_MasterConfigSynchronization+0x5e>
 80072aa:	f504 6480 	add.w	r4, r4, #1024	; 0x400
 80072ae:	42a3      	cmp	r3, r4
 80072b0:	d00b      	beq.n	80072ca <HAL_TIMEx_MasterConfigSynchronization+0x5e>
 80072b2:	f504 4478 	add.w	r4, r4, #63488	; 0xf800
 80072b6:	42a3      	cmp	r3, r4
 80072b8:	d007      	beq.n	80072ca <HAL_TIMEx_MasterConfigSynchronization+0x5e>
 80072ba:	f504 5470 	add.w	r4, r4, #15360	; 0x3c00
 80072be:	42a3      	cmp	r3, r4
 80072c0:	d003      	beq.n	80072ca <HAL_TIMEx_MasterConfigSynchronization+0x5e>
 80072c2:	f5a4 3494 	sub.w	r4, r4, #75776	; 0x12800
 80072c6:	42a3      	cmp	r3, r4
 80072c8:	d104      	bne.n	80072d4 <HAL_TIMEx_MasterConfigSynchronization+0x68>
 80072ca:	6849      	ldr	r1, [r1, #4]
 80072cc:	f022 0280 	bic.w	r2, r2, #128	; 0x80
 80072d0:	430a      	orrs	r2, r1
 80072d2:	609a      	str	r2, [r3, #8]
 80072d4:	2301      	movs	r3, #1
 80072d6:	f880 303d 	strb.w	r3, [r0, #61]	; 0x3d
 80072da:	2300      	movs	r3, #0
 80072dc:	f880 303c 	strb.w	r3, [r0, #60]	; 0x3c
 80072e0:	4618      	mov	r0, r3
 80072e2:	bd30      	pop	{r4, r5, pc}
 80072e4:	40010000 	.word	0x40010000

080072e8 <HAL_TIMEx_CommutCallback>:
 80072e8:	4770      	bx	lr

080072ea <HAL_TIMEx_BreakCallback>:
 80072ea:	4770      	bx	lr

080072ec <UART_EndRxTransfer>:
 80072ec:	6803      	ldr	r3, [r0, #0]
 80072ee:	68da      	ldr	r2, [r3, #12]
 80072f0:	f422 7290 	bic.w	r2, r2, #288	; 0x120
 80072f4:	60da      	str	r2, [r3, #12]
 80072f6:	695a      	ldr	r2, [r3, #20]
 80072f8:	f022 0201 	bic.w	r2, r2, #1
 80072fc:	615a      	str	r2, [r3, #20]
 80072fe:	6b02      	ldr	r2, [r0, #48]	; 0x30
 8007300:	2a01      	cmp	r2, #1
 8007302:	bf02      	ittt	eq
 8007304:	68da      	ldreq	r2, [r3, #12]
 8007306:	f022 0210 	biceq.w	r2, r2, #16
 800730a:	60da      	streq	r2, [r3, #12]
 800730c:	2320      	movs	r3, #32
 800730e:	f880 303e 	strb.w	r3, [r0, #62]	; 0x3e
 8007312:	2300      	movs	r3, #0
 8007314:	6303      	str	r3, [r0, #48]	; 0x30
 8007316:	4770      	bx	lr

08007318 <UART_SetConfig>:
 8007318:	6802      	ldr	r2, [r0, #0]
 800731a:	68c1      	ldr	r1, [r0, #12]
 800731c:	b538      	push	{r3, r4, r5, lr}
 800731e:	6913      	ldr	r3, [r2, #16]
 8007320:	f423 5340 	bic.w	r3, r3, #12288	; 0x3000
 8007324:	430b      	orrs	r3, r1
 8007326:	6113      	str	r3, [r2, #16]
 8007328:	4605      	mov	r5, r0
 800732a:	6883      	ldr	r3, [r0, #8]
 800732c:	6900      	ldr	r0, [r0, #16]
 800732e:	68d1      	ldr	r1, [r2, #12]
 8007330:	4303      	orrs	r3, r0
 8007332:	6968      	ldr	r0, [r5, #20]
 8007334:	4303      	orrs	r3, r0
 8007336:	69e8      	ldr	r0, [r5, #28]
 8007338:	f421 4116 	bic.w	r1, r1, #38400	; 0x9600
 800733c:	f021 010c 	bic.w	r1, r1, #12
 8007340:	4303      	orrs	r3, r0
 8007342:	430b      	orrs	r3, r1
 8007344:	60d3      	str	r3, [r2, #12]
 8007346:	6953      	ldr	r3, [r2, #20]
 8007348:	69a9      	ldr	r1, [r5, #24]
 800734a:	f423 7340 	bic.w	r3, r3, #768	; 0x300
 800734e:	430b      	orrs	r3, r1
 8007350:	6153      	str	r3, [r2, #20]
 8007352:	4b1f      	ldr	r3, [pc, #124]	; (80073d0 <UART_SetConfig+0xb8>)
 8007354:	429a      	cmp	r2, r3
 8007356:	d003      	beq.n	8007360 <UART_SetConfig+0x48>
 8007358:	f503 6380 	add.w	r3, r3, #1024	; 0x400
 800735c:	429a      	cmp	r2, r3
 800735e:	d124      	bne.n	80073aa <UART_SetConfig+0x92>
 8007360:	f7ff f8a6 	bl	80064b0 <HAL_RCC_GetPCLK2Freq>
 8007364:	69ea      	ldr	r2, [r5, #28]
 8007366:	2319      	movs	r3, #25
 8007368:	f5b2 4f00 	cmp.w	r2, #32768	; 0x8000
 800736c:	fba0 0103 	umull	r0, r1, r0, r3
 8007370:	e9d5 4300 	ldrd	r4, r3, [r5]
 8007374:	d11c      	bne.n	80073b0 <UART_SetConfig+0x98>
 8007376:	461a      	mov	r2, r3
 8007378:	1892      	adds	r2, r2, r2
 800737a:	f04f 0300 	mov.w	r3, #0
 800737e:	415b      	adcs	r3, r3
 8007380:	f7f9 fc92 	bl	8000ca8 <__aeabi_uldivmod>
 8007384:	2164      	movs	r1, #100	; 0x64
 8007386:	fbb0 f5f1 	udiv	r5, r0, r1
 800738a:	fb01 0315 	mls	r3, r1, r5, r0
 800738e:	00db      	lsls	r3, r3, #3
 8007390:	3332      	adds	r3, #50	; 0x32
 8007392:	fbb3 f3f1 	udiv	r3, r3, r1
 8007396:	f003 0207 	and.w	r2, r3, #7
 800739a:	005b      	lsls	r3, r3, #1
 800739c:	eb02 1205 	add.w	r2, r2, r5, lsl #4
 80073a0:	f403 73f8 	and.w	r3, r3, #496	; 0x1f0
 80073a4:	4413      	add	r3, r2
 80073a6:	60a3      	str	r3, [r4, #8]
 80073a8:	bd38      	pop	{r3, r4, r5, pc}
 80073aa:	f7ff f871 	bl	8006490 <HAL_RCC_GetPCLK1Freq>
 80073ae:	e7d9      	b.n	8007364 <UART_SetConfig+0x4c>
 80073b0:	009a      	lsls	r2, r3, #2
 80073b2:	0f9b      	lsrs	r3, r3, #30
 80073b4:	f7f9 fc78 	bl	8000ca8 <__aeabi_uldivmod>
 80073b8:	2264      	movs	r2, #100	; 0x64
 80073ba:	fbb0 f1f2 	udiv	r1, r0, r2
 80073be:	fb02 0311 	mls	r3, r2, r1, r0
 80073c2:	011b      	lsls	r3, r3, #4
 80073c4:	3332      	adds	r3, #50	; 0x32
 80073c6:	fbb3 f3f2 	udiv	r3, r3, r2
 80073ca:	eb03 1301 	add.w	r3, r3, r1, lsl #4
 80073ce:	e7ea      	b.n	80073a6 <UART_SetConfig+0x8e>
 80073d0:	40011000 	.word	0x40011000

080073d4 <UART_WaitOnFlagUntilTimeout.constprop.0>:
 80073d4:	b5f8      	push	{r3, r4, r5, r6, r7, lr}
 80073d6:	4604      	mov	r4, r0
 80073d8:	460e      	mov	r6, r1
 80073da:	4617      	mov	r7, r2
 80073dc:	461d      	mov	r5, r3
 80073de:	6822      	ldr	r2, [r4, #0]
 80073e0:	6813      	ldr	r3, [r2, #0]
 80073e2:	ea36 0303 	bics.w	r3, r6, r3
 80073e6:	d101      	bne.n	80073ec <UART_WaitOnFlagUntilTimeout.constprop.0+0x18>
 80073e8:	2000      	movs	r0, #0
 80073ea:	e014      	b.n	8007416 <UART_WaitOnFlagUntilTimeout.constprop.0+0x42>
 80073ec:	1c6b      	adds	r3, r5, #1
 80073ee:	d0f7      	beq.n	80073e0 <UART_WaitOnFlagUntilTimeout.constprop.0+0xc>
 80073f0:	b995      	cbnz	r5, 8007418 <UART_WaitOnFlagUntilTimeout.constprop.0+0x44>
 80073f2:	6823      	ldr	r3, [r4, #0]
 80073f4:	68da      	ldr	r2, [r3, #12]
 80073f6:	f422 72d0 	bic.w	r2, r2, #416	; 0x1a0
 80073fa:	60da      	str	r2, [r3, #12]
 80073fc:	695a      	ldr	r2, [r3, #20]
 80073fe:	f022 0201 	bic.w	r2, r2, #1
 8007402:	615a      	str	r2, [r3, #20]
 8007404:	2320      	movs	r3, #32
 8007406:	f884 303d 	strb.w	r3, [r4, #61]	; 0x3d
 800740a:	f884 303e 	strb.w	r3, [r4, #62]	; 0x3e
 800740e:	2300      	movs	r3, #0
 8007410:	f884 303c 	strb.w	r3, [r4, #60]	; 0x3c
 8007414:	2003      	movs	r0, #3
 8007416:	bdf8      	pop	{r3, r4, r5, r6, r7, pc}
 8007418:	f7fd f87c 	bl	8004514 <HAL_GetTick>
 800741c:	1bc0      	subs	r0, r0, r7
 800741e:	4285      	cmp	r5, r0
 8007420:	d2dd      	bcs.n	80073de <UART_WaitOnFlagUntilTimeout.constprop.0+0xa>
 8007422:	e7e6      	b.n	80073f2 <UART_WaitOnFlagUntilTimeout.constprop.0+0x1e>

08007424 <HAL_UART_Init>:
 8007424:	b510      	push	{r4, lr}
 8007426:	4604      	mov	r4, r0
 8007428:	b340      	cbz	r0, 800747c <HAL_UART_Init+0x58>
 800742a:	f890 303d 	ldrb.w	r3, [r0, #61]	; 0x3d
 800742e:	f003 02ff 	and.w	r2, r3, #255	; 0xff
 8007432:	b91b      	cbnz	r3, 800743c <HAL_UART_Init+0x18>
 8007434:	f880 203c 	strb.w	r2, [r0, #60]	; 0x3c
 8007438:	f7fc fe80 	bl	800413c <HAL_UART_MspInit>
 800743c:	6822      	ldr	r2, [r4, #0]
 800743e:	2324      	movs	r3, #36	; 0x24
 8007440:	f884 303d 	strb.w	r3, [r4, #61]	; 0x3d
 8007444:	68d3      	ldr	r3, [r2, #12]
 8007446:	f423 5300 	bic.w	r3, r3, #8192	; 0x2000
 800744a:	60d3      	str	r3, [r2, #12]
 800744c:	4620      	mov	r0, r4
 800744e:	f7ff ff63 	bl	8007318 <UART_SetConfig>
 8007452:	6823      	ldr	r3, [r4, #0]
 8007454:	691a      	ldr	r2, [r3, #16]
 8007456:	f422 4290 	bic.w	r2, r2, #18432	; 0x4800
 800745a:	611a      	str	r2, [r3, #16]
 800745c:	695a      	ldr	r2, [r3, #20]
 800745e:	f022 022a 	bic.w	r2, r2, #42	; 0x2a
 8007462:	615a      	str	r2, [r3, #20]
 8007464:	68da      	ldr	r2, [r3, #12]
 8007466:	f442 5200 	orr.w	r2, r2, #8192	; 0x2000
 800746a:	60da      	str	r2, [r3, #12]
 800746c:	2000      	movs	r0, #0
 800746e:	2320      	movs	r3, #32
 8007470:	6420      	str	r0, [r4, #64]	; 0x40
 8007472:	f884 303d 	strb.w	r3, [r4, #61]	; 0x3d
 8007476:	f884 303e 	strb.w	r3, [r4, #62]	; 0x3e
 800747a:	bd10      	pop	{r4, pc}
 800747c:	2001      	movs	r0, #1
 800747e:	e7fc      	b.n	800747a <HAL_UART_Init+0x56>

08007480 <HAL_UART_Transmit>:
 8007480:	b5f7      	push	{r0, r1, r2, r4, r5, r6, r7, lr}
 8007482:	4617      	mov	r7, r2
 8007484:	f890 203d 	ldrb.w	r2, [r0, #61]	; 0x3d
 8007488:	9300      	str	r3, [sp, #0]
 800748a:	2a20      	cmp	r2, #32
 800748c:	4604      	mov	r4, r0
 800748e:	460e      	mov	r6, r1
 8007490:	d149      	bne.n	8007526 <HAL_UART_Transmit+0xa6>
 8007492:	2900      	cmp	r1, #0
 8007494:	d045      	beq.n	8007522 <HAL_UART_Transmit+0xa2>
 8007496:	2f00      	cmp	r7, #0
 8007498:	d043      	beq.n	8007522 <HAL_UART_Transmit+0xa2>
 800749a:	f890 203c 	ldrb.w	r2, [r0, #60]	; 0x3c
 800749e:	2a01      	cmp	r2, #1
 80074a0:	d041      	beq.n	8007526 <HAL_UART_Transmit+0xa6>
 80074a2:	2201      	movs	r2, #1
 80074a4:	f880 203c 	strb.w	r2, [r0, #60]	; 0x3c
 80074a8:	2500      	movs	r5, #0
 80074aa:	2221      	movs	r2, #33	; 0x21
 80074ac:	6405      	str	r5, [r0, #64]	; 0x40
 80074ae:	f880 203d 	strb.w	r2, [r0, #61]	; 0x3d
 80074b2:	f7fd f82f 	bl	8004514 <HAL_GetTick>
 80074b6:	68a1      	ldr	r1, [r4, #8]
 80074b8:	9b00      	ldr	r3, [sp, #0]
 80074ba:	84a7      	strh	r7, [r4, #36]	; 0x24
 80074bc:	f5b1 5f80 	cmp.w	r1, #4096	; 0x1000
 80074c0:	4602      	mov	r2, r0
 80074c2:	84e7      	strh	r7, [r4, #38]	; 0x26
 80074c4:	d103      	bne.n	80074ce <HAL_UART_Transmit+0x4e>
 80074c6:	6921      	ldr	r1, [r4, #16]
 80074c8:	b909      	cbnz	r1, 80074ce <HAL_UART_Transmit+0x4e>
 80074ca:	4635      	mov	r5, r6
 80074cc:	460e      	mov	r6, r1
 80074ce:	2100      	movs	r1, #0
 80074d0:	f884 103c 	strb.w	r1, [r4, #60]	; 0x3c
 80074d4:	8ce1      	ldrh	r1, [r4, #38]	; 0x26
 80074d6:	b289      	uxth	r1, r1
 80074d8:	b941      	cbnz	r1, 80074ec <HAL_UART_Transmit+0x6c>
 80074da:	2140      	movs	r1, #64	; 0x40
 80074dc:	4620      	mov	r0, r4
 80074de:	f7ff ff79 	bl	80073d4 <UART_WaitOnFlagUntilTimeout.constprop.0>
 80074e2:	b960      	cbnz	r0, 80074fe <HAL_UART_Transmit+0x7e>
 80074e4:	2320      	movs	r3, #32
 80074e6:	f884 303d 	strb.w	r3, [r4, #61]	; 0x3d
 80074ea:	e009      	b.n	8007500 <HAL_UART_Transmit+0x80>
 80074ec:	2180      	movs	r1, #128	; 0x80
 80074ee:	4620      	mov	r0, r4
 80074f0:	e9cd 2300 	strd	r2, r3, [sp]
 80074f4:	f7ff ff6e 	bl	80073d4 <UART_WaitOnFlagUntilTimeout.constprop.0>
 80074f8:	e9dd 2300 	ldrd	r2, r3, [sp]
 80074fc:	b110      	cbz	r0, 8007504 <HAL_UART_Transmit+0x84>
 80074fe:	2003      	movs	r0, #3
 8007500:	b003      	add	sp, #12
 8007502:	bdf0      	pop	{r4, r5, r6, r7, pc}
 8007504:	6820      	ldr	r0, [r4, #0]
 8007506:	b94e      	cbnz	r6, 800751c <HAL_UART_Transmit+0x9c>
 8007508:	f835 1b02 	ldrh.w	r1, [r5], #2
 800750c:	f3c1 0108 	ubfx	r1, r1, #0, #9
 8007510:	6041      	str	r1, [r0, #4]
 8007512:	8ce1      	ldrh	r1, [r4, #38]	; 0x26
 8007514:	3901      	subs	r1, #1
 8007516:	b289      	uxth	r1, r1
 8007518:	84e1      	strh	r1, [r4, #38]	; 0x26
 800751a:	e7db      	b.n	80074d4 <HAL_UART_Transmit+0x54>
 800751c:	f816 1b01 	ldrb.w	r1, [r6], #1
 8007520:	e7f6      	b.n	8007510 <HAL_UART_Transmit+0x90>
 8007522:	2001      	movs	r0, #1
 8007524:	e7ec      	b.n	8007500 <HAL_UART_Transmit+0x80>
 8007526:	2002      	movs	r0, #2
 8007528:	e7ea      	b.n	8007500 <HAL_UART_Transmit+0x80>

0800752a <HAL_UART_DMAStop>:
 800752a:	b510      	push	{r4, lr}
 800752c:	6803      	ldr	r3, [r0, #0]
 800752e:	695a      	ldr	r2, [r3, #20]
 8007530:	f890 103d 	ldrb.w	r1, [r0, #61]	; 0x3d
 8007534:	2921      	cmp	r1, #33	; 0x21
 8007536:	4604      	mov	r4, r0
 8007538:	d111      	bne.n	800755e <HAL_UART_DMAStop+0x34>
 800753a:	0611      	lsls	r1, r2, #24
 800753c:	d50f      	bpl.n	800755e <HAL_UART_DMAStop+0x34>
 800753e:	695a      	ldr	r2, [r3, #20]
 8007540:	6b40      	ldr	r0, [r0, #52]	; 0x34
 8007542:	f022 0280 	bic.w	r2, r2, #128	; 0x80
 8007546:	615a      	str	r2, [r3, #20]
 8007548:	b108      	cbz	r0, 800754e <HAL_UART_DMAStop+0x24>
 800754a:	f7fd fbf7 	bl	8004d3c <HAL_DMA_Abort>
 800754e:	6822      	ldr	r2, [r4, #0]
 8007550:	68d3      	ldr	r3, [r2, #12]
 8007552:	f023 03c0 	bic.w	r3, r3, #192	; 0xc0
 8007556:	60d3      	str	r3, [r2, #12]
 8007558:	2320      	movs	r3, #32
 800755a:	f884 303d 	strb.w	r3, [r4, #61]	; 0x3d
 800755e:	6823      	ldr	r3, [r4, #0]
 8007560:	695a      	ldr	r2, [r3, #20]
 8007562:	f894 103e 	ldrb.w	r1, [r4, #62]	; 0x3e
 8007566:	2922      	cmp	r1, #34	; 0x22
 8007568:	d10c      	bne.n	8007584 <HAL_UART_DMAStop+0x5a>
 800756a:	0652      	lsls	r2, r2, #25
 800756c:	d50a      	bpl.n	8007584 <HAL_UART_DMAStop+0x5a>
 800756e:	695a      	ldr	r2, [r3, #20]
 8007570:	6ba0      	ldr	r0, [r4, #56]	; 0x38
 8007572:	f022 0240 	bic.w	r2, r2, #64	; 0x40
 8007576:	615a      	str	r2, [r3, #20]
 8007578:	b108      	cbz	r0, 800757e <HAL_UART_DMAStop+0x54>
 800757a:	f7fd fbdf 	bl	8004d3c <HAL_DMA_Abort>
 800757e:	4620      	mov	r0, r4
 8007580:	f7ff feb4 	bl	80072ec <UART_EndRxTransfer>
 8007584:	2000      	movs	r0, #0
 8007586:	bd10      	pop	{r4, pc}

08007588 <HAL_UART_RxCpltCallback>:
 8007588:	4770      	bx	lr

0800758a <HAL_UART_RxHalfCpltCallback>:
 800758a:	4770      	bx	lr

0800758c <HAL_UART_ErrorCallback>:
 800758c:	4770      	bx	lr

0800758e <UART_DMAError>:
 800758e:	b508      	push	{r3, lr}
 8007590:	6b80      	ldr	r0, [r0, #56]	; 0x38
 8007592:	6803      	ldr	r3, [r0, #0]
 8007594:	695a      	ldr	r2, [r3, #20]
 8007596:	f890 103d 	ldrb.w	r1, [r0, #61]	; 0x3d
 800759a:	2921      	cmp	r1, #33	; 0x21
 800759c:	d10a      	bne.n	80075b4 <UART_DMAError+0x26>
 800759e:	0612      	lsls	r2, r2, #24
 80075a0:	d508      	bpl.n	80075b4 <UART_DMAError+0x26>
 80075a2:	2200      	movs	r2, #0
 80075a4:	84c2      	strh	r2, [r0, #38]	; 0x26
 80075a6:	68da      	ldr	r2, [r3, #12]
 80075a8:	f022 02c0 	bic.w	r2, r2, #192	; 0xc0
 80075ac:	60da      	str	r2, [r3, #12]
 80075ae:	2220      	movs	r2, #32
 80075b0:	f880 203d 	strb.w	r2, [r0, #61]	; 0x3d
 80075b4:	695b      	ldr	r3, [r3, #20]
 80075b6:	f890 203e 	ldrb.w	r2, [r0, #62]	; 0x3e
 80075ba:	2a22      	cmp	r2, #34	; 0x22
 80075bc:	d105      	bne.n	80075ca <UART_DMAError+0x3c>
 80075be:	065b      	lsls	r3, r3, #25
 80075c0:	d503      	bpl.n	80075ca <UART_DMAError+0x3c>
 80075c2:	2300      	movs	r3, #0
 80075c4:	85c3      	strh	r3, [r0, #46]	; 0x2e
 80075c6:	f7ff fe91 	bl	80072ec <UART_EndRxTransfer>
 80075ca:	6c03      	ldr	r3, [r0, #64]	; 0x40
 80075cc:	f043 0310 	orr.w	r3, r3, #16
 80075d0:	6403      	str	r3, [r0, #64]	; 0x40
 80075d2:	f7ff ffdb 	bl	800758c <HAL_UART_ErrorCallback>
 80075d6:	bd08      	pop	{r3, pc}

080075d8 <UART_DMAAbortOnError>:
 80075d8:	b508      	push	{r3, lr}
 80075da:	6b80      	ldr	r0, [r0, #56]	; 0x38
 80075dc:	2300      	movs	r3, #0
 80075de:	85c3      	strh	r3, [r0, #46]	; 0x2e
 80075e0:	84c3      	strh	r3, [r0, #38]	; 0x26
 80075e2:	f7ff ffd3 	bl	800758c <HAL_UART_ErrorCallback>
 80075e6:	bd08      	pop	{r3, pc}

080075e8 <HAL_UARTEx_RxEventCallback>:
 80075e8:	4770      	bx	lr

080075ea <UART_Receive_IT>:
 80075ea:	b510      	push	{r4, lr}
 80075ec:	f890 303e 	ldrb.w	r3, [r0, #62]	; 0x3e
 80075f0:	2b22      	cmp	r3, #34	; 0x22
 80075f2:	4604      	mov	r4, r0
 80075f4:	d143      	bne.n	800767e <UART_Receive_IT+0x94>
 80075f6:	6881      	ldr	r1, [r0, #8]
 80075f8:	6a83      	ldr	r3, [r0, #40]	; 0x28
 80075fa:	6802      	ldr	r2, [r0, #0]
 80075fc:	f5b1 5f80 	cmp.w	r1, #4096	; 0x1000
 8007600:	d12c      	bne.n	800765c <UART_Receive_IT+0x72>
 8007602:	6901      	ldr	r1, [r0, #16]
 8007604:	2900      	cmp	r1, #0
 8007606:	d12c      	bne.n	8007662 <UART_Receive_IT+0x78>
 8007608:	6852      	ldr	r2, [r2, #4]
 800760a:	f3c2 0208 	ubfx	r2, r2, #0, #9
 800760e:	f823 2b02 	strh.w	r2, [r3], #2
 8007612:	62a3      	str	r3, [r4, #40]	; 0x28
 8007614:	8de3      	ldrh	r3, [r4, #46]	; 0x2e
 8007616:	3b01      	subs	r3, #1
 8007618:	b29b      	uxth	r3, r3
 800761a:	85e3      	strh	r3, [r4, #46]	; 0x2e
 800761c:	2b00      	cmp	r3, #0
 800761e:	d130      	bne.n	8007682 <UART_Receive_IT+0x98>
 8007620:	6823      	ldr	r3, [r4, #0]
 8007622:	68da      	ldr	r2, [r3, #12]
 8007624:	f022 0220 	bic.w	r2, r2, #32
 8007628:	60da      	str	r2, [r3, #12]
 800762a:	68da      	ldr	r2, [r3, #12]
 800762c:	f422 7280 	bic.w	r2, r2, #256	; 0x100
 8007630:	60da      	str	r2, [r3, #12]
 8007632:	695a      	ldr	r2, [r3, #20]
 8007634:	f022 0201 	bic.w	r2, r2, #1
 8007638:	615a      	str	r2, [r3, #20]
 800763a:	2220      	movs	r2, #32
 800763c:	f884 203e 	strb.w	r2, [r4, #62]	; 0x3e
 8007640:	6b22      	ldr	r2, [r4, #48]	; 0x30
 8007642:	2a01      	cmp	r2, #1
 8007644:	d117      	bne.n	8007676 <UART_Receive_IT+0x8c>
 8007646:	68da      	ldr	r2, [r3, #12]
 8007648:	8da1      	ldrh	r1, [r4, #44]	; 0x2c
 800764a:	f022 0210 	bic.w	r2, r2, #16
 800764e:	60da      	str	r2, [r3, #12]
 8007650:	4620      	mov	r0, r4
 8007652:	f7ff ffc9 	bl	80075e8 <HAL_UARTEx_RxEventCallback>
 8007656:	2000      	movs	r0, #0
 8007658:	6320      	str	r0, [r4, #48]	; 0x30
 800765a:	bd10      	pop	{r4, pc}
 800765c:	b939      	cbnz	r1, 800766e <UART_Receive_IT+0x84>
 800765e:	6901      	ldr	r1, [r0, #16]
 8007660:	b929      	cbnz	r1, 800766e <UART_Receive_IT+0x84>
 8007662:	6852      	ldr	r2, [r2, #4]
 8007664:	b2d2      	uxtb	r2, r2
 8007666:	701a      	strb	r2, [r3, #0]
 8007668:	6aa3      	ldr	r3, [r4, #40]	; 0x28
 800766a:	3301      	adds	r3, #1
 800766c:	e7d1      	b.n	8007612 <UART_Receive_IT+0x28>
 800766e:	6852      	ldr	r2, [r2, #4]
 8007670:	f002 027f 	and.w	r2, r2, #127	; 0x7f
 8007674:	e7f7      	b.n	8007666 <UART_Receive_IT+0x7c>
 8007676:	4620      	mov	r0, r4
 8007678:	f7ff ff86 	bl	8007588 <HAL_UART_RxCpltCallback>
 800767c:	e7eb      	b.n	8007656 <UART_Receive_IT+0x6c>
 800767e:	2002      	movs	r0, #2
 8007680:	e7eb      	b.n	800765a <UART_Receive_IT+0x70>
 8007682:	2000      	movs	r0, #0
 8007684:	e7e9      	b.n	800765a <UART_Receive_IT+0x70>
	...

08007688 <HAL_UART_IRQHandler>:
 8007688:	6803      	ldr	r3, [r0, #0]
 800768a:	b537      	push	{r0, r1, r2, r4, r5, lr}
 800768c:	681a      	ldr	r2, [r3, #0]
 800768e:	68d9      	ldr	r1, [r3, #12]
 8007690:	695d      	ldr	r5, [r3, #20]
 8007692:	f012 0f0f 	tst.w	r2, #15
 8007696:	4604      	mov	r4, r0
 8007698:	d108      	bne.n	80076ac <HAL_UART_IRQHandler+0x24>
 800769a:	0695      	lsls	r5, r2, #26
 800769c:	d55f      	bpl.n	800775e <HAL_UART_IRQHandler+0xd6>
 800769e:	068d      	lsls	r5, r1, #26
 80076a0:	d55d      	bpl.n	800775e <HAL_UART_IRQHandler+0xd6>
 80076a2:	b003      	add	sp, #12
 80076a4:	e8bd 4030 	ldmia.w	sp!, {r4, r5, lr}
 80076a8:	f7ff bf9f 	b.w	80075ea <UART_Receive_IT>
 80076ac:	f005 0001 	and.w	r0, r5, #1
 80076b0:	f401 7590 	and.w	r5, r1, #288	; 0x120
 80076b4:	4305      	orrs	r5, r0
 80076b6:	d052      	beq.n	800775e <HAL_UART_IRQHandler+0xd6>
 80076b8:	07d5      	lsls	r5, r2, #31
 80076ba:	d505      	bpl.n	80076c8 <HAL_UART_IRQHandler+0x40>
 80076bc:	05cb      	lsls	r3, r1, #23
 80076be:	bf42      	ittt	mi
 80076c0:	6c23      	ldrmi	r3, [r4, #64]	; 0x40
 80076c2:	f043 0301 	orrmi.w	r3, r3, #1
 80076c6:	6423      	strmi	r3, [r4, #64]	; 0x40
 80076c8:	0755      	lsls	r5, r2, #29
 80076ca:	d504      	bpl.n	80076d6 <HAL_UART_IRQHandler+0x4e>
 80076cc:	b118      	cbz	r0, 80076d6 <HAL_UART_IRQHandler+0x4e>
 80076ce:	6c23      	ldr	r3, [r4, #64]	; 0x40
 80076d0:	f043 0302 	orr.w	r3, r3, #2
 80076d4:	6423      	str	r3, [r4, #64]	; 0x40
 80076d6:	0793      	lsls	r3, r2, #30
 80076d8:	d504      	bpl.n	80076e4 <HAL_UART_IRQHandler+0x5c>
 80076da:	b118      	cbz	r0, 80076e4 <HAL_UART_IRQHandler+0x5c>
 80076dc:	6c23      	ldr	r3, [r4, #64]	; 0x40
 80076de:	f043 0304 	orr.w	r3, r3, #4
 80076e2:	6423      	str	r3, [r4, #64]	; 0x40
 80076e4:	0715      	lsls	r5, r2, #28
 80076e6:	d507      	bpl.n	80076f8 <HAL_UART_IRQHandler+0x70>
 80076e8:	f001 0320 	and.w	r3, r1, #32
 80076ec:	4303      	orrs	r3, r0
 80076ee:	bf1e      	ittt	ne
 80076f0:	6c23      	ldrne	r3, [r4, #64]	; 0x40
 80076f2:	f043 0308 	orrne.w	r3, r3, #8
 80076f6:	6423      	strne	r3, [r4, #64]	; 0x40
 80076f8:	6c23      	ldr	r3, [r4, #64]	; 0x40
 80076fa:	b353      	cbz	r3, 8007752 <HAL_UART_IRQHandler+0xca>
 80076fc:	0692      	lsls	r2, r2, #26
 80076fe:	d504      	bpl.n	800770a <HAL_UART_IRQHandler+0x82>
 8007700:	068b      	lsls	r3, r1, #26
 8007702:	d502      	bpl.n	800770a <HAL_UART_IRQHandler+0x82>
 8007704:	4620      	mov	r0, r4
 8007706:	f7ff ff70 	bl	80075ea <UART_Receive_IT>
 800770a:	6823      	ldr	r3, [r4, #0]
 800770c:	695b      	ldr	r3, [r3, #20]
 800770e:	6c25      	ldr	r5, [r4, #64]	; 0x40
 8007710:	f003 0340 	and.w	r3, r3, #64	; 0x40
 8007714:	f005 0508 	and.w	r5, r5, #8
 8007718:	431d      	orrs	r5, r3
 800771a:	4620      	mov	r0, r4
 800771c:	d01b      	beq.n	8007756 <HAL_UART_IRQHandler+0xce>
 800771e:	f7ff fde5 	bl	80072ec <UART_EndRxTransfer>
 8007722:	6823      	ldr	r3, [r4, #0]
 8007724:	695a      	ldr	r2, [r3, #20]
 8007726:	0655      	lsls	r5, r2, #25
 8007728:	d510      	bpl.n	800774c <HAL_UART_IRQHandler+0xc4>
 800772a:	695a      	ldr	r2, [r3, #20]
 800772c:	6ba0      	ldr	r0, [r4, #56]	; 0x38
 800772e:	f022 0240 	bic.w	r2, r2, #64	; 0x40
 8007732:	615a      	str	r2, [r3, #20]
 8007734:	b150      	cbz	r0, 800774c <HAL_UART_IRQHandler+0xc4>
 8007736:	4b54      	ldr	r3, [pc, #336]	; (8007888 <HAL_UART_IRQHandler+0x200>)
 8007738:	6503      	str	r3, [r0, #80]	; 0x50
 800773a:	f7fd fb43 	bl	8004dc4 <HAL_DMA_Abort_IT>
 800773e:	b140      	cbz	r0, 8007752 <HAL_UART_IRQHandler+0xca>
 8007740:	6ba0      	ldr	r0, [r4, #56]	; 0x38
 8007742:	6d03      	ldr	r3, [r0, #80]	; 0x50
 8007744:	b003      	add	sp, #12
 8007746:	e8bd 4030 	ldmia.w	sp!, {r4, r5, lr}
 800774a:	4718      	bx	r3
 800774c:	4620      	mov	r0, r4
 800774e:	f7ff ff1d 	bl	800758c <HAL_UART_ErrorCallback>
 8007752:	b003      	add	sp, #12
 8007754:	bd30      	pop	{r4, r5, pc}
 8007756:	f7ff ff19 	bl	800758c <HAL_UART_ErrorCallback>
 800775a:	6425      	str	r5, [r4, #64]	; 0x40
 800775c:	e7f9      	b.n	8007752 <HAL_UART_IRQHandler+0xca>
 800775e:	6b20      	ldr	r0, [r4, #48]	; 0x30
 8007760:	2801      	cmp	r0, #1
 8007762:	d156      	bne.n	8007812 <HAL_UART_IRQHandler+0x18a>
 8007764:	06d0      	lsls	r0, r2, #27
 8007766:	d554      	bpl.n	8007812 <HAL_UART_IRQHandler+0x18a>
 8007768:	06cd      	lsls	r5, r1, #27
 800776a:	d552      	bpl.n	8007812 <HAL_UART_IRQHandler+0x18a>
 800776c:	2100      	movs	r1, #0
 800776e:	9101      	str	r1, [sp, #4]
 8007770:	681a      	ldr	r2, [r3, #0]
 8007772:	9201      	str	r2, [sp, #4]
 8007774:	685a      	ldr	r2, [r3, #4]
 8007776:	9201      	str	r2, [sp, #4]
 8007778:	9a01      	ldr	r2, [sp, #4]
 800777a:	695a      	ldr	r2, [r3, #20]
 800777c:	f012 0240 	ands.w	r2, r2, #64	; 0x40
 8007780:	d02b      	beq.n	80077da <HAL_UART_IRQHandler+0x152>
 8007782:	6ba0      	ldr	r0, [r4, #56]	; 0x38
 8007784:	6802      	ldr	r2, [r0, #0]
 8007786:	6852      	ldr	r2, [r2, #4]
 8007788:	b292      	uxth	r2, r2
 800778a:	2a00      	cmp	r2, #0
 800778c:	d0e1      	beq.n	8007752 <HAL_UART_IRQHandler+0xca>
 800778e:	8da5      	ldrh	r5, [r4, #44]	; 0x2c
 8007790:	4295      	cmp	r5, r2
 8007792:	d9de      	bls.n	8007752 <HAL_UART_IRQHandler+0xca>
 8007794:	85e2      	strh	r2, [r4, #46]	; 0x2e
 8007796:	69c2      	ldr	r2, [r0, #28]
 8007798:	f5b2 7f80 	cmp.w	r2, #256	; 0x100
 800779c:	d015      	beq.n	80077ca <HAL_UART_IRQHandler+0x142>
 800779e:	68da      	ldr	r2, [r3, #12]
 80077a0:	f422 7280 	bic.w	r2, r2, #256	; 0x100
 80077a4:	60da      	str	r2, [r3, #12]
 80077a6:	695a      	ldr	r2, [r3, #20]
 80077a8:	f022 0201 	bic.w	r2, r2, #1
 80077ac:	615a      	str	r2, [r3, #20]
 80077ae:	695a      	ldr	r2, [r3, #20]
 80077b0:	f022 0240 	bic.w	r2, r2, #64	; 0x40
 80077b4:	615a      	str	r2, [r3, #20]
 80077b6:	2220      	movs	r2, #32
 80077b8:	f884 203e 	strb.w	r2, [r4, #62]	; 0x3e
 80077bc:	6321      	str	r1, [r4, #48]	; 0x30
 80077be:	68da      	ldr	r2, [r3, #12]
 80077c0:	f022 0210 	bic.w	r2, r2, #16
 80077c4:	60da      	str	r2, [r3, #12]
 80077c6:	f7fd fab9 	bl	8004d3c <HAL_DMA_Abort>
 80077ca:	8de3      	ldrh	r3, [r4, #46]	; 0x2e
 80077cc:	8da1      	ldrh	r1, [r4, #44]	; 0x2c
 80077ce:	1ac9      	subs	r1, r1, r3
 80077d0:	b289      	uxth	r1, r1
 80077d2:	4620      	mov	r0, r4
 80077d4:	f7ff ff08 	bl	80075e8 <HAL_UARTEx_RxEventCallback>
 80077d8:	e7bb      	b.n	8007752 <HAL_UART_IRQHandler+0xca>
 80077da:	8de1      	ldrh	r1, [r4, #46]	; 0x2e
 80077dc:	b288      	uxth	r0, r1
 80077de:	8de1      	ldrh	r1, [r4, #46]	; 0x2e
 80077e0:	b289      	uxth	r1, r1
 80077e2:	2900      	cmp	r1, #0
 80077e4:	d0b5      	beq.n	8007752 <HAL_UART_IRQHandler+0xca>
 80077e6:	8da1      	ldrh	r1, [r4, #44]	; 0x2c
 80077e8:	1a09      	subs	r1, r1, r0
 80077ea:	b289      	uxth	r1, r1
 80077ec:	2900      	cmp	r1, #0
 80077ee:	d0b0      	beq.n	8007752 <HAL_UART_IRQHandler+0xca>
 80077f0:	68d8      	ldr	r0, [r3, #12]
 80077f2:	f420 7090 	bic.w	r0, r0, #288	; 0x120
 80077f6:	60d8      	str	r0, [r3, #12]
 80077f8:	6958      	ldr	r0, [r3, #20]
 80077fa:	f020 0001 	bic.w	r0, r0, #1
 80077fe:	6158      	str	r0, [r3, #20]
 8007800:	2020      	movs	r0, #32
 8007802:	f884 003e 	strb.w	r0, [r4, #62]	; 0x3e
 8007806:	6322      	str	r2, [r4, #48]	; 0x30
 8007808:	68da      	ldr	r2, [r3, #12]
 800780a:	f022 0210 	bic.w	r2, r2, #16
 800780e:	60da      	str	r2, [r3, #12]
 8007810:	e7df      	b.n	80077d2 <HAL_UART_IRQHandler+0x14a>
 8007812:	0610      	lsls	r0, r2, #24
 8007814:	d526      	bpl.n	8007864 <HAL_UART_IRQHandler+0x1dc>
 8007816:	060d      	lsls	r5, r1, #24
 8007818:	d524      	bpl.n	8007864 <HAL_UART_IRQHandler+0x1dc>
 800781a:	f894 203d 	ldrb.w	r2, [r4, #61]	; 0x3d
 800781e:	2a21      	cmp	r2, #33	; 0x21
 8007820:	d197      	bne.n	8007752 <HAL_UART_IRQHandler+0xca>
 8007822:	68a1      	ldr	r1, [r4, #8]
 8007824:	6a22      	ldr	r2, [r4, #32]
 8007826:	f5b1 5f80 	cmp.w	r1, #4096	; 0x1000
 800782a:	d116      	bne.n	800785a <HAL_UART_IRQHandler+0x1d2>
 800782c:	6921      	ldr	r1, [r4, #16]
 800782e:	b9a1      	cbnz	r1, 800785a <HAL_UART_IRQHandler+0x1d2>
 8007830:	f832 1b02 	ldrh.w	r1, [r2], #2
 8007834:	f3c1 0108 	ubfx	r1, r1, #0, #9
 8007838:	6059      	str	r1, [r3, #4]
 800783a:	6222      	str	r2, [r4, #32]
 800783c:	8ce2      	ldrh	r2, [r4, #38]	; 0x26
 800783e:	3a01      	subs	r2, #1
 8007840:	b292      	uxth	r2, r2
 8007842:	84e2      	strh	r2, [r4, #38]	; 0x26
 8007844:	2a00      	cmp	r2, #0
 8007846:	d184      	bne.n	8007752 <HAL_UART_IRQHandler+0xca>
 8007848:	68da      	ldr	r2, [r3, #12]
 800784a:	f022 0280 	bic.w	r2, r2, #128	; 0x80
 800784e:	60da      	str	r2, [r3, #12]
 8007850:	68da      	ldr	r2, [r3, #12]
 8007852:	f042 0240 	orr.w	r2, r2, #64	; 0x40
 8007856:	60da      	str	r2, [r3, #12]
 8007858:	e77b      	b.n	8007752 <HAL_UART_IRQHandler+0xca>
 800785a:	1c51      	adds	r1, r2, #1
 800785c:	6221      	str	r1, [r4, #32]
 800785e:	7812      	ldrb	r2, [r2, #0]
 8007860:	605a      	str	r2, [r3, #4]
 8007862:	e7eb      	b.n	800783c <HAL_UART_IRQHandler+0x1b4>
 8007864:	0650      	lsls	r0, r2, #25
 8007866:	f57f af74 	bpl.w	8007752 <HAL_UART_IRQHandler+0xca>
 800786a:	064a      	lsls	r2, r1, #25
 800786c:	f57f af71 	bpl.w	8007752 <HAL_UART_IRQHandler+0xca>
 8007870:	68da      	ldr	r2, [r3, #12]
 8007872:	f022 0240 	bic.w	r2, r2, #64	; 0x40
 8007876:	60da      	str	r2, [r3, #12]
 8007878:	2320      	movs	r3, #32
 800787a:	f884 303d 	strb.w	r3, [r4, #61]	; 0x3d
 800787e:	4620      	mov	r0, r4
 8007880:	f7fc fa78 	bl	8003d74 <HAL_UART_TxCpltCallback>
 8007884:	e765      	b.n	8007752 <HAL_UART_IRQHandler+0xca>
 8007886:	bf00      	nop
 8007888:	080075d9 	.word	0x080075d9

0800788c <UART_DMARxHalfCplt>:
 800788c:	6b80      	ldr	r0, [r0, #56]	; 0x38
 800788e:	b508      	push	{r3, lr}
 8007890:	6b03      	ldr	r3, [r0, #48]	; 0x30
 8007892:	2b01      	cmp	r3, #1
 8007894:	d104      	bne.n	80078a0 <UART_DMARxHalfCplt+0x14>
 8007896:	8d81      	ldrh	r1, [r0, #44]	; 0x2c
 8007898:	0849      	lsrs	r1, r1, #1
 800789a:	f7ff fea5 	bl	80075e8 <HAL_UARTEx_RxEventCallback>
 800789e:	bd08      	pop	{r3, pc}
 80078a0:	f7ff fe73 	bl	800758a <HAL_UART_RxHalfCpltCallback>
 80078a4:	e7fb      	b.n	800789e <UART_DMARxHalfCplt+0x12>

080078a6 <UART_DMAReceiveCplt>:
 80078a6:	b508      	push	{r3, lr}
 80078a8:	4603      	mov	r3, r0
 80078aa:	6b80      	ldr	r0, [r0, #56]	; 0x38
 80078ac:	681b      	ldr	r3, [r3, #0]
 80078ae:	681b      	ldr	r3, [r3, #0]
 80078b0:	f413 7380 	ands.w	r3, r3, #256	; 0x100
 80078b4:	d117      	bne.n	80078e6 <UART_DMAReceiveCplt+0x40>
 80078b6:	85c3      	strh	r3, [r0, #46]	; 0x2e
 80078b8:	6803      	ldr	r3, [r0, #0]
 80078ba:	68da      	ldr	r2, [r3, #12]
 80078bc:	f422 7280 	bic.w	r2, r2, #256	; 0x100
 80078c0:	60da      	str	r2, [r3, #12]
 80078c2:	695a      	ldr	r2, [r3, #20]
 80078c4:	f022 0201 	bic.w	r2, r2, #1
 80078c8:	615a      	str	r2, [r3, #20]
 80078ca:	695a      	ldr	r2, [r3, #20]
 80078cc:	f022 0240 	bic.w	r2, r2, #64	; 0x40
 80078d0:	615a      	str	r2, [r3, #20]
 80078d2:	2220      	movs	r2, #32
 80078d4:	f880 203e 	strb.w	r2, [r0, #62]	; 0x3e
 80078d8:	6b02      	ldr	r2, [r0, #48]	; 0x30
 80078da:	2a01      	cmp	r2, #1
 80078dc:	bf02      	ittt	eq
 80078de:	68da      	ldreq	r2, [r3, #12]
 80078e0:	f022 0210 	biceq.w	r2, r2, #16
 80078e4:	60da      	streq	r2, [r3, #12]
 80078e6:	6b03      	ldr	r3, [r0, #48]	; 0x30
 80078e8:	2b01      	cmp	r3, #1
 80078ea:	d103      	bne.n	80078f4 <UART_DMAReceiveCplt+0x4e>
 80078ec:	8d81      	ldrh	r1, [r0, #44]	; 0x2c
 80078ee:	f7ff fe7b 	bl	80075e8 <HAL_UARTEx_RxEventCallback>
 80078f2:	bd08      	pop	{r3, pc}
 80078f4:	f7ff fe48 	bl	8007588 <HAL_UART_RxCpltCallback>
 80078f8:	e7fb      	b.n	80078f2 <UART_DMAReceiveCplt+0x4c>
	...

080078fc <UART_Start_Receive_DMA>:
 80078fc:	b573      	push	{r0, r1, r4, r5, r6, lr}
 80078fe:	2322      	movs	r3, #34	; 0x22
 8007900:	2500      	movs	r5, #0
 8007902:	4604      	mov	r4, r0
 8007904:	6405      	str	r5, [r0, #64]	; 0x40
 8007906:	6281      	str	r1, [r0, #40]	; 0x28
 8007908:	f880 303e 	strb.w	r3, [r0, #62]	; 0x3e
 800790c:	8582      	strh	r2, [r0, #44]	; 0x2c
 800790e:	6b80      	ldr	r0, [r0, #56]	; 0x38
 8007910:	4b12      	ldr	r3, [pc, #72]	; (800795c <UART_Start_Receive_DMA+0x60>)
 8007912:	63c3      	str	r3, [r0, #60]	; 0x3c
 8007914:	4b12      	ldr	r3, [pc, #72]	; (8007960 <UART_Start_Receive_DMA+0x64>)
 8007916:	6826      	ldr	r6, [r4, #0]
 8007918:	6403      	str	r3, [r0, #64]	; 0x40
 800791a:	4b12      	ldr	r3, [pc, #72]	; (8007964 <UART_Start_Receive_DMA+0x68>)
 800791c:	e9c0 3513 	strd	r3, r5, [r0, #76]	; 0x4c
 8007920:	4613      	mov	r3, r2
 8007922:	460a      	mov	r2, r1
 8007924:	1d31      	adds	r1, r6, #4
 8007926:	f7fd f9cf 	bl	8004cc8 <HAL_DMA_Start_IT>
 800792a:	6823      	ldr	r3, [r4, #0]
 800792c:	9501      	str	r5, [sp, #4]
 800792e:	681a      	ldr	r2, [r3, #0]
 8007930:	9201      	str	r2, [sp, #4]
 8007932:	685a      	ldr	r2, [r3, #4]
 8007934:	9201      	str	r2, [sp, #4]
 8007936:	f884 503c 	strb.w	r5, [r4, #60]	; 0x3c
 800793a:	9a01      	ldr	r2, [sp, #4]
 800793c:	68da      	ldr	r2, [r3, #12]
 800793e:	f442 7280 	orr.w	r2, r2, #256	; 0x100
 8007942:	60da      	str	r2, [r3, #12]
 8007944:	695a      	ldr	r2, [r3, #20]
 8007946:	f042 0201 	orr.w	r2, r2, #1
 800794a:	615a      	str	r2, [r3, #20]
 800794c:	695a      	ldr	r2, [r3, #20]
 800794e:	4628      	mov	r0, r5
 8007950:	f042 0240 	orr.w	r2, r2, #64	; 0x40
 8007954:	615a      	str	r2, [r3, #20]
 8007956:	b002      	add	sp, #8
 8007958:	bd70      	pop	{r4, r5, r6, pc}
 800795a:	bf00      	nop
 800795c:	080078a7 	.word	0x080078a7
 8007960:	0800788d 	.word	0x0800788d
 8007964:	0800758f 	.word	0x0800758f

08007968 <HAL_UART_Receive_DMA>:
 8007968:	b470      	push	{r4, r5, r6}
 800796a:	f890 603e 	ldrb.w	r6, [r0, #62]	; 0x3e
 800796e:	2e20      	cmp	r6, #32
 8007970:	d110      	bne.n	8007994 <HAL_UART_Receive_DMA+0x2c>
 8007972:	b161      	cbz	r1, 800798e <HAL_UART_Receive_DMA+0x26>
 8007974:	b15a      	cbz	r2, 800798e <HAL_UART_Receive_DMA+0x26>
 8007976:	f890 403c 	ldrb.w	r4, [r0, #60]	; 0x3c
 800797a:	2c01      	cmp	r4, #1
 800797c:	d00a      	beq.n	8007994 <HAL_UART_Receive_DMA+0x2c>
 800797e:	2401      	movs	r4, #1
 8007980:	f880 403c 	strb.w	r4, [r0, #60]	; 0x3c
 8007984:	2400      	movs	r4, #0
 8007986:	6304      	str	r4, [r0, #48]	; 0x30
 8007988:	bc70      	pop	{r4, r5, r6}
 800798a:	f7ff bfb7 	b.w	80078fc <UART_Start_Receive_DMA>
 800798e:	2001      	movs	r0, #1
 8007990:	bc70      	pop	{r4, r5, r6}
 8007992:	4770      	bx	lr
 8007994:	2002      	movs	r0, #2
 8007996:	e7fb      	b.n	8007990 <HAL_UART_Receive_DMA+0x28>

08007998 <arm_fir_init_f32>:
 8007998:	b570      	push	{r4, r5, r6, lr}
 800799a:	9c04      	ldr	r4, [sp, #16]
 800799c:	6082      	str	r2, [r0, #8]
 800799e:	f104 4480 	add.w	r4, r4, #1073741824	; 0x40000000
 80079a2:	3c01      	subs	r4, #1
 80079a4:	4605      	mov	r5, r0
 80079a6:	440c      	add	r4, r1
 80079a8:	8001      	strh	r1, [r0, #0]
 80079aa:	461e      	mov	r6, r3
 80079ac:	00a2      	lsls	r2, r4, #2
 80079ae:	4618      	mov	r0, r3
 80079b0:	2100      	movs	r1, #0
 80079b2:	f000 fa9f 	bl	8007ef4 <memset>
 80079b6:	606e      	str	r6, [r5, #4]
 80079b8:	bd70      	pop	{r4, r5, r6, pc}
 80079ba:	bf00      	nop

080079bc <arm_fir_f32>:
 80079bc:	e92d 4ff0 	stmdb	sp!, {r4, r5, r6, r7, r8, r9, sl, fp, lr}
 80079c0:	ed2d 8b10 	vpush	{d8-d15}
 80079c4:	b089      	sub	sp, #36	; 0x24
 80079c6:	4605      	mov	r5, r0
 80079c8:	9003      	str	r0, [sp, #12]
 80079ca:	8800      	ldrh	r0, [r0, #0]
 80079cc:	9304      	str	r3, [sp, #16]
 80079ce:	461e      	mov	r6, r3
 80079d0:	f8d5 c004 	ldr.w	ip, [r5, #4]
 80079d4:	9001      	str	r0, [sp, #4]
 80079d6:	f100 4380 	add.w	r3, r0, #1073741824	; 0x40000000
 80079da:	3b01      	subs	r3, #1
 80079dc:	eb0c 0483 	add.w	r4, ip, r3, lsl #2
 80079e0:	08f3      	lsrs	r3, r6, #3
 80079e2:	f8d5 8008 	ldr.w	r8, [r5, #8]
 80079e6:	9400      	str	r4, [sp, #0]
 80079e8:	9302      	str	r3, [sp, #8]
 80079ea:	f000 81ef 	beq.w	8007dcc <arm_fir_f32+0x410>
 80079ee:	ea4f 09d0 	mov.w	r9, r0, lsr #3
 80079f2:	469e      	mov	lr, r3
 80079f4:	ea4f 1349 	mov.w	r3, r9, lsl #5
 80079f8:	1f1e      	subs	r6, r3, #4
 80079fa:	4625      	mov	r5, r4
 80079fc:	9605      	str	r6, [sp, #20]
 80079fe:	4604      	mov	r4, r0
 8007a00:	eb08 0003 	add.w	r0, r8, r3
 8007a04:	f004 0a07 	and.w	sl, r4, #7
 8007a08:	4613      	mov	r3, r2
 8007a0a:	f10c 0420 	add.w	r4, ip, #32
 8007a0e:	f8cd c018 	str.w	ip, [sp, #24]
 8007a12:	4684      	mov	ip, r0
 8007a14:	4648      	mov	r0, r9
 8007a16:	f8dd 9014 	ldr.w	r9, [sp, #20]
 8007a1a:	9107      	str	r1, [sp, #28]
 8007a1c:	f105 0720 	add.w	r7, r5, #32
 8007a20:	f101 0620 	add.w	r6, r1, #32
 8007a24:	f102 0520 	add.w	r5, r2, #32
 8007a28:	4652      	mov	r2, sl
 8007a2a:	469a      	mov	sl, r3
 8007a2c:	f856 3c20 	ldr.w	r3, [r6, #-32]
 8007a30:	f847 3c20 	str.w	r3, [r7, #-32]
 8007a34:	f856 3c1c 	ldr.w	r3, [r6, #-28]
 8007a38:	f847 3c1c 	str.w	r3, [r7, #-28]
 8007a3c:	f856 3c18 	ldr.w	r3, [r6, #-24]
 8007a40:	f847 3c18 	str.w	r3, [r7, #-24]
 8007a44:	f856 3c14 	ldr.w	r3, [r6, #-20]
 8007a48:	f847 3c14 	str.w	r3, [r7, #-20]
 8007a4c:	f856 3c10 	ldr.w	r3, [r6, #-16]
 8007a50:	f847 3c10 	str.w	r3, [r7, #-16]
 8007a54:	f856 3c0c 	ldr.w	r3, [r6, #-12]
 8007a58:	f847 3c0c 	str.w	r3, [r7, #-12]
 8007a5c:	f856 3c08 	ldr.w	r3, [r6, #-8]
 8007a60:	f847 3c08 	str.w	r3, [r7, #-8]
 8007a64:	eddf 3af1 	vldr	s7, [pc, #964]	; 8007e2c <arm_fir_f32+0x470>
 8007a68:	f856 3c04 	ldr.w	r3, [r6, #-4]
 8007a6c:	f847 3c04 	str.w	r3, [r7, #-4]
 8007a70:	ed14 3a08 	vldr	s6, [r4, #-32]	; 0xffffffe0
 8007a74:	ed54 2a07 	vldr	s5, [r4, #-28]	; 0xffffffe4
 8007a78:	ed14 2a06 	vldr	s4, [r4, #-24]	; 0xffffffe8
 8007a7c:	ed54 1a05 	vldr	s3, [r4, #-20]	; 0xffffffec
 8007a80:	ed14 1a04 	vldr	s2, [r4, #-16]
 8007a84:	ed54 0a03 	vldr	s1, [r4, #-12]
 8007a88:	ed14 0a02 	vldr	s0, [r4, #-8]
 8007a8c:	1f21      	subs	r1, r4, #4
 8007a8e:	eef0 8a63 	vmov.f32	s17, s7
 8007a92:	eef0 9a63 	vmov.f32	s19, s7
 8007a96:	eef0 aa63 	vmov.f32	s21, s7
 8007a9a:	eef0 ba63 	vmov.f32	s23, s7
 8007a9e:	eeb0 ca63 	vmov.f32	s24, s7
 8007aa2:	eef0 ca63 	vmov.f32	s25, s7
 8007aa6:	eeb0 da63 	vmov.f32	s26, s7
 8007aaa:	2800      	cmp	r0, #0
 8007aac:	f000 81e8 	beq.w	8007e80 <arm_fir_f32+0x4c4>
 8007ab0:	f108 0120 	add.w	r1, r8, #32
 8007ab4:	f104 031c 	add.w	r3, r4, #28
 8007ab8:	4683      	mov	fp, r0
 8007aba:	ed11 4a08 	vldr	s8, [r1, #-32]	; 0xffffffe0
 8007abe:	ed13 8a08 	vldr	s16, [r3, #-32]	; 0xffffffe0
 8007ac2:	ed51 4a07 	vldr	s9, [r1, #-28]	; 0xffffffe4
 8007ac6:	ed11 5a06 	vldr	s10, [r1, #-24]	; 0xffffffe8
 8007aca:	ed51 5a05 	vldr	s11, [r1, #-20]	; 0xffffffec
 8007ace:	ed11 6a04 	vldr	s12, [r1, #-16]
 8007ad2:	ed51 6a03 	vldr	s13, [r1, #-12]
 8007ad6:	ed11 7a02 	vldr	s14, [r1, #-8]
 8007ada:	ed51 7a01 	vldr	s15, [r1, #-4]
 8007ade:	ee24 fa03 	vmul.f32	s30, s8, s6
 8007ae2:	ee64 ea22 	vmul.f32	s29, s8, s5
 8007ae6:	ed13 3a07 	vldr	s6, [r3, #-28]	; 0xffffffe4
 8007aea:	ee24 ea02 	vmul.f32	s28, s8, s4
 8007aee:	ee64 da21 	vmul.f32	s27, s8, s3
 8007af2:	ee24 ba01 	vmul.f32	s22, s8, s2
 8007af6:	ee24 aa20 	vmul.f32	s20, s8, s1
 8007afa:	ee24 9a00 	vmul.f32	s18, s8, s0
 8007afe:	ee24 4a08 	vmul.f32	s8, s8, s16
 8007b02:	ee3f da0d 	vadd.f32	s26, s30, s26
 8007b06:	ee74 3a23 	vadd.f32	s7, s8, s7
 8007b0a:	ee24 faa2 	vmul.f32	s30, s9, s5
 8007b0e:	ee7e caac 	vadd.f32	s25, s29, s25
 8007b12:	ed53 2a06 	vldr	s5, [r3, #-24]	; 0xffffffe8
 8007b16:	ee64 ea82 	vmul.f32	s29, s9, s4
 8007b1a:	ee3e ca0c 	vadd.f32	s24, s28, s24
 8007b1e:	ee7d baab 	vadd.f32	s23, s27, s23
 8007b22:	ee24 eaa1 	vmul.f32	s28, s9, s3
 8007b26:	ee64 da81 	vmul.f32	s27, s9, s2
 8007b2a:	ee7b aa2a 	vadd.f32	s21, s22, s21
 8007b2e:	ee7a 9a29 	vadd.f32	s19, s20, s19
 8007b32:	ee24 baa0 	vmul.f32	s22, s9, s1
 8007b36:	ee24 aa80 	vmul.f32	s20, s9, s0
 8007b3a:	ee79 8a28 	vadd.f32	s17, s18, s17
 8007b3e:	ee28 9a24 	vmul.f32	s18, s16, s9
 8007b42:	ee64 4a83 	vmul.f32	s9, s9, s6
 8007b46:	ee25 4a02 	vmul.f32	s8, s10, s4
 8007b4a:	ee74 4aa3 	vadd.f32	s9, s9, s7
 8007b4e:	ed13 2a05 	vldr	s4, [r3, #-20]	; 0xffffffec
 8007b52:	ee7e caac 	vadd.f32	s25, s29, s25
 8007b56:	ee3e ca0c 	vadd.f32	s24, s28, s24
 8007b5a:	ee65 ea21 	vmul.f32	s29, s10, s3
 8007b5e:	ee25 ea01 	vmul.f32	s28, s10, s2
 8007b62:	ee7d baab 	vadd.f32	s23, s27, s23
 8007b66:	ee7b aa2a 	vadd.f32	s21, s22, s21
 8007b6a:	ee65 da20 	vmul.f32	s27, s10, s1
 8007b6e:	ee25 ba00 	vmul.f32	s22, s10, s0
 8007b72:	ee7a 9a29 	vadd.f32	s19, s20, s19
 8007b76:	ee79 8a28 	vadd.f32	s17, s18, s17
 8007b7a:	ee28 aa05 	vmul.f32	s20, s16, s10
 8007b7e:	ee23 9a05 	vmul.f32	s18, s6, s10
 8007b82:	ee3d da0f 	vadd.f32	s26, s26, s30
 8007b86:	ee25 5a22 	vmul.f32	s10, s10, s5
 8007b8a:	ee65 3aa1 	vmul.f32	s7, s11, s3
 8007b8e:	ee35 5a24 	vadd.f32	s10, s10, s9
 8007b92:	ed53 1a04 	vldr	s3, [r3, #-16]
 8007b96:	ee7e caac 	vadd.f32	s25, s29, s25
 8007b9a:	ee3e ca0c 	vadd.f32	s24, s28, s24
 8007b9e:	ee65 ea81 	vmul.f32	s29, s11, s2
 8007ba2:	ee25 eaa0 	vmul.f32	s28, s11, s1
 8007ba6:	ee7d baab 	vadd.f32	s23, s27, s23
 8007baa:	ee7b aa2a 	vadd.f32	s21, s22, s21
 8007bae:	ee65 da80 	vmul.f32	s27, s11, s0
 8007bb2:	ee28 ba25 	vmul.f32	s22, s16, s11
 8007bb6:	ee7a 9a29 	vadd.f32	s19, s20, s19
 8007bba:	ee79 8a28 	vadd.f32	s17, s18, s17
 8007bbe:	ee23 aa25 	vmul.f32	s20, s6, s11
 8007bc2:	ee22 9aa5 	vmul.f32	s18, s5, s11
 8007bc6:	ee3d da04 	vadd.f32	s26, s26, s8
 8007bca:	ee65 5a82 	vmul.f32	s11, s11, s4
 8007bce:	ee66 4a01 	vmul.f32	s9, s12, s2
 8007bd2:	ee7a 9a29 	vadd.f32	s19, s20, s19
 8007bd6:	ed13 1a03 	vldr	s2, [r3, #-12]
 8007bda:	ee75 5a85 	vadd.f32	s11, s11, s10
 8007bde:	ee3d da23 	vadd.f32	s26, s26, s7
 8007be2:	ee22 5a06 	vmul.f32	s10, s4, s12
 8007be6:	ee7e caac 	vadd.f32	s25, s29, s25
 8007bea:	ee3e ca0c 	vadd.f32	s24, s28, s24
 8007bee:	ee66 ea20 	vmul.f32	s29, s12, s1
 8007bf2:	ee26 ea00 	vmul.f32	s28, s12, s0
 8007bf6:	ee7d baab 	vadd.f32	s23, s27, s23
 8007bfa:	ee7b aa2a 	vadd.f32	s21, s22, s21
 8007bfe:	ee68 da06 	vmul.f32	s27, s16, s12
 8007c02:	ee23 ba06 	vmul.f32	s22, s6, s12
 8007c06:	ee22 aa86 	vmul.f32	s20, s5, s12
 8007c0a:	ee79 8a28 	vadd.f32	s17, s18, s17
 8007c0e:	ee26 6a21 	vmul.f32	s12, s12, s3
 8007c12:	ee26 9aa0 	vmul.f32	s18, s13, s1
 8007c16:	ee36 6a25 	vadd.f32	s12, s12, s11
 8007c1a:	ed53 0a02 	vldr	s1, [r3, #-8]
 8007c1e:	ee61 5aa6 	vmul.f32	s11, s3, s13
 8007c22:	ee3d da24 	vadd.f32	s26, s26, s9
 8007c26:	ee7e caac 	vadd.f32	s25, s29, s25
 8007c2a:	ee3e ca0c 	vadd.f32	s24, s28, s24
 8007c2e:	ee66 ea80 	vmul.f32	s29, s13, s0
 8007c32:	ee28 ea26 	vmul.f32	s28, s16, s13
 8007c36:	ee7d baab 	vadd.f32	s23, s27, s23
 8007c3a:	ee7b aa2a 	vadd.f32	s21, s22, s21
 8007c3e:	ee63 da26 	vmul.f32	s27, s6, s13
 8007c42:	ee22 baa6 	vmul.f32	s22, s5, s13
 8007c46:	ee3a aa29 	vadd.f32	s20, s20, s19
 8007c4a:	ee75 8a28 	vadd.f32	s17, s10, s17
 8007c4e:	ee62 9a26 	vmul.f32	s19, s4, s13
 8007c52:	ee66 6a81 	vmul.f32	s13, s13, s2
 8007c56:	ee27 5a00 	vmul.f32	s10, s14, s0
 8007c5a:	ee7b aa2a 	vadd.f32	s21, s22, s21
 8007c5e:	ee75 8aa8 	vadd.f32	s17, s11, s17
 8007c62:	ee7e caac 	vadd.f32	s25, s29, s25
 8007c66:	ee3e ca0c 	vadd.f32	s24, s28, s24
 8007c6a:	ee68 ea07 	vmul.f32	s29, s16, s14
 8007c6e:	ee23 ea07 	vmul.f32	s28, s6, s14
 8007c72:	ee7d baab 	vadd.f32	s23, s27, s23
 8007c76:	ee22 ba07 	vmul.f32	s22, s4, s14
 8007c7a:	ee62 da87 	vmul.f32	s27, s5, s14
 8007c7e:	ee39 aa8a 	vadd.f32	s20, s19, s20
 8007c82:	ee76 6a86 	vadd.f32	s13, s13, s12
 8007c86:	ee61 9a87 	vmul.f32	s19, s3, s14
 8007c8a:	ee67 3a20 	vmul.f32	s7, s14, s1
 8007c8e:	ed13 0a01 	vldr	s0, [r3, #-4]
 8007c92:	ee3d da09 	vadd.f32	s26, s26, s18
 8007c96:	ee21 6a07 	vmul.f32	s12, s2, s14
 8007c9a:	ee3d da05 	vadd.f32	s26, s26, s10
 8007c9e:	ee28 8a27 	vmul.f32	s16, s16, s15
 8007ca2:	ee63 5a27 	vmul.f32	s11, s6, s15
 8007ca6:	ee22 5aa7 	vmul.f32	s10, s5, s15
 8007caa:	ee62 4a27 	vmul.f32	s9, s4, s15
 8007cae:	ee3b ba2a 	vadd.f32	s22, s22, s21
 8007cb2:	ee39 aa8a 	vadd.f32	s20, s19, s20
 8007cb6:	ee61 aaa7 	vmul.f32	s21, s3, s15
 8007cba:	ee61 9a27 	vmul.f32	s19, s2, s15
 8007cbe:	ee36 7a28 	vadd.f32	s14, s12, s17
 8007cc2:	ee7e caac 	vadd.f32	s25, s29, s25
 8007cc6:	ee60 8aa7 	vmul.f32	s17, s1, s15
 8007cca:	ee3e ca0c 	vadd.f32	s24, s28, s24
 8007cce:	ee7d baab 	vadd.f32	s23, s27, s23
 8007cd2:	ee73 3aa6 	vadd.f32	s7, s7, s13
 8007cd6:	ee67 7a80 	vmul.f32	s15, s15, s0
 8007cda:	f1bb 0b01 	subs.w	fp, fp, #1
 8007cde:	f101 0120 	add.w	r1, r1, #32
 8007ce2:	ee38 da0d 	vadd.f32	s26, s16, s26
 8007ce6:	ee75 caac 	vadd.f32	s25, s11, s25
 8007cea:	ee35 ca0c 	vadd.f32	s24, s10, s24
 8007cee:	ee74 baab 	vadd.f32	s23, s9, s23
 8007cf2:	ee7a aa8b 	vadd.f32	s21, s21, s22
 8007cf6:	ee79 9a8a 	vadd.f32	s19, s19, s20
 8007cfa:	ee78 8a87 	vadd.f32	s17, s17, s14
 8007cfe:	ee77 3aa3 	vadd.f32	s7, s15, s7
 8007d02:	f103 0320 	add.w	r3, r3, #32
 8007d06:	f47f aed8 	bne.w	8007aba <arm_fir_f32+0xfe>
 8007d0a:	eb09 0104 	add.w	r1, r9, r4
 8007d0e:	46e3      	mov	fp, ip
 8007d10:	b3a2      	cbz	r2, 8007d7c <arm_fir_f32+0x3c0>
 8007d12:	4613      	mov	r3, r2
 8007d14:	ecbb 6a01 	vldmia	fp!, {s12}
 8007d18:	ecf1 7a01 	vldmia	r1!, {s15}
 8007d1c:	ee26 3a03 	vmul.f32	s6, s12, s6
 8007d20:	ee26 4a22 	vmul.f32	s8, s12, s5
 8007d24:	ee66 4a02 	vmul.f32	s9, s12, s4
 8007d28:	ee26 5a21 	vmul.f32	s10, s12, s3
 8007d2c:	ee66 5a01 	vmul.f32	s11, s12, s2
 8007d30:	ee66 6a20 	vmul.f32	s13, s12, s1
 8007d34:	ee26 7a00 	vmul.f32	s14, s12, s0
 8007d38:	ee26 6a27 	vmul.f32	s12, s12, s15
 8007d3c:	3b01      	subs	r3, #1
 8007d3e:	ee3d da03 	vadd.f32	s26, s26, s6
 8007d42:	ee7c ca84 	vadd.f32	s25, s25, s8
 8007d46:	eeb0 3a62 	vmov.f32	s6, s5
 8007d4a:	ee3c ca24 	vadd.f32	s24, s24, s9
 8007d4e:	eef0 2a42 	vmov.f32	s5, s4
 8007d52:	ee7b ba85 	vadd.f32	s23, s23, s10
 8007d56:	eeb0 2a61 	vmov.f32	s4, s3
 8007d5a:	ee7a aaa5 	vadd.f32	s21, s21, s11
 8007d5e:	eef0 1a41 	vmov.f32	s3, s2
 8007d62:	ee79 9aa6 	vadd.f32	s19, s19, s13
 8007d66:	eeb0 1a60 	vmov.f32	s2, s1
 8007d6a:	ee78 8a87 	vadd.f32	s17, s17, s14
 8007d6e:	eef0 0a40 	vmov.f32	s1, s0
 8007d72:	ee73 3a86 	vadd.f32	s7, s7, s12
 8007d76:	eeb0 0a67 	vmov.f32	s0, s15
 8007d7a:	d1cb      	bne.n	8007d14 <arm_fir_f32+0x358>
 8007d7c:	f1be 0e01 	subs.w	lr, lr, #1
 8007d80:	ed05 da08 	vstr	s26, [r5, #-32]	; 0xffffffe0
 8007d84:	ed45 ca07 	vstr	s25, [r5, #-28]	; 0xffffffe4
 8007d88:	ed05 ca06 	vstr	s24, [r5, #-24]	; 0xffffffe8
 8007d8c:	ed45 ba05 	vstr	s23, [r5, #-20]	; 0xffffffec
 8007d90:	ed45 aa04 	vstr	s21, [r5, #-16]
 8007d94:	ed45 9a03 	vstr	s19, [r5, #-12]
 8007d98:	ed45 8a02 	vstr	s17, [r5, #-8]
 8007d9c:	ed45 3a01 	vstr	s7, [r5, #-4]
 8007da0:	f107 0720 	add.w	r7, r7, #32
 8007da4:	f106 0620 	add.w	r6, r6, #32
 8007da8:	f104 0420 	add.w	r4, r4, #32
 8007dac:	f105 0520 	add.w	r5, r5, #32
 8007db0:	f47f ae3c 	bne.w	8007a2c <arm_fir_f32+0x70>
 8007db4:	9b02      	ldr	r3, [sp, #8]
 8007db6:	9800      	ldr	r0, [sp, #0]
 8007db8:	f8dd c018 	ldr.w	ip, [sp, #24]
 8007dbc:	9907      	ldr	r1, [sp, #28]
 8007dbe:	015b      	lsls	r3, r3, #5
 8007dc0:	4652      	mov	r2, sl
 8007dc2:	4418      	add	r0, r3
 8007dc4:	9000      	str	r0, [sp, #0]
 8007dc6:	4419      	add	r1, r3
 8007dc8:	449c      	add	ip, r3
 8007dca:	441a      	add	r2, r3
 8007dcc:	9b04      	ldr	r3, [sp, #16]
 8007dce:	f013 0e07 	ands.w	lr, r3, #7
 8007dd2:	d01f      	beq.n	8007e14 <arm_fir_f32+0x458>
 8007dd4:	9f00      	ldr	r7, [sp, #0]
 8007dd6:	f8dd 9004 	ldr.w	r9, [sp, #4]
 8007dda:	4676      	mov	r6, lr
 8007ddc:	4665      	mov	r5, ip
 8007dde:	f851 3b04 	ldr.w	r3, [r1], #4
 8007de2:	eddf 6a12 	vldr	s13, [pc, #72]	; 8007e2c <arm_fir_f32+0x470>
 8007de6:	f847 3b04 	str.w	r3, [r7], #4
 8007dea:	4644      	mov	r4, r8
 8007dec:	464b      	mov	r3, r9
 8007dee:	4628      	mov	r0, r5
 8007df0:	ecb0 7a01 	vldmia	r0!, {s14}
 8007df4:	ecf4 7a01 	vldmia	r4!, {s15}
 8007df8:	ee67 7a27 	vmul.f32	s15, s14, s15
 8007dfc:	3b01      	subs	r3, #1
 8007dfe:	ee76 6aa7 	vadd.f32	s13, s13, s15
 8007e02:	d1f5      	bne.n	8007df0 <arm_fir_f32+0x434>
 8007e04:	3e01      	subs	r6, #1
 8007e06:	ece2 6a01 	vstmia	r2!, {s13}
 8007e0a:	f105 0504 	add.w	r5, r5, #4
 8007e0e:	d1e6      	bne.n	8007dde <arm_fir_f32+0x422>
 8007e10:	eb0c 0c8e 	add.w	ip, ip, lr, lsl #2
 8007e14:	9b01      	ldr	r3, [sp, #4]
 8007e16:	1e59      	subs	r1, r3, #1
 8007e18:	9b03      	ldr	r3, [sp, #12]
 8007e1a:	088e      	lsrs	r6, r1, #2
 8007e1c:	685c      	ldr	r4, [r3, #4]
 8007e1e:	d020      	beq.n	8007e62 <arm_fir_f32+0x4a6>
 8007e20:	f104 0210 	add.w	r2, r4, #16
 8007e24:	f10c 0310 	add.w	r3, ip, #16
 8007e28:	4630      	mov	r0, r6
 8007e2a:	e001      	b.n	8007e30 <arm_fir_f32+0x474>
 8007e2c:	00000000 	.word	0x00000000
 8007e30:	f853 5c10 	ldr.w	r5, [r3, #-16]
 8007e34:	f842 5c10 	str.w	r5, [r2, #-16]
 8007e38:	f853 5c0c 	ldr.w	r5, [r3, #-12]
 8007e3c:	f842 5c0c 	str.w	r5, [r2, #-12]
 8007e40:	f853 5c08 	ldr.w	r5, [r3, #-8]
 8007e44:	f842 5c08 	str.w	r5, [r2, #-8]
 8007e48:	f853 5c04 	ldr.w	r5, [r3, #-4]
 8007e4c:	f842 5c04 	str.w	r5, [r2, #-4]
 8007e50:	3801      	subs	r0, #1
 8007e52:	f103 0310 	add.w	r3, r3, #16
 8007e56:	f102 0210 	add.w	r2, r2, #16
 8007e5a:	d1e9      	bne.n	8007e30 <arm_fir_f32+0x474>
 8007e5c:	0133      	lsls	r3, r6, #4
 8007e5e:	441c      	add	r4, r3
 8007e60:	449c      	add	ip, r3
 8007e62:	f011 0303 	ands.w	r3, r1, #3
 8007e66:	d006      	beq.n	8007e76 <arm_fir_f32+0x4ba>
 8007e68:	4622      	mov	r2, r4
 8007e6a:	f85c 1b04 	ldr.w	r1, [ip], #4
 8007e6e:	f842 1b04 	str.w	r1, [r2], #4
 8007e72:	3b01      	subs	r3, #1
 8007e74:	d1f9      	bne.n	8007e6a <arm_fir_f32+0x4ae>
 8007e76:	b009      	add	sp, #36	; 0x24
 8007e78:	ecbd 8b10 	vpop	{d8-d15}
 8007e7c:	e8bd 8ff0 	ldmia.w	sp!, {r4, r5, r6, r7, r8, r9, sl, fp, pc}
 8007e80:	46c3      	mov	fp, r8
 8007e82:	e745      	b.n	8007d10 <arm_fir_f32+0x354>

08007e84 <__errno>:
 8007e84:	4b01      	ldr	r3, [pc, #4]	; (8007e8c <__errno+0x8>)
 8007e86:	6818      	ldr	r0, [r3, #0]
 8007e88:	4770      	bx	lr
 8007e8a:	bf00      	nop
 8007e8c:	200001cc 	.word	0x200001cc

08007e90 <__libc_init_array>:
 8007e90:	b570      	push	{r4, r5, r6, lr}
 8007e92:	4d0d      	ldr	r5, [pc, #52]	; (8007ec8 <__libc_init_array+0x38>)
 8007e94:	4c0d      	ldr	r4, [pc, #52]	; (8007ecc <__libc_init_array+0x3c>)
 8007e96:	1b64      	subs	r4, r4, r5
 8007e98:	10a4      	asrs	r4, r4, #2
 8007e9a:	2600      	movs	r6, #0
 8007e9c:	42a6      	cmp	r6, r4
 8007e9e:	d109      	bne.n	8007eb4 <__libc_init_array+0x24>
 8007ea0:	4d0b      	ldr	r5, [pc, #44]	; (8007ed0 <__libc_init_array+0x40>)
 8007ea2:	4c0c      	ldr	r4, [pc, #48]	; (8007ed4 <__libc_init_array+0x44>)
 8007ea4:	f005 fb72 	bl	800d58c <_init>
 8007ea8:	1b64      	subs	r4, r4, r5
 8007eaa:	10a4      	asrs	r4, r4, #2
 8007eac:	2600      	movs	r6, #0
 8007eae:	42a6      	cmp	r6, r4
 8007eb0:	d105      	bne.n	8007ebe <__libc_init_array+0x2e>
 8007eb2:	bd70      	pop	{r4, r5, r6, pc}
 8007eb4:	f855 3b04 	ldr.w	r3, [r5], #4
 8007eb8:	4798      	blx	r3
 8007eba:	3601      	adds	r6, #1
 8007ebc:	e7ee      	b.n	8007e9c <__libc_init_array+0xc>
 8007ebe:	f855 3b04 	ldr.w	r3, [r5], #4
 8007ec2:	4798      	blx	r3
 8007ec4:	3601      	adds	r6, #1
 8007ec6:	e7f2      	b.n	8007eae <__libc_init_array+0x1e>
 8007ec8:	0800e740 	.word	0x0800e740
 8007ecc:	0800e740 	.word	0x0800e740
 8007ed0:	0800e740 	.word	0x0800e740
 8007ed4:	0800e744 	.word	0x0800e744

08007ed8 <memcpy>:
 8007ed8:	440a      	add	r2, r1
 8007eda:	4291      	cmp	r1, r2
 8007edc:	f100 33ff 	add.w	r3, r0, #4294967295
 8007ee0:	d100      	bne.n	8007ee4 <memcpy+0xc>
 8007ee2:	4770      	bx	lr
 8007ee4:	b510      	push	{r4, lr}
 8007ee6:	f811 4b01 	ldrb.w	r4, [r1], #1
 8007eea:	f803 4f01 	strb.w	r4, [r3, #1]!
 8007eee:	4291      	cmp	r1, r2
 8007ef0:	d1f9      	bne.n	8007ee6 <memcpy+0xe>
 8007ef2:	bd10      	pop	{r4, pc}

08007ef4 <memset>:
 8007ef4:	4402      	add	r2, r0
 8007ef6:	4603      	mov	r3, r0
 8007ef8:	4293      	cmp	r3, r2
 8007efa:	d100      	bne.n	8007efe <memset+0xa>
 8007efc:	4770      	bx	lr
 8007efe:	f803 1b01 	strb.w	r1, [r3], #1
 8007f02:	e7f9      	b.n	8007ef8 <memset+0x4>

08007f04 <__cvt>:
 8007f04:	e92d 47ff 	stmdb	sp!, {r0, r1, r2, r3, r4, r5, r6, r7, r8, r9, sl, lr}
 8007f08:	ec55 4b10 	vmov	r4, r5, d0
 8007f0c:	2d00      	cmp	r5, #0
 8007f0e:	460e      	mov	r6, r1
 8007f10:	4619      	mov	r1, r3
 8007f12:	462b      	mov	r3, r5
 8007f14:	bfbb      	ittet	lt
 8007f16:	f105 4300 	addlt.w	r3, r5, #2147483648	; 0x80000000
 8007f1a:	461d      	movlt	r5, r3
 8007f1c:	2300      	movge	r3, #0
 8007f1e:	232d      	movlt	r3, #45	; 0x2d
 8007f20:	700b      	strb	r3, [r1, #0]
 8007f22:	9b0d      	ldr	r3, [sp, #52]	; 0x34
 8007f24:	f8dd a030 	ldr.w	sl, [sp, #48]	; 0x30
 8007f28:	4691      	mov	r9, r2
 8007f2a:	f023 0820 	bic.w	r8, r3, #32
 8007f2e:	bfbc      	itt	lt
 8007f30:	4622      	movlt	r2, r4
 8007f32:	4614      	movlt	r4, r2
 8007f34:	f1b8 0f46 	cmp.w	r8, #70	; 0x46
 8007f38:	d005      	beq.n	8007f46 <__cvt+0x42>
 8007f3a:	f1b8 0f45 	cmp.w	r8, #69	; 0x45
 8007f3e:	d100      	bne.n	8007f42 <__cvt+0x3e>
 8007f40:	3601      	adds	r6, #1
 8007f42:	2102      	movs	r1, #2
 8007f44:	e000      	b.n	8007f48 <__cvt+0x44>
 8007f46:	2103      	movs	r1, #3
 8007f48:	ab03      	add	r3, sp, #12
 8007f4a:	9301      	str	r3, [sp, #4]
 8007f4c:	ab02      	add	r3, sp, #8
 8007f4e:	9300      	str	r3, [sp, #0]
 8007f50:	ec45 4b10 	vmov	d0, r4, r5
 8007f54:	4653      	mov	r3, sl
 8007f56:	4632      	mov	r2, r6
 8007f58:	f001 fe62 	bl	8009c20 <_dtoa_r>
 8007f5c:	f1b8 0f47 	cmp.w	r8, #71	; 0x47
 8007f60:	4607      	mov	r7, r0
 8007f62:	d102      	bne.n	8007f6a <__cvt+0x66>
 8007f64:	f019 0f01 	tst.w	r9, #1
 8007f68:	d022      	beq.n	8007fb0 <__cvt+0xac>
 8007f6a:	f1b8 0f46 	cmp.w	r8, #70	; 0x46
 8007f6e:	eb07 0906 	add.w	r9, r7, r6
 8007f72:	d110      	bne.n	8007f96 <__cvt+0x92>
 8007f74:	783b      	ldrb	r3, [r7, #0]
 8007f76:	2b30      	cmp	r3, #48	; 0x30
 8007f78:	d10a      	bne.n	8007f90 <__cvt+0x8c>
 8007f7a:	2200      	movs	r2, #0
 8007f7c:	2300      	movs	r3, #0
 8007f7e:	4620      	mov	r0, r4
 8007f80:	4629      	mov	r1, r5
 8007f82:	f7f8 fdb1 	bl	8000ae8 <__aeabi_dcmpeq>
 8007f86:	b918      	cbnz	r0, 8007f90 <__cvt+0x8c>
 8007f88:	f1c6 0601 	rsb	r6, r6, #1
 8007f8c:	f8ca 6000 	str.w	r6, [sl]
 8007f90:	f8da 3000 	ldr.w	r3, [sl]
 8007f94:	4499      	add	r9, r3
 8007f96:	2200      	movs	r2, #0
 8007f98:	2300      	movs	r3, #0
 8007f9a:	4620      	mov	r0, r4
 8007f9c:	4629      	mov	r1, r5
 8007f9e:	f7f8 fda3 	bl	8000ae8 <__aeabi_dcmpeq>
 8007fa2:	b108      	cbz	r0, 8007fa8 <__cvt+0xa4>
 8007fa4:	f8cd 900c 	str.w	r9, [sp, #12]
 8007fa8:	2230      	movs	r2, #48	; 0x30
 8007faa:	9b03      	ldr	r3, [sp, #12]
 8007fac:	454b      	cmp	r3, r9
 8007fae:	d307      	bcc.n	8007fc0 <__cvt+0xbc>
 8007fb0:	9b03      	ldr	r3, [sp, #12]
 8007fb2:	9a0e      	ldr	r2, [sp, #56]	; 0x38
 8007fb4:	1bdb      	subs	r3, r3, r7
 8007fb6:	4638      	mov	r0, r7
 8007fb8:	6013      	str	r3, [r2, #0]
 8007fba:	b004      	add	sp, #16
 8007fbc:	e8bd 87f0 	ldmia.w	sp!, {r4, r5, r6, r7, r8, r9, sl, pc}
 8007fc0:	1c59      	adds	r1, r3, #1
 8007fc2:	9103      	str	r1, [sp, #12]
 8007fc4:	701a      	strb	r2, [r3, #0]
 8007fc6:	e7f0      	b.n	8007faa <__cvt+0xa6>

08007fc8 <__exponent>:
 8007fc8:	b5f7      	push	{r0, r1, r2, r4, r5, r6, r7, lr}
 8007fca:	4603      	mov	r3, r0
 8007fcc:	2900      	cmp	r1, #0
 8007fce:	bfb8      	it	lt
 8007fd0:	4249      	neglt	r1, r1
 8007fd2:	f803 2b02 	strb.w	r2, [r3], #2
 8007fd6:	bfb4      	ite	lt
 8007fd8:	222d      	movlt	r2, #45	; 0x2d
 8007fda:	222b      	movge	r2, #43	; 0x2b
 8007fdc:	2909      	cmp	r1, #9
 8007fde:	7042      	strb	r2, [r0, #1]
 8007fe0:	dd2a      	ble.n	8008038 <__exponent+0x70>
 8007fe2:	f10d 0407 	add.w	r4, sp, #7
 8007fe6:	46a4      	mov	ip, r4
 8007fe8:	270a      	movs	r7, #10
 8007fea:	46a6      	mov	lr, r4
 8007fec:	460a      	mov	r2, r1
 8007fee:	fb91 f6f7 	sdiv	r6, r1, r7
 8007ff2:	fb07 1516 	mls	r5, r7, r6, r1
 8007ff6:	3530      	adds	r5, #48	; 0x30
 8007ff8:	2a63      	cmp	r2, #99	; 0x63
 8007ffa:	f104 34ff 	add.w	r4, r4, #4294967295
 8007ffe:	f80e 5c01 	strb.w	r5, [lr, #-1]
 8008002:	4631      	mov	r1, r6
 8008004:	dcf1      	bgt.n	8007fea <__exponent+0x22>
 8008006:	3130      	adds	r1, #48	; 0x30
 8008008:	f1ae 0502 	sub.w	r5, lr, #2
 800800c:	f804 1c01 	strb.w	r1, [r4, #-1]
 8008010:	1c44      	adds	r4, r0, #1
 8008012:	4629      	mov	r1, r5
 8008014:	4561      	cmp	r1, ip
 8008016:	d30a      	bcc.n	800802e <__exponent+0x66>
 8008018:	f10d 0209 	add.w	r2, sp, #9
 800801c:	eba2 020e 	sub.w	r2, r2, lr
 8008020:	4565      	cmp	r5, ip
 8008022:	bf88      	it	hi
 8008024:	2200      	movhi	r2, #0
 8008026:	4413      	add	r3, r2
 8008028:	1a18      	subs	r0, r3, r0
 800802a:	b003      	add	sp, #12
 800802c:	bdf0      	pop	{r4, r5, r6, r7, pc}
 800802e:	f811 2b01 	ldrb.w	r2, [r1], #1
 8008032:	f804 2f01 	strb.w	r2, [r4, #1]!
 8008036:	e7ed      	b.n	8008014 <__exponent+0x4c>
 8008038:	2330      	movs	r3, #48	; 0x30
 800803a:	3130      	adds	r1, #48	; 0x30
 800803c:	7083      	strb	r3, [r0, #2]
 800803e:	70c1      	strb	r1, [r0, #3]
 8008040:	1d03      	adds	r3, r0, #4
 8008042:	e7f1      	b.n	8008028 <__exponent+0x60>

08008044 <_printf_float>:
 8008044:	e92d 4ff0 	stmdb	sp!, {r4, r5, r6, r7, r8, r9, sl, fp, lr}
 8008048:	ed2d 8b02 	vpush	{d8}
 800804c:	b08d      	sub	sp, #52	; 0x34
 800804e:	460c      	mov	r4, r1
 8008050:	f8dd 8060 	ldr.w	r8, [sp, #96]	; 0x60
 8008054:	4616      	mov	r6, r2
 8008056:	461f      	mov	r7, r3
 8008058:	4605      	mov	r5, r0
 800805a:	f002 ff3d 	bl	800aed8 <_localeconv_r>
 800805e:	f8d0 a000 	ldr.w	sl, [r0]
 8008062:	4650      	mov	r0, sl
 8008064:	f7f8 f8be 	bl	80001e4 <strlen>
 8008068:	2300      	movs	r3, #0
 800806a:	930a      	str	r3, [sp, #40]	; 0x28
 800806c:	6823      	ldr	r3, [r4, #0]
 800806e:	9305      	str	r3, [sp, #20]
 8008070:	f8d8 3000 	ldr.w	r3, [r8]
 8008074:	f894 b018 	ldrb.w	fp, [r4, #24]
 8008078:	3307      	adds	r3, #7
 800807a:	f023 0307 	bic.w	r3, r3, #7
 800807e:	f103 0208 	add.w	r2, r3, #8
 8008082:	f8c8 2000 	str.w	r2, [r8]
 8008086:	e9d3 2300 	ldrd	r2, r3, [r3]
 800808a:	e9c4 2312 	strd	r2, r3, [r4, #72]	; 0x48
 800808e:	e9d4 8912 	ldrd	r8, r9, [r4, #72]	; 0x48
 8008092:	f029 4300 	bic.w	r3, r9, #2147483648	; 0x80000000
 8008096:	9307      	str	r3, [sp, #28]
 8008098:	f8cd 8018 	str.w	r8, [sp, #24]
 800809c:	ee08 0a10 	vmov	s16, r0
 80080a0:	4b9f      	ldr	r3, [pc, #636]	; (8008320 <_printf_float+0x2dc>)
 80080a2:	e9dd 0106 	ldrd	r0, r1, [sp, #24]
 80080a6:	f04f 32ff 	mov.w	r2, #4294967295
 80080aa:	f7f8 fd4f 	bl	8000b4c <__aeabi_dcmpun>
 80080ae:	bb88      	cbnz	r0, 8008114 <_printf_float+0xd0>
 80080b0:	e9dd 0106 	ldrd	r0, r1, [sp, #24]
 80080b4:	4b9a      	ldr	r3, [pc, #616]	; (8008320 <_printf_float+0x2dc>)
 80080b6:	f04f 32ff 	mov.w	r2, #4294967295
 80080ba:	f7f8 fd29 	bl	8000b10 <__aeabi_dcmple>
 80080be:	bb48      	cbnz	r0, 8008114 <_printf_float+0xd0>
 80080c0:	2200      	movs	r2, #0
 80080c2:	2300      	movs	r3, #0
 80080c4:	4640      	mov	r0, r8
 80080c6:	4649      	mov	r1, r9
 80080c8:	f7f8 fd18 	bl	8000afc <__aeabi_dcmplt>
 80080cc:	b110      	cbz	r0, 80080d4 <_printf_float+0x90>
 80080ce:	232d      	movs	r3, #45	; 0x2d
 80080d0:	f884 3043 	strb.w	r3, [r4, #67]	; 0x43
 80080d4:	4b93      	ldr	r3, [pc, #588]	; (8008324 <_printf_float+0x2e0>)
 80080d6:	4894      	ldr	r0, [pc, #592]	; (8008328 <_printf_float+0x2e4>)
 80080d8:	f1bb 0f47 	cmp.w	fp, #71	; 0x47
 80080dc:	bf94      	ite	ls
 80080de:	4698      	movls	r8, r3
 80080e0:	4680      	movhi	r8, r0
 80080e2:	2303      	movs	r3, #3
 80080e4:	6123      	str	r3, [r4, #16]
 80080e6:	9b05      	ldr	r3, [sp, #20]
 80080e8:	f023 0204 	bic.w	r2, r3, #4
 80080ec:	6022      	str	r2, [r4, #0]
 80080ee:	f04f 0900 	mov.w	r9, #0
 80080f2:	9700      	str	r7, [sp, #0]
 80080f4:	4633      	mov	r3, r6
 80080f6:	aa0b      	add	r2, sp, #44	; 0x2c
 80080f8:	4621      	mov	r1, r4
 80080fa:	4628      	mov	r0, r5
 80080fc:	f000 f9d8 	bl	80084b0 <_printf_common>
 8008100:	3001      	adds	r0, #1
 8008102:	f040 8090 	bne.w	8008226 <_printf_float+0x1e2>
 8008106:	f04f 30ff 	mov.w	r0, #4294967295
 800810a:	b00d      	add	sp, #52	; 0x34
 800810c:	ecbd 8b02 	vpop	{d8}
 8008110:	e8bd 8ff0 	ldmia.w	sp!, {r4, r5, r6, r7, r8, r9, sl, fp, pc}
 8008114:	4642      	mov	r2, r8
 8008116:	464b      	mov	r3, r9
 8008118:	4640      	mov	r0, r8
 800811a:	4649      	mov	r1, r9
 800811c:	f7f8 fd16 	bl	8000b4c <__aeabi_dcmpun>
 8008120:	b140      	cbz	r0, 8008134 <_printf_float+0xf0>
 8008122:	464b      	mov	r3, r9
 8008124:	2b00      	cmp	r3, #0
 8008126:	bfbc      	itt	lt
 8008128:	232d      	movlt	r3, #45	; 0x2d
 800812a:	f884 3043 	strblt.w	r3, [r4, #67]	; 0x43
 800812e:	487f      	ldr	r0, [pc, #508]	; (800832c <_printf_float+0x2e8>)
 8008130:	4b7f      	ldr	r3, [pc, #508]	; (8008330 <_printf_float+0x2ec>)
 8008132:	e7d1      	b.n	80080d8 <_printf_float+0x94>
 8008134:	6863      	ldr	r3, [r4, #4]
 8008136:	f00b 02df 	and.w	r2, fp, #223	; 0xdf
 800813a:	9206      	str	r2, [sp, #24]
 800813c:	1c5a      	adds	r2, r3, #1
 800813e:	d13f      	bne.n	80081c0 <_printf_float+0x17c>
 8008140:	2306      	movs	r3, #6
 8008142:	6063      	str	r3, [r4, #4]
 8008144:	9b05      	ldr	r3, [sp, #20]
 8008146:	6861      	ldr	r1, [r4, #4]
 8008148:	f443 6280 	orr.w	r2, r3, #1024	; 0x400
 800814c:	2300      	movs	r3, #0
 800814e:	9303      	str	r3, [sp, #12]
 8008150:	ab0a      	add	r3, sp, #40	; 0x28
 8008152:	e9cd b301 	strd	fp, r3, [sp, #4]
 8008156:	ab09      	add	r3, sp, #36	; 0x24
 8008158:	ec49 8b10 	vmov	d0, r8, r9
 800815c:	9300      	str	r3, [sp, #0]
 800815e:	6022      	str	r2, [r4, #0]
 8008160:	f10d 0323 	add.w	r3, sp, #35	; 0x23
 8008164:	4628      	mov	r0, r5
 8008166:	f7ff fecd 	bl	8007f04 <__cvt>
 800816a:	9b06      	ldr	r3, [sp, #24]
 800816c:	9909      	ldr	r1, [sp, #36]	; 0x24
 800816e:	2b47      	cmp	r3, #71	; 0x47
 8008170:	4680      	mov	r8, r0
 8008172:	d108      	bne.n	8008186 <_printf_float+0x142>
 8008174:	1cc8      	adds	r0, r1, #3
 8008176:	db02      	blt.n	800817e <_printf_float+0x13a>
 8008178:	6863      	ldr	r3, [r4, #4]
 800817a:	4299      	cmp	r1, r3
 800817c:	dd41      	ble.n	8008202 <_printf_float+0x1be>
 800817e:	f1ab 0b02 	sub.w	fp, fp, #2
 8008182:	fa5f fb8b 	uxtb.w	fp, fp
 8008186:	f1bb 0f65 	cmp.w	fp, #101	; 0x65
 800818a:	d820      	bhi.n	80081ce <_printf_float+0x18a>
 800818c:	3901      	subs	r1, #1
 800818e:	465a      	mov	r2, fp
 8008190:	f104 0050 	add.w	r0, r4, #80	; 0x50
 8008194:	9109      	str	r1, [sp, #36]	; 0x24
 8008196:	f7ff ff17 	bl	8007fc8 <__exponent>
 800819a:	9a0a      	ldr	r2, [sp, #40]	; 0x28
 800819c:	1813      	adds	r3, r2, r0
 800819e:	2a01      	cmp	r2, #1
 80081a0:	4681      	mov	r9, r0
 80081a2:	6123      	str	r3, [r4, #16]
 80081a4:	dc02      	bgt.n	80081ac <_printf_float+0x168>
 80081a6:	6822      	ldr	r2, [r4, #0]
 80081a8:	07d2      	lsls	r2, r2, #31
 80081aa:	d501      	bpl.n	80081b0 <_printf_float+0x16c>
 80081ac:	3301      	adds	r3, #1
 80081ae:	6123      	str	r3, [r4, #16]
 80081b0:	f89d 3023 	ldrb.w	r3, [sp, #35]	; 0x23
 80081b4:	2b00      	cmp	r3, #0
 80081b6:	d09c      	beq.n	80080f2 <_printf_float+0xae>
 80081b8:	232d      	movs	r3, #45	; 0x2d
 80081ba:	f884 3043 	strb.w	r3, [r4, #67]	; 0x43
 80081be:	e798      	b.n	80080f2 <_printf_float+0xae>
 80081c0:	9a06      	ldr	r2, [sp, #24]
 80081c2:	2a47      	cmp	r2, #71	; 0x47
 80081c4:	d1be      	bne.n	8008144 <_printf_float+0x100>
 80081c6:	2b00      	cmp	r3, #0
 80081c8:	d1bc      	bne.n	8008144 <_printf_float+0x100>
 80081ca:	2301      	movs	r3, #1
 80081cc:	e7b9      	b.n	8008142 <_printf_float+0xfe>
 80081ce:	f1bb 0f66 	cmp.w	fp, #102	; 0x66
 80081d2:	d118      	bne.n	8008206 <_printf_float+0x1c2>
 80081d4:	2900      	cmp	r1, #0
 80081d6:	6863      	ldr	r3, [r4, #4]
 80081d8:	dd0b      	ble.n	80081f2 <_printf_float+0x1ae>
 80081da:	6121      	str	r1, [r4, #16]
 80081dc:	b913      	cbnz	r3, 80081e4 <_printf_float+0x1a0>
 80081de:	6822      	ldr	r2, [r4, #0]
 80081e0:	07d0      	lsls	r0, r2, #31
 80081e2:	d502      	bpl.n	80081ea <_printf_float+0x1a6>
 80081e4:	3301      	adds	r3, #1
 80081e6:	440b      	add	r3, r1
 80081e8:	6123      	str	r3, [r4, #16]
 80081ea:	65a1      	str	r1, [r4, #88]	; 0x58
 80081ec:	f04f 0900 	mov.w	r9, #0
 80081f0:	e7de      	b.n	80081b0 <_printf_float+0x16c>
 80081f2:	b913      	cbnz	r3, 80081fa <_printf_float+0x1b6>
 80081f4:	6822      	ldr	r2, [r4, #0]
 80081f6:	07d2      	lsls	r2, r2, #31
 80081f8:	d501      	bpl.n	80081fe <_printf_float+0x1ba>
 80081fa:	3302      	adds	r3, #2
 80081fc:	e7f4      	b.n	80081e8 <_printf_float+0x1a4>
 80081fe:	2301      	movs	r3, #1
 8008200:	e7f2      	b.n	80081e8 <_printf_float+0x1a4>
 8008202:	f04f 0b67 	mov.w	fp, #103	; 0x67
 8008206:	9b0a      	ldr	r3, [sp, #40]	; 0x28
 8008208:	4299      	cmp	r1, r3
 800820a:	db05      	blt.n	8008218 <_printf_float+0x1d4>
 800820c:	6823      	ldr	r3, [r4, #0]
 800820e:	6121      	str	r1, [r4, #16]
 8008210:	07d8      	lsls	r0, r3, #31
 8008212:	d5ea      	bpl.n	80081ea <_printf_float+0x1a6>
 8008214:	1c4b      	adds	r3, r1, #1
 8008216:	e7e7      	b.n	80081e8 <_printf_float+0x1a4>
 8008218:	2900      	cmp	r1, #0
 800821a:	bfd4      	ite	le
 800821c:	f1c1 0202 	rsble	r2, r1, #2
 8008220:	2201      	movgt	r2, #1
 8008222:	4413      	add	r3, r2
 8008224:	e7e0      	b.n	80081e8 <_printf_float+0x1a4>
 8008226:	6823      	ldr	r3, [r4, #0]
 8008228:	055a      	lsls	r2, r3, #21
 800822a:	d407      	bmi.n	800823c <_printf_float+0x1f8>
 800822c:	6923      	ldr	r3, [r4, #16]
 800822e:	4642      	mov	r2, r8
 8008230:	4631      	mov	r1, r6
 8008232:	4628      	mov	r0, r5
 8008234:	47b8      	blx	r7
 8008236:	3001      	adds	r0, #1
 8008238:	d12c      	bne.n	8008294 <_printf_float+0x250>
 800823a:	e764      	b.n	8008106 <_printf_float+0xc2>
 800823c:	f1bb 0f65 	cmp.w	fp, #101	; 0x65
 8008240:	f240 80e0 	bls.w	8008404 <_printf_float+0x3c0>
 8008244:	e9d4 0112 	ldrd	r0, r1, [r4, #72]	; 0x48
 8008248:	2200      	movs	r2, #0
 800824a:	2300      	movs	r3, #0
 800824c:	f7f8 fc4c 	bl	8000ae8 <__aeabi_dcmpeq>
 8008250:	2800      	cmp	r0, #0
 8008252:	d034      	beq.n	80082be <_printf_float+0x27a>
 8008254:	4a37      	ldr	r2, [pc, #220]	; (8008334 <_printf_float+0x2f0>)
 8008256:	2301      	movs	r3, #1
 8008258:	4631      	mov	r1, r6
 800825a:	4628      	mov	r0, r5
 800825c:	47b8      	blx	r7
 800825e:	3001      	adds	r0, #1
 8008260:	f43f af51 	beq.w	8008106 <_printf_float+0xc2>
 8008264:	e9dd 2309 	ldrd	r2, r3, [sp, #36]	; 0x24
 8008268:	429a      	cmp	r2, r3
 800826a:	db02      	blt.n	8008272 <_printf_float+0x22e>
 800826c:	6823      	ldr	r3, [r4, #0]
 800826e:	07d8      	lsls	r0, r3, #31
 8008270:	d510      	bpl.n	8008294 <_printf_float+0x250>
 8008272:	ee18 3a10 	vmov	r3, s16
 8008276:	4652      	mov	r2, sl
 8008278:	4631      	mov	r1, r6
 800827a:	4628      	mov	r0, r5
 800827c:	47b8      	blx	r7
 800827e:	3001      	adds	r0, #1
 8008280:	f43f af41 	beq.w	8008106 <_printf_float+0xc2>
 8008284:	f04f 0800 	mov.w	r8, #0
 8008288:	f104 091a 	add.w	r9, r4, #26
 800828c:	9b0a      	ldr	r3, [sp, #40]	; 0x28
 800828e:	3b01      	subs	r3, #1
 8008290:	4543      	cmp	r3, r8
 8008292:	dc09      	bgt.n	80082a8 <_printf_float+0x264>
 8008294:	6823      	ldr	r3, [r4, #0]
 8008296:	079b      	lsls	r3, r3, #30
 8008298:	f100 8105 	bmi.w	80084a6 <_printf_float+0x462>
 800829c:	68e0      	ldr	r0, [r4, #12]
 800829e:	9b0b      	ldr	r3, [sp, #44]	; 0x2c
 80082a0:	4298      	cmp	r0, r3
 80082a2:	bfb8      	it	lt
 80082a4:	4618      	movlt	r0, r3
 80082a6:	e730      	b.n	800810a <_printf_float+0xc6>
 80082a8:	2301      	movs	r3, #1
 80082aa:	464a      	mov	r2, r9
 80082ac:	4631      	mov	r1, r6
 80082ae:	4628      	mov	r0, r5
 80082b0:	47b8      	blx	r7
 80082b2:	3001      	adds	r0, #1
 80082b4:	f43f af27 	beq.w	8008106 <_printf_float+0xc2>
 80082b8:	f108 0801 	add.w	r8, r8, #1
 80082bc:	e7e6      	b.n	800828c <_printf_float+0x248>
 80082be:	9b09      	ldr	r3, [sp, #36]	; 0x24
 80082c0:	2b00      	cmp	r3, #0
 80082c2:	dc39      	bgt.n	8008338 <_printf_float+0x2f4>
 80082c4:	4a1b      	ldr	r2, [pc, #108]	; (8008334 <_printf_float+0x2f0>)
 80082c6:	2301      	movs	r3, #1
 80082c8:	4631      	mov	r1, r6
 80082ca:	4628      	mov	r0, r5
 80082cc:	47b8      	blx	r7
 80082ce:	3001      	adds	r0, #1
 80082d0:	f43f af19 	beq.w	8008106 <_printf_float+0xc2>
 80082d4:	e9dd 2309 	ldrd	r2, r3, [sp, #36]	; 0x24
 80082d8:	4313      	orrs	r3, r2
 80082da:	d102      	bne.n	80082e2 <_printf_float+0x29e>
 80082dc:	6823      	ldr	r3, [r4, #0]
 80082de:	07d9      	lsls	r1, r3, #31
 80082e0:	d5d8      	bpl.n	8008294 <_printf_float+0x250>
 80082e2:	ee18 3a10 	vmov	r3, s16
 80082e6:	4652      	mov	r2, sl
 80082e8:	4631      	mov	r1, r6
 80082ea:	4628      	mov	r0, r5
 80082ec:	47b8      	blx	r7
 80082ee:	3001      	adds	r0, #1
 80082f0:	f43f af09 	beq.w	8008106 <_printf_float+0xc2>
 80082f4:	f04f 0900 	mov.w	r9, #0
 80082f8:	f104 0a1a 	add.w	sl, r4, #26
 80082fc:	9b09      	ldr	r3, [sp, #36]	; 0x24
 80082fe:	425b      	negs	r3, r3
 8008300:	454b      	cmp	r3, r9
 8008302:	dc01      	bgt.n	8008308 <_printf_float+0x2c4>
 8008304:	9b0a      	ldr	r3, [sp, #40]	; 0x28
 8008306:	e792      	b.n	800822e <_printf_float+0x1ea>
 8008308:	2301      	movs	r3, #1
 800830a:	4652      	mov	r2, sl
 800830c:	4631      	mov	r1, r6
 800830e:	4628      	mov	r0, r5
 8008310:	47b8      	blx	r7
 8008312:	3001      	adds	r0, #1
 8008314:	f43f aef7 	beq.w	8008106 <_printf_float+0xc2>
 8008318:	f109 0901 	add.w	r9, r9, #1
 800831c:	e7ee      	b.n	80082fc <_printf_float+0x2b8>
 800831e:	bf00      	nop
 8008320:	7fefffff 	.word	0x7fefffff
 8008324:	0800e2fc 	.word	0x0800e2fc
 8008328:	0800e300 	.word	0x0800e300
 800832c:	0800e308 	.word	0x0800e308
 8008330:	0800e304 	.word	0x0800e304
 8008334:	0800e611 	.word	0x0800e611
 8008338:	9a0a      	ldr	r2, [sp, #40]	; 0x28
 800833a:	6da3      	ldr	r3, [r4, #88]	; 0x58
 800833c:	429a      	cmp	r2, r3
 800833e:	bfa8      	it	ge
 8008340:	461a      	movge	r2, r3
 8008342:	2a00      	cmp	r2, #0
 8008344:	4691      	mov	r9, r2
 8008346:	dc37      	bgt.n	80083b8 <_printf_float+0x374>
 8008348:	f04f 0b00 	mov.w	fp, #0
 800834c:	ea29 79e9 	bic.w	r9, r9, r9, asr #31
 8008350:	f104 021a 	add.w	r2, r4, #26
 8008354:	6da3      	ldr	r3, [r4, #88]	; 0x58
 8008356:	9305      	str	r3, [sp, #20]
 8008358:	eba3 0309 	sub.w	r3, r3, r9
 800835c:	455b      	cmp	r3, fp
 800835e:	dc33      	bgt.n	80083c8 <_printf_float+0x384>
 8008360:	e9dd 2309 	ldrd	r2, r3, [sp, #36]	; 0x24
 8008364:	429a      	cmp	r2, r3
 8008366:	db3b      	blt.n	80083e0 <_printf_float+0x39c>
 8008368:	6823      	ldr	r3, [r4, #0]
 800836a:	07da      	lsls	r2, r3, #31
 800836c:	d438      	bmi.n	80083e0 <_printf_float+0x39c>
 800836e:	9a0a      	ldr	r2, [sp, #40]	; 0x28
 8008370:	9b05      	ldr	r3, [sp, #20]
 8008372:	9909      	ldr	r1, [sp, #36]	; 0x24
 8008374:	1ad3      	subs	r3, r2, r3
 8008376:	eba2 0901 	sub.w	r9, r2, r1
 800837a:	4599      	cmp	r9, r3
 800837c:	bfa8      	it	ge
 800837e:	4699      	movge	r9, r3
 8008380:	f1b9 0f00 	cmp.w	r9, #0
 8008384:	dc35      	bgt.n	80083f2 <_printf_float+0x3ae>
 8008386:	f04f 0800 	mov.w	r8, #0
 800838a:	ea29 79e9 	bic.w	r9, r9, r9, asr #31
 800838e:	f104 0a1a 	add.w	sl, r4, #26
 8008392:	e9dd 2309 	ldrd	r2, r3, [sp, #36]	; 0x24
 8008396:	1a9b      	subs	r3, r3, r2
 8008398:	eba3 0309 	sub.w	r3, r3, r9
 800839c:	4543      	cmp	r3, r8
 800839e:	f77f af79 	ble.w	8008294 <_printf_float+0x250>
 80083a2:	2301      	movs	r3, #1
 80083a4:	4652      	mov	r2, sl
 80083a6:	4631      	mov	r1, r6
 80083a8:	4628      	mov	r0, r5
 80083aa:	47b8      	blx	r7
 80083ac:	3001      	adds	r0, #1
 80083ae:	f43f aeaa 	beq.w	8008106 <_printf_float+0xc2>
 80083b2:	f108 0801 	add.w	r8, r8, #1
 80083b6:	e7ec      	b.n	8008392 <_printf_float+0x34e>
 80083b8:	4613      	mov	r3, r2
 80083ba:	4631      	mov	r1, r6
 80083bc:	4642      	mov	r2, r8
 80083be:	4628      	mov	r0, r5
 80083c0:	47b8      	blx	r7
 80083c2:	3001      	adds	r0, #1
 80083c4:	d1c0      	bne.n	8008348 <_printf_float+0x304>
 80083c6:	e69e      	b.n	8008106 <_printf_float+0xc2>
 80083c8:	2301      	movs	r3, #1
 80083ca:	4631      	mov	r1, r6
 80083cc:	4628      	mov	r0, r5
 80083ce:	9205      	str	r2, [sp, #20]
 80083d0:	47b8      	blx	r7
 80083d2:	3001      	adds	r0, #1
 80083d4:	f43f ae97 	beq.w	8008106 <_printf_float+0xc2>
 80083d8:	9a05      	ldr	r2, [sp, #20]
 80083da:	f10b 0b01 	add.w	fp, fp, #1
 80083de:	e7b9      	b.n	8008354 <_printf_float+0x310>
 80083e0:	ee18 3a10 	vmov	r3, s16
 80083e4:	4652      	mov	r2, sl
 80083e6:	4631      	mov	r1, r6
 80083e8:	4628      	mov	r0, r5
 80083ea:	47b8      	blx	r7
 80083ec:	3001      	adds	r0, #1
 80083ee:	d1be      	bne.n	800836e <_printf_float+0x32a>
 80083f0:	e689      	b.n	8008106 <_printf_float+0xc2>
 80083f2:	9a05      	ldr	r2, [sp, #20]
 80083f4:	464b      	mov	r3, r9
 80083f6:	4442      	add	r2, r8
 80083f8:	4631      	mov	r1, r6
 80083fa:	4628      	mov	r0, r5
 80083fc:	47b8      	blx	r7
 80083fe:	3001      	adds	r0, #1
 8008400:	d1c1      	bne.n	8008386 <_printf_float+0x342>
 8008402:	e680      	b.n	8008106 <_printf_float+0xc2>
 8008404:	9a0a      	ldr	r2, [sp, #40]	; 0x28
 8008406:	2a01      	cmp	r2, #1
 8008408:	dc01      	bgt.n	800840e <_printf_float+0x3ca>
 800840a:	07db      	lsls	r3, r3, #31
 800840c:	d538      	bpl.n	8008480 <_printf_float+0x43c>
 800840e:	2301      	movs	r3, #1
 8008410:	4642      	mov	r2, r8
 8008412:	4631      	mov	r1, r6
 8008414:	4628      	mov	r0, r5
 8008416:	47b8      	blx	r7
 8008418:	3001      	adds	r0, #1
 800841a:	f43f ae74 	beq.w	8008106 <_printf_float+0xc2>
 800841e:	ee18 3a10 	vmov	r3, s16
 8008422:	4652      	mov	r2, sl
 8008424:	4631      	mov	r1, r6
 8008426:	4628      	mov	r0, r5
 8008428:	47b8      	blx	r7
 800842a:	3001      	adds	r0, #1
 800842c:	f43f ae6b 	beq.w	8008106 <_printf_float+0xc2>
 8008430:	e9d4 0112 	ldrd	r0, r1, [r4, #72]	; 0x48
 8008434:	2200      	movs	r2, #0
 8008436:	2300      	movs	r3, #0
 8008438:	f7f8 fb56 	bl	8000ae8 <__aeabi_dcmpeq>
 800843c:	b9d8      	cbnz	r0, 8008476 <_printf_float+0x432>
 800843e:	9b0a      	ldr	r3, [sp, #40]	; 0x28
 8008440:	f108 0201 	add.w	r2, r8, #1
 8008444:	3b01      	subs	r3, #1
 8008446:	4631      	mov	r1, r6
 8008448:	4628      	mov	r0, r5
 800844a:	47b8      	blx	r7
 800844c:	3001      	adds	r0, #1
 800844e:	d10e      	bne.n	800846e <_printf_float+0x42a>
 8008450:	e659      	b.n	8008106 <_printf_float+0xc2>
 8008452:	2301      	movs	r3, #1
 8008454:	4652      	mov	r2, sl
 8008456:	4631      	mov	r1, r6
 8008458:	4628      	mov	r0, r5
 800845a:	47b8      	blx	r7
 800845c:	3001      	adds	r0, #1
 800845e:	f43f ae52 	beq.w	8008106 <_printf_float+0xc2>
 8008462:	f108 0801 	add.w	r8, r8, #1
 8008466:	9b0a      	ldr	r3, [sp, #40]	; 0x28
 8008468:	3b01      	subs	r3, #1
 800846a:	4543      	cmp	r3, r8
 800846c:	dcf1      	bgt.n	8008452 <_printf_float+0x40e>
 800846e:	464b      	mov	r3, r9
 8008470:	f104 0250 	add.w	r2, r4, #80	; 0x50
 8008474:	e6dc      	b.n	8008230 <_printf_float+0x1ec>
 8008476:	f04f 0800 	mov.w	r8, #0
 800847a:	f104 0a1a 	add.w	sl, r4, #26
 800847e:	e7f2      	b.n	8008466 <_printf_float+0x422>
 8008480:	2301      	movs	r3, #1
 8008482:	4642      	mov	r2, r8
 8008484:	e7df      	b.n	8008446 <_printf_float+0x402>
 8008486:	2301      	movs	r3, #1
 8008488:	464a      	mov	r2, r9
 800848a:	4631      	mov	r1, r6
 800848c:	4628      	mov	r0, r5
 800848e:	47b8      	blx	r7
 8008490:	3001      	adds	r0, #1
 8008492:	f43f ae38 	beq.w	8008106 <_printf_float+0xc2>
 8008496:	f108 0801 	add.w	r8, r8, #1
 800849a:	68e3      	ldr	r3, [r4, #12]
 800849c:	990b      	ldr	r1, [sp, #44]	; 0x2c
 800849e:	1a5b      	subs	r3, r3, r1
 80084a0:	4543      	cmp	r3, r8
 80084a2:	dcf0      	bgt.n	8008486 <_printf_float+0x442>
 80084a4:	e6fa      	b.n	800829c <_printf_float+0x258>
 80084a6:	f04f 0800 	mov.w	r8, #0
 80084aa:	f104 0919 	add.w	r9, r4, #25
 80084ae:	e7f4      	b.n	800849a <_printf_float+0x456>

080084b0 <_printf_common>:
 80084b0:	e92d 47f0 	stmdb	sp!, {r4, r5, r6, r7, r8, r9, sl, lr}
 80084b4:	4616      	mov	r6, r2
 80084b6:	4699      	mov	r9, r3
 80084b8:	688a      	ldr	r2, [r1, #8]
 80084ba:	690b      	ldr	r3, [r1, #16]
 80084bc:	f8dd 8020 	ldr.w	r8, [sp, #32]
 80084c0:	4293      	cmp	r3, r2
 80084c2:	bfb8      	it	lt
 80084c4:	4613      	movlt	r3, r2
 80084c6:	6033      	str	r3, [r6, #0]
 80084c8:	f891 2043 	ldrb.w	r2, [r1, #67]	; 0x43
 80084cc:	4607      	mov	r7, r0
 80084ce:	460c      	mov	r4, r1
 80084d0:	b10a      	cbz	r2, 80084d6 <_printf_common+0x26>
 80084d2:	3301      	adds	r3, #1
 80084d4:	6033      	str	r3, [r6, #0]
 80084d6:	6823      	ldr	r3, [r4, #0]
 80084d8:	0699      	lsls	r1, r3, #26
 80084da:	bf42      	ittt	mi
 80084dc:	6833      	ldrmi	r3, [r6, #0]
 80084de:	3302      	addmi	r3, #2
 80084e0:	6033      	strmi	r3, [r6, #0]
 80084e2:	6825      	ldr	r5, [r4, #0]
 80084e4:	f015 0506 	ands.w	r5, r5, #6
 80084e8:	d106      	bne.n	80084f8 <_printf_common+0x48>
 80084ea:	f104 0a19 	add.w	sl, r4, #25
 80084ee:	68e3      	ldr	r3, [r4, #12]
 80084f0:	6832      	ldr	r2, [r6, #0]
 80084f2:	1a9b      	subs	r3, r3, r2
 80084f4:	42ab      	cmp	r3, r5
 80084f6:	dc26      	bgt.n	8008546 <_printf_common+0x96>
 80084f8:	f894 2043 	ldrb.w	r2, [r4, #67]	; 0x43
 80084fc:	1e13      	subs	r3, r2, #0
 80084fe:	6822      	ldr	r2, [r4, #0]
 8008500:	bf18      	it	ne
 8008502:	2301      	movne	r3, #1
 8008504:	0692      	lsls	r2, r2, #26
 8008506:	d42b      	bmi.n	8008560 <_printf_common+0xb0>
 8008508:	f104 0243 	add.w	r2, r4, #67	; 0x43
 800850c:	4649      	mov	r1, r9
 800850e:	4638      	mov	r0, r7
 8008510:	47c0      	blx	r8
 8008512:	3001      	adds	r0, #1
 8008514:	d01e      	beq.n	8008554 <_printf_common+0xa4>
 8008516:	6823      	ldr	r3, [r4, #0]
 8008518:	68e5      	ldr	r5, [r4, #12]
 800851a:	6832      	ldr	r2, [r6, #0]
 800851c:	f003 0306 	and.w	r3, r3, #6
 8008520:	2b04      	cmp	r3, #4
 8008522:	bf08      	it	eq
 8008524:	1aad      	subeq	r5, r5, r2
 8008526:	68a3      	ldr	r3, [r4, #8]
 8008528:	6922      	ldr	r2, [r4, #16]
 800852a:	bf0c      	ite	eq
 800852c:	ea25 75e5 	biceq.w	r5, r5, r5, asr #31
 8008530:	2500      	movne	r5, #0
 8008532:	4293      	cmp	r3, r2
 8008534:	bfc4      	itt	gt
 8008536:	1a9b      	subgt	r3, r3, r2
 8008538:	18ed      	addgt	r5, r5, r3
 800853a:	2600      	movs	r6, #0
 800853c:	341a      	adds	r4, #26
 800853e:	42b5      	cmp	r5, r6
 8008540:	d11a      	bne.n	8008578 <_printf_common+0xc8>
 8008542:	2000      	movs	r0, #0
 8008544:	e008      	b.n	8008558 <_printf_common+0xa8>
 8008546:	2301      	movs	r3, #1
 8008548:	4652      	mov	r2, sl
 800854a:	4649      	mov	r1, r9
 800854c:	4638      	mov	r0, r7
 800854e:	47c0      	blx	r8
 8008550:	3001      	adds	r0, #1
 8008552:	d103      	bne.n	800855c <_printf_common+0xac>
 8008554:	f04f 30ff 	mov.w	r0, #4294967295
 8008558:	e8bd 87f0 	ldmia.w	sp!, {r4, r5, r6, r7, r8, r9, sl, pc}
 800855c:	3501      	adds	r5, #1
 800855e:	e7c6      	b.n	80084ee <_printf_common+0x3e>
 8008560:	18e1      	adds	r1, r4, r3
 8008562:	1c5a      	adds	r2, r3, #1
 8008564:	2030      	movs	r0, #48	; 0x30
 8008566:	f881 0043 	strb.w	r0, [r1, #67]	; 0x43
 800856a:	4422      	add	r2, r4
 800856c:	f894 1045 	ldrb.w	r1, [r4, #69]	; 0x45
 8008570:	f882 1043 	strb.w	r1, [r2, #67]	; 0x43
 8008574:	3302      	adds	r3, #2
 8008576:	e7c7      	b.n	8008508 <_printf_common+0x58>
 8008578:	2301      	movs	r3, #1
 800857a:	4622      	mov	r2, r4
 800857c:	4649      	mov	r1, r9
 800857e:	4638      	mov	r0, r7
 8008580:	47c0      	blx	r8
 8008582:	3001      	adds	r0, #1
 8008584:	d0e6      	beq.n	8008554 <_printf_common+0xa4>
 8008586:	3601      	adds	r6, #1
 8008588:	e7d9      	b.n	800853e <_printf_common+0x8e>
	...

0800858c <_printf_i>:
 800858c:	e92d 47ff 	stmdb	sp!, {r0, r1, r2, r3, r4, r5, r6, r7, r8, r9, sl, lr}
 8008590:	460c      	mov	r4, r1
 8008592:	4691      	mov	r9, r2
 8008594:	7e27      	ldrb	r7, [r4, #24]
 8008596:	990c      	ldr	r1, [sp, #48]	; 0x30
 8008598:	2f78      	cmp	r7, #120	; 0x78
 800859a:	4680      	mov	r8, r0
 800859c:	469a      	mov	sl, r3
 800859e:	f104 0243 	add.w	r2, r4, #67	; 0x43
 80085a2:	d807      	bhi.n	80085b4 <_printf_i+0x28>
 80085a4:	2f62      	cmp	r7, #98	; 0x62
 80085a6:	d80a      	bhi.n	80085be <_printf_i+0x32>
 80085a8:	2f00      	cmp	r7, #0
 80085aa:	f000 80d8 	beq.w	800875e <_printf_i+0x1d2>
 80085ae:	2f58      	cmp	r7, #88	; 0x58
 80085b0:	f000 80a3 	beq.w	80086fa <_printf_i+0x16e>
 80085b4:	f104 0642 	add.w	r6, r4, #66	; 0x42
 80085b8:	f884 7042 	strb.w	r7, [r4, #66]	; 0x42
 80085bc:	e03a      	b.n	8008634 <_printf_i+0xa8>
 80085be:	f1a7 0363 	sub.w	r3, r7, #99	; 0x63
 80085c2:	2b15      	cmp	r3, #21
 80085c4:	d8f6      	bhi.n	80085b4 <_printf_i+0x28>
 80085c6:	a001      	add	r0, pc, #4	; (adr r0, 80085cc <_printf_i+0x40>)
 80085c8:	f850 f023 	ldr.w	pc, [r0, r3, lsl #2]
 80085cc:	08008625 	.word	0x08008625
 80085d0:	08008639 	.word	0x08008639
 80085d4:	080085b5 	.word	0x080085b5
 80085d8:	080085b5 	.word	0x080085b5
 80085dc:	080085b5 	.word	0x080085b5
 80085e0:	080085b5 	.word	0x080085b5
 80085e4:	08008639 	.word	0x08008639
 80085e8:	080085b5 	.word	0x080085b5
 80085ec:	080085b5 	.word	0x080085b5
 80085f0:	080085b5 	.word	0x080085b5
 80085f4:	080085b5 	.word	0x080085b5
 80085f8:	08008745 	.word	0x08008745
 80085fc:	08008669 	.word	0x08008669
 8008600:	08008727 	.word	0x08008727
 8008604:	080085b5 	.word	0x080085b5
 8008608:	080085b5 	.word	0x080085b5
 800860c:	08008767 	.word	0x08008767
 8008610:	080085b5 	.word	0x080085b5
 8008614:	08008669 	.word	0x08008669
 8008618:	080085b5 	.word	0x080085b5
 800861c:	080085b5 	.word	0x080085b5
 8008620:	0800872f 	.word	0x0800872f
 8008624:	680b      	ldr	r3, [r1, #0]
 8008626:	1d1a      	adds	r2, r3, #4
 8008628:	681b      	ldr	r3, [r3, #0]
 800862a:	600a      	str	r2, [r1, #0]
 800862c:	f104 0642 	add.w	r6, r4, #66	; 0x42
 8008630:	f884 3042 	strb.w	r3, [r4, #66]	; 0x42
 8008634:	2301      	movs	r3, #1
 8008636:	e0a3      	b.n	8008780 <_printf_i+0x1f4>
 8008638:	6825      	ldr	r5, [r4, #0]
 800863a:	6808      	ldr	r0, [r1, #0]
 800863c:	062e      	lsls	r6, r5, #24
 800863e:	f100 0304 	add.w	r3, r0, #4
 8008642:	d50a      	bpl.n	800865a <_printf_i+0xce>
 8008644:	6805      	ldr	r5, [r0, #0]
 8008646:	600b      	str	r3, [r1, #0]
 8008648:	2d00      	cmp	r5, #0
 800864a:	da03      	bge.n	8008654 <_printf_i+0xc8>
 800864c:	232d      	movs	r3, #45	; 0x2d
 800864e:	426d      	negs	r5, r5
 8008650:	f884 3043 	strb.w	r3, [r4, #67]	; 0x43
 8008654:	485e      	ldr	r0, [pc, #376]	; (80087d0 <_printf_i+0x244>)
 8008656:	230a      	movs	r3, #10
 8008658:	e019      	b.n	800868e <_printf_i+0x102>
 800865a:	f015 0f40 	tst.w	r5, #64	; 0x40
 800865e:	6805      	ldr	r5, [r0, #0]
 8008660:	600b      	str	r3, [r1, #0]
 8008662:	bf18      	it	ne
 8008664:	b22d      	sxthne	r5, r5
 8008666:	e7ef      	b.n	8008648 <_printf_i+0xbc>
 8008668:	680b      	ldr	r3, [r1, #0]
 800866a:	6825      	ldr	r5, [r4, #0]
 800866c:	1d18      	adds	r0, r3, #4
 800866e:	6008      	str	r0, [r1, #0]
 8008670:	0628      	lsls	r0, r5, #24
 8008672:	d501      	bpl.n	8008678 <_printf_i+0xec>
 8008674:	681d      	ldr	r5, [r3, #0]
 8008676:	e002      	b.n	800867e <_printf_i+0xf2>
 8008678:	0669      	lsls	r1, r5, #25
 800867a:	d5fb      	bpl.n	8008674 <_printf_i+0xe8>
 800867c:	881d      	ldrh	r5, [r3, #0]
 800867e:	4854      	ldr	r0, [pc, #336]	; (80087d0 <_printf_i+0x244>)
 8008680:	2f6f      	cmp	r7, #111	; 0x6f
 8008682:	bf0c      	ite	eq
 8008684:	2308      	moveq	r3, #8
 8008686:	230a      	movne	r3, #10
 8008688:	2100      	movs	r1, #0
 800868a:	f884 1043 	strb.w	r1, [r4, #67]	; 0x43
 800868e:	6866      	ldr	r6, [r4, #4]
 8008690:	60a6      	str	r6, [r4, #8]
 8008692:	2e00      	cmp	r6, #0
 8008694:	bfa2      	ittt	ge
 8008696:	6821      	ldrge	r1, [r4, #0]
 8008698:	f021 0104 	bicge.w	r1, r1, #4
 800869c:	6021      	strge	r1, [r4, #0]
 800869e:	b90d      	cbnz	r5, 80086a4 <_printf_i+0x118>
 80086a0:	2e00      	cmp	r6, #0
 80086a2:	d04d      	beq.n	8008740 <_printf_i+0x1b4>
 80086a4:	4616      	mov	r6, r2
 80086a6:	fbb5 f1f3 	udiv	r1, r5, r3
 80086aa:	fb03 5711 	mls	r7, r3, r1, r5
 80086ae:	5dc7      	ldrb	r7, [r0, r7]
 80086b0:	f806 7d01 	strb.w	r7, [r6, #-1]!
 80086b4:	462f      	mov	r7, r5
 80086b6:	42bb      	cmp	r3, r7
 80086b8:	460d      	mov	r5, r1
 80086ba:	d9f4      	bls.n	80086a6 <_printf_i+0x11a>
 80086bc:	2b08      	cmp	r3, #8
 80086be:	d10b      	bne.n	80086d8 <_printf_i+0x14c>
 80086c0:	6823      	ldr	r3, [r4, #0]
 80086c2:	07df      	lsls	r7, r3, #31
 80086c4:	d508      	bpl.n	80086d8 <_printf_i+0x14c>
 80086c6:	6923      	ldr	r3, [r4, #16]
 80086c8:	6861      	ldr	r1, [r4, #4]
 80086ca:	4299      	cmp	r1, r3
 80086cc:	bfde      	ittt	le
 80086ce:	2330      	movle	r3, #48	; 0x30
 80086d0:	f806 3c01 	strble.w	r3, [r6, #-1]
 80086d4:	f106 36ff 	addle.w	r6, r6, #4294967295
 80086d8:	1b92      	subs	r2, r2, r6
 80086da:	6122      	str	r2, [r4, #16]
 80086dc:	f8cd a000 	str.w	sl, [sp]
 80086e0:	464b      	mov	r3, r9
 80086e2:	aa03      	add	r2, sp, #12
 80086e4:	4621      	mov	r1, r4
 80086e6:	4640      	mov	r0, r8
 80086e8:	f7ff fee2 	bl	80084b0 <_printf_common>
 80086ec:	3001      	adds	r0, #1
 80086ee:	d14c      	bne.n	800878a <_printf_i+0x1fe>
 80086f0:	f04f 30ff 	mov.w	r0, #4294967295
 80086f4:	b004      	add	sp, #16
 80086f6:	e8bd 87f0 	ldmia.w	sp!, {r4, r5, r6, r7, r8, r9, sl, pc}
 80086fa:	4835      	ldr	r0, [pc, #212]	; (80087d0 <_printf_i+0x244>)
 80086fc:	f884 7045 	strb.w	r7, [r4, #69]	; 0x45
 8008700:	6823      	ldr	r3, [r4, #0]
 8008702:	680e      	ldr	r6, [r1, #0]
 8008704:	061f      	lsls	r7, r3, #24
 8008706:	f856 5b04 	ldr.w	r5, [r6], #4
 800870a:	600e      	str	r6, [r1, #0]
 800870c:	d514      	bpl.n	8008738 <_printf_i+0x1ac>
 800870e:	07d9      	lsls	r1, r3, #31
 8008710:	bf44      	itt	mi
 8008712:	f043 0320 	orrmi.w	r3, r3, #32
 8008716:	6023      	strmi	r3, [r4, #0]
 8008718:	b91d      	cbnz	r5, 8008722 <_printf_i+0x196>
 800871a:	6823      	ldr	r3, [r4, #0]
 800871c:	f023 0320 	bic.w	r3, r3, #32
 8008720:	6023      	str	r3, [r4, #0]
 8008722:	2310      	movs	r3, #16
 8008724:	e7b0      	b.n	8008688 <_printf_i+0xfc>
 8008726:	6823      	ldr	r3, [r4, #0]
 8008728:	f043 0320 	orr.w	r3, r3, #32
 800872c:	6023      	str	r3, [r4, #0]
 800872e:	2378      	movs	r3, #120	; 0x78
 8008730:	4828      	ldr	r0, [pc, #160]	; (80087d4 <_printf_i+0x248>)
 8008732:	f884 3045 	strb.w	r3, [r4, #69]	; 0x45
 8008736:	e7e3      	b.n	8008700 <_printf_i+0x174>
 8008738:	065e      	lsls	r6, r3, #25
 800873a:	bf48      	it	mi
 800873c:	b2ad      	uxthmi	r5, r5
 800873e:	e7e6      	b.n	800870e <_printf_i+0x182>
 8008740:	4616      	mov	r6, r2
 8008742:	e7bb      	b.n	80086bc <_printf_i+0x130>
 8008744:	680b      	ldr	r3, [r1, #0]
 8008746:	6826      	ldr	r6, [r4, #0]
 8008748:	6960      	ldr	r0, [r4, #20]
 800874a:	1d1d      	adds	r5, r3, #4
 800874c:	600d      	str	r5, [r1, #0]
 800874e:	0635      	lsls	r5, r6, #24
 8008750:	681b      	ldr	r3, [r3, #0]
 8008752:	d501      	bpl.n	8008758 <_printf_i+0x1cc>
 8008754:	6018      	str	r0, [r3, #0]
 8008756:	e002      	b.n	800875e <_printf_i+0x1d2>
 8008758:	0671      	lsls	r1, r6, #25
 800875a:	d5fb      	bpl.n	8008754 <_printf_i+0x1c8>
 800875c:	8018      	strh	r0, [r3, #0]
 800875e:	2300      	movs	r3, #0
 8008760:	6123      	str	r3, [r4, #16]
 8008762:	4616      	mov	r6, r2
 8008764:	e7ba      	b.n	80086dc <_printf_i+0x150>
 8008766:	680b      	ldr	r3, [r1, #0]
 8008768:	1d1a      	adds	r2, r3, #4
 800876a:	600a      	str	r2, [r1, #0]
 800876c:	681e      	ldr	r6, [r3, #0]
 800876e:	6862      	ldr	r2, [r4, #4]
 8008770:	2100      	movs	r1, #0
 8008772:	4630      	mov	r0, r6
 8008774:	f7f7 fd44 	bl	8000200 <memchr>
 8008778:	b108      	cbz	r0, 800877e <_printf_i+0x1f2>
 800877a:	1b80      	subs	r0, r0, r6
 800877c:	6060      	str	r0, [r4, #4]
 800877e:	6863      	ldr	r3, [r4, #4]
 8008780:	6123      	str	r3, [r4, #16]
 8008782:	2300      	movs	r3, #0
 8008784:	f884 3043 	strb.w	r3, [r4, #67]	; 0x43
 8008788:	e7a8      	b.n	80086dc <_printf_i+0x150>
 800878a:	6923      	ldr	r3, [r4, #16]
 800878c:	4632      	mov	r2, r6
 800878e:	4649      	mov	r1, r9
 8008790:	4640      	mov	r0, r8
 8008792:	47d0      	blx	sl
 8008794:	3001      	adds	r0, #1
 8008796:	d0ab      	beq.n	80086f0 <_printf_i+0x164>
 8008798:	6823      	ldr	r3, [r4, #0]
 800879a:	079b      	lsls	r3, r3, #30
 800879c:	d413      	bmi.n	80087c6 <_printf_i+0x23a>
 800879e:	68e0      	ldr	r0, [r4, #12]
 80087a0:	9b03      	ldr	r3, [sp, #12]
 80087a2:	4298      	cmp	r0, r3
 80087a4:	bfb8      	it	lt
 80087a6:	4618      	movlt	r0, r3
 80087a8:	e7a4      	b.n	80086f4 <_printf_i+0x168>
 80087aa:	2301      	movs	r3, #1
 80087ac:	4632      	mov	r2, r6
 80087ae:	4649      	mov	r1, r9
 80087b0:	4640      	mov	r0, r8
 80087b2:	47d0      	blx	sl
 80087b4:	3001      	adds	r0, #1
 80087b6:	d09b      	beq.n	80086f0 <_printf_i+0x164>
 80087b8:	3501      	adds	r5, #1
 80087ba:	68e3      	ldr	r3, [r4, #12]
 80087bc:	9903      	ldr	r1, [sp, #12]
 80087be:	1a5b      	subs	r3, r3, r1
 80087c0:	42ab      	cmp	r3, r5
 80087c2:	dcf2      	bgt.n	80087aa <_printf_i+0x21e>
 80087c4:	e7eb      	b.n	800879e <_printf_i+0x212>
 80087c6:	2500      	movs	r5, #0
 80087c8:	f104 0619 	add.w	r6, r4, #25
 80087cc:	e7f5      	b.n	80087ba <_printf_i+0x22e>
 80087ce:	bf00      	nop
 80087d0:	0800e30c 	.word	0x0800e30c
 80087d4:	0800e31d 	.word	0x0800e31d

080087d8 <_scanf_float>:
 80087d8:	e92d 4ff0 	stmdb	sp!, {r4, r5, r6, r7, r8, r9, sl, fp, lr}
 80087dc:	b087      	sub	sp, #28
 80087de:	4617      	mov	r7, r2
 80087e0:	9303      	str	r3, [sp, #12]
 80087e2:	688b      	ldr	r3, [r1, #8]
 80087e4:	1e5a      	subs	r2, r3, #1
 80087e6:	f5b2 7fae 	cmp.w	r2, #348	; 0x15c
 80087ea:	bf83      	ittte	hi
 80087ec:	f46f 75ae 	mvnhi.w	r5, #348	; 0x15c
 80087f0:	195b      	addhi	r3, r3, r5
 80087f2:	9302      	strhi	r3, [sp, #8]
 80087f4:	2300      	movls	r3, #0
 80087f6:	bf86      	itte	hi
 80087f8:	f240 135d 	movwhi	r3, #349	; 0x15d
 80087fc:	608b      	strhi	r3, [r1, #8]
 80087fe:	9302      	strls	r3, [sp, #8]
 8008800:	680b      	ldr	r3, [r1, #0]
 8008802:	468b      	mov	fp, r1
 8008804:	2500      	movs	r5, #0
 8008806:	f443 63f0 	orr.w	r3, r3, #1920	; 0x780
 800880a:	f84b 3b1c 	str.w	r3, [fp], #28
 800880e:	e9cd 5504 	strd	r5, r5, [sp, #16]
 8008812:	4680      	mov	r8, r0
 8008814:	460c      	mov	r4, r1
 8008816:	465e      	mov	r6, fp
 8008818:	46aa      	mov	sl, r5
 800881a:	46a9      	mov	r9, r5
 800881c:	9501      	str	r5, [sp, #4]
 800881e:	68a2      	ldr	r2, [r4, #8]
 8008820:	b152      	cbz	r2, 8008838 <_scanf_float+0x60>
 8008822:	683b      	ldr	r3, [r7, #0]
 8008824:	781b      	ldrb	r3, [r3, #0]
 8008826:	2b4e      	cmp	r3, #78	; 0x4e
 8008828:	d864      	bhi.n	80088f4 <_scanf_float+0x11c>
 800882a:	2b40      	cmp	r3, #64	; 0x40
 800882c:	d83c      	bhi.n	80088a8 <_scanf_float+0xd0>
 800882e:	f1a3 012b 	sub.w	r1, r3, #43	; 0x2b
 8008832:	b2c8      	uxtb	r0, r1
 8008834:	280e      	cmp	r0, #14
 8008836:	d93a      	bls.n	80088ae <_scanf_float+0xd6>
 8008838:	f1b9 0f00 	cmp.w	r9, #0
 800883c:	d003      	beq.n	8008846 <_scanf_float+0x6e>
 800883e:	6823      	ldr	r3, [r4, #0]
 8008840:	f423 7380 	bic.w	r3, r3, #256	; 0x100
 8008844:	6023      	str	r3, [r4, #0]
 8008846:	f10a 3aff 	add.w	sl, sl, #4294967295
 800884a:	f1ba 0f01 	cmp.w	sl, #1
 800884e:	f200 8113 	bhi.w	8008a78 <_scanf_float+0x2a0>
 8008852:	455e      	cmp	r6, fp
 8008854:	f200 8105 	bhi.w	8008a62 <_scanf_float+0x28a>
 8008858:	2501      	movs	r5, #1
 800885a:	4628      	mov	r0, r5
 800885c:	b007      	add	sp, #28
 800885e:	e8bd 8ff0 	ldmia.w	sp!, {r4, r5, r6, r7, r8, r9, sl, fp, pc}
 8008862:	f1a3 0261 	sub.w	r2, r3, #97	; 0x61
 8008866:	2a0d      	cmp	r2, #13
 8008868:	d8e6      	bhi.n	8008838 <_scanf_float+0x60>
 800886a:	a101      	add	r1, pc, #4	; (adr r1, 8008870 <_scanf_float+0x98>)
 800886c:	f851 f022 	ldr.w	pc, [r1, r2, lsl #2]
 8008870:	080089af 	.word	0x080089af
 8008874:	08008839 	.word	0x08008839
 8008878:	08008839 	.word	0x08008839
 800887c:	08008839 	.word	0x08008839
 8008880:	08008a0f 	.word	0x08008a0f
 8008884:	080089e7 	.word	0x080089e7
 8008888:	08008839 	.word	0x08008839
 800888c:	08008839 	.word	0x08008839
 8008890:	080089bd 	.word	0x080089bd
 8008894:	08008839 	.word	0x08008839
 8008898:	08008839 	.word	0x08008839
 800889c:	08008839 	.word	0x08008839
 80088a0:	08008839 	.word	0x08008839
 80088a4:	08008975 	.word	0x08008975
 80088a8:	f1a3 0241 	sub.w	r2, r3, #65	; 0x41
 80088ac:	e7db      	b.n	8008866 <_scanf_float+0x8e>
 80088ae:	290e      	cmp	r1, #14
 80088b0:	d8c2      	bhi.n	8008838 <_scanf_float+0x60>
 80088b2:	a001      	add	r0, pc, #4	; (adr r0, 80088b8 <_scanf_float+0xe0>)
 80088b4:	f850 f021 	ldr.w	pc, [r0, r1, lsl #2]
 80088b8:	08008967 	.word	0x08008967
 80088bc:	08008839 	.word	0x08008839
 80088c0:	08008967 	.word	0x08008967
 80088c4:	080089fb 	.word	0x080089fb
 80088c8:	08008839 	.word	0x08008839
 80088cc:	08008915 	.word	0x08008915
 80088d0:	08008951 	.word	0x08008951
 80088d4:	08008951 	.word	0x08008951
 80088d8:	08008951 	.word	0x08008951
 80088dc:	08008951 	.word	0x08008951
 80088e0:	08008951 	.word	0x08008951
 80088e4:	08008951 	.word	0x08008951
 80088e8:	08008951 	.word	0x08008951
 80088ec:	08008951 	.word	0x08008951
 80088f0:	08008951 	.word	0x08008951
 80088f4:	2b6e      	cmp	r3, #110	; 0x6e
 80088f6:	d809      	bhi.n	800890c <_scanf_float+0x134>
 80088f8:	2b60      	cmp	r3, #96	; 0x60
 80088fa:	d8b2      	bhi.n	8008862 <_scanf_float+0x8a>
 80088fc:	2b54      	cmp	r3, #84	; 0x54
 80088fe:	d077      	beq.n	80089f0 <_scanf_float+0x218>
 8008900:	2b59      	cmp	r3, #89	; 0x59
 8008902:	d199      	bne.n	8008838 <_scanf_float+0x60>
 8008904:	2d07      	cmp	r5, #7
 8008906:	d197      	bne.n	8008838 <_scanf_float+0x60>
 8008908:	2508      	movs	r5, #8
 800890a:	e029      	b.n	8008960 <_scanf_float+0x188>
 800890c:	2b74      	cmp	r3, #116	; 0x74
 800890e:	d06f      	beq.n	80089f0 <_scanf_float+0x218>
 8008910:	2b79      	cmp	r3, #121	; 0x79
 8008912:	e7f6      	b.n	8008902 <_scanf_float+0x12a>
 8008914:	6821      	ldr	r1, [r4, #0]
 8008916:	05c8      	lsls	r0, r1, #23
 8008918:	d51a      	bpl.n	8008950 <_scanf_float+0x178>
 800891a:	9b02      	ldr	r3, [sp, #8]
 800891c:	f021 0180 	bic.w	r1, r1, #128	; 0x80
 8008920:	6021      	str	r1, [r4, #0]
 8008922:	f109 0901 	add.w	r9, r9, #1
 8008926:	b11b      	cbz	r3, 8008930 <_scanf_float+0x158>
 8008928:	3b01      	subs	r3, #1
 800892a:	3201      	adds	r2, #1
 800892c:	9302      	str	r3, [sp, #8]
 800892e:	60a2      	str	r2, [r4, #8]
 8008930:	68a3      	ldr	r3, [r4, #8]
 8008932:	3b01      	subs	r3, #1
 8008934:	60a3      	str	r3, [r4, #8]
 8008936:	6923      	ldr	r3, [r4, #16]
 8008938:	3301      	adds	r3, #1
 800893a:	6123      	str	r3, [r4, #16]
 800893c:	687b      	ldr	r3, [r7, #4]
 800893e:	3b01      	subs	r3, #1
 8008940:	2b00      	cmp	r3, #0
 8008942:	607b      	str	r3, [r7, #4]
 8008944:	f340 8084 	ble.w	8008a50 <_scanf_float+0x278>
 8008948:	683b      	ldr	r3, [r7, #0]
 800894a:	3301      	adds	r3, #1
 800894c:	603b      	str	r3, [r7, #0]
 800894e:	e766      	b.n	800881e <_scanf_float+0x46>
 8008950:	eb1a 0f05 	cmn.w	sl, r5
 8008954:	f47f af70 	bne.w	8008838 <_scanf_float+0x60>
 8008958:	6822      	ldr	r2, [r4, #0]
 800895a:	f422 72c0 	bic.w	r2, r2, #384	; 0x180
 800895e:	6022      	str	r2, [r4, #0]
 8008960:	f806 3b01 	strb.w	r3, [r6], #1
 8008964:	e7e4      	b.n	8008930 <_scanf_float+0x158>
 8008966:	6822      	ldr	r2, [r4, #0]
 8008968:	0610      	lsls	r0, r2, #24
 800896a:	f57f af65 	bpl.w	8008838 <_scanf_float+0x60>
 800896e:	f022 0280 	bic.w	r2, r2, #128	; 0x80
 8008972:	e7f4      	b.n	800895e <_scanf_float+0x186>
 8008974:	f1ba 0f00 	cmp.w	sl, #0
 8008978:	d10e      	bne.n	8008998 <_scanf_float+0x1c0>
 800897a:	f1b9 0f00 	cmp.w	r9, #0
 800897e:	d10e      	bne.n	800899e <_scanf_float+0x1c6>
 8008980:	6822      	ldr	r2, [r4, #0]
 8008982:	f402 61e0 	and.w	r1, r2, #1792	; 0x700
 8008986:	f5b1 6fe0 	cmp.w	r1, #1792	; 0x700
 800898a:	d108      	bne.n	800899e <_scanf_float+0x1c6>
 800898c:	f422 62f0 	bic.w	r2, r2, #1920	; 0x780
 8008990:	6022      	str	r2, [r4, #0]
 8008992:	f04f 0a01 	mov.w	sl, #1
 8008996:	e7e3      	b.n	8008960 <_scanf_float+0x188>
 8008998:	f1ba 0f02 	cmp.w	sl, #2
 800899c:	d055      	beq.n	8008a4a <_scanf_float+0x272>
 800899e:	2d01      	cmp	r5, #1
 80089a0:	d002      	beq.n	80089a8 <_scanf_float+0x1d0>
 80089a2:	2d04      	cmp	r5, #4
 80089a4:	f47f af48 	bne.w	8008838 <_scanf_float+0x60>
 80089a8:	3501      	adds	r5, #1
 80089aa:	b2ed      	uxtb	r5, r5
 80089ac:	e7d8      	b.n	8008960 <_scanf_float+0x188>
 80089ae:	f1ba 0f01 	cmp.w	sl, #1
 80089b2:	f47f af41 	bne.w	8008838 <_scanf_float+0x60>
 80089b6:	f04f 0a02 	mov.w	sl, #2
 80089ba:	e7d1      	b.n	8008960 <_scanf_float+0x188>
 80089bc:	b97d      	cbnz	r5, 80089de <_scanf_float+0x206>
 80089be:	f1b9 0f00 	cmp.w	r9, #0
 80089c2:	f47f af3c 	bne.w	800883e <_scanf_float+0x66>
 80089c6:	6822      	ldr	r2, [r4, #0]
 80089c8:	f402 61e0 	and.w	r1, r2, #1792	; 0x700
 80089cc:	f5b1 6fe0 	cmp.w	r1, #1792	; 0x700
 80089d0:	f47f af39 	bne.w	8008846 <_scanf_float+0x6e>
 80089d4:	f422 62f0 	bic.w	r2, r2, #1920	; 0x780
 80089d8:	6022      	str	r2, [r4, #0]
 80089da:	2501      	movs	r5, #1
 80089dc:	e7c0      	b.n	8008960 <_scanf_float+0x188>
 80089de:	2d03      	cmp	r5, #3
 80089e0:	d0e2      	beq.n	80089a8 <_scanf_float+0x1d0>
 80089e2:	2d05      	cmp	r5, #5
 80089e4:	e7de      	b.n	80089a4 <_scanf_float+0x1cc>
 80089e6:	2d02      	cmp	r5, #2
 80089e8:	f47f af26 	bne.w	8008838 <_scanf_float+0x60>
 80089ec:	2503      	movs	r5, #3
 80089ee:	e7b7      	b.n	8008960 <_scanf_float+0x188>
 80089f0:	2d06      	cmp	r5, #6
 80089f2:	f47f af21 	bne.w	8008838 <_scanf_float+0x60>
 80089f6:	2507      	movs	r5, #7
 80089f8:	e7b2      	b.n	8008960 <_scanf_float+0x188>
 80089fa:	6822      	ldr	r2, [r4, #0]
 80089fc:	0591      	lsls	r1, r2, #22
 80089fe:	f57f af1b 	bpl.w	8008838 <_scanf_float+0x60>
 8008a02:	f422 7220 	bic.w	r2, r2, #640	; 0x280
 8008a06:	6022      	str	r2, [r4, #0]
 8008a08:	f8cd 9004 	str.w	r9, [sp, #4]
 8008a0c:	e7a8      	b.n	8008960 <_scanf_float+0x188>
 8008a0e:	6822      	ldr	r2, [r4, #0]
 8008a10:	f402 61a0 	and.w	r1, r2, #1280	; 0x500
 8008a14:	f5b1 6f80 	cmp.w	r1, #1024	; 0x400
 8008a18:	d006      	beq.n	8008a28 <_scanf_float+0x250>
 8008a1a:	0550      	lsls	r0, r2, #21
 8008a1c:	f57f af0c 	bpl.w	8008838 <_scanf_float+0x60>
 8008a20:	f1b9 0f00 	cmp.w	r9, #0
 8008a24:	f43f af0f 	beq.w	8008846 <_scanf_float+0x6e>
 8008a28:	0591      	lsls	r1, r2, #22
 8008a2a:	bf58      	it	pl
 8008a2c:	9901      	ldrpl	r1, [sp, #4]
 8008a2e:	f422 62f0 	bic.w	r2, r2, #1920	; 0x780
 8008a32:	bf58      	it	pl
 8008a34:	eba9 0101 	subpl.w	r1, r9, r1
 8008a38:	f442 72c0 	orr.w	r2, r2, #384	; 0x180
 8008a3c:	bf58      	it	pl
 8008a3e:	e9cd 1604 	strdpl	r1, r6, [sp, #16]
 8008a42:	6022      	str	r2, [r4, #0]
 8008a44:	f04f 0900 	mov.w	r9, #0
 8008a48:	e78a      	b.n	8008960 <_scanf_float+0x188>
 8008a4a:	f04f 0a03 	mov.w	sl, #3
 8008a4e:	e787      	b.n	8008960 <_scanf_float+0x188>
 8008a50:	f8d4 3180 	ldr.w	r3, [r4, #384]	; 0x180
 8008a54:	4639      	mov	r1, r7
 8008a56:	4640      	mov	r0, r8
 8008a58:	4798      	blx	r3
 8008a5a:	2800      	cmp	r0, #0
 8008a5c:	f43f aedf 	beq.w	800881e <_scanf_float+0x46>
 8008a60:	e6ea      	b.n	8008838 <_scanf_float+0x60>
 8008a62:	f8d4 317c 	ldr.w	r3, [r4, #380]	; 0x17c
 8008a66:	f816 1d01 	ldrb.w	r1, [r6, #-1]!
 8008a6a:	463a      	mov	r2, r7
 8008a6c:	4640      	mov	r0, r8
 8008a6e:	4798      	blx	r3
 8008a70:	6923      	ldr	r3, [r4, #16]
 8008a72:	3b01      	subs	r3, #1
 8008a74:	6123      	str	r3, [r4, #16]
 8008a76:	e6ec      	b.n	8008852 <_scanf_float+0x7a>
 8008a78:	1e6b      	subs	r3, r5, #1
 8008a7a:	2b06      	cmp	r3, #6
 8008a7c:	d825      	bhi.n	8008aca <_scanf_float+0x2f2>
 8008a7e:	2d02      	cmp	r5, #2
 8008a80:	d836      	bhi.n	8008af0 <_scanf_float+0x318>
 8008a82:	455e      	cmp	r6, fp
 8008a84:	f67f aee8 	bls.w	8008858 <_scanf_float+0x80>
 8008a88:	f8d4 317c 	ldr.w	r3, [r4, #380]	; 0x17c
 8008a8c:	f816 1d01 	ldrb.w	r1, [r6, #-1]!
 8008a90:	463a      	mov	r2, r7
 8008a92:	4640      	mov	r0, r8
 8008a94:	4798      	blx	r3
 8008a96:	6923      	ldr	r3, [r4, #16]
 8008a98:	3b01      	subs	r3, #1
 8008a9a:	6123      	str	r3, [r4, #16]
 8008a9c:	e7f1      	b.n	8008a82 <_scanf_float+0x2aa>
 8008a9e:	9802      	ldr	r0, [sp, #8]
 8008aa0:	f8d4 317c 	ldr.w	r3, [r4, #380]	; 0x17c
 8008aa4:	f810 1d01 	ldrb.w	r1, [r0, #-1]!
 8008aa8:	9002      	str	r0, [sp, #8]
 8008aaa:	463a      	mov	r2, r7
 8008aac:	4640      	mov	r0, r8
 8008aae:	4798      	blx	r3
 8008ab0:	6923      	ldr	r3, [r4, #16]
 8008ab2:	3b01      	subs	r3, #1
 8008ab4:	6123      	str	r3, [r4, #16]
 8008ab6:	f10a 3aff 	add.w	sl, sl, #4294967295
 8008aba:	fa5f fa8a 	uxtb.w	sl, sl
 8008abe:	f1ba 0f02 	cmp.w	sl, #2
 8008ac2:	d1ec      	bne.n	8008a9e <_scanf_float+0x2c6>
 8008ac4:	3d03      	subs	r5, #3
 8008ac6:	b2ed      	uxtb	r5, r5
 8008ac8:	1b76      	subs	r6, r6, r5
 8008aca:	6823      	ldr	r3, [r4, #0]
 8008acc:	05da      	lsls	r2, r3, #23
 8008ace:	d52f      	bpl.n	8008b30 <_scanf_float+0x358>
 8008ad0:	055b      	lsls	r3, r3, #21
 8008ad2:	d510      	bpl.n	8008af6 <_scanf_float+0x31e>
 8008ad4:	455e      	cmp	r6, fp
 8008ad6:	f67f aebf 	bls.w	8008858 <_scanf_float+0x80>
 8008ada:	f8d4 317c 	ldr.w	r3, [r4, #380]	; 0x17c
 8008ade:	f816 1d01 	ldrb.w	r1, [r6, #-1]!
 8008ae2:	463a      	mov	r2, r7
 8008ae4:	4640      	mov	r0, r8
 8008ae6:	4798      	blx	r3
 8008ae8:	6923      	ldr	r3, [r4, #16]
 8008aea:	3b01      	subs	r3, #1
 8008aec:	6123      	str	r3, [r4, #16]
 8008aee:	e7f1      	b.n	8008ad4 <_scanf_float+0x2fc>
 8008af0:	46aa      	mov	sl, r5
 8008af2:	9602      	str	r6, [sp, #8]
 8008af4:	e7df      	b.n	8008ab6 <_scanf_float+0x2de>
 8008af6:	f816 1c01 	ldrb.w	r1, [r6, #-1]
 8008afa:	6923      	ldr	r3, [r4, #16]
 8008afc:	2965      	cmp	r1, #101	; 0x65
 8008afe:	f103 33ff 	add.w	r3, r3, #4294967295
 8008b02:	f106 35ff 	add.w	r5, r6, #4294967295
 8008b06:	6123      	str	r3, [r4, #16]
 8008b08:	d00c      	beq.n	8008b24 <_scanf_float+0x34c>
 8008b0a:	2945      	cmp	r1, #69	; 0x45
 8008b0c:	d00a      	beq.n	8008b24 <_scanf_float+0x34c>
 8008b0e:	f8d4 317c 	ldr.w	r3, [r4, #380]	; 0x17c
 8008b12:	463a      	mov	r2, r7
 8008b14:	4640      	mov	r0, r8
 8008b16:	4798      	blx	r3
 8008b18:	6923      	ldr	r3, [r4, #16]
 8008b1a:	f816 1c02 	ldrb.w	r1, [r6, #-2]
 8008b1e:	3b01      	subs	r3, #1
 8008b20:	1eb5      	subs	r5, r6, #2
 8008b22:	6123      	str	r3, [r4, #16]
 8008b24:	f8d4 317c 	ldr.w	r3, [r4, #380]	; 0x17c
 8008b28:	463a      	mov	r2, r7
 8008b2a:	4640      	mov	r0, r8
 8008b2c:	4798      	blx	r3
 8008b2e:	462e      	mov	r6, r5
 8008b30:	6825      	ldr	r5, [r4, #0]
 8008b32:	f015 0510 	ands.w	r5, r5, #16
 8008b36:	d158      	bne.n	8008bea <_scanf_float+0x412>
 8008b38:	7035      	strb	r5, [r6, #0]
 8008b3a:	6823      	ldr	r3, [r4, #0]
 8008b3c:	f403 63c0 	and.w	r3, r3, #1536	; 0x600
 8008b40:	f5b3 6f80 	cmp.w	r3, #1024	; 0x400
 8008b44:	d11c      	bne.n	8008b80 <_scanf_float+0x3a8>
 8008b46:	9b01      	ldr	r3, [sp, #4]
 8008b48:	454b      	cmp	r3, r9
 8008b4a:	eba3 0209 	sub.w	r2, r3, r9
 8008b4e:	d124      	bne.n	8008b9a <_scanf_float+0x3c2>
 8008b50:	2200      	movs	r2, #0
 8008b52:	4659      	mov	r1, fp
 8008b54:	4640      	mov	r0, r8
 8008b56:	f000 ff29 	bl	80099ac <_strtod_r>
 8008b5a:	9b03      	ldr	r3, [sp, #12]
 8008b5c:	6821      	ldr	r1, [r4, #0]
 8008b5e:	681b      	ldr	r3, [r3, #0]
 8008b60:	f011 0f02 	tst.w	r1, #2
 8008b64:	ec57 6b10 	vmov	r6, r7, d0
 8008b68:	f103 0204 	add.w	r2, r3, #4
 8008b6c:	d020      	beq.n	8008bb0 <_scanf_float+0x3d8>
 8008b6e:	9903      	ldr	r1, [sp, #12]
 8008b70:	600a      	str	r2, [r1, #0]
 8008b72:	681b      	ldr	r3, [r3, #0]
 8008b74:	e9c3 6700 	strd	r6, r7, [r3]
 8008b78:	68e3      	ldr	r3, [r4, #12]
 8008b7a:	3301      	adds	r3, #1
 8008b7c:	60e3      	str	r3, [r4, #12]
 8008b7e:	e66c      	b.n	800885a <_scanf_float+0x82>
 8008b80:	9b04      	ldr	r3, [sp, #16]
 8008b82:	2b00      	cmp	r3, #0
 8008b84:	d0e4      	beq.n	8008b50 <_scanf_float+0x378>
 8008b86:	9905      	ldr	r1, [sp, #20]
 8008b88:	230a      	movs	r3, #10
 8008b8a:	462a      	mov	r2, r5
 8008b8c:	3101      	adds	r1, #1
 8008b8e:	4640      	mov	r0, r8
 8008b90:	f000 ff96 	bl	8009ac0 <_strtol_r>
 8008b94:	9b04      	ldr	r3, [sp, #16]
 8008b96:	9e05      	ldr	r6, [sp, #20]
 8008b98:	1ac2      	subs	r2, r0, r3
 8008b9a:	f204 136f 	addw	r3, r4, #367	; 0x16f
 8008b9e:	429e      	cmp	r6, r3
 8008ba0:	bf28      	it	cs
 8008ba2:	f504 76b7 	addcs.w	r6, r4, #366	; 0x16e
 8008ba6:	4912      	ldr	r1, [pc, #72]	; (8008bf0 <_scanf_float+0x418>)
 8008ba8:	4630      	mov	r0, r6
 8008baa:	f000 f82b 	bl	8008c04 <siprintf>
 8008bae:	e7cf      	b.n	8008b50 <_scanf_float+0x378>
 8008bb0:	f011 0f04 	tst.w	r1, #4
 8008bb4:	9903      	ldr	r1, [sp, #12]
 8008bb6:	600a      	str	r2, [r1, #0]
 8008bb8:	d1db      	bne.n	8008b72 <_scanf_float+0x39a>
 8008bba:	f8d3 8000 	ldr.w	r8, [r3]
 8008bbe:	ee10 2a10 	vmov	r2, s0
 8008bc2:	ee10 0a10 	vmov	r0, s0
 8008bc6:	463b      	mov	r3, r7
 8008bc8:	4639      	mov	r1, r7
 8008bca:	f7f7 ffbf 	bl	8000b4c <__aeabi_dcmpun>
 8008bce:	b128      	cbz	r0, 8008bdc <_scanf_float+0x404>
 8008bd0:	4808      	ldr	r0, [pc, #32]	; (8008bf4 <_scanf_float+0x41c>)
 8008bd2:	f000 f811 	bl	8008bf8 <nanf>
 8008bd6:	ed88 0a00 	vstr	s0, [r8]
 8008bda:	e7cd      	b.n	8008b78 <_scanf_float+0x3a0>
 8008bdc:	4630      	mov	r0, r6
 8008bde:	4639      	mov	r1, r7
 8008be0:	f7f8 f812 	bl	8000c08 <__aeabi_d2f>
 8008be4:	f8c8 0000 	str.w	r0, [r8]
 8008be8:	e7c6      	b.n	8008b78 <_scanf_float+0x3a0>
 8008bea:	2500      	movs	r5, #0
 8008bec:	e635      	b.n	800885a <_scanf_float+0x82>
 8008bee:	bf00      	nop
 8008bf0:	0800e32e 	.word	0x0800e32e
 8008bf4:	0800dbdc 	.word	0x0800dbdc

08008bf8 <nanf>:
 8008bf8:	ed9f 0a01 	vldr	s0, [pc, #4]	; 8008c00 <nanf+0x8>
 8008bfc:	4770      	bx	lr
 8008bfe:	bf00      	nop
 8008c00:	7fc00000 	.word	0x7fc00000

08008c04 <siprintf>:
 8008c04:	b40e      	push	{r1, r2, r3}
 8008c06:	b500      	push	{lr}
 8008c08:	b09c      	sub	sp, #112	; 0x70
 8008c0a:	ab1d      	add	r3, sp, #116	; 0x74
 8008c0c:	9002      	str	r0, [sp, #8]
 8008c0e:	9006      	str	r0, [sp, #24]
 8008c10:	f06f 4100 	mvn.w	r1, #2147483648	; 0x80000000
 8008c14:	4809      	ldr	r0, [pc, #36]	; (8008c3c <siprintf+0x38>)
 8008c16:	9107      	str	r1, [sp, #28]
 8008c18:	9104      	str	r1, [sp, #16]
 8008c1a:	4909      	ldr	r1, [pc, #36]	; (8008c40 <siprintf+0x3c>)
 8008c1c:	f853 2b04 	ldr.w	r2, [r3], #4
 8008c20:	9105      	str	r1, [sp, #20]
 8008c22:	6800      	ldr	r0, [r0, #0]
 8008c24:	9301      	str	r3, [sp, #4]
 8008c26:	a902      	add	r1, sp, #8
 8008c28:	f002 ff56 	bl	800bad8 <_svfiprintf_r>
 8008c2c:	9b02      	ldr	r3, [sp, #8]
 8008c2e:	2200      	movs	r2, #0
 8008c30:	701a      	strb	r2, [r3, #0]
 8008c32:	b01c      	add	sp, #112	; 0x70
 8008c34:	f85d eb04 	ldr.w	lr, [sp], #4
 8008c38:	b003      	add	sp, #12
 8008c3a:	4770      	bx	lr
 8008c3c:	200001cc 	.word	0x200001cc
 8008c40:	ffff0208 	.word	0xffff0208

08008c44 <siscanf>:
 8008c44:	b40e      	push	{r1, r2, r3}
 8008c46:	b510      	push	{r4, lr}
 8008c48:	b09f      	sub	sp, #124	; 0x7c
 8008c4a:	ac21      	add	r4, sp, #132	; 0x84
 8008c4c:	f44f 7101 	mov.w	r1, #516	; 0x204
 8008c50:	f854 2b04 	ldr.w	r2, [r4], #4
 8008c54:	9201      	str	r2, [sp, #4]
 8008c56:	f8ad 101c 	strh.w	r1, [sp, #28]
 8008c5a:	9004      	str	r0, [sp, #16]
 8008c5c:	9008      	str	r0, [sp, #32]
 8008c5e:	f7f7 fac1 	bl	80001e4 <strlen>
 8008c62:	4b0c      	ldr	r3, [pc, #48]	; (8008c94 <siscanf+0x50>)
 8008c64:	9005      	str	r0, [sp, #20]
 8008c66:	9009      	str	r0, [sp, #36]	; 0x24
 8008c68:	930d      	str	r3, [sp, #52]	; 0x34
 8008c6a:	480b      	ldr	r0, [pc, #44]	; (8008c98 <siscanf+0x54>)
 8008c6c:	9a01      	ldr	r2, [sp, #4]
 8008c6e:	6800      	ldr	r0, [r0, #0]
 8008c70:	9403      	str	r4, [sp, #12]
 8008c72:	2300      	movs	r3, #0
 8008c74:	9311      	str	r3, [sp, #68]	; 0x44
 8008c76:	9316      	str	r3, [sp, #88]	; 0x58
 8008c78:	f64f 73ff 	movw	r3, #65535	; 0xffff
 8008c7c:	f8ad 301e 	strh.w	r3, [sp, #30]
 8008c80:	a904      	add	r1, sp, #16
 8008c82:	4623      	mov	r3, r4
 8008c84:	f003 f882 	bl	800bd8c <__ssvfiscanf_r>
 8008c88:	b01f      	add	sp, #124	; 0x7c
 8008c8a:	e8bd 4010 	ldmia.w	sp!, {r4, lr}
 8008c8e:	b003      	add	sp, #12
 8008c90:	4770      	bx	lr
 8008c92:	bf00      	nop
 8008c94:	08008cbf 	.word	0x08008cbf
 8008c98:	200001cc 	.word	0x200001cc

08008c9c <__sread>:
 8008c9c:	b510      	push	{r4, lr}
 8008c9e:	460c      	mov	r4, r1
 8008ca0:	f9b1 100e 	ldrsh.w	r1, [r1, #14]
 8008ca4:	f003 fb36 	bl	800c314 <_read_r>
 8008ca8:	2800      	cmp	r0, #0
 8008caa:	bfab      	itete	ge
 8008cac:	6d63      	ldrge	r3, [r4, #84]	; 0x54
 8008cae:	89a3      	ldrhlt	r3, [r4, #12]
 8008cb0:	181b      	addge	r3, r3, r0
 8008cb2:	f423 5380 	biclt.w	r3, r3, #4096	; 0x1000
 8008cb6:	bfac      	ite	ge
 8008cb8:	6563      	strge	r3, [r4, #84]	; 0x54
 8008cba:	81a3      	strhlt	r3, [r4, #12]
 8008cbc:	bd10      	pop	{r4, pc}

08008cbe <__seofread>:
 8008cbe:	2000      	movs	r0, #0
 8008cc0:	4770      	bx	lr

08008cc2 <__swrite>:
 8008cc2:	e92d 41f0 	stmdb	sp!, {r4, r5, r6, r7, r8, lr}
 8008cc6:	461f      	mov	r7, r3
 8008cc8:	898b      	ldrh	r3, [r1, #12]
 8008cca:	05db      	lsls	r3, r3, #23
 8008ccc:	4605      	mov	r5, r0
 8008cce:	460c      	mov	r4, r1
 8008cd0:	4616      	mov	r6, r2
 8008cd2:	d505      	bpl.n	8008ce0 <__swrite+0x1e>
 8008cd4:	f9b1 100e 	ldrsh.w	r1, [r1, #14]
 8008cd8:	2302      	movs	r3, #2
 8008cda:	2200      	movs	r2, #0
 8008cdc:	f002 f900 	bl	800aee0 <_lseek_r>
 8008ce0:	89a3      	ldrh	r3, [r4, #12]
 8008ce2:	f9b4 100e 	ldrsh.w	r1, [r4, #14]
 8008ce6:	f423 5380 	bic.w	r3, r3, #4096	; 0x1000
 8008cea:	81a3      	strh	r3, [r4, #12]
 8008cec:	4632      	mov	r2, r6
 8008cee:	463b      	mov	r3, r7
 8008cf0:	4628      	mov	r0, r5
 8008cf2:	e8bd 41f0 	ldmia.w	sp!, {r4, r5, r6, r7, r8, lr}
 8008cf6:	f000 bee5 	b.w	8009ac4 <_write_r>

08008cfa <__sseek>:
 8008cfa:	b510      	push	{r4, lr}
 8008cfc:	460c      	mov	r4, r1
 8008cfe:	f9b1 100e 	ldrsh.w	r1, [r1, #14]
 8008d02:	f002 f8ed 	bl	800aee0 <_lseek_r>
 8008d06:	1c43      	adds	r3, r0, #1
 8008d08:	89a3      	ldrh	r3, [r4, #12]
 8008d0a:	bf15      	itete	ne
 8008d0c:	6560      	strne	r0, [r4, #84]	; 0x54
 8008d0e:	f423 5380 	biceq.w	r3, r3, #4096	; 0x1000
 8008d12:	f443 5380 	orrne.w	r3, r3, #4096	; 0x1000
 8008d16:	81a3      	strheq	r3, [r4, #12]
 8008d18:	bf18      	it	ne
 8008d1a:	81a3      	strhne	r3, [r4, #12]
 8008d1c:	bd10      	pop	{r4, pc}

08008d1e <__sclose>:
 8008d1e:	f9b1 100e 	ldrsh.w	r1, [r1, #14]
 8008d22:	f000 bee1 	b.w	8009ae8 <_close_r>

08008d26 <strcpy>:
 8008d26:	4603      	mov	r3, r0
 8008d28:	f811 2b01 	ldrb.w	r2, [r1], #1
 8008d2c:	f803 2b01 	strb.w	r2, [r3], #1
 8008d30:	2a00      	cmp	r2, #0
 8008d32:	d1f9      	bne.n	8008d28 <strcpy+0x2>
 8008d34:	4770      	bx	lr

08008d36 <strncmp>:
 8008d36:	b510      	push	{r4, lr}
 8008d38:	b16a      	cbz	r2, 8008d56 <strncmp+0x20>
 8008d3a:	3901      	subs	r1, #1
 8008d3c:	1884      	adds	r4, r0, r2
 8008d3e:	f810 3b01 	ldrb.w	r3, [r0], #1
 8008d42:	f811 2f01 	ldrb.w	r2, [r1, #1]!
 8008d46:	4293      	cmp	r3, r2
 8008d48:	d103      	bne.n	8008d52 <strncmp+0x1c>
 8008d4a:	42a0      	cmp	r0, r4
 8008d4c:	d001      	beq.n	8008d52 <strncmp+0x1c>
 8008d4e:	2b00      	cmp	r3, #0
 8008d50:	d1f5      	bne.n	8008d3e <strncmp+0x8>
 8008d52:	1a98      	subs	r0, r3, r2
 8008d54:	bd10      	pop	{r4, pc}
 8008d56:	4610      	mov	r0, r2
 8008d58:	e7fc      	b.n	8008d54 <strncmp+0x1e>

08008d5a <sulp>:
 8008d5a:	b570      	push	{r4, r5, r6, lr}
 8008d5c:	4604      	mov	r4, r0
 8008d5e:	460d      	mov	r5, r1
 8008d60:	ec45 4b10 	vmov	d0, r4, r5
 8008d64:	4616      	mov	r6, r2
 8008d66:	f002 fc53 	bl	800b610 <__ulp>
 8008d6a:	ec51 0b10 	vmov	r0, r1, d0
 8008d6e:	b17e      	cbz	r6, 8008d90 <sulp+0x36>
 8008d70:	f3c5 530a 	ubfx	r3, r5, #20, #11
 8008d74:	f1c3 036b 	rsb	r3, r3, #107	; 0x6b
 8008d78:	2b00      	cmp	r3, #0
 8008d7a:	dd09      	ble.n	8008d90 <sulp+0x36>
 8008d7c:	051b      	lsls	r3, r3, #20
 8008d7e:	f103 557f 	add.w	r5, r3, #1069547520	; 0x3fc00000
 8008d82:	2400      	movs	r4, #0
 8008d84:	f505 1540 	add.w	r5, r5, #3145728	; 0x300000
 8008d88:	4622      	mov	r2, r4
 8008d8a:	462b      	mov	r3, r5
 8008d8c:	f7f7 fc44 	bl	8000618 <__aeabi_dmul>
 8008d90:	bd70      	pop	{r4, r5, r6, pc}
 8008d92:	0000      	movs	r0, r0
 8008d94:	0000      	movs	r0, r0
	...

08008d98 <_strtod_l>:
 8008d98:	e92d 4ff0 	stmdb	sp!, {r4, r5, r6, r7, r8, r9, sl, fp, lr}
 8008d9c:	b0a3      	sub	sp, #140	; 0x8c
 8008d9e:	461f      	mov	r7, r3
 8008da0:	2300      	movs	r3, #0
 8008da2:	931e      	str	r3, [sp, #120]	; 0x78
 8008da4:	4ba4      	ldr	r3, [pc, #656]	; (8009038 <_strtod_l+0x2a0>)
 8008da6:	9219      	str	r2, [sp, #100]	; 0x64
 8008da8:	681b      	ldr	r3, [r3, #0]
 8008daa:	9307      	str	r3, [sp, #28]
 8008dac:	4604      	mov	r4, r0
 8008dae:	4618      	mov	r0, r3
 8008db0:	4688      	mov	r8, r1
 8008db2:	f7f7 fa17 	bl	80001e4 <strlen>
 8008db6:	f04f 0a00 	mov.w	sl, #0
 8008dba:	4605      	mov	r5, r0
 8008dbc:	f04f 0b00 	mov.w	fp, #0
 8008dc0:	f8cd 8074 	str.w	r8, [sp, #116]	; 0x74
 8008dc4:	9b1d      	ldr	r3, [sp, #116]	; 0x74
 8008dc6:	781a      	ldrb	r2, [r3, #0]
 8008dc8:	2a2b      	cmp	r2, #43	; 0x2b
 8008dca:	d04c      	beq.n	8008e66 <_strtod_l+0xce>
 8008dcc:	d839      	bhi.n	8008e42 <_strtod_l+0xaa>
 8008dce:	2a0d      	cmp	r2, #13
 8008dd0:	d832      	bhi.n	8008e38 <_strtod_l+0xa0>
 8008dd2:	2a08      	cmp	r2, #8
 8008dd4:	d832      	bhi.n	8008e3c <_strtod_l+0xa4>
 8008dd6:	2a00      	cmp	r2, #0
 8008dd8:	d03c      	beq.n	8008e54 <_strtod_l+0xbc>
 8008dda:	2300      	movs	r3, #0
 8008ddc:	930e      	str	r3, [sp, #56]	; 0x38
 8008dde:	9e1d      	ldr	r6, [sp, #116]	; 0x74
 8008de0:	7833      	ldrb	r3, [r6, #0]
 8008de2:	2b30      	cmp	r3, #48	; 0x30
 8008de4:	f040 80b4 	bne.w	8008f50 <_strtod_l+0x1b8>
 8008de8:	7873      	ldrb	r3, [r6, #1]
 8008dea:	f003 03df 	and.w	r3, r3, #223	; 0xdf
 8008dee:	2b58      	cmp	r3, #88	; 0x58
 8008df0:	d16c      	bne.n	8008ecc <_strtod_l+0x134>
 8008df2:	9b0e      	ldr	r3, [sp, #56]	; 0x38
 8008df4:	9301      	str	r3, [sp, #4]
 8008df6:	ab1e      	add	r3, sp, #120	; 0x78
 8008df8:	9702      	str	r7, [sp, #8]
 8008dfa:	9300      	str	r3, [sp, #0]
 8008dfc:	4a8f      	ldr	r2, [pc, #572]	; (800903c <_strtod_l+0x2a4>)
 8008dfe:	ab1f      	add	r3, sp, #124	; 0x7c
 8008e00:	a91d      	add	r1, sp, #116	; 0x74
 8008e02:	4620      	mov	r0, r4
 8008e04:	f001 fd60 	bl	800a8c8 <__gethex>
 8008e08:	f010 0707 	ands.w	r7, r0, #7
 8008e0c:	4605      	mov	r5, r0
 8008e0e:	d005      	beq.n	8008e1c <_strtod_l+0x84>
 8008e10:	2f06      	cmp	r7, #6
 8008e12:	d12a      	bne.n	8008e6a <_strtod_l+0xd2>
 8008e14:	3601      	adds	r6, #1
 8008e16:	2300      	movs	r3, #0
 8008e18:	961d      	str	r6, [sp, #116]	; 0x74
 8008e1a:	930e      	str	r3, [sp, #56]	; 0x38
 8008e1c:	9b19      	ldr	r3, [sp, #100]	; 0x64
 8008e1e:	2b00      	cmp	r3, #0
 8008e20:	f040 8596 	bne.w	8009950 <_strtod_l+0xbb8>
 8008e24:	9b0e      	ldr	r3, [sp, #56]	; 0x38
 8008e26:	b1db      	cbz	r3, 8008e60 <_strtod_l+0xc8>
 8008e28:	4652      	mov	r2, sl
 8008e2a:	f10b 4300 	add.w	r3, fp, #2147483648	; 0x80000000
 8008e2e:	ec43 2b10 	vmov	d0, r2, r3
 8008e32:	b023      	add	sp, #140	; 0x8c
 8008e34:	e8bd 8ff0 	ldmia.w	sp!, {r4, r5, r6, r7, r8, r9, sl, fp, pc}
 8008e38:	2a20      	cmp	r2, #32
 8008e3a:	d1ce      	bne.n	8008dda <_strtod_l+0x42>
 8008e3c:	3301      	adds	r3, #1
 8008e3e:	931d      	str	r3, [sp, #116]	; 0x74
 8008e40:	e7c0      	b.n	8008dc4 <_strtod_l+0x2c>
 8008e42:	2a2d      	cmp	r2, #45	; 0x2d
 8008e44:	d1c9      	bne.n	8008dda <_strtod_l+0x42>
 8008e46:	2201      	movs	r2, #1
 8008e48:	920e      	str	r2, [sp, #56]	; 0x38
 8008e4a:	1c5a      	adds	r2, r3, #1
 8008e4c:	921d      	str	r2, [sp, #116]	; 0x74
 8008e4e:	785b      	ldrb	r3, [r3, #1]
 8008e50:	2b00      	cmp	r3, #0
 8008e52:	d1c4      	bne.n	8008dde <_strtod_l+0x46>
 8008e54:	9b19      	ldr	r3, [sp, #100]	; 0x64
 8008e56:	f8cd 8074 	str.w	r8, [sp, #116]	; 0x74
 8008e5a:	2b00      	cmp	r3, #0
 8008e5c:	f040 8576 	bne.w	800994c <_strtod_l+0xbb4>
 8008e60:	4652      	mov	r2, sl
 8008e62:	465b      	mov	r3, fp
 8008e64:	e7e3      	b.n	8008e2e <_strtod_l+0x96>
 8008e66:	2200      	movs	r2, #0
 8008e68:	e7ee      	b.n	8008e48 <_strtod_l+0xb0>
 8008e6a:	9a1e      	ldr	r2, [sp, #120]	; 0x78
 8008e6c:	b13a      	cbz	r2, 8008e7e <_strtod_l+0xe6>
 8008e6e:	2135      	movs	r1, #53	; 0x35
 8008e70:	a820      	add	r0, sp, #128	; 0x80
 8008e72:	f002 fcd8 	bl	800b826 <__copybits>
 8008e76:	991e      	ldr	r1, [sp, #120]	; 0x78
 8008e78:	4620      	mov	r0, r4
 8008e7a:	f002 f89d 	bl	800afb8 <_Bfree>
 8008e7e:	3f01      	subs	r7, #1
 8008e80:	2f05      	cmp	r7, #5
 8008e82:	d807      	bhi.n	8008e94 <_strtod_l+0xfc>
 8008e84:	e8df f007 	tbb	[pc, r7]
 8008e88:	1d180b0e 	.word	0x1d180b0e
 8008e8c:	030e      	.short	0x030e
 8008e8e:	f04f 0b00 	mov.w	fp, #0
 8008e92:	46da      	mov	sl, fp
 8008e94:	0728      	lsls	r0, r5, #28
 8008e96:	d5c1      	bpl.n	8008e1c <_strtod_l+0x84>
 8008e98:	f04b 4b00 	orr.w	fp, fp, #2147483648	; 0x80000000
 8008e9c:	e7be      	b.n	8008e1c <_strtod_l+0x84>
 8008e9e:	e9dd ab20 	ldrd	sl, fp, [sp, #128]	; 0x80
 8008ea2:	e7f7      	b.n	8008e94 <_strtod_l+0xfc>
 8008ea4:	e9dd a320 	ldrd	sl, r3, [sp, #128]	; 0x80
 8008ea8:	9a1f      	ldr	r2, [sp, #124]	; 0x7c
 8008eaa:	f423 1380 	bic.w	r3, r3, #1048576	; 0x100000
 8008eae:	f202 4233 	addw	r2, r2, #1075	; 0x433
 8008eb2:	ea43 5b02 	orr.w	fp, r3, r2, lsl #20
 8008eb6:	e7ed      	b.n	8008e94 <_strtod_l+0xfc>
 8008eb8:	f8df b184 	ldr.w	fp, [pc, #388]	; 8009040 <_strtod_l+0x2a8>
 8008ebc:	f04f 0a00 	mov.w	sl, #0
 8008ec0:	e7e8      	b.n	8008e94 <_strtod_l+0xfc>
 8008ec2:	f06f 4b00 	mvn.w	fp, #2147483648	; 0x80000000
 8008ec6:	f04f 3aff 	mov.w	sl, #4294967295
 8008eca:	e7e3      	b.n	8008e94 <_strtod_l+0xfc>
 8008ecc:	9b1d      	ldr	r3, [sp, #116]	; 0x74
 8008ece:	1c5a      	adds	r2, r3, #1
 8008ed0:	921d      	str	r2, [sp, #116]	; 0x74
 8008ed2:	785b      	ldrb	r3, [r3, #1]
 8008ed4:	2b30      	cmp	r3, #48	; 0x30
 8008ed6:	d0f9      	beq.n	8008ecc <_strtod_l+0x134>
 8008ed8:	2b00      	cmp	r3, #0
 8008eda:	d09f      	beq.n	8008e1c <_strtod_l+0x84>
 8008edc:	2301      	movs	r3, #1
 8008ede:	f04f 0900 	mov.w	r9, #0
 8008ee2:	9304      	str	r3, [sp, #16]
 8008ee4:	9b1d      	ldr	r3, [sp, #116]	; 0x74
 8008ee6:	930a      	str	r3, [sp, #40]	; 0x28
 8008ee8:	f8cd 9024 	str.w	r9, [sp, #36]	; 0x24
 8008eec:	464f      	mov	r7, r9
 8008eee:	220a      	movs	r2, #10
 8008ef0:	981d      	ldr	r0, [sp, #116]	; 0x74
 8008ef2:	7806      	ldrb	r6, [r0, #0]
 8008ef4:	f1a6 0330 	sub.w	r3, r6, #48	; 0x30
 8008ef8:	b2d9      	uxtb	r1, r3
 8008efa:	2909      	cmp	r1, #9
 8008efc:	d92a      	bls.n	8008f54 <_strtod_l+0x1bc>
 8008efe:	9907      	ldr	r1, [sp, #28]
 8008f00:	462a      	mov	r2, r5
 8008f02:	f7ff ff18 	bl	8008d36 <strncmp>
 8008f06:	b398      	cbz	r0, 8008f70 <_strtod_l+0x1d8>
 8008f08:	2000      	movs	r0, #0
 8008f0a:	4633      	mov	r3, r6
 8008f0c:	463d      	mov	r5, r7
 8008f0e:	9007      	str	r0, [sp, #28]
 8008f10:	4602      	mov	r2, r0
 8008f12:	2b65      	cmp	r3, #101	; 0x65
 8008f14:	d001      	beq.n	8008f1a <_strtod_l+0x182>
 8008f16:	2b45      	cmp	r3, #69	; 0x45
 8008f18:	d118      	bne.n	8008f4c <_strtod_l+0x1b4>
 8008f1a:	b91d      	cbnz	r5, 8008f24 <_strtod_l+0x18c>
 8008f1c:	9b04      	ldr	r3, [sp, #16]
 8008f1e:	4303      	orrs	r3, r0
 8008f20:	d098      	beq.n	8008e54 <_strtod_l+0xbc>
 8008f22:	2500      	movs	r5, #0
 8008f24:	f8dd 8074 	ldr.w	r8, [sp, #116]	; 0x74
 8008f28:	f108 0301 	add.w	r3, r8, #1
 8008f2c:	931d      	str	r3, [sp, #116]	; 0x74
 8008f2e:	f898 3001 	ldrb.w	r3, [r8, #1]
 8008f32:	2b2b      	cmp	r3, #43	; 0x2b
 8008f34:	d075      	beq.n	8009022 <_strtod_l+0x28a>
 8008f36:	2b2d      	cmp	r3, #45	; 0x2d
 8008f38:	d07b      	beq.n	8009032 <_strtod_l+0x29a>
 8008f3a:	f04f 0c00 	mov.w	ip, #0
 8008f3e:	f1a3 0130 	sub.w	r1, r3, #48	; 0x30
 8008f42:	2909      	cmp	r1, #9
 8008f44:	f240 8082 	bls.w	800904c <_strtod_l+0x2b4>
 8008f48:	f8cd 8074 	str.w	r8, [sp, #116]	; 0x74
 8008f4c:	2600      	movs	r6, #0
 8008f4e:	e09d      	b.n	800908c <_strtod_l+0x2f4>
 8008f50:	2300      	movs	r3, #0
 8008f52:	e7c4      	b.n	8008ede <_strtod_l+0x146>
 8008f54:	2f08      	cmp	r7, #8
 8008f56:	bfd8      	it	le
 8008f58:	9909      	ldrle	r1, [sp, #36]	; 0x24
 8008f5a:	f100 0001 	add.w	r0, r0, #1
 8008f5e:	bfda      	itte	le
 8008f60:	fb02 3301 	mlale	r3, r2, r1, r3
 8008f64:	9309      	strle	r3, [sp, #36]	; 0x24
 8008f66:	fb02 3909 	mlagt	r9, r2, r9, r3
 8008f6a:	3701      	adds	r7, #1
 8008f6c:	901d      	str	r0, [sp, #116]	; 0x74
 8008f6e:	e7bf      	b.n	8008ef0 <_strtod_l+0x158>
 8008f70:	9b1d      	ldr	r3, [sp, #116]	; 0x74
 8008f72:	195a      	adds	r2, r3, r5
 8008f74:	921d      	str	r2, [sp, #116]	; 0x74
 8008f76:	5d5b      	ldrb	r3, [r3, r5]
 8008f78:	2f00      	cmp	r7, #0
 8008f7a:	d037      	beq.n	8008fec <_strtod_l+0x254>
 8008f7c:	9007      	str	r0, [sp, #28]
 8008f7e:	463d      	mov	r5, r7
 8008f80:	f1a3 0230 	sub.w	r2, r3, #48	; 0x30
 8008f84:	2a09      	cmp	r2, #9
 8008f86:	d912      	bls.n	8008fae <_strtod_l+0x216>
 8008f88:	2201      	movs	r2, #1
 8008f8a:	e7c2      	b.n	8008f12 <_strtod_l+0x17a>
 8008f8c:	9b1d      	ldr	r3, [sp, #116]	; 0x74
 8008f8e:	1c5a      	adds	r2, r3, #1
 8008f90:	921d      	str	r2, [sp, #116]	; 0x74
 8008f92:	785b      	ldrb	r3, [r3, #1]
 8008f94:	3001      	adds	r0, #1
 8008f96:	2b30      	cmp	r3, #48	; 0x30
 8008f98:	d0f8      	beq.n	8008f8c <_strtod_l+0x1f4>
 8008f9a:	f1a3 0231 	sub.w	r2, r3, #49	; 0x31
 8008f9e:	2a08      	cmp	r2, #8
 8008fa0:	f200 84db 	bhi.w	800995a <_strtod_l+0xbc2>
 8008fa4:	9a1d      	ldr	r2, [sp, #116]	; 0x74
 8008fa6:	9007      	str	r0, [sp, #28]
 8008fa8:	2000      	movs	r0, #0
 8008faa:	920a      	str	r2, [sp, #40]	; 0x28
 8008fac:	4605      	mov	r5, r0
 8008fae:	3b30      	subs	r3, #48	; 0x30
 8008fb0:	f100 0201 	add.w	r2, r0, #1
 8008fb4:	d014      	beq.n	8008fe0 <_strtod_l+0x248>
 8008fb6:	9907      	ldr	r1, [sp, #28]
 8008fb8:	4411      	add	r1, r2
 8008fba:	9107      	str	r1, [sp, #28]
 8008fbc:	462a      	mov	r2, r5
 8008fbe:	eb00 0e05 	add.w	lr, r0, r5
 8008fc2:	210a      	movs	r1, #10
 8008fc4:	4572      	cmp	r2, lr
 8008fc6:	d113      	bne.n	8008ff0 <_strtod_l+0x258>
 8008fc8:	182a      	adds	r2, r5, r0
 8008fca:	2a08      	cmp	r2, #8
 8008fcc:	f105 0501 	add.w	r5, r5, #1
 8008fd0:	4405      	add	r5, r0
 8008fd2:	dc1c      	bgt.n	800900e <_strtod_l+0x276>
 8008fd4:	9909      	ldr	r1, [sp, #36]	; 0x24
 8008fd6:	220a      	movs	r2, #10
 8008fd8:	fb02 3301 	mla	r3, r2, r1, r3
 8008fdc:	9309      	str	r3, [sp, #36]	; 0x24
 8008fde:	2200      	movs	r2, #0
 8008fe0:	9b1d      	ldr	r3, [sp, #116]	; 0x74
 8008fe2:	1c59      	adds	r1, r3, #1
 8008fe4:	911d      	str	r1, [sp, #116]	; 0x74
 8008fe6:	785b      	ldrb	r3, [r3, #1]
 8008fe8:	4610      	mov	r0, r2
 8008fea:	e7c9      	b.n	8008f80 <_strtod_l+0x1e8>
 8008fec:	4638      	mov	r0, r7
 8008fee:	e7d2      	b.n	8008f96 <_strtod_l+0x1fe>
 8008ff0:	2a08      	cmp	r2, #8
 8008ff2:	dc04      	bgt.n	8008ffe <_strtod_l+0x266>
 8008ff4:	9e09      	ldr	r6, [sp, #36]	; 0x24
 8008ff6:	434e      	muls	r6, r1
 8008ff8:	9609      	str	r6, [sp, #36]	; 0x24
 8008ffa:	3201      	adds	r2, #1
 8008ffc:	e7e2      	b.n	8008fc4 <_strtod_l+0x22c>
 8008ffe:	f102 0c01 	add.w	ip, r2, #1
 8009002:	f1bc 0f10 	cmp.w	ip, #16
 8009006:	bfd8      	it	le
 8009008:	fb01 f909 	mulle.w	r9, r1, r9
 800900c:	e7f5      	b.n	8008ffa <_strtod_l+0x262>
 800900e:	2d10      	cmp	r5, #16
 8009010:	bfdc      	itt	le
 8009012:	220a      	movle	r2, #10
 8009014:	fb02 3909 	mlale	r9, r2, r9, r3
 8009018:	e7e1      	b.n	8008fde <_strtod_l+0x246>
 800901a:	2300      	movs	r3, #0
 800901c:	9307      	str	r3, [sp, #28]
 800901e:	2201      	movs	r2, #1
 8009020:	e77c      	b.n	8008f1c <_strtod_l+0x184>
 8009022:	f04f 0c00 	mov.w	ip, #0
 8009026:	f108 0302 	add.w	r3, r8, #2
 800902a:	931d      	str	r3, [sp, #116]	; 0x74
 800902c:	f898 3002 	ldrb.w	r3, [r8, #2]
 8009030:	e785      	b.n	8008f3e <_strtod_l+0x1a6>
 8009032:	f04f 0c01 	mov.w	ip, #1
 8009036:	e7f6      	b.n	8009026 <_strtod_l+0x28e>
 8009038:	0800e488 	.word	0x0800e488
 800903c:	0800e334 	.word	0x0800e334
 8009040:	7ff00000 	.word	0x7ff00000
 8009044:	9b1d      	ldr	r3, [sp, #116]	; 0x74
 8009046:	1c59      	adds	r1, r3, #1
 8009048:	911d      	str	r1, [sp, #116]	; 0x74
 800904a:	785b      	ldrb	r3, [r3, #1]
 800904c:	2b30      	cmp	r3, #48	; 0x30
 800904e:	d0f9      	beq.n	8009044 <_strtod_l+0x2ac>
 8009050:	f1a3 0131 	sub.w	r1, r3, #49	; 0x31
 8009054:	2908      	cmp	r1, #8
 8009056:	f63f af79 	bhi.w	8008f4c <_strtod_l+0x1b4>
 800905a:	f1a3 0e30 	sub.w	lr, r3, #48	; 0x30
 800905e:	9b1d      	ldr	r3, [sp, #116]	; 0x74
 8009060:	9308      	str	r3, [sp, #32]
 8009062:	9b1d      	ldr	r3, [sp, #116]	; 0x74
 8009064:	1c59      	adds	r1, r3, #1
 8009066:	911d      	str	r1, [sp, #116]	; 0x74
 8009068:	785b      	ldrb	r3, [r3, #1]
 800906a:	f1a3 0630 	sub.w	r6, r3, #48	; 0x30
 800906e:	2e09      	cmp	r6, #9
 8009070:	d937      	bls.n	80090e2 <_strtod_l+0x34a>
 8009072:	9e08      	ldr	r6, [sp, #32]
 8009074:	1b89      	subs	r1, r1, r6
 8009076:	2908      	cmp	r1, #8
 8009078:	f644 661f 	movw	r6, #19999	; 0x4e1f
 800907c:	dc02      	bgt.n	8009084 <_strtod_l+0x2ec>
 800907e:	4576      	cmp	r6, lr
 8009080:	bfa8      	it	ge
 8009082:	4676      	movge	r6, lr
 8009084:	f1bc 0f00 	cmp.w	ip, #0
 8009088:	d000      	beq.n	800908c <_strtod_l+0x2f4>
 800908a:	4276      	negs	r6, r6
 800908c:	2d00      	cmp	r5, #0
 800908e:	d14f      	bne.n	8009130 <_strtod_l+0x398>
 8009090:	9904      	ldr	r1, [sp, #16]
 8009092:	4301      	orrs	r1, r0
 8009094:	f47f aec2 	bne.w	8008e1c <_strtod_l+0x84>
 8009098:	2a00      	cmp	r2, #0
 800909a:	f47f aedb 	bne.w	8008e54 <_strtod_l+0xbc>
 800909e:	2b69      	cmp	r3, #105	; 0x69
 80090a0:	d027      	beq.n	80090f2 <_strtod_l+0x35a>
 80090a2:	dc24      	bgt.n	80090ee <_strtod_l+0x356>
 80090a4:	2b49      	cmp	r3, #73	; 0x49
 80090a6:	d024      	beq.n	80090f2 <_strtod_l+0x35a>
 80090a8:	2b4e      	cmp	r3, #78	; 0x4e
 80090aa:	f47f aed3 	bne.w	8008e54 <_strtod_l+0xbc>
 80090ae:	499e      	ldr	r1, [pc, #632]	; (8009328 <_strtod_l+0x590>)
 80090b0:	a81d      	add	r0, sp, #116	; 0x74
 80090b2:	f001 fe61 	bl	800ad78 <__match>
 80090b6:	2800      	cmp	r0, #0
 80090b8:	f43f aecc 	beq.w	8008e54 <_strtod_l+0xbc>
 80090bc:	9b1d      	ldr	r3, [sp, #116]	; 0x74
 80090be:	781b      	ldrb	r3, [r3, #0]
 80090c0:	2b28      	cmp	r3, #40	; 0x28
 80090c2:	d12d      	bne.n	8009120 <_strtod_l+0x388>
 80090c4:	4999      	ldr	r1, [pc, #612]	; (800932c <_strtod_l+0x594>)
 80090c6:	aa20      	add	r2, sp, #128	; 0x80
 80090c8:	a81d      	add	r0, sp, #116	; 0x74
 80090ca:	f001 fe69 	bl	800ada0 <__hexnan>
 80090ce:	2805      	cmp	r0, #5
 80090d0:	d126      	bne.n	8009120 <_strtod_l+0x388>
 80090d2:	9b21      	ldr	r3, [sp, #132]	; 0x84
 80090d4:	f8dd a080 	ldr.w	sl, [sp, #128]	; 0x80
 80090d8:	f043 4bff 	orr.w	fp, r3, #2139095040	; 0x7f800000
 80090dc:	f44b 0be0 	orr.w	fp, fp, #7340032	; 0x700000
 80090e0:	e69c      	b.n	8008e1c <_strtod_l+0x84>
 80090e2:	210a      	movs	r1, #10
 80090e4:	fb01 3e0e 	mla	lr, r1, lr, r3
 80090e8:	f1ae 0e30 	sub.w	lr, lr, #48	; 0x30
 80090ec:	e7b9      	b.n	8009062 <_strtod_l+0x2ca>
 80090ee:	2b6e      	cmp	r3, #110	; 0x6e
 80090f0:	e7db      	b.n	80090aa <_strtod_l+0x312>
 80090f2:	498f      	ldr	r1, [pc, #572]	; (8009330 <_strtod_l+0x598>)
 80090f4:	a81d      	add	r0, sp, #116	; 0x74
 80090f6:	f001 fe3f 	bl	800ad78 <__match>
 80090fa:	2800      	cmp	r0, #0
 80090fc:	f43f aeaa 	beq.w	8008e54 <_strtod_l+0xbc>
 8009100:	9b1d      	ldr	r3, [sp, #116]	; 0x74
 8009102:	498c      	ldr	r1, [pc, #560]	; (8009334 <_strtod_l+0x59c>)
 8009104:	3b01      	subs	r3, #1
 8009106:	a81d      	add	r0, sp, #116	; 0x74
 8009108:	931d      	str	r3, [sp, #116]	; 0x74
 800910a:	f001 fe35 	bl	800ad78 <__match>
 800910e:	b910      	cbnz	r0, 8009116 <_strtod_l+0x37e>
 8009110:	9b1d      	ldr	r3, [sp, #116]	; 0x74
 8009112:	3301      	adds	r3, #1
 8009114:	931d      	str	r3, [sp, #116]	; 0x74
 8009116:	f8df b22c 	ldr.w	fp, [pc, #556]	; 8009344 <_strtod_l+0x5ac>
 800911a:	f04f 0a00 	mov.w	sl, #0
 800911e:	e67d      	b.n	8008e1c <_strtod_l+0x84>
 8009120:	4885      	ldr	r0, [pc, #532]	; (8009338 <_strtod_l+0x5a0>)
 8009122:	f003 f909 	bl	800c338 <nan>
 8009126:	ed8d 0b04 	vstr	d0, [sp, #16]
 800912a:	e9dd ab04 	ldrd	sl, fp, [sp, #16]
 800912e:	e675      	b.n	8008e1c <_strtod_l+0x84>
 8009130:	9b07      	ldr	r3, [sp, #28]
 8009132:	9809      	ldr	r0, [sp, #36]	; 0x24
 8009134:	1af3      	subs	r3, r6, r3
 8009136:	2f00      	cmp	r7, #0
 8009138:	bf08      	it	eq
 800913a:	462f      	moveq	r7, r5
 800913c:	2d10      	cmp	r5, #16
 800913e:	9308      	str	r3, [sp, #32]
 8009140:	46a8      	mov	r8, r5
 8009142:	bfa8      	it	ge
 8009144:	f04f 0810 	movge.w	r8, #16
 8009148:	f7f7 f9ec 	bl	8000524 <__aeabi_ui2d>
 800914c:	2d09      	cmp	r5, #9
 800914e:	4682      	mov	sl, r0
 8009150:	468b      	mov	fp, r1
 8009152:	dd13      	ble.n	800917c <_strtod_l+0x3e4>
 8009154:	4b79      	ldr	r3, [pc, #484]	; (800933c <_strtod_l+0x5a4>)
 8009156:	eb03 03c8 	add.w	r3, r3, r8, lsl #3
 800915a:	e953 2312 	ldrd	r2, r3, [r3, #-72]	; 0x48
 800915e:	f7f7 fa5b 	bl	8000618 <__aeabi_dmul>
 8009162:	4682      	mov	sl, r0
 8009164:	4648      	mov	r0, r9
 8009166:	468b      	mov	fp, r1
 8009168:	f7f7 f9dc 	bl	8000524 <__aeabi_ui2d>
 800916c:	4602      	mov	r2, r0
 800916e:	460b      	mov	r3, r1
 8009170:	4650      	mov	r0, sl
 8009172:	4659      	mov	r1, fp
 8009174:	f7f7 f89a 	bl	80002ac <__adddf3>
 8009178:	4682      	mov	sl, r0
 800917a:	468b      	mov	fp, r1
 800917c:	2d0f      	cmp	r5, #15
 800917e:	dc38      	bgt.n	80091f2 <_strtod_l+0x45a>
 8009180:	9b08      	ldr	r3, [sp, #32]
 8009182:	2b00      	cmp	r3, #0
 8009184:	f43f ae4a 	beq.w	8008e1c <_strtod_l+0x84>
 8009188:	dd24      	ble.n	80091d4 <_strtod_l+0x43c>
 800918a:	2b16      	cmp	r3, #22
 800918c:	dc0b      	bgt.n	80091a6 <_strtod_l+0x40e>
 800918e:	4d6b      	ldr	r5, [pc, #428]	; (800933c <_strtod_l+0x5a4>)
 8009190:	eb05 05c3 	add.w	r5, r5, r3, lsl #3
 8009194:	e9d5 0100 	ldrd	r0, r1, [r5]
 8009198:	4652      	mov	r2, sl
 800919a:	465b      	mov	r3, fp
 800919c:	f7f7 fa3c 	bl	8000618 <__aeabi_dmul>
 80091a0:	4682      	mov	sl, r0
 80091a2:	468b      	mov	fp, r1
 80091a4:	e63a      	b.n	8008e1c <_strtod_l+0x84>
 80091a6:	9a08      	ldr	r2, [sp, #32]
 80091a8:	f1c5 0325 	rsb	r3, r5, #37	; 0x25
 80091ac:	4293      	cmp	r3, r2
 80091ae:	db20      	blt.n	80091f2 <_strtod_l+0x45a>
 80091b0:	4c62      	ldr	r4, [pc, #392]	; (800933c <_strtod_l+0x5a4>)
 80091b2:	f1c5 050f 	rsb	r5, r5, #15
 80091b6:	eb04 01c5 	add.w	r1, r4, r5, lsl #3
 80091ba:	4652      	mov	r2, sl
 80091bc:	465b      	mov	r3, fp
 80091be:	e9d1 0100 	ldrd	r0, r1, [r1]
 80091c2:	f7f7 fa29 	bl	8000618 <__aeabi_dmul>
 80091c6:	9b08      	ldr	r3, [sp, #32]
 80091c8:	1b5d      	subs	r5, r3, r5
 80091ca:	eb04 04c5 	add.w	r4, r4, r5, lsl #3
 80091ce:	e9d4 2300 	ldrd	r2, r3, [r4]
 80091d2:	e7e3      	b.n	800919c <_strtod_l+0x404>
 80091d4:	9b08      	ldr	r3, [sp, #32]
 80091d6:	3316      	adds	r3, #22
 80091d8:	db0b      	blt.n	80091f2 <_strtod_l+0x45a>
 80091da:	9b07      	ldr	r3, [sp, #28]
 80091dc:	4a57      	ldr	r2, [pc, #348]	; (800933c <_strtod_l+0x5a4>)
 80091de:	1b9e      	subs	r6, r3, r6
 80091e0:	eb02 06c6 	add.w	r6, r2, r6, lsl #3
 80091e4:	e9d6 2300 	ldrd	r2, r3, [r6]
 80091e8:	4650      	mov	r0, sl
 80091ea:	4659      	mov	r1, fp
 80091ec:	f7f7 fb3e 	bl	800086c <__aeabi_ddiv>
 80091f0:	e7d6      	b.n	80091a0 <_strtod_l+0x408>
 80091f2:	9b08      	ldr	r3, [sp, #32]
 80091f4:	eba5 0808 	sub.w	r8, r5, r8
 80091f8:	4498      	add	r8, r3
 80091fa:	f1b8 0f00 	cmp.w	r8, #0
 80091fe:	dd71      	ble.n	80092e4 <_strtod_l+0x54c>
 8009200:	f018 030f 	ands.w	r3, r8, #15
 8009204:	d00a      	beq.n	800921c <_strtod_l+0x484>
 8009206:	494d      	ldr	r1, [pc, #308]	; (800933c <_strtod_l+0x5a4>)
 8009208:	eb01 01c3 	add.w	r1, r1, r3, lsl #3
 800920c:	4652      	mov	r2, sl
 800920e:	465b      	mov	r3, fp
 8009210:	e9d1 0100 	ldrd	r0, r1, [r1]
 8009214:	f7f7 fa00 	bl	8000618 <__aeabi_dmul>
 8009218:	4682      	mov	sl, r0
 800921a:	468b      	mov	fp, r1
 800921c:	f038 080f 	bics.w	r8, r8, #15
 8009220:	d04d      	beq.n	80092be <_strtod_l+0x526>
 8009222:	f5b8 7f9a 	cmp.w	r8, #308	; 0x134
 8009226:	dd22      	ble.n	800926e <_strtod_l+0x4d6>
 8009228:	2500      	movs	r5, #0
 800922a:	462e      	mov	r6, r5
 800922c:	9509      	str	r5, [sp, #36]	; 0x24
 800922e:	9507      	str	r5, [sp, #28]
 8009230:	2322      	movs	r3, #34	; 0x22
 8009232:	f8df b110 	ldr.w	fp, [pc, #272]	; 8009344 <_strtod_l+0x5ac>
 8009236:	6023      	str	r3, [r4, #0]
 8009238:	f04f 0a00 	mov.w	sl, #0
 800923c:	9b09      	ldr	r3, [sp, #36]	; 0x24
 800923e:	2b00      	cmp	r3, #0
 8009240:	f43f adec 	beq.w	8008e1c <_strtod_l+0x84>
 8009244:	991e      	ldr	r1, [sp, #120]	; 0x78
 8009246:	4620      	mov	r0, r4
 8009248:	f001 feb6 	bl	800afb8 <_Bfree>
 800924c:	9907      	ldr	r1, [sp, #28]
 800924e:	4620      	mov	r0, r4
 8009250:	f001 feb2 	bl	800afb8 <_Bfree>
 8009254:	4631      	mov	r1, r6
 8009256:	4620      	mov	r0, r4
 8009258:	f001 feae 	bl	800afb8 <_Bfree>
 800925c:	9909      	ldr	r1, [sp, #36]	; 0x24
 800925e:	4620      	mov	r0, r4
 8009260:	f001 feaa 	bl	800afb8 <_Bfree>
 8009264:	4629      	mov	r1, r5
 8009266:	4620      	mov	r0, r4
 8009268:	f001 fea6 	bl	800afb8 <_Bfree>
 800926c:	e5d6      	b.n	8008e1c <_strtod_l+0x84>
 800926e:	2300      	movs	r3, #0
 8009270:	ea4f 1828 	mov.w	r8, r8, asr #4
 8009274:	4650      	mov	r0, sl
 8009276:	4659      	mov	r1, fp
 8009278:	4699      	mov	r9, r3
 800927a:	f1b8 0f01 	cmp.w	r8, #1
 800927e:	dc21      	bgt.n	80092c4 <_strtod_l+0x52c>
 8009280:	b10b      	cbz	r3, 8009286 <_strtod_l+0x4ee>
 8009282:	4682      	mov	sl, r0
 8009284:	468b      	mov	fp, r1
 8009286:	4b2e      	ldr	r3, [pc, #184]	; (8009340 <_strtod_l+0x5a8>)
 8009288:	f1ab 7b54 	sub.w	fp, fp, #55574528	; 0x3500000
 800928c:	eb03 09c9 	add.w	r9, r3, r9, lsl #3
 8009290:	4652      	mov	r2, sl
 8009292:	465b      	mov	r3, fp
 8009294:	e9d9 0100 	ldrd	r0, r1, [r9]
 8009298:	f7f7 f9be 	bl	8000618 <__aeabi_dmul>
 800929c:	4b29      	ldr	r3, [pc, #164]	; (8009344 <_strtod_l+0x5ac>)
 800929e:	460a      	mov	r2, r1
 80092a0:	400b      	ands	r3, r1
 80092a2:	4929      	ldr	r1, [pc, #164]	; (8009348 <_strtod_l+0x5b0>)
 80092a4:	428b      	cmp	r3, r1
 80092a6:	4682      	mov	sl, r0
 80092a8:	d8be      	bhi.n	8009228 <_strtod_l+0x490>
 80092aa:	f5a1 1180 	sub.w	r1, r1, #1048576	; 0x100000
 80092ae:	428b      	cmp	r3, r1
 80092b0:	bf86      	itte	hi
 80092b2:	f8df b098 	ldrhi.w	fp, [pc, #152]	; 800934c <_strtod_l+0x5b4>
 80092b6:	f04f 3aff 	movhi.w	sl, #4294967295
 80092ba:	f102 7b54 	addls.w	fp, r2, #55574528	; 0x3500000
 80092be:	2300      	movs	r3, #0
 80092c0:	9304      	str	r3, [sp, #16]
 80092c2:	e081      	b.n	80093c8 <_strtod_l+0x630>
 80092c4:	f018 0f01 	tst.w	r8, #1
 80092c8:	d007      	beq.n	80092da <_strtod_l+0x542>
 80092ca:	4b1d      	ldr	r3, [pc, #116]	; (8009340 <_strtod_l+0x5a8>)
 80092cc:	eb03 03c9 	add.w	r3, r3, r9, lsl #3
 80092d0:	e9d3 2300 	ldrd	r2, r3, [r3]
 80092d4:	f7f7 f9a0 	bl	8000618 <__aeabi_dmul>
 80092d8:	2301      	movs	r3, #1
 80092da:	f109 0901 	add.w	r9, r9, #1
 80092de:	ea4f 0868 	mov.w	r8, r8, asr #1
 80092e2:	e7ca      	b.n	800927a <_strtod_l+0x4e2>
 80092e4:	d0eb      	beq.n	80092be <_strtod_l+0x526>
 80092e6:	f1c8 0800 	rsb	r8, r8, #0
 80092ea:	f018 020f 	ands.w	r2, r8, #15
 80092ee:	d00a      	beq.n	8009306 <_strtod_l+0x56e>
 80092f0:	4b12      	ldr	r3, [pc, #72]	; (800933c <_strtod_l+0x5a4>)
 80092f2:	eb03 03c2 	add.w	r3, r3, r2, lsl #3
 80092f6:	4650      	mov	r0, sl
 80092f8:	4659      	mov	r1, fp
 80092fa:	e9d3 2300 	ldrd	r2, r3, [r3]
 80092fe:	f7f7 fab5 	bl	800086c <__aeabi_ddiv>
 8009302:	4682      	mov	sl, r0
 8009304:	468b      	mov	fp, r1
 8009306:	ea5f 1828 	movs.w	r8, r8, asr #4
 800930a:	d0d8      	beq.n	80092be <_strtod_l+0x526>
 800930c:	f1b8 0f1f 	cmp.w	r8, #31
 8009310:	dd1e      	ble.n	8009350 <_strtod_l+0x5b8>
 8009312:	2500      	movs	r5, #0
 8009314:	462e      	mov	r6, r5
 8009316:	9509      	str	r5, [sp, #36]	; 0x24
 8009318:	9507      	str	r5, [sp, #28]
 800931a:	2322      	movs	r3, #34	; 0x22
 800931c:	f04f 0a00 	mov.w	sl, #0
 8009320:	f04f 0b00 	mov.w	fp, #0
 8009324:	6023      	str	r3, [r4, #0]
 8009326:	e789      	b.n	800923c <_strtod_l+0x4a4>
 8009328:	0800e309 	.word	0x0800e309
 800932c:	0800e348 	.word	0x0800e348
 8009330:	0800e301 	.word	0x0800e301
 8009334:	0800e38b 	.word	0x0800e38b
 8009338:	0800dbdc 	.word	0x0800dbdc
 800933c:	0800e528 	.word	0x0800e528
 8009340:	0800e500 	.word	0x0800e500
 8009344:	7ff00000 	.word	0x7ff00000
 8009348:	7ca00000 	.word	0x7ca00000
 800934c:	7fefffff 	.word	0x7fefffff
 8009350:	f018 0310 	ands.w	r3, r8, #16
 8009354:	bf18      	it	ne
 8009356:	236a      	movne	r3, #106	; 0x6a
 8009358:	f8df 93b4 	ldr.w	r9, [pc, #948]	; 8009710 <_strtod_l+0x978>
 800935c:	9304      	str	r3, [sp, #16]
 800935e:	4650      	mov	r0, sl
 8009360:	4659      	mov	r1, fp
 8009362:	2300      	movs	r3, #0
 8009364:	f018 0f01 	tst.w	r8, #1
 8009368:	d004      	beq.n	8009374 <_strtod_l+0x5dc>
 800936a:	e9d9 2300 	ldrd	r2, r3, [r9]
 800936e:	f7f7 f953 	bl	8000618 <__aeabi_dmul>
 8009372:	2301      	movs	r3, #1
 8009374:	ea5f 0868 	movs.w	r8, r8, asr #1
 8009378:	f109 0908 	add.w	r9, r9, #8
 800937c:	d1f2      	bne.n	8009364 <_strtod_l+0x5cc>
 800937e:	b10b      	cbz	r3, 8009384 <_strtod_l+0x5ec>
 8009380:	4682      	mov	sl, r0
 8009382:	468b      	mov	fp, r1
 8009384:	9b04      	ldr	r3, [sp, #16]
 8009386:	b1bb      	cbz	r3, 80093b8 <_strtod_l+0x620>
 8009388:	f3cb 530a 	ubfx	r3, fp, #20, #11
 800938c:	f1c3 036b 	rsb	r3, r3, #107	; 0x6b
 8009390:	2b00      	cmp	r3, #0
 8009392:	4659      	mov	r1, fp
 8009394:	dd10      	ble.n	80093b8 <_strtod_l+0x620>
 8009396:	2b1f      	cmp	r3, #31
 8009398:	f340 8128 	ble.w	80095ec <_strtod_l+0x854>
 800939c:	2b34      	cmp	r3, #52	; 0x34
 800939e:	bfde      	ittt	le
 80093a0:	3b20      	suble	r3, #32
 80093a2:	f04f 32ff 	movle.w	r2, #4294967295
 80093a6:	fa02 f303 	lslle.w	r3, r2, r3
 80093aa:	f04f 0a00 	mov.w	sl, #0
 80093ae:	bfcc      	ite	gt
 80093b0:	f04f 7b5c 	movgt.w	fp, #57671680	; 0x3700000
 80093b4:	ea03 0b01 	andle.w	fp, r3, r1
 80093b8:	2200      	movs	r2, #0
 80093ba:	2300      	movs	r3, #0
 80093bc:	4650      	mov	r0, sl
 80093be:	4659      	mov	r1, fp
 80093c0:	f7f7 fb92 	bl	8000ae8 <__aeabi_dcmpeq>
 80093c4:	2800      	cmp	r0, #0
 80093c6:	d1a4      	bne.n	8009312 <_strtod_l+0x57a>
 80093c8:	9b09      	ldr	r3, [sp, #36]	; 0x24
 80093ca:	9300      	str	r3, [sp, #0]
 80093cc:	990a      	ldr	r1, [sp, #40]	; 0x28
 80093ce:	462b      	mov	r3, r5
 80093d0:	463a      	mov	r2, r7
 80093d2:	4620      	mov	r0, r4
 80093d4:	f001 fe5c 	bl	800b090 <__s2b>
 80093d8:	9009      	str	r0, [sp, #36]	; 0x24
 80093da:	2800      	cmp	r0, #0
 80093dc:	f43f af24 	beq.w	8009228 <_strtod_l+0x490>
 80093e0:	9b07      	ldr	r3, [sp, #28]
 80093e2:	1b9e      	subs	r6, r3, r6
 80093e4:	9b08      	ldr	r3, [sp, #32]
 80093e6:	2b00      	cmp	r3, #0
 80093e8:	bfb4      	ite	lt
 80093ea:	4633      	movlt	r3, r6
 80093ec:	2300      	movge	r3, #0
 80093ee:	9310      	str	r3, [sp, #64]	; 0x40
 80093f0:	9b08      	ldr	r3, [sp, #32]
 80093f2:	2500      	movs	r5, #0
 80093f4:	ea23 73e3 	bic.w	r3, r3, r3, asr #31
 80093f8:	9318      	str	r3, [sp, #96]	; 0x60
 80093fa:	462e      	mov	r6, r5
 80093fc:	9b09      	ldr	r3, [sp, #36]	; 0x24
 80093fe:	4620      	mov	r0, r4
 8009400:	6859      	ldr	r1, [r3, #4]
 8009402:	f001 fd99 	bl	800af38 <_Balloc>
 8009406:	9007      	str	r0, [sp, #28]
 8009408:	2800      	cmp	r0, #0
 800940a:	f43f af11 	beq.w	8009230 <_strtod_l+0x498>
 800940e:	9b09      	ldr	r3, [sp, #36]	; 0x24
 8009410:	691a      	ldr	r2, [r3, #16]
 8009412:	3202      	adds	r2, #2
 8009414:	f103 010c 	add.w	r1, r3, #12
 8009418:	0092      	lsls	r2, r2, #2
 800941a:	300c      	adds	r0, #12
 800941c:	f7fe fd5c 	bl	8007ed8 <memcpy>
 8009420:	ec4b ab10 	vmov	d0, sl, fp
 8009424:	aa20      	add	r2, sp, #128	; 0x80
 8009426:	a91f      	add	r1, sp, #124	; 0x7c
 8009428:	4620      	mov	r0, r4
 800942a:	e9cd ab0a 	strd	sl, fp, [sp, #40]	; 0x28
 800942e:	f002 f96b 	bl	800b708 <__d2b>
 8009432:	901e      	str	r0, [sp, #120]	; 0x78
 8009434:	2800      	cmp	r0, #0
 8009436:	f43f aefb 	beq.w	8009230 <_strtod_l+0x498>
 800943a:	2101      	movs	r1, #1
 800943c:	4620      	mov	r0, r4
 800943e:	f001 fec1 	bl	800b1c4 <__i2b>
 8009442:	4606      	mov	r6, r0
 8009444:	2800      	cmp	r0, #0
 8009446:	f43f aef3 	beq.w	8009230 <_strtod_l+0x498>
 800944a:	9b1f      	ldr	r3, [sp, #124]	; 0x7c
 800944c:	9904      	ldr	r1, [sp, #16]
 800944e:	2b00      	cmp	r3, #0
 8009450:	bfab      	itete	ge
 8009452:	9a10      	ldrge	r2, [sp, #64]	; 0x40
 8009454:	9a18      	ldrlt	r2, [sp, #96]	; 0x60
 8009456:	9f18      	ldrge	r7, [sp, #96]	; 0x60
 8009458:	f8dd 9040 	ldrlt.w	r9, [sp, #64]	; 0x40
 800945c:	bfac      	ite	ge
 800945e:	eb03 0902 	addge.w	r9, r3, r2
 8009462:	1ad7      	sublt	r7, r2, r3
 8009464:	9a20      	ldr	r2, [sp, #128]	; 0x80
 8009466:	eba3 0801 	sub.w	r8, r3, r1
 800946a:	4490      	add	r8, r2
 800946c:	4ba3      	ldr	r3, [pc, #652]	; (80096fc <_strtod_l+0x964>)
 800946e:	f108 38ff 	add.w	r8, r8, #4294967295
 8009472:	4598      	cmp	r8, r3
 8009474:	f1c2 0236 	rsb	r2, r2, #54	; 0x36
 8009478:	f280 80cc 	bge.w	8009614 <_strtod_l+0x87c>
 800947c:	eba3 0308 	sub.w	r3, r3, r8
 8009480:	2b1f      	cmp	r3, #31
 8009482:	eba2 0203 	sub.w	r2, r2, r3
 8009486:	f04f 0101 	mov.w	r1, #1
 800948a:	f300 80b6 	bgt.w	80095fa <_strtod_l+0x862>
 800948e:	fa01 f303 	lsl.w	r3, r1, r3
 8009492:	9311      	str	r3, [sp, #68]	; 0x44
 8009494:	2300      	movs	r3, #0
 8009496:	930c      	str	r3, [sp, #48]	; 0x30
 8009498:	eb09 0802 	add.w	r8, r9, r2
 800949c:	9b04      	ldr	r3, [sp, #16]
 800949e:	45c1      	cmp	r9, r8
 80094a0:	4417      	add	r7, r2
 80094a2:	441f      	add	r7, r3
 80094a4:	464b      	mov	r3, r9
 80094a6:	bfa8      	it	ge
 80094a8:	4643      	movge	r3, r8
 80094aa:	42bb      	cmp	r3, r7
 80094ac:	bfa8      	it	ge
 80094ae:	463b      	movge	r3, r7
 80094b0:	2b00      	cmp	r3, #0
 80094b2:	bfc2      	ittt	gt
 80094b4:	eba8 0803 	subgt.w	r8, r8, r3
 80094b8:	1aff      	subgt	r7, r7, r3
 80094ba:	eba9 0903 	subgt.w	r9, r9, r3
 80094be:	9b10      	ldr	r3, [sp, #64]	; 0x40
 80094c0:	2b00      	cmp	r3, #0
 80094c2:	dd17      	ble.n	80094f4 <_strtod_l+0x75c>
 80094c4:	4631      	mov	r1, r6
 80094c6:	461a      	mov	r2, r3
 80094c8:	4620      	mov	r0, r4
 80094ca:	f001 ff37 	bl	800b33c <__pow5mult>
 80094ce:	4606      	mov	r6, r0
 80094d0:	2800      	cmp	r0, #0
 80094d2:	f43f aead 	beq.w	8009230 <_strtod_l+0x498>
 80094d6:	4601      	mov	r1, r0
 80094d8:	9a1e      	ldr	r2, [sp, #120]	; 0x78
 80094da:	4620      	mov	r0, r4
 80094dc:	f001 fe88 	bl	800b1f0 <__multiply>
 80094e0:	900f      	str	r0, [sp, #60]	; 0x3c
 80094e2:	2800      	cmp	r0, #0
 80094e4:	f43f aea4 	beq.w	8009230 <_strtod_l+0x498>
 80094e8:	991e      	ldr	r1, [sp, #120]	; 0x78
 80094ea:	4620      	mov	r0, r4
 80094ec:	f001 fd64 	bl	800afb8 <_Bfree>
 80094f0:	9b0f      	ldr	r3, [sp, #60]	; 0x3c
 80094f2:	931e      	str	r3, [sp, #120]	; 0x78
 80094f4:	f1b8 0f00 	cmp.w	r8, #0
 80094f8:	f300 8091 	bgt.w	800961e <_strtod_l+0x886>
 80094fc:	9b08      	ldr	r3, [sp, #32]
 80094fe:	2b00      	cmp	r3, #0
 8009500:	dd08      	ble.n	8009514 <_strtod_l+0x77c>
 8009502:	9a18      	ldr	r2, [sp, #96]	; 0x60
 8009504:	9907      	ldr	r1, [sp, #28]
 8009506:	4620      	mov	r0, r4
 8009508:	f001 ff18 	bl	800b33c <__pow5mult>
 800950c:	9007      	str	r0, [sp, #28]
 800950e:	2800      	cmp	r0, #0
 8009510:	f43f ae8e 	beq.w	8009230 <_strtod_l+0x498>
 8009514:	2f00      	cmp	r7, #0
 8009516:	dd08      	ble.n	800952a <_strtod_l+0x792>
 8009518:	9907      	ldr	r1, [sp, #28]
 800951a:	463a      	mov	r2, r7
 800951c:	4620      	mov	r0, r4
 800951e:	f001 ff67 	bl	800b3f0 <__lshift>
 8009522:	9007      	str	r0, [sp, #28]
 8009524:	2800      	cmp	r0, #0
 8009526:	f43f ae83 	beq.w	8009230 <_strtod_l+0x498>
 800952a:	f1b9 0f00 	cmp.w	r9, #0
 800952e:	dd08      	ble.n	8009542 <_strtod_l+0x7aa>
 8009530:	4631      	mov	r1, r6
 8009532:	464a      	mov	r2, r9
 8009534:	4620      	mov	r0, r4
 8009536:	f001 ff5b 	bl	800b3f0 <__lshift>
 800953a:	4606      	mov	r6, r0
 800953c:	2800      	cmp	r0, #0
 800953e:	f43f ae77 	beq.w	8009230 <_strtod_l+0x498>
 8009542:	9a07      	ldr	r2, [sp, #28]
 8009544:	991e      	ldr	r1, [sp, #120]	; 0x78
 8009546:	4620      	mov	r0, r4
 8009548:	f001 ffda 	bl	800b500 <__mdiff>
 800954c:	4605      	mov	r5, r0
 800954e:	2800      	cmp	r0, #0
 8009550:	f43f ae6e 	beq.w	8009230 <_strtod_l+0x498>
 8009554:	68c3      	ldr	r3, [r0, #12]
 8009556:	930f      	str	r3, [sp, #60]	; 0x3c
 8009558:	2300      	movs	r3, #0
 800955a:	60c3      	str	r3, [r0, #12]
 800955c:	4631      	mov	r1, r6
 800955e:	f001 ffb3 	bl	800b4c8 <__mcmp>
 8009562:	2800      	cmp	r0, #0
 8009564:	da65      	bge.n	8009632 <_strtod_l+0x89a>
 8009566:	9b0f      	ldr	r3, [sp, #60]	; 0x3c
 8009568:	ea53 030a 	orrs.w	r3, r3, sl
 800956c:	f040 8087 	bne.w	800967e <_strtod_l+0x8e6>
 8009570:	f3cb 0313 	ubfx	r3, fp, #0, #20
 8009574:	2b00      	cmp	r3, #0
 8009576:	f040 8082 	bne.w	800967e <_strtod_l+0x8e6>
 800957a:	f02b 4300 	bic.w	r3, fp, #2147483648	; 0x80000000
 800957e:	0d1b      	lsrs	r3, r3, #20
 8009580:	051b      	lsls	r3, r3, #20
 8009582:	f1b3 6fd6 	cmp.w	r3, #112197632	; 0x6b00000
 8009586:	d97a      	bls.n	800967e <_strtod_l+0x8e6>
 8009588:	696b      	ldr	r3, [r5, #20]
 800958a:	b913      	cbnz	r3, 8009592 <_strtod_l+0x7fa>
 800958c:	692b      	ldr	r3, [r5, #16]
 800958e:	2b01      	cmp	r3, #1
 8009590:	dd75      	ble.n	800967e <_strtod_l+0x8e6>
 8009592:	4629      	mov	r1, r5
 8009594:	2201      	movs	r2, #1
 8009596:	4620      	mov	r0, r4
 8009598:	f001 ff2a 	bl	800b3f0 <__lshift>
 800959c:	4631      	mov	r1, r6
 800959e:	4605      	mov	r5, r0
 80095a0:	f001 ff92 	bl	800b4c8 <__mcmp>
 80095a4:	2800      	cmp	r0, #0
 80095a6:	dd6a      	ble.n	800967e <_strtod_l+0x8e6>
 80095a8:	9904      	ldr	r1, [sp, #16]
 80095aa:	4a55      	ldr	r2, [pc, #340]	; (8009700 <_strtod_l+0x968>)
 80095ac:	465b      	mov	r3, fp
 80095ae:	2900      	cmp	r1, #0
 80095b0:	f000 8085 	beq.w	80096be <_strtod_l+0x926>
 80095b4:	ea02 010b 	and.w	r1, r2, fp
 80095b8:	f1b1 6fd6 	cmp.w	r1, #112197632	; 0x6b00000
 80095bc:	dc7f      	bgt.n	80096be <_strtod_l+0x926>
 80095be:	f1b1 7f5c 	cmp.w	r1, #57671680	; 0x3700000
 80095c2:	f77f aeaa 	ble.w	800931a <_strtod_l+0x582>
 80095c6:	4a4f      	ldr	r2, [pc, #316]	; (8009704 <_strtod_l+0x96c>)
 80095c8:	2300      	movs	r3, #0
 80095ca:	e9cd 3216 	strd	r3, r2, [sp, #88]	; 0x58
 80095ce:	4650      	mov	r0, sl
 80095d0:	e9dd 2316 	ldrd	r2, r3, [sp, #88]	; 0x58
 80095d4:	4659      	mov	r1, fp
 80095d6:	f7f7 f81f 	bl	8000618 <__aeabi_dmul>
 80095da:	460b      	mov	r3, r1
 80095dc:	4303      	orrs	r3, r0
 80095de:	bf08      	it	eq
 80095e0:	2322      	moveq	r3, #34	; 0x22
 80095e2:	4682      	mov	sl, r0
 80095e4:	468b      	mov	fp, r1
 80095e6:	bf08      	it	eq
 80095e8:	6023      	streq	r3, [r4, #0]
 80095ea:	e62b      	b.n	8009244 <_strtod_l+0x4ac>
 80095ec:	f04f 32ff 	mov.w	r2, #4294967295
 80095f0:	fa02 f303 	lsl.w	r3, r2, r3
 80095f4:	ea03 0a0a 	and.w	sl, r3, sl
 80095f8:	e6de      	b.n	80093b8 <_strtod_l+0x620>
 80095fa:	f1c8 487f 	rsb	r8, r8, #4278190080	; 0xff000000
 80095fe:	f508 087f 	add.w	r8, r8, #16711680	; 0xff0000
 8009602:	f508 487b 	add.w	r8, r8, #64256	; 0xfb00
 8009606:	f108 08e2 	add.w	r8, r8, #226	; 0xe2
 800960a:	fa01 f308 	lsl.w	r3, r1, r8
 800960e:	930c      	str	r3, [sp, #48]	; 0x30
 8009610:	9111      	str	r1, [sp, #68]	; 0x44
 8009612:	e741      	b.n	8009498 <_strtod_l+0x700>
 8009614:	2300      	movs	r3, #0
 8009616:	930c      	str	r3, [sp, #48]	; 0x30
 8009618:	2301      	movs	r3, #1
 800961a:	9311      	str	r3, [sp, #68]	; 0x44
 800961c:	e73c      	b.n	8009498 <_strtod_l+0x700>
 800961e:	991e      	ldr	r1, [sp, #120]	; 0x78
 8009620:	4642      	mov	r2, r8
 8009622:	4620      	mov	r0, r4
 8009624:	f001 fee4 	bl	800b3f0 <__lshift>
 8009628:	901e      	str	r0, [sp, #120]	; 0x78
 800962a:	2800      	cmp	r0, #0
 800962c:	f47f af66 	bne.w	80094fc <_strtod_l+0x764>
 8009630:	e5fe      	b.n	8009230 <_strtod_l+0x498>
 8009632:	465f      	mov	r7, fp
 8009634:	d16e      	bne.n	8009714 <_strtod_l+0x97c>
 8009636:	9a0f      	ldr	r2, [sp, #60]	; 0x3c
 8009638:	f3cb 0313 	ubfx	r3, fp, #0, #20
 800963c:	b342      	cbz	r2, 8009690 <_strtod_l+0x8f8>
 800963e:	4a32      	ldr	r2, [pc, #200]	; (8009708 <_strtod_l+0x970>)
 8009640:	4293      	cmp	r3, r2
 8009642:	d128      	bne.n	8009696 <_strtod_l+0x8fe>
 8009644:	9b04      	ldr	r3, [sp, #16]
 8009646:	4650      	mov	r0, sl
 8009648:	b1eb      	cbz	r3, 8009686 <_strtod_l+0x8ee>
 800964a:	4a2d      	ldr	r2, [pc, #180]	; (8009700 <_strtod_l+0x968>)
 800964c:	403a      	ands	r2, r7
 800964e:	f1b2 6fd4 	cmp.w	r2, #111149056	; 0x6a00000
 8009652:	f04f 31ff 	mov.w	r1, #4294967295
 8009656:	d819      	bhi.n	800968c <_strtod_l+0x8f4>
 8009658:	0d12      	lsrs	r2, r2, #20
 800965a:	f1c2 036b 	rsb	r3, r2, #107	; 0x6b
 800965e:	fa01 f303 	lsl.w	r3, r1, r3
 8009662:	4298      	cmp	r0, r3
 8009664:	d117      	bne.n	8009696 <_strtod_l+0x8fe>
 8009666:	4b29      	ldr	r3, [pc, #164]	; (800970c <_strtod_l+0x974>)
 8009668:	429f      	cmp	r7, r3
 800966a:	d102      	bne.n	8009672 <_strtod_l+0x8da>
 800966c:	3001      	adds	r0, #1
 800966e:	f43f addf 	beq.w	8009230 <_strtod_l+0x498>
 8009672:	4b23      	ldr	r3, [pc, #140]	; (8009700 <_strtod_l+0x968>)
 8009674:	403b      	ands	r3, r7
 8009676:	f503 1b80 	add.w	fp, r3, #1048576	; 0x100000
 800967a:	f04f 0a00 	mov.w	sl, #0
 800967e:	9b04      	ldr	r3, [sp, #16]
 8009680:	2b00      	cmp	r3, #0
 8009682:	d1a0      	bne.n	80095c6 <_strtod_l+0x82e>
 8009684:	e5de      	b.n	8009244 <_strtod_l+0x4ac>
 8009686:	f04f 33ff 	mov.w	r3, #4294967295
 800968a:	e7ea      	b.n	8009662 <_strtod_l+0x8ca>
 800968c:	460b      	mov	r3, r1
 800968e:	e7e8      	b.n	8009662 <_strtod_l+0x8ca>
 8009690:	ea53 030a 	orrs.w	r3, r3, sl
 8009694:	d088      	beq.n	80095a8 <_strtod_l+0x810>
 8009696:	9b0c      	ldr	r3, [sp, #48]	; 0x30
 8009698:	b1db      	cbz	r3, 80096d2 <_strtod_l+0x93a>
 800969a:	423b      	tst	r3, r7
 800969c:	d0ef      	beq.n	800967e <_strtod_l+0x8e6>
 800969e:	9b0f      	ldr	r3, [sp, #60]	; 0x3c
 80096a0:	9a04      	ldr	r2, [sp, #16]
 80096a2:	4650      	mov	r0, sl
 80096a4:	4659      	mov	r1, fp
 80096a6:	b1c3      	cbz	r3, 80096da <_strtod_l+0x942>
 80096a8:	f7ff fb57 	bl	8008d5a <sulp>
 80096ac:	4602      	mov	r2, r0
 80096ae:	460b      	mov	r3, r1
 80096b0:	e9dd 010a 	ldrd	r0, r1, [sp, #40]	; 0x28
 80096b4:	f7f6 fdfa 	bl	80002ac <__adddf3>
 80096b8:	4682      	mov	sl, r0
 80096ba:	468b      	mov	fp, r1
 80096bc:	e7df      	b.n	800967e <_strtod_l+0x8e6>
 80096be:	4013      	ands	r3, r2
 80096c0:	f5a3 1380 	sub.w	r3, r3, #1048576	; 0x100000
 80096c4:	ea6f 5b13 	mvn.w	fp, r3, lsr #20
 80096c8:	ea6f 5b0b 	mvn.w	fp, fp, lsl #20
 80096cc:	f04f 3aff 	mov.w	sl, #4294967295
 80096d0:	e7d5      	b.n	800967e <_strtod_l+0x8e6>
 80096d2:	9b11      	ldr	r3, [sp, #68]	; 0x44
 80096d4:	ea13 0f0a 	tst.w	r3, sl
 80096d8:	e7e0      	b.n	800969c <_strtod_l+0x904>
 80096da:	f7ff fb3e 	bl	8008d5a <sulp>
 80096de:	4602      	mov	r2, r0
 80096e0:	460b      	mov	r3, r1
 80096e2:	e9dd 010a 	ldrd	r0, r1, [sp, #40]	; 0x28
 80096e6:	f7f6 fddf 	bl	80002a8 <__aeabi_dsub>
 80096ea:	2200      	movs	r2, #0
 80096ec:	2300      	movs	r3, #0
 80096ee:	4682      	mov	sl, r0
 80096f0:	468b      	mov	fp, r1
 80096f2:	f7f7 f9f9 	bl	8000ae8 <__aeabi_dcmpeq>
 80096f6:	2800      	cmp	r0, #0
 80096f8:	d0c1      	beq.n	800967e <_strtod_l+0x8e6>
 80096fa:	e60e      	b.n	800931a <_strtod_l+0x582>
 80096fc:	fffffc02 	.word	0xfffffc02
 8009700:	7ff00000 	.word	0x7ff00000
 8009704:	39500000 	.word	0x39500000
 8009708:	000fffff 	.word	0x000fffff
 800970c:	7fefffff 	.word	0x7fefffff
 8009710:	0800e360 	.word	0x0800e360
 8009714:	4631      	mov	r1, r6
 8009716:	4628      	mov	r0, r5
 8009718:	f002 f852 	bl	800b7c0 <__ratio>
 800971c:	ec59 8b10 	vmov	r8, r9, d0
 8009720:	ee10 0a10 	vmov	r0, s0
 8009724:	2200      	movs	r2, #0
 8009726:	f04f 4380 	mov.w	r3, #1073741824	; 0x40000000
 800972a:	4649      	mov	r1, r9
 800972c:	f7f7 f9f0 	bl	8000b10 <__aeabi_dcmple>
 8009730:	2800      	cmp	r0, #0
 8009732:	d07c      	beq.n	800982e <_strtod_l+0xa96>
 8009734:	9b0f      	ldr	r3, [sp, #60]	; 0x3c
 8009736:	2b00      	cmp	r3, #0
 8009738:	d04c      	beq.n	80097d4 <_strtod_l+0xa3c>
 800973a:	4b95      	ldr	r3, [pc, #596]	; (8009990 <_strtod_l+0xbf8>)
 800973c:	2200      	movs	r2, #0
 800973e:	e9cd 230c 	strd	r2, r3, [sp, #48]	; 0x30
 8009742:	f8df 924c 	ldr.w	r9, [pc, #588]	; 8009990 <_strtod_l+0xbf8>
 8009746:	f04f 0800 	mov.w	r8, #0
 800974a:	4b92      	ldr	r3, [pc, #584]	; (8009994 <_strtod_l+0xbfc>)
 800974c:	403b      	ands	r3, r7
 800974e:	9311      	str	r3, [sp, #68]	; 0x44
 8009750:	9a11      	ldr	r2, [sp, #68]	; 0x44
 8009752:	4b91      	ldr	r3, [pc, #580]	; (8009998 <_strtod_l+0xc00>)
 8009754:	429a      	cmp	r2, r3
 8009756:	f040 80b2 	bne.w	80098be <_strtod_l+0xb26>
 800975a:	e9dd 230a 	ldrd	r2, r3, [sp, #40]	; 0x28
 800975e:	e9dd 010c 	ldrd	r0, r1, [sp, #48]	; 0x30
 8009762:	f1a7 7b54 	sub.w	fp, r7, #55574528	; 0x3500000
 8009766:	ec4b ab10 	vmov	d0, sl, fp
 800976a:	e9cd 2316 	strd	r2, r3, [sp, #88]	; 0x58
 800976e:	e9cd 010c 	strd	r0, r1, [sp, #48]	; 0x30
 8009772:	f001 ff4d 	bl	800b610 <__ulp>
 8009776:	e9dd 010c 	ldrd	r0, r1, [sp, #48]	; 0x30
 800977a:	ec53 2b10 	vmov	r2, r3, d0
 800977e:	f7f6 ff4b 	bl	8000618 <__aeabi_dmul>
 8009782:	4652      	mov	r2, sl
 8009784:	465b      	mov	r3, fp
 8009786:	f7f6 fd91 	bl	80002ac <__adddf3>
 800978a:	460b      	mov	r3, r1
 800978c:	4981      	ldr	r1, [pc, #516]	; (8009994 <_strtod_l+0xbfc>)
 800978e:	4a83      	ldr	r2, [pc, #524]	; (800999c <_strtod_l+0xc04>)
 8009790:	4019      	ands	r1, r3
 8009792:	4291      	cmp	r1, r2
 8009794:	4682      	mov	sl, r0
 8009796:	d95e      	bls.n	8009856 <_strtod_l+0xabe>
 8009798:	9b0b      	ldr	r3, [sp, #44]	; 0x2c
 800979a:	f102 7254 	add.w	r2, r2, #55574528	; 0x3500000
 800979e:	4293      	cmp	r3, r2
 80097a0:	d103      	bne.n	80097aa <_strtod_l+0xa12>
 80097a2:	9b0a      	ldr	r3, [sp, #40]	; 0x28
 80097a4:	3301      	adds	r3, #1
 80097a6:	f43f ad43 	beq.w	8009230 <_strtod_l+0x498>
 80097aa:	f8df b1fc 	ldr.w	fp, [pc, #508]	; 80099a8 <_strtod_l+0xc10>
 80097ae:	f04f 3aff 	mov.w	sl, #4294967295
 80097b2:	991e      	ldr	r1, [sp, #120]	; 0x78
 80097b4:	4620      	mov	r0, r4
 80097b6:	f001 fbff 	bl	800afb8 <_Bfree>
 80097ba:	9907      	ldr	r1, [sp, #28]
 80097bc:	4620      	mov	r0, r4
 80097be:	f001 fbfb 	bl	800afb8 <_Bfree>
 80097c2:	4631      	mov	r1, r6
 80097c4:	4620      	mov	r0, r4
 80097c6:	f001 fbf7 	bl	800afb8 <_Bfree>
 80097ca:	4629      	mov	r1, r5
 80097cc:	4620      	mov	r0, r4
 80097ce:	f001 fbf3 	bl	800afb8 <_Bfree>
 80097d2:	e613      	b.n	80093fc <_strtod_l+0x664>
 80097d4:	f1ba 0f00 	cmp.w	sl, #0
 80097d8:	d11b      	bne.n	8009812 <_strtod_l+0xa7a>
 80097da:	f3cb 0313 	ubfx	r3, fp, #0, #20
 80097de:	b9f3      	cbnz	r3, 800981e <_strtod_l+0xa86>
 80097e0:	4b6b      	ldr	r3, [pc, #428]	; (8009990 <_strtod_l+0xbf8>)
 80097e2:	2200      	movs	r2, #0
 80097e4:	4640      	mov	r0, r8
 80097e6:	4649      	mov	r1, r9
 80097e8:	f7f7 f988 	bl	8000afc <__aeabi_dcmplt>
 80097ec:	b9d0      	cbnz	r0, 8009824 <_strtod_l+0xa8c>
 80097ee:	4640      	mov	r0, r8
 80097f0:	4649      	mov	r1, r9
 80097f2:	4b6b      	ldr	r3, [pc, #428]	; (80099a0 <_strtod_l+0xc08>)
 80097f4:	2200      	movs	r2, #0
 80097f6:	f7f6 ff0f 	bl	8000618 <__aeabi_dmul>
 80097fa:	4680      	mov	r8, r0
 80097fc:	4689      	mov	r9, r1
 80097fe:	f109 4300 	add.w	r3, r9, #2147483648	; 0x80000000
 8009802:	f8cd 8068 	str.w	r8, [sp, #104]	; 0x68
 8009806:	931b      	str	r3, [sp, #108]	; 0x6c
 8009808:	e9dd 231a 	ldrd	r2, r3, [sp, #104]	; 0x68
 800980c:	e9cd 230c 	strd	r2, r3, [sp, #48]	; 0x30
 8009810:	e79b      	b.n	800974a <_strtod_l+0x9b2>
 8009812:	f1ba 0f01 	cmp.w	sl, #1
 8009816:	d102      	bne.n	800981e <_strtod_l+0xa86>
 8009818:	2f00      	cmp	r7, #0
 800981a:	f43f ad7e 	beq.w	800931a <_strtod_l+0x582>
 800981e:	4b61      	ldr	r3, [pc, #388]	; (80099a4 <_strtod_l+0xc0c>)
 8009820:	2200      	movs	r2, #0
 8009822:	e78c      	b.n	800973e <_strtod_l+0x9a6>
 8009824:	f8df 9178 	ldr.w	r9, [pc, #376]	; 80099a0 <_strtod_l+0xc08>
 8009828:	f04f 0800 	mov.w	r8, #0
 800982c:	e7e7      	b.n	80097fe <_strtod_l+0xa66>
 800982e:	4b5c      	ldr	r3, [pc, #368]	; (80099a0 <_strtod_l+0xc08>)
 8009830:	4640      	mov	r0, r8
 8009832:	4649      	mov	r1, r9
 8009834:	2200      	movs	r2, #0
 8009836:	f7f6 feef 	bl	8000618 <__aeabi_dmul>
 800983a:	9b0f      	ldr	r3, [sp, #60]	; 0x3c
 800983c:	4680      	mov	r8, r0
 800983e:	4689      	mov	r9, r1
 8009840:	b933      	cbnz	r3, 8009850 <_strtod_l+0xab8>
 8009842:	f101 4300 	add.w	r3, r1, #2147483648	; 0x80000000
 8009846:	9012      	str	r0, [sp, #72]	; 0x48
 8009848:	9313      	str	r3, [sp, #76]	; 0x4c
 800984a:	e9dd 2312 	ldrd	r2, r3, [sp, #72]	; 0x48
 800984e:	e7dd      	b.n	800980c <_strtod_l+0xa74>
 8009850:	e9cd 8912 	strd	r8, r9, [sp, #72]	; 0x48
 8009854:	e7f9      	b.n	800984a <_strtod_l+0xab2>
 8009856:	f103 7b54 	add.w	fp, r3, #55574528	; 0x3500000
 800985a:	9b04      	ldr	r3, [sp, #16]
 800985c:	2b00      	cmp	r3, #0
 800985e:	d1a8      	bne.n	80097b2 <_strtod_l+0xa1a>
 8009860:	f02b 4300 	bic.w	r3, fp, #2147483648	; 0x80000000
 8009864:	9a11      	ldr	r2, [sp, #68]	; 0x44
 8009866:	0d1b      	lsrs	r3, r3, #20
 8009868:	051b      	lsls	r3, r3, #20
 800986a:	429a      	cmp	r2, r3
 800986c:	d1a1      	bne.n	80097b2 <_strtod_l+0xa1a>
 800986e:	4640      	mov	r0, r8
 8009870:	4649      	mov	r1, r9
 8009872:	f7f7 fa31 	bl	8000cd8 <__aeabi_d2lz>
 8009876:	f7f6 fea1 	bl	80005bc <__aeabi_l2d>
 800987a:	4602      	mov	r2, r0
 800987c:	460b      	mov	r3, r1
 800987e:	4640      	mov	r0, r8
 8009880:	4649      	mov	r1, r9
 8009882:	f7f6 fd11 	bl	80002a8 <__aeabi_dsub>
 8009886:	9a0f      	ldr	r2, [sp, #60]	; 0x3c
 8009888:	f3cb 0313 	ubfx	r3, fp, #0, #20
 800988c:	ea43 030a 	orr.w	r3, r3, sl
 8009890:	4313      	orrs	r3, r2
 8009892:	4680      	mov	r8, r0
 8009894:	4689      	mov	r9, r1
 8009896:	d053      	beq.n	8009940 <_strtod_l+0xba8>
 8009898:	a335      	add	r3, pc, #212	; (adr r3, 8009970 <_strtod_l+0xbd8>)
 800989a:	e9d3 2300 	ldrd	r2, r3, [r3]
 800989e:	f7f7 f92d 	bl	8000afc <__aeabi_dcmplt>
 80098a2:	2800      	cmp	r0, #0
 80098a4:	f47f acce 	bne.w	8009244 <_strtod_l+0x4ac>
 80098a8:	a333      	add	r3, pc, #204	; (adr r3, 8009978 <_strtod_l+0xbe0>)
 80098aa:	e9d3 2300 	ldrd	r2, r3, [r3]
 80098ae:	4640      	mov	r0, r8
 80098b0:	4649      	mov	r1, r9
 80098b2:	f7f7 f941 	bl	8000b38 <__aeabi_dcmpgt>
 80098b6:	2800      	cmp	r0, #0
 80098b8:	f43f af7b 	beq.w	80097b2 <_strtod_l+0xa1a>
 80098bc:	e4c2      	b.n	8009244 <_strtod_l+0x4ac>
 80098be:	9b04      	ldr	r3, [sp, #16]
 80098c0:	b333      	cbz	r3, 8009910 <_strtod_l+0xb78>
 80098c2:	9b11      	ldr	r3, [sp, #68]	; 0x44
 80098c4:	f1b3 6fd4 	cmp.w	r3, #111149056	; 0x6a00000
 80098c8:	d822      	bhi.n	8009910 <_strtod_l+0xb78>
 80098ca:	a32d      	add	r3, pc, #180	; (adr r3, 8009980 <_strtod_l+0xbe8>)
 80098cc:	e9d3 2300 	ldrd	r2, r3, [r3]
 80098d0:	4640      	mov	r0, r8
 80098d2:	4649      	mov	r1, r9
 80098d4:	f7f7 f91c 	bl	8000b10 <__aeabi_dcmple>
 80098d8:	b1a0      	cbz	r0, 8009904 <_strtod_l+0xb6c>
 80098da:	4649      	mov	r1, r9
 80098dc:	4640      	mov	r0, r8
 80098de:	f7f7 f973 	bl	8000bc8 <__aeabi_d2uiz>
 80098e2:	2801      	cmp	r0, #1
 80098e4:	bf38      	it	cc
 80098e6:	2001      	movcc	r0, #1
 80098e8:	f7f6 fe1c 	bl	8000524 <__aeabi_ui2d>
 80098ec:	9b0f      	ldr	r3, [sp, #60]	; 0x3c
 80098ee:	4680      	mov	r8, r0
 80098f0:	4689      	mov	r9, r1
 80098f2:	bb13      	cbnz	r3, 800993a <_strtod_l+0xba2>
 80098f4:	f101 4300 	add.w	r3, r1, #2147483648	; 0x80000000
 80098f8:	9014      	str	r0, [sp, #80]	; 0x50
 80098fa:	9315      	str	r3, [sp, #84]	; 0x54
 80098fc:	e9dd 2314 	ldrd	r2, r3, [sp, #80]	; 0x50
 8009900:	e9cd 230c 	strd	r2, r3, [sp, #48]	; 0x30
 8009904:	9b0d      	ldr	r3, [sp, #52]	; 0x34
 8009906:	9a11      	ldr	r2, [sp, #68]	; 0x44
 8009908:	f103 63d6 	add.w	r3, r3, #112197632	; 0x6b00000
 800990c:	1a9b      	subs	r3, r3, r2
 800990e:	930d      	str	r3, [sp, #52]	; 0x34
 8009910:	e9dd 010c 	ldrd	r0, r1, [sp, #48]	; 0x30
 8009914:	ed9d 0b0a 	vldr	d0, [sp, #40]	; 0x28
 8009918:	e9cd 010c 	strd	r0, r1, [sp, #48]	; 0x30
 800991c:	f001 fe78 	bl	800b610 <__ulp>
 8009920:	e9dd 010c 	ldrd	r0, r1, [sp, #48]	; 0x30
 8009924:	ec53 2b10 	vmov	r2, r3, d0
 8009928:	f7f6 fe76 	bl	8000618 <__aeabi_dmul>
 800992c:	e9dd 230a 	ldrd	r2, r3, [sp, #40]	; 0x28
 8009930:	f7f6 fcbc 	bl	80002ac <__adddf3>
 8009934:	4682      	mov	sl, r0
 8009936:	468b      	mov	fp, r1
 8009938:	e78f      	b.n	800985a <_strtod_l+0xac2>
 800993a:	e9cd 8914 	strd	r8, r9, [sp, #80]	; 0x50
 800993e:	e7dd      	b.n	80098fc <_strtod_l+0xb64>
 8009940:	a311      	add	r3, pc, #68	; (adr r3, 8009988 <_strtod_l+0xbf0>)
 8009942:	e9d3 2300 	ldrd	r2, r3, [r3]
 8009946:	f7f7 f8d9 	bl	8000afc <__aeabi_dcmplt>
 800994a:	e7b4      	b.n	80098b6 <_strtod_l+0xb1e>
 800994c:	2300      	movs	r3, #0
 800994e:	930e      	str	r3, [sp, #56]	; 0x38
 8009950:	9a19      	ldr	r2, [sp, #100]	; 0x64
 8009952:	9b1d      	ldr	r3, [sp, #116]	; 0x74
 8009954:	6013      	str	r3, [r2, #0]
 8009956:	f7ff ba65 	b.w	8008e24 <_strtod_l+0x8c>
 800995a:	2b65      	cmp	r3, #101	; 0x65
 800995c:	f43f ab5d 	beq.w	800901a <_strtod_l+0x282>
 8009960:	2b45      	cmp	r3, #69	; 0x45
 8009962:	f43f ab5a 	beq.w	800901a <_strtod_l+0x282>
 8009966:	2201      	movs	r2, #1
 8009968:	f7ff bb92 	b.w	8009090 <_strtod_l+0x2f8>
 800996c:	f3af 8000 	nop.w
 8009970:	94a03595 	.word	0x94a03595
 8009974:	3fdfffff 	.word	0x3fdfffff
 8009978:	35afe535 	.word	0x35afe535
 800997c:	3fe00000 	.word	0x3fe00000
 8009980:	ffc00000 	.word	0xffc00000
 8009984:	41dfffff 	.word	0x41dfffff
 8009988:	94a03595 	.word	0x94a03595
 800998c:	3fcfffff 	.word	0x3fcfffff
 8009990:	3ff00000 	.word	0x3ff00000
 8009994:	7ff00000 	.word	0x7ff00000
 8009998:	7fe00000 	.word	0x7fe00000
 800999c:	7c9fffff 	.word	0x7c9fffff
 80099a0:	3fe00000 	.word	0x3fe00000
 80099a4:	bff00000 	.word	0xbff00000
 80099a8:	7fefffff 	.word	0x7fefffff

080099ac <_strtod_r>:
 80099ac:	4b01      	ldr	r3, [pc, #4]	; (80099b4 <_strtod_r+0x8>)
 80099ae:	f7ff b9f3 	b.w	8008d98 <_strtod_l>
 80099b2:	bf00      	nop
 80099b4:	20000234 	.word	0x20000234

080099b8 <_strtol_l.isra.0>:
 80099b8:	2b01      	cmp	r3, #1
 80099ba:	e92d 47f0 	stmdb	sp!, {r4, r5, r6, r7, r8, r9, sl, lr}
 80099be:	d001      	beq.n	80099c4 <_strtol_l.isra.0+0xc>
 80099c0:	2b24      	cmp	r3, #36	; 0x24
 80099c2:	d906      	bls.n	80099d2 <_strtol_l.isra.0+0x1a>
 80099c4:	f7fe fa5e 	bl	8007e84 <__errno>
 80099c8:	2316      	movs	r3, #22
 80099ca:	6003      	str	r3, [r0, #0]
 80099cc:	2000      	movs	r0, #0
 80099ce:	e8bd 87f0 	ldmia.w	sp!, {r4, r5, r6, r7, r8, r9, sl, pc}
 80099d2:	4f3a      	ldr	r7, [pc, #232]	; (8009abc <_strtol_l.isra.0+0x104>)
 80099d4:	468e      	mov	lr, r1
 80099d6:	4676      	mov	r6, lr
 80099d8:	f81e 4b01 	ldrb.w	r4, [lr], #1
 80099dc:	5de5      	ldrb	r5, [r4, r7]
 80099de:	f015 0508 	ands.w	r5, r5, #8
 80099e2:	d1f8      	bne.n	80099d6 <_strtol_l.isra.0+0x1e>
 80099e4:	2c2d      	cmp	r4, #45	; 0x2d
 80099e6:	d134      	bne.n	8009a52 <_strtol_l.isra.0+0x9a>
 80099e8:	f89e 4000 	ldrb.w	r4, [lr]
 80099ec:	f04f 0801 	mov.w	r8, #1
 80099f0:	f106 0e02 	add.w	lr, r6, #2
 80099f4:	2b00      	cmp	r3, #0
 80099f6:	d05c      	beq.n	8009ab2 <_strtol_l.isra.0+0xfa>
 80099f8:	2b10      	cmp	r3, #16
 80099fa:	d10c      	bne.n	8009a16 <_strtol_l.isra.0+0x5e>
 80099fc:	2c30      	cmp	r4, #48	; 0x30
 80099fe:	d10a      	bne.n	8009a16 <_strtol_l.isra.0+0x5e>
 8009a00:	f89e 4000 	ldrb.w	r4, [lr]
 8009a04:	f004 04df 	and.w	r4, r4, #223	; 0xdf
 8009a08:	2c58      	cmp	r4, #88	; 0x58
 8009a0a:	d14d      	bne.n	8009aa8 <_strtol_l.isra.0+0xf0>
 8009a0c:	f89e 4001 	ldrb.w	r4, [lr, #1]
 8009a10:	2310      	movs	r3, #16
 8009a12:	f10e 0e02 	add.w	lr, lr, #2
 8009a16:	f108 4c00 	add.w	ip, r8, #2147483648	; 0x80000000
 8009a1a:	f10c 3cff 	add.w	ip, ip, #4294967295
 8009a1e:	2600      	movs	r6, #0
 8009a20:	fbbc f9f3 	udiv	r9, ip, r3
 8009a24:	4635      	mov	r5, r6
 8009a26:	fb03 ca19 	mls	sl, r3, r9, ip
 8009a2a:	f1a4 0730 	sub.w	r7, r4, #48	; 0x30
 8009a2e:	2f09      	cmp	r7, #9
 8009a30:	d818      	bhi.n	8009a64 <_strtol_l.isra.0+0xac>
 8009a32:	463c      	mov	r4, r7
 8009a34:	42a3      	cmp	r3, r4
 8009a36:	dd24      	ble.n	8009a82 <_strtol_l.isra.0+0xca>
 8009a38:	2e00      	cmp	r6, #0
 8009a3a:	db1f      	blt.n	8009a7c <_strtol_l.isra.0+0xc4>
 8009a3c:	45a9      	cmp	r9, r5
 8009a3e:	d31d      	bcc.n	8009a7c <_strtol_l.isra.0+0xc4>
 8009a40:	d101      	bne.n	8009a46 <_strtol_l.isra.0+0x8e>
 8009a42:	45a2      	cmp	sl, r4
 8009a44:	db1a      	blt.n	8009a7c <_strtol_l.isra.0+0xc4>
 8009a46:	fb05 4503 	mla	r5, r5, r3, r4
 8009a4a:	2601      	movs	r6, #1
 8009a4c:	f81e 4b01 	ldrb.w	r4, [lr], #1
 8009a50:	e7eb      	b.n	8009a2a <_strtol_l.isra.0+0x72>
 8009a52:	2c2b      	cmp	r4, #43	; 0x2b
 8009a54:	bf08      	it	eq
 8009a56:	f89e 4000 	ldrbeq.w	r4, [lr]
 8009a5a:	46a8      	mov	r8, r5
 8009a5c:	bf08      	it	eq
 8009a5e:	f106 0e02 	addeq.w	lr, r6, #2
 8009a62:	e7c7      	b.n	80099f4 <_strtol_l.isra.0+0x3c>
 8009a64:	f1a4 0741 	sub.w	r7, r4, #65	; 0x41
 8009a68:	2f19      	cmp	r7, #25
 8009a6a:	d801      	bhi.n	8009a70 <_strtol_l.isra.0+0xb8>
 8009a6c:	3c37      	subs	r4, #55	; 0x37
 8009a6e:	e7e1      	b.n	8009a34 <_strtol_l.isra.0+0x7c>
 8009a70:	f1a4 0761 	sub.w	r7, r4, #97	; 0x61
 8009a74:	2f19      	cmp	r7, #25
 8009a76:	d804      	bhi.n	8009a82 <_strtol_l.isra.0+0xca>
 8009a78:	3c57      	subs	r4, #87	; 0x57
 8009a7a:	e7db      	b.n	8009a34 <_strtol_l.isra.0+0x7c>
 8009a7c:	f04f 36ff 	mov.w	r6, #4294967295
 8009a80:	e7e4      	b.n	8009a4c <_strtol_l.isra.0+0x94>
 8009a82:	2e00      	cmp	r6, #0
 8009a84:	da05      	bge.n	8009a92 <_strtol_l.isra.0+0xda>
 8009a86:	2322      	movs	r3, #34	; 0x22
 8009a88:	6003      	str	r3, [r0, #0]
 8009a8a:	4665      	mov	r5, ip
 8009a8c:	b942      	cbnz	r2, 8009aa0 <_strtol_l.isra.0+0xe8>
 8009a8e:	4628      	mov	r0, r5
 8009a90:	e79d      	b.n	80099ce <_strtol_l.isra.0+0x16>
 8009a92:	f1b8 0f00 	cmp.w	r8, #0
 8009a96:	d000      	beq.n	8009a9a <_strtol_l.isra.0+0xe2>
 8009a98:	426d      	negs	r5, r5
 8009a9a:	2a00      	cmp	r2, #0
 8009a9c:	d0f7      	beq.n	8009a8e <_strtol_l.isra.0+0xd6>
 8009a9e:	b10e      	cbz	r6, 8009aa4 <_strtol_l.isra.0+0xec>
 8009aa0:	f10e 31ff 	add.w	r1, lr, #4294967295
 8009aa4:	6011      	str	r1, [r2, #0]
 8009aa6:	e7f2      	b.n	8009a8e <_strtol_l.isra.0+0xd6>
 8009aa8:	2430      	movs	r4, #48	; 0x30
 8009aaa:	2b00      	cmp	r3, #0
 8009aac:	d1b3      	bne.n	8009a16 <_strtol_l.isra.0+0x5e>
 8009aae:	2308      	movs	r3, #8
 8009ab0:	e7b1      	b.n	8009a16 <_strtol_l.isra.0+0x5e>
 8009ab2:	2c30      	cmp	r4, #48	; 0x30
 8009ab4:	d0a4      	beq.n	8009a00 <_strtol_l.isra.0+0x48>
 8009ab6:	230a      	movs	r3, #10
 8009ab8:	e7ad      	b.n	8009a16 <_strtol_l.isra.0+0x5e>
 8009aba:	bf00      	nop
 8009abc:	0800e1f6 	.word	0x0800e1f6

08009ac0 <_strtol_r>:
 8009ac0:	f7ff bf7a 	b.w	80099b8 <_strtol_l.isra.0>

08009ac4 <_write_r>:
 8009ac4:	b538      	push	{r3, r4, r5, lr}
 8009ac6:	4d07      	ldr	r5, [pc, #28]	; (8009ae4 <_write_r+0x20>)
 8009ac8:	4604      	mov	r4, r0
 8009aca:	4608      	mov	r0, r1
 8009acc:	4611      	mov	r1, r2
 8009ace:	2200      	movs	r2, #0
 8009ad0:	602a      	str	r2, [r5, #0]
 8009ad2:	461a      	mov	r2, r3
 8009ad4:	f7fa fc51 	bl	800437a <_write>
 8009ad8:	1c43      	adds	r3, r0, #1
 8009ada:	d102      	bne.n	8009ae2 <_write_r+0x1e>
 8009adc:	682b      	ldr	r3, [r5, #0]
 8009ade:	b103      	cbz	r3, 8009ae2 <_write_r+0x1e>
 8009ae0:	6023      	str	r3, [r4, #0]
 8009ae2:	bd38      	pop	{r3, r4, r5, pc}
 8009ae4:	20001fe4 	.word	0x20001fe4

08009ae8 <_close_r>:
 8009ae8:	b538      	push	{r3, r4, r5, lr}
 8009aea:	4d06      	ldr	r5, [pc, #24]	; (8009b04 <_close_r+0x1c>)
 8009aec:	2300      	movs	r3, #0
 8009aee:	4604      	mov	r4, r0
 8009af0:	4608      	mov	r0, r1
 8009af2:	602b      	str	r3, [r5, #0]
 8009af4:	f7fa fc4e 	bl	8004394 <_close>
 8009af8:	1c43      	adds	r3, r0, #1
 8009afa:	d102      	bne.n	8009b02 <_close_r+0x1a>
 8009afc:	682b      	ldr	r3, [r5, #0]
 8009afe:	b103      	cbz	r3, 8009b02 <_close_r+0x1a>
 8009b00:	6023      	str	r3, [r4, #0]
 8009b02:	bd38      	pop	{r3, r4, r5, pc}
 8009b04:	20001fe4 	.word	0x20001fe4

08009b08 <quorem>:
 8009b08:	e92d 4ff7 	stmdb	sp!, {r0, r1, r2, r4, r5, r6, r7, r8, r9, sl, fp, lr}
 8009b0c:	6903      	ldr	r3, [r0, #16]
 8009b0e:	690c      	ldr	r4, [r1, #16]
 8009b10:	42a3      	cmp	r3, r4
 8009b12:	4607      	mov	r7, r0
 8009b14:	f2c0 8081 	blt.w	8009c1a <quorem+0x112>
 8009b18:	3c01      	subs	r4, #1
 8009b1a:	f101 0814 	add.w	r8, r1, #20
 8009b1e:	f100 0514 	add.w	r5, r0, #20
 8009b22:	eb05 0384 	add.w	r3, r5, r4, lsl #2
 8009b26:	9301      	str	r3, [sp, #4]
 8009b28:	f858 3024 	ldr.w	r3, [r8, r4, lsl #2]
 8009b2c:	f855 2024 	ldr.w	r2, [r5, r4, lsl #2]
 8009b30:	3301      	adds	r3, #1
 8009b32:	429a      	cmp	r2, r3
 8009b34:	ea4f 0b84 	mov.w	fp, r4, lsl #2
 8009b38:	eb08 0984 	add.w	r9, r8, r4, lsl #2
 8009b3c:	fbb2 f6f3 	udiv	r6, r2, r3
 8009b40:	d331      	bcc.n	8009ba6 <quorem+0x9e>
 8009b42:	f04f 0e00 	mov.w	lr, #0
 8009b46:	4640      	mov	r0, r8
 8009b48:	46ac      	mov	ip, r5
 8009b4a:	46f2      	mov	sl, lr
 8009b4c:	f850 2b04 	ldr.w	r2, [r0], #4
 8009b50:	b293      	uxth	r3, r2
 8009b52:	fb06 e303 	mla	r3, r6, r3, lr
 8009b56:	ea4f 4e13 	mov.w	lr, r3, lsr #16
 8009b5a:	b29b      	uxth	r3, r3
 8009b5c:	ebaa 0303 	sub.w	r3, sl, r3
 8009b60:	0c12      	lsrs	r2, r2, #16
 8009b62:	f8dc a000 	ldr.w	sl, [ip]
 8009b66:	fb06 e202 	mla	r2, r6, r2, lr
 8009b6a:	fa13 f38a 	uxtah	r3, r3, sl
 8009b6e:	ea4f 4e12 	mov.w	lr, r2, lsr #16
 8009b72:	fa1f fa82 	uxth.w	sl, r2
 8009b76:	f8dc 2000 	ldr.w	r2, [ip]
 8009b7a:	ebca 4212 	rsb	r2, sl, r2, lsr #16
 8009b7e:	eb02 4223 	add.w	r2, r2, r3, asr #16
 8009b82:	b29b      	uxth	r3, r3
 8009b84:	ea43 4302 	orr.w	r3, r3, r2, lsl #16
 8009b88:	4581      	cmp	r9, r0
 8009b8a:	f84c 3b04 	str.w	r3, [ip], #4
 8009b8e:	ea4f 4a22 	mov.w	sl, r2, asr #16
 8009b92:	d2db      	bcs.n	8009b4c <quorem+0x44>
 8009b94:	f855 300b 	ldr.w	r3, [r5, fp]
 8009b98:	b92b      	cbnz	r3, 8009ba6 <quorem+0x9e>
 8009b9a:	9b01      	ldr	r3, [sp, #4]
 8009b9c:	3b04      	subs	r3, #4
 8009b9e:	429d      	cmp	r5, r3
 8009ba0:	461a      	mov	r2, r3
 8009ba2:	d32e      	bcc.n	8009c02 <quorem+0xfa>
 8009ba4:	613c      	str	r4, [r7, #16]
 8009ba6:	4638      	mov	r0, r7
 8009ba8:	f001 fc8e 	bl	800b4c8 <__mcmp>
 8009bac:	2800      	cmp	r0, #0
 8009bae:	db24      	blt.n	8009bfa <quorem+0xf2>
 8009bb0:	3601      	adds	r6, #1
 8009bb2:	4628      	mov	r0, r5
 8009bb4:	f04f 0c00 	mov.w	ip, #0
 8009bb8:	f858 2b04 	ldr.w	r2, [r8], #4
 8009bbc:	f8d0 e000 	ldr.w	lr, [r0]
 8009bc0:	b293      	uxth	r3, r2
 8009bc2:	ebac 0303 	sub.w	r3, ip, r3
 8009bc6:	0c12      	lsrs	r2, r2, #16
 8009bc8:	fa13 f38e 	uxtah	r3, r3, lr
 8009bcc:	ebc2 421e 	rsb	r2, r2, lr, lsr #16
 8009bd0:	eb02 4223 	add.w	r2, r2, r3, asr #16
 8009bd4:	b29b      	uxth	r3, r3
 8009bd6:	ea43 4302 	orr.w	r3, r3, r2, lsl #16
 8009bda:	45c1      	cmp	r9, r8
 8009bdc:	f840 3b04 	str.w	r3, [r0], #4
 8009be0:	ea4f 4c22 	mov.w	ip, r2, asr #16
 8009be4:	d2e8      	bcs.n	8009bb8 <quorem+0xb0>
 8009be6:	f855 2024 	ldr.w	r2, [r5, r4, lsl #2]
 8009bea:	eb05 0384 	add.w	r3, r5, r4, lsl #2
 8009bee:	b922      	cbnz	r2, 8009bfa <quorem+0xf2>
 8009bf0:	3b04      	subs	r3, #4
 8009bf2:	429d      	cmp	r5, r3
 8009bf4:	461a      	mov	r2, r3
 8009bf6:	d30a      	bcc.n	8009c0e <quorem+0x106>
 8009bf8:	613c      	str	r4, [r7, #16]
 8009bfa:	4630      	mov	r0, r6
 8009bfc:	b003      	add	sp, #12
 8009bfe:	e8bd 8ff0 	ldmia.w	sp!, {r4, r5, r6, r7, r8, r9, sl, fp, pc}
 8009c02:	6812      	ldr	r2, [r2, #0]
 8009c04:	3b04      	subs	r3, #4
 8009c06:	2a00      	cmp	r2, #0
 8009c08:	d1cc      	bne.n	8009ba4 <quorem+0x9c>
 8009c0a:	3c01      	subs	r4, #1
 8009c0c:	e7c7      	b.n	8009b9e <quorem+0x96>
 8009c0e:	6812      	ldr	r2, [r2, #0]
 8009c10:	3b04      	subs	r3, #4
 8009c12:	2a00      	cmp	r2, #0
 8009c14:	d1f0      	bne.n	8009bf8 <quorem+0xf0>
 8009c16:	3c01      	subs	r4, #1
 8009c18:	e7eb      	b.n	8009bf2 <quorem+0xea>
 8009c1a:	2000      	movs	r0, #0
 8009c1c:	e7ee      	b.n	8009bfc <quorem+0xf4>
	...

08009c20 <_dtoa_r>:
 8009c20:	e92d 4ff0 	stmdb	sp!, {r4, r5, r6, r7, r8, r9, sl, fp, lr}
 8009c24:	ed2d 8b02 	vpush	{d8}
 8009c28:	ec57 6b10 	vmov	r6, r7, d0
 8009c2c:	b095      	sub	sp, #84	; 0x54
 8009c2e:	6a45      	ldr	r5, [r0, #36]	; 0x24
 8009c30:	f8dd 8080 	ldr.w	r8, [sp, #128]	; 0x80
 8009c34:	9105      	str	r1, [sp, #20]
 8009c36:	e9cd 6702 	strd	r6, r7, [sp, #8]
 8009c3a:	4604      	mov	r4, r0
 8009c3c:	9209      	str	r2, [sp, #36]	; 0x24
 8009c3e:	930f      	str	r3, [sp, #60]	; 0x3c
 8009c40:	b975      	cbnz	r5, 8009c60 <_dtoa_r+0x40>
 8009c42:	2010      	movs	r0, #16
 8009c44:	f001 f95e 	bl	800af04 <malloc>
 8009c48:	4602      	mov	r2, r0
 8009c4a:	6260      	str	r0, [r4, #36]	; 0x24
 8009c4c:	b920      	cbnz	r0, 8009c58 <_dtoa_r+0x38>
 8009c4e:	4bb2      	ldr	r3, [pc, #712]	; (8009f18 <_dtoa_r+0x2f8>)
 8009c50:	21ea      	movs	r1, #234	; 0xea
 8009c52:	48b2      	ldr	r0, [pc, #712]	; (8009f1c <_dtoa_r+0x2fc>)
 8009c54:	f002 fc88 	bl	800c568 <__assert_func>
 8009c58:	e9c0 5501 	strd	r5, r5, [r0, #4]
 8009c5c:	6005      	str	r5, [r0, #0]
 8009c5e:	60c5      	str	r5, [r0, #12]
 8009c60:	6a63      	ldr	r3, [r4, #36]	; 0x24
 8009c62:	6819      	ldr	r1, [r3, #0]
 8009c64:	b151      	cbz	r1, 8009c7c <_dtoa_r+0x5c>
 8009c66:	685a      	ldr	r2, [r3, #4]
 8009c68:	604a      	str	r2, [r1, #4]
 8009c6a:	2301      	movs	r3, #1
 8009c6c:	4093      	lsls	r3, r2
 8009c6e:	608b      	str	r3, [r1, #8]
 8009c70:	4620      	mov	r0, r4
 8009c72:	f001 f9a1 	bl	800afb8 <_Bfree>
 8009c76:	6a63      	ldr	r3, [r4, #36]	; 0x24
 8009c78:	2200      	movs	r2, #0
 8009c7a:	601a      	str	r2, [r3, #0]
 8009c7c:	1e3b      	subs	r3, r7, #0
 8009c7e:	bfb9      	ittee	lt
 8009c80:	f023 4300 	biclt.w	r3, r3, #2147483648	; 0x80000000
 8009c84:	9303      	strlt	r3, [sp, #12]
 8009c86:	2300      	movge	r3, #0
 8009c88:	f8c8 3000 	strge.w	r3, [r8]
 8009c8c:	f8dd 900c 	ldr.w	r9, [sp, #12]
 8009c90:	4ba3      	ldr	r3, [pc, #652]	; (8009f20 <_dtoa_r+0x300>)
 8009c92:	bfbc      	itt	lt
 8009c94:	2201      	movlt	r2, #1
 8009c96:	f8c8 2000 	strlt.w	r2, [r8]
 8009c9a:	ea33 0309 	bics.w	r3, r3, r9
 8009c9e:	d11b      	bne.n	8009cd8 <_dtoa_r+0xb8>
 8009ca0:	9a0f      	ldr	r2, [sp, #60]	; 0x3c
 8009ca2:	f242 730f 	movw	r3, #9999	; 0x270f
 8009ca6:	6013      	str	r3, [r2, #0]
 8009ca8:	f3c9 0313 	ubfx	r3, r9, #0, #20
 8009cac:	4333      	orrs	r3, r6
 8009cae:	f000 857a 	beq.w	800a7a6 <_dtoa_r+0xb86>
 8009cb2:	9b21      	ldr	r3, [sp, #132]	; 0x84
 8009cb4:	b963      	cbnz	r3, 8009cd0 <_dtoa_r+0xb0>
 8009cb6:	4b9b      	ldr	r3, [pc, #620]	; (8009f24 <_dtoa_r+0x304>)
 8009cb8:	e024      	b.n	8009d04 <_dtoa_r+0xe4>
 8009cba:	4b9b      	ldr	r3, [pc, #620]	; (8009f28 <_dtoa_r+0x308>)
 8009cbc:	9300      	str	r3, [sp, #0]
 8009cbe:	3308      	adds	r3, #8
 8009cc0:	9a21      	ldr	r2, [sp, #132]	; 0x84
 8009cc2:	6013      	str	r3, [r2, #0]
 8009cc4:	9800      	ldr	r0, [sp, #0]
 8009cc6:	b015      	add	sp, #84	; 0x54
 8009cc8:	ecbd 8b02 	vpop	{d8}
 8009ccc:	e8bd 8ff0 	ldmia.w	sp!, {r4, r5, r6, r7, r8, r9, sl, fp, pc}
 8009cd0:	4b94      	ldr	r3, [pc, #592]	; (8009f24 <_dtoa_r+0x304>)
 8009cd2:	9300      	str	r3, [sp, #0]
 8009cd4:	3303      	adds	r3, #3
 8009cd6:	e7f3      	b.n	8009cc0 <_dtoa_r+0xa0>
 8009cd8:	ed9d 7b02 	vldr	d7, [sp, #8]
 8009cdc:	2200      	movs	r2, #0
 8009cde:	ec51 0b17 	vmov	r0, r1, d7
 8009ce2:	2300      	movs	r3, #0
 8009ce4:	ed8d 7b0a 	vstr	d7, [sp, #40]	; 0x28
 8009ce8:	f7f6 fefe 	bl	8000ae8 <__aeabi_dcmpeq>
 8009cec:	4680      	mov	r8, r0
 8009cee:	b158      	cbz	r0, 8009d08 <_dtoa_r+0xe8>
 8009cf0:	9a0f      	ldr	r2, [sp, #60]	; 0x3c
 8009cf2:	2301      	movs	r3, #1
 8009cf4:	6013      	str	r3, [r2, #0]
 8009cf6:	9b21      	ldr	r3, [sp, #132]	; 0x84
 8009cf8:	2b00      	cmp	r3, #0
 8009cfa:	f000 8551 	beq.w	800a7a0 <_dtoa_r+0xb80>
 8009cfe:	488b      	ldr	r0, [pc, #556]	; (8009f2c <_dtoa_r+0x30c>)
 8009d00:	6018      	str	r0, [r3, #0]
 8009d02:	1e43      	subs	r3, r0, #1
 8009d04:	9300      	str	r3, [sp, #0]
 8009d06:	e7dd      	b.n	8009cc4 <_dtoa_r+0xa4>
 8009d08:	ed9d 0b0a 	vldr	d0, [sp, #40]	; 0x28
 8009d0c:	aa12      	add	r2, sp, #72	; 0x48
 8009d0e:	a913      	add	r1, sp, #76	; 0x4c
 8009d10:	4620      	mov	r0, r4
 8009d12:	f001 fcf9 	bl	800b708 <__d2b>
 8009d16:	f3c9 550a 	ubfx	r5, r9, #20, #11
 8009d1a:	4683      	mov	fp, r0
 8009d1c:	2d00      	cmp	r5, #0
 8009d1e:	d07c      	beq.n	8009e1a <_dtoa_r+0x1fa>
 8009d20:	9b0b      	ldr	r3, [sp, #44]	; 0x2c
 8009d22:	f8cd 8040 	str.w	r8, [sp, #64]	; 0x40
 8009d26:	f3c3 0313 	ubfx	r3, r3, #0, #20
 8009d2a:	e9dd 670a 	ldrd	r6, r7, [sp, #40]	; 0x28
 8009d2e:	f043 577f 	orr.w	r7, r3, #1069547520	; 0x3fc00000
 8009d32:	f447 1740 	orr.w	r7, r7, #3145728	; 0x300000
 8009d36:	f2a5 35ff 	subw	r5, r5, #1023	; 0x3ff
 8009d3a:	4b7d      	ldr	r3, [pc, #500]	; (8009f30 <_dtoa_r+0x310>)
 8009d3c:	2200      	movs	r2, #0
 8009d3e:	4630      	mov	r0, r6
 8009d40:	4639      	mov	r1, r7
 8009d42:	f7f6 fab1 	bl	80002a8 <__aeabi_dsub>
 8009d46:	a36e      	add	r3, pc, #440	; (adr r3, 8009f00 <_dtoa_r+0x2e0>)
 8009d48:	e9d3 2300 	ldrd	r2, r3, [r3]
 8009d4c:	f7f6 fc64 	bl	8000618 <__aeabi_dmul>
 8009d50:	a36d      	add	r3, pc, #436	; (adr r3, 8009f08 <_dtoa_r+0x2e8>)
 8009d52:	e9d3 2300 	ldrd	r2, r3, [r3]
 8009d56:	f7f6 faa9 	bl	80002ac <__adddf3>
 8009d5a:	4606      	mov	r6, r0
 8009d5c:	4628      	mov	r0, r5
 8009d5e:	460f      	mov	r7, r1
 8009d60:	f7f6 fbf0 	bl	8000544 <__aeabi_i2d>
 8009d64:	a36a      	add	r3, pc, #424	; (adr r3, 8009f10 <_dtoa_r+0x2f0>)
 8009d66:	e9d3 2300 	ldrd	r2, r3, [r3]
 8009d6a:	f7f6 fc55 	bl	8000618 <__aeabi_dmul>
 8009d6e:	4602      	mov	r2, r0
 8009d70:	460b      	mov	r3, r1
 8009d72:	4630      	mov	r0, r6
 8009d74:	4639      	mov	r1, r7
 8009d76:	f7f6 fa99 	bl	80002ac <__adddf3>
 8009d7a:	4606      	mov	r6, r0
 8009d7c:	460f      	mov	r7, r1
 8009d7e:	f7f6 fefb 	bl	8000b78 <__aeabi_d2iz>
 8009d82:	2200      	movs	r2, #0
 8009d84:	4682      	mov	sl, r0
 8009d86:	2300      	movs	r3, #0
 8009d88:	4630      	mov	r0, r6
 8009d8a:	4639      	mov	r1, r7
 8009d8c:	f7f6 feb6 	bl	8000afc <__aeabi_dcmplt>
 8009d90:	b148      	cbz	r0, 8009da6 <_dtoa_r+0x186>
 8009d92:	4650      	mov	r0, sl
 8009d94:	f7f6 fbd6 	bl	8000544 <__aeabi_i2d>
 8009d98:	4632      	mov	r2, r6
 8009d9a:	463b      	mov	r3, r7
 8009d9c:	f7f6 fea4 	bl	8000ae8 <__aeabi_dcmpeq>
 8009da0:	b908      	cbnz	r0, 8009da6 <_dtoa_r+0x186>
 8009da2:	f10a 3aff 	add.w	sl, sl, #4294967295
 8009da6:	f1ba 0f16 	cmp.w	sl, #22
 8009daa:	d854      	bhi.n	8009e56 <_dtoa_r+0x236>
 8009dac:	4b61      	ldr	r3, [pc, #388]	; (8009f34 <_dtoa_r+0x314>)
 8009dae:	eb03 03ca 	add.w	r3, r3, sl, lsl #3
 8009db2:	e9d3 2300 	ldrd	r2, r3, [r3]
 8009db6:	e9dd 010a 	ldrd	r0, r1, [sp, #40]	; 0x28
 8009dba:	f7f6 fe9f 	bl	8000afc <__aeabi_dcmplt>
 8009dbe:	2800      	cmp	r0, #0
 8009dc0:	d04b      	beq.n	8009e5a <_dtoa_r+0x23a>
 8009dc2:	f10a 3aff 	add.w	sl, sl, #4294967295
 8009dc6:	2300      	movs	r3, #0
 8009dc8:	930e      	str	r3, [sp, #56]	; 0x38
 8009dca:	9b12      	ldr	r3, [sp, #72]	; 0x48
 8009dcc:	1b5d      	subs	r5, r3, r5
 8009dce:	1e6b      	subs	r3, r5, #1
 8009dd0:	9304      	str	r3, [sp, #16]
 8009dd2:	bf43      	ittte	mi
 8009dd4:	2300      	movmi	r3, #0
 8009dd6:	f1c5 0801 	rsbmi	r8, r5, #1
 8009dda:	9304      	strmi	r3, [sp, #16]
 8009ddc:	f04f 0800 	movpl.w	r8, #0
 8009de0:	f1ba 0f00 	cmp.w	sl, #0
 8009de4:	db3b      	blt.n	8009e5e <_dtoa_r+0x23e>
 8009de6:	9b04      	ldr	r3, [sp, #16]
 8009de8:	f8cd a034 	str.w	sl, [sp, #52]	; 0x34
 8009dec:	4453      	add	r3, sl
 8009dee:	9304      	str	r3, [sp, #16]
 8009df0:	2300      	movs	r3, #0
 8009df2:	9306      	str	r3, [sp, #24]
 8009df4:	9b05      	ldr	r3, [sp, #20]
 8009df6:	2b09      	cmp	r3, #9
 8009df8:	d869      	bhi.n	8009ece <_dtoa_r+0x2ae>
 8009dfa:	2b05      	cmp	r3, #5
 8009dfc:	bfc4      	itt	gt
 8009dfe:	3b04      	subgt	r3, #4
 8009e00:	9305      	strgt	r3, [sp, #20]
 8009e02:	9b05      	ldr	r3, [sp, #20]
 8009e04:	f1a3 0302 	sub.w	r3, r3, #2
 8009e08:	bfcc      	ite	gt
 8009e0a:	2500      	movgt	r5, #0
 8009e0c:	2501      	movle	r5, #1
 8009e0e:	2b03      	cmp	r3, #3
 8009e10:	d869      	bhi.n	8009ee6 <_dtoa_r+0x2c6>
 8009e12:	e8df f003 	tbb	[pc, r3]
 8009e16:	4e2c      	.short	0x4e2c
 8009e18:	5a4c      	.short	0x5a4c
 8009e1a:	e9dd 5312 	ldrd	r5, r3, [sp, #72]	; 0x48
 8009e1e:	441d      	add	r5, r3
 8009e20:	f205 4332 	addw	r3, r5, #1074	; 0x432
 8009e24:	2b20      	cmp	r3, #32
 8009e26:	bfc1      	itttt	gt
 8009e28:	f1c3 0340 	rsbgt	r3, r3, #64	; 0x40
 8009e2c:	f205 4012 	addwgt	r0, r5, #1042	; 0x412
 8009e30:	fa09 f303 	lslgt.w	r3, r9, r3
 8009e34:	fa26 f000 	lsrgt.w	r0, r6, r0
 8009e38:	bfda      	itte	le
 8009e3a:	f1c3 0320 	rsble	r3, r3, #32
 8009e3e:	fa06 f003 	lslle.w	r0, r6, r3
 8009e42:	4318      	orrgt	r0, r3
 8009e44:	f7f6 fb6e 	bl	8000524 <__aeabi_ui2d>
 8009e48:	2301      	movs	r3, #1
 8009e4a:	4606      	mov	r6, r0
 8009e4c:	f1a1 77f8 	sub.w	r7, r1, #32505856	; 0x1f00000
 8009e50:	3d01      	subs	r5, #1
 8009e52:	9310      	str	r3, [sp, #64]	; 0x40
 8009e54:	e771      	b.n	8009d3a <_dtoa_r+0x11a>
 8009e56:	2301      	movs	r3, #1
 8009e58:	e7b6      	b.n	8009dc8 <_dtoa_r+0x1a8>
 8009e5a:	900e      	str	r0, [sp, #56]	; 0x38
 8009e5c:	e7b5      	b.n	8009dca <_dtoa_r+0x1aa>
 8009e5e:	f1ca 0300 	rsb	r3, sl, #0
 8009e62:	9306      	str	r3, [sp, #24]
 8009e64:	2300      	movs	r3, #0
 8009e66:	eba8 080a 	sub.w	r8, r8, sl
 8009e6a:	930d      	str	r3, [sp, #52]	; 0x34
 8009e6c:	e7c2      	b.n	8009df4 <_dtoa_r+0x1d4>
 8009e6e:	2300      	movs	r3, #0
 8009e70:	9308      	str	r3, [sp, #32]
 8009e72:	9b09      	ldr	r3, [sp, #36]	; 0x24
 8009e74:	2b00      	cmp	r3, #0
 8009e76:	dc39      	bgt.n	8009eec <_dtoa_r+0x2cc>
 8009e78:	f04f 0901 	mov.w	r9, #1
 8009e7c:	f8cd 9004 	str.w	r9, [sp, #4]
 8009e80:	464b      	mov	r3, r9
 8009e82:	f8cd 9024 	str.w	r9, [sp, #36]	; 0x24
 8009e86:	6a60      	ldr	r0, [r4, #36]	; 0x24
 8009e88:	2200      	movs	r2, #0
 8009e8a:	6042      	str	r2, [r0, #4]
 8009e8c:	2204      	movs	r2, #4
 8009e8e:	f102 0614 	add.w	r6, r2, #20
 8009e92:	429e      	cmp	r6, r3
 8009e94:	6841      	ldr	r1, [r0, #4]
 8009e96:	d92f      	bls.n	8009ef8 <_dtoa_r+0x2d8>
 8009e98:	4620      	mov	r0, r4
 8009e9a:	f001 f84d 	bl	800af38 <_Balloc>
 8009e9e:	9000      	str	r0, [sp, #0]
 8009ea0:	2800      	cmp	r0, #0
 8009ea2:	d14b      	bne.n	8009f3c <_dtoa_r+0x31c>
 8009ea4:	4b24      	ldr	r3, [pc, #144]	; (8009f38 <_dtoa_r+0x318>)
 8009ea6:	4602      	mov	r2, r0
 8009ea8:	f44f 71d5 	mov.w	r1, #426	; 0x1aa
 8009eac:	e6d1      	b.n	8009c52 <_dtoa_r+0x32>
 8009eae:	2301      	movs	r3, #1
 8009eb0:	e7de      	b.n	8009e70 <_dtoa_r+0x250>
 8009eb2:	2300      	movs	r3, #0
 8009eb4:	9308      	str	r3, [sp, #32]
 8009eb6:	9b09      	ldr	r3, [sp, #36]	; 0x24
 8009eb8:	eb0a 0903 	add.w	r9, sl, r3
 8009ebc:	f109 0301 	add.w	r3, r9, #1
 8009ec0:	2b01      	cmp	r3, #1
 8009ec2:	9301      	str	r3, [sp, #4]
 8009ec4:	bfb8      	it	lt
 8009ec6:	2301      	movlt	r3, #1
 8009ec8:	e7dd      	b.n	8009e86 <_dtoa_r+0x266>
 8009eca:	2301      	movs	r3, #1
 8009ecc:	e7f2      	b.n	8009eb4 <_dtoa_r+0x294>
 8009ece:	2501      	movs	r5, #1
 8009ed0:	2300      	movs	r3, #0
 8009ed2:	9305      	str	r3, [sp, #20]
 8009ed4:	9508      	str	r5, [sp, #32]
 8009ed6:	f04f 39ff 	mov.w	r9, #4294967295
 8009eda:	2200      	movs	r2, #0
 8009edc:	f8cd 9004 	str.w	r9, [sp, #4]
 8009ee0:	2312      	movs	r3, #18
 8009ee2:	9209      	str	r2, [sp, #36]	; 0x24
 8009ee4:	e7cf      	b.n	8009e86 <_dtoa_r+0x266>
 8009ee6:	2301      	movs	r3, #1
 8009ee8:	9308      	str	r3, [sp, #32]
 8009eea:	e7f4      	b.n	8009ed6 <_dtoa_r+0x2b6>
 8009eec:	f8dd 9024 	ldr.w	r9, [sp, #36]	; 0x24
 8009ef0:	f8cd 9004 	str.w	r9, [sp, #4]
 8009ef4:	464b      	mov	r3, r9
 8009ef6:	e7c6      	b.n	8009e86 <_dtoa_r+0x266>
 8009ef8:	3101      	adds	r1, #1
 8009efa:	6041      	str	r1, [r0, #4]
 8009efc:	0052      	lsls	r2, r2, #1
 8009efe:	e7c6      	b.n	8009e8e <_dtoa_r+0x26e>
 8009f00:	636f4361 	.word	0x636f4361
 8009f04:	3fd287a7 	.word	0x3fd287a7
 8009f08:	8b60c8b3 	.word	0x8b60c8b3
 8009f0c:	3fc68a28 	.word	0x3fc68a28
 8009f10:	509f79fb 	.word	0x509f79fb
 8009f14:	3fd34413 	.word	0x3fd34413
 8009f18:	0800e395 	.word	0x0800e395
 8009f1c:	0800e3ac 	.word	0x0800e3ac
 8009f20:	7ff00000 	.word	0x7ff00000
 8009f24:	0800e391 	.word	0x0800e391
 8009f28:	0800e388 	.word	0x0800e388
 8009f2c:	0800e612 	.word	0x0800e612
 8009f30:	3ff80000 	.word	0x3ff80000
 8009f34:	0800e528 	.word	0x0800e528
 8009f38:	0800e40b 	.word	0x0800e40b
 8009f3c:	6a63      	ldr	r3, [r4, #36]	; 0x24
 8009f3e:	9a00      	ldr	r2, [sp, #0]
 8009f40:	601a      	str	r2, [r3, #0]
 8009f42:	9b01      	ldr	r3, [sp, #4]
 8009f44:	2b0e      	cmp	r3, #14
 8009f46:	f200 80ad 	bhi.w	800a0a4 <_dtoa_r+0x484>
 8009f4a:	2d00      	cmp	r5, #0
 8009f4c:	f000 80aa 	beq.w	800a0a4 <_dtoa_r+0x484>
 8009f50:	f1ba 0f00 	cmp.w	sl, #0
 8009f54:	dd36      	ble.n	8009fc4 <_dtoa_r+0x3a4>
 8009f56:	4ac3      	ldr	r2, [pc, #780]	; (800a264 <_dtoa_r+0x644>)
 8009f58:	f00a 030f 	and.w	r3, sl, #15
 8009f5c:	eb02 03c3 	add.w	r3, r2, r3, lsl #3
 8009f60:	ed93 7b00 	vldr	d7, [r3]
 8009f64:	f41a 7f80 	tst.w	sl, #256	; 0x100
 8009f68:	ea4f 172a 	mov.w	r7, sl, asr #4
 8009f6c:	eeb0 8a47 	vmov.f32	s16, s14
 8009f70:	eef0 8a67 	vmov.f32	s17, s15
 8009f74:	d016      	beq.n	8009fa4 <_dtoa_r+0x384>
 8009f76:	4bbc      	ldr	r3, [pc, #752]	; (800a268 <_dtoa_r+0x648>)
 8009f78:	e9dd 010a 	ldrd	r0, r1, [sp, #40]	; 0x28
 8009f7c:	e9d3 2308 	ldrd	r2, r3, [r3, #32]
 8009f80:	f7f6 fc74 	bl	800086c <__aeabi_ddiv>
 8009f84:	e9cd 0102 	strd	r0, r1, [sp, #8]
 8009f88:	f007 070f 	and.w	r7, r7, #15
 8009f8c:	2503      	movs	r5, #3
 8009f8e:	4eb6      	ldr	r6, [pc, #728]	; (800a268 <_dtoa_r+0x648>)
 8009f90:	b957      	cbnz	r7, 8009fa8 <_dtoa_r+0x388>
 8009f92:	e9dd 0102 	ldrd	r0, r1, [sp, #8]
 8009f96:	ec53 2b18 	vmov	r2, r3, d8
 8009f9a:	f7f6 fc67 	bl	800086c <__aeabi_ddiv>
 8009f9e:	e9cd 0102 	strd	r0, r1, [sp, #8]
 8009fa2:	e029      	b.n	8009ff8 <_dtoa_r+0x3d8>
 8009fa4:	2502      	movs	r5, #2
 8009fa6:	e7f2      	b.n	8009f8e <_dtoa_r+0x36e>
 8009fa8:	07f9      	lsls	r1, r7, #31
 8009faa:	d508      	bpl.n	8009fbe <_dtoa_r+0x39e>
 8009fac:	ec51 0b18 	vmov	r0, r1, d8
 8009fb0:	e9d6 2300 	ldrd	r2, r3, [r6]
 8009fb4:	f7f6 fb30 	bl	8000618 <__aeabi_dmul>
 8009fb8:	ec41 0b18 	vmov	d8, r0, r1
 8009fbc:	3501      	adds	r5, #1
 8009fbe:	107f      	asrs	r7, r7, #1
 8009fc0:	3608      	adds	r6, #8
 8009fc2:	e7e5      	b.n	8009f90 <_dtoa_r+0x370>
 8009fc4:	f000 80a6 	beq.w	800a114 <_dtoa_r+0x4f4>
 8009fc8:	f1ca 0600 	rsb	r6, sl, #0
 8009fcc:	4ba5      	ldr	r3, [pc, #660]	; (800a264 <_dtoa_r+0x644>)
 8009fce:	4fa6      	ldr	r7, [pc, #664]	; (800a268 <_dtoa_r+0x648>)
 8009fd0:	f006 020f 	and.w	r2, r6, #15
 8009fd4:	eb03 03c2 	add.w	r3, r3, r2, lsl #3
 8009fd8:	e9d3 2300 	ldrd	r2, r3, [r3]
 8009fdc:	e9dd 010a 	ldrd	r0, r1, [sp, #40]	; 0x28
 8009fe0:	f7f6 fb1a 	bl	8000618 <__aeabi_dmul>
 8009fe4:	e9cd 0102 	strd	r0, r1, [sp, #8]
 8009fe8:	1136      	asrs	r6, r6, #4
 8009fea:	2300      	movs	r3, #0
 8009fec:	2502      	movs	r5, #2
 8009fee:	2e00      	cmp	r6, #0
 8009ff0:	f040 8085 	bne.w	800a0fe <_dtoa_r+0x4de>
 8009ff4:	2b00      	cmp	r3, #0
 8009ff6:	d1d2      	bne.n	8009f9e <_dtoa_r+0x37e>
 8009ff8:	9b0e      	ldr	r3, [sp, #56]	; 0x38
 8009ffa:	2b00      	cmp	r3, #0
 8009ffc:	f000 808c 	beq.w	800a118 <_dtoa_r+0x4f8>
 800a000:	e9dd 6702 	ldrd	r6, r7, [sp, #8]
 800a004:	4b99      	ldr	r3, [pc, #612]	; (800a26c <_dtoa_r+0x64c>)
 800a006:	2200      	movs	r2, #0
 800a008:	4630      	mov	r0, r6
 800a00a:	4639      	mov	r1, r7
 800a00c:	f7f6 fd76 	bl	8000afc <__aeabi_dcmplt>
 800a010:	2800      	cmp	r0, #0
 800a012:	f000 8081 	beq.w	800a118 <_dtoa_r+0x4f8>
 800a016:	9b01      	ldr	r3, [sp, #4]
 800a018:	2b00      	cmp	r3, #0
 800a01a:	d07d      	beq.n	800a118 <_dtoa_r+0x4f8>
 800a01c:	f1b9 0f00 	cmp.w	r9, #0
 800a020:	dd3c      	ble.n	800a09c <_dtoa_r+0x47c>
 800a022:	f10a 33ff 	add.w	r3, sl, #4294967295
 800a026:	9307      	str	r3, [sp, #28]
 800a028:	2200      	movs	r2, #0
 800a02a:	4b91      	ldr	r3, [pc, #580]	; (800a270 <_dtoa_r+0x650>)
 800a02c:	4630      	mov	r0, r6
 800a02e:	4639      	mov	r1, r7
 800a030:	f7f6 faf2 	bl	8000618 <__aeabi_dmul>
 800a034:	e9cd 0102 	strd	r0, r1, [sp, #8]
 800a038:	3501      	adds	r5, #1
 800a03a:	f8cd 9030 	str.w	r9, [sp, #48]	; 0x30
 800a03e:	e9dd 6702 	ldrd	r6, r7, [sp, #8]
 800a042:	4628      	mov	r0, r5
 800a044:	f7f6 fa7e 	bl	8000544 <__aeabi_i2d>
 800a048:	4632      	mov	r2, r6
 800a04a:	463b      	mov	r3, r7
 800a04c:	f7f6 fae4 	bl	8000618 <__aeabi_dmul>
 800a050:	4b88      	ldr	r3, [pc, #544]	; (800a274 <_dtoa_r+0x654>)
 800a052:	2200      	movs	r2, #0
 800a054:	f7f6 f92a 	bl	80002ac <__adddf3>
 800a058:	f1a1 7350 	sub.w	r3, r1, #54525952	; 0x3400000
 800a05c:	e9cd 0102 	strd	r0, r1, [sp, #8]
 800a060:	9303      	str	r3, [sp, #12]
 800a062:	9b0c      	ldr	r3, [sp, #48]	; 0x30
 800a064:	2b00      	cmp	r3, #0
 800a066:	d15c      	bne.n	800a122 <_dtoa_r+0x502>
 800a068:	4b83      	ldr	r3, [pc, #524]	; (800a278 <_dtoa_r+0x658>)
 800a06a:	2200      	movs	r2, #0
 800a06c:	4630      	mov	r0, r6
 800a06e:	4639      	mov	r1, r7
 800a070:	f7f6 f91a 	bl	80002a8 <__aeabi_dsub>
 800a074:	e9dd 2302 	ldrd	r2, r3, [sp, #8]
 800a078:	4606      	mov	r6, r0
 800a07a:	460f      	mov	r7, r1
 800a07c:	f7f6 fd5c 	bl	8000b38 <__aeabi_dcmpgt>
 800a080:	2800      	cmp	r0, #0
 800a082:	f040 8296 	bne.w	800a5b2 <_dtoa_r+0x992>
 800a086:	e9dd 2102 	ldrd	r2, r1, [sp, #8]
 800a08a:	4630      	mov	r0, r6
 800a08c:	f101 4300 	add.w	r3, r1, #2147483648	; 0x80000000
 800a090:	4639      	mov	r1, r7
 800a092:	f7f6 fd33 	bl	8000afc <__aeabi_dcmplt>
 800a096:	2800      	cmp	r0, #0
 800a098:	f040 8288 	bne.w	800a5ac <_dtoa_r+0x98c>
 800a09c:	e9dd 230a 	ldrd	r2, r3, [sp, #40]	; 0x28
 800a0a0:	e9cd 2302 	strd	r2, r3, [sp, #8]
 800a0a4:	9b13      	ldr	r3, [sp, #76]	; 0x4c
 800a0a6:	2b00      	cmp	r3, #0
 800a0a8:	f2c0 8158 	blt.w	800a35c <_dtoa_r+0x73c>
 800a0ac:	f1ba 0f0e 	cmp.w	sl, #14
 800a0b0:	f300 8154 	bgt.w	800a35c <_dtoa_r+0x73c>
 800a0b4:	4b6b      	ldr	r3, [pc, #428]	; (800a264 <_dtoa_r+0x644>)
 800a0b6:	eb03 03ca 	add.w	r3, r3, sl, lsl #3
 800a0ba:	e9d3 8900 	ldrd	r8, r9, [r3]
 800a0be:	9b09      	ldr	r3, [sp, #36]	; 0x24
 800a0c0:	2b00      	cmp	r3, #0
 800a0c2:	f280 80e3 	bge.w	800a28c <_dtoa_r+0x66c>
 800a0c6:	9b01      	ldr	r3, [sp, #4]
 800a0c8:	2b00      	cmp	r3, #0
 800a0ca:	f300 80df 	bgt.w	800a28c <_dtoa_r+0x66c>
 800a0ce:	f040 826d 	bne.w	800a5ac <_dtoa_r+0x98c>
 800a0d2:	4b69      	ldr	r3, [pc, #420]	; (800a278 <_dtoa_r+0x658>)
 800a0d4:	2200      	movs	r2, #0
 800a0d6:	4640      	mov	r0, r8
 800a0d8:	4649      	mov	r1, r9
 800a0da:	f7f6 fa9d 	bl	8000618 <__aeabi_dmul>
 800a0de:	e9dd 2302 	ldrd	r2, r3, [sp, #8]
 800a0e2:	f7f6 fd1f 	bl	8000b24 <__aeabi_dcmpge>
 800a0e6:	9e01      	ldr	r6, [sp, #4]
 800a0e8:	4637      	mov	r7, r6
 800a0ea:	2800      	cmp	r0, #0
 800a0ec:	f040 8243 	bne.w	800a576 <_dtoa_r+0x956>
 800a0f0:	9d00      	ldr	r5, [sp, #0]
 800a0f2:	2331      	movs	r3, #49	; 0x31
 800a0f4:	f805 3b01 	strb.w	r3, [r5], #1
 800a0f8:	f10a 0a01 	add.w	sl, sl, #1
 800a0fc:	e23f      	b.n	800a57e <_dtoa_r+0x95e>
 800a0fe:	07f2      	lsls	r2, r6, #31
 800a100:	d505      	bpl.n	800a10e <_dtoa_r+0x4ee>
 800a102:	e9d7 2300 	ldrd	r2, r3, [r7]
 800a106:	f7f6 fa87 	bl	8000618 <__aeabi_dmul>
 800a10a:	3501      	adds	r5, #1
 800a10c:	2301      	movs	r3, #1
 800a10e:	1076      	asrs	r6, r6, #1
 800a110:	3708      	adds	r7, #8
 800a112:	e76c      	b.n	8009fee <_dtoa_r+0x3ce>
 800a114:	2502      	movs	r5, #2
 800a116:	e76f      	b.n	8009ff8 <_dtoa_r+0x3d8>
 800a118:	9b01      	ldr	r3, [sp, #4]
 800a11a:	f8cd a01c 	str.w	sl, [sp, #28]
 800a11e:	930c      	str	r3, [sp, #48]	; 0x30
 800a120:	e78d      	b.n	800a03e <_dtoa_r+0x41e>
 800a122:	9900      	ldr	r1, [sp, #0]
 800a124:	980c      	ldr	r0, [sp, #48]	; 0x30
 800a126:	9a0c      	ldr	r2, [sp, #48]	; 0x30
 800a128:	4b4e      	ldr	r3, [pc, #312]	; (800a264 <_dtoa_r+0x644>)
 800a12a:	ed9d 7b02 	vldr	d7, [sp, #8]
 800a12e:	4401      	add	r1, r0
 800a130:	9102      	str	r1, [sp, #8]
 800a132:	9908      	ldr	r1, [sp, #32]
 800a134:	eeb0 8a47 	vmov.f32	s16, s14
 800a138:	eef0 8a67 	vmov.f32	s17, s15
 800a13c:	eb03 03c2 	add.w	r3, r3, r2, lsl #3
 800a140:	e953 2302 	ldrd	r2, r3, [r3, #-8]
 800a144:	2900      	cmp	r1, #0
 800a146:	d045      	beq.n	800a1d4 <_dtoa_r+0x5b4>
 800a148:	494c      	ldr	r1, [pc, #304]	; (800a27c <_dtoa_r+0x65c>)
 800a14a:	2000      	movs	r0, #0
 800a14c:	f7f6 fb8e 	bl	800086c <__aeabi_ddiv>
 800a150:	ec53 2b18 	vmov	r2, r3, d8
 800a154:	f7f6 f8a8 	bl	80002a8 <__aeabi_dsub>
 800a158:	9d00      	ldr	r5, [sp, #0]
 800a15a:	ec41 0b18 	vmov	d8, r0, r1
 800a15e:	4639      	mov	r1, r7
 800a160:	4630      	mov	r0, r6
 800a162:	f7f6 fd09 	bl	8000b78 <__aeabi_d2iz>
 800a166:	900c      	str	r0, [sp, #48]	; 0x30
 800a168:	f7f6 f9ec 	bl	8000544 <__aeabi_i2d>
 800a16c:	4602      	mov	r2, r0
 800a16e:	460b      	mov	r3, r1
 800a170:	4630      	mov	r0, r6
 800a172:	4639      	mov	r1, r7
 800a174:	f7f6 f898 	bl	80002a8 <__aeabi_dsub>
 800a178:	9b0c      	ldr	r3, [sp, #48]	; 0x30
 800a17a:	3330      	adds	r3, #48	; 0x30
 800a17c:	f805 3b01 	strb.w	r3, [r5], #1
 800a180:	ec53 2b18 	vmov	r2, r3, d8
 800a184:	4606      	mov	r6, r0
 800a186:	460f      	mov	r7, r1
 800a188:	f7f6 fcb8 	bl	8000afc <__aeabi_dcmplt>
 800a18c:	2800      	cmp	r0, #0
 800a18e:	d165      	bne.n	800a25c <_dtoa_r+0x63c>
 800a190:	4632      	mov	r2, r6
 800a192:	463b      	mov	r3, r7
 800a194:	4935      	ldr	r1, [pc, #212]	; (800a26c <_dtoa_r+0x64c>)
 800a196:	2000      	movs	r0, #0
 800a198:	f7f6 f886 	bl	80002a8 <__aeabi_dsub>
 800a19c:	ec53 2b18 	vmov	r2, r3, d8
 800a1a0:	f7f6 fcac 	bl	8000afc <__aeabi_dcmplt>
 800a1a4:	2800      	cmp	r0, #0
 800a1a6:	f040 80b9 	bne.w	800a31c <_dtoa_r+0x6fc>
 800a1aa:	9b02      	ldr	r3, [sp, #8]
 800a1ac:	429d      	cmp	r5, r3
 800a1ae:	f43f af75 	beq.w	800a09c <_dtoa_r+0x47c>
 800a1b2:	4b2f      	ldr	r3, [pc, #188]	; (800a270 <_dtoa_r+0x650>)
 800a1b4:	ec51 0b18 	vmov	r0, r1, d8
 800a1b8:	2200      	movs	r2, #0
 800a1ba:	f7f6 fa2d 	bl	8000618 <__aeabi_dmul>
 800a1be:	4b2c      	ldr	r3, [pc, #176]	; (800a270 <_dtoa_r+0x650>)
 800a1c0:	ec41 0b18 	vmov	d8, r0, r1
 800a1c4:	2200      	movs	r2, #0
 800a1c6:	4630      	mov	r0, r6
 800a1c8:	4639      	mov	r1, r7
 800a1ca:	f7f6 fa25 	bl	8000618 <__aeabi_dmul>
 800a1ce:	4606      	mov	r6, r0
 800a1d0:	460f      	mov	r7, r1
 800a1d2:	e7c4      	b.n	800a15e <_dtoa_r+0x53e>
 800a1d4:	ec51 0b17 	vmov	r0, r1, d7
 800a1d8:	f7f6 fa1e 	bl	8000618 <__aeabi_dmul>
 800a1dc:	9b02      	ldr	r3, [sp, #8]
 800a1de:	9d00      	ldr	r5, [sp, #0]
 800a1e0:	930c      	str	r3, [sp, #48]	; 0x30
 800a1e2:	ec41 0b18 	vmov	d8, r0, r1
 800a1e6:	4639      	mov	r1, r7
 800a1e8:	4630      	mov	r0, r6
 800a1ea:	f7f6 fcc5 	bl	8000b78 <__aeabi_d2iz>
 800a1ee:	9011      	str	r0, [sp, #68]	; 0x44
 800a1f0:	f7f6 f9a8 	bl	8000544 <__aeabi_i2d>
 800a1f4:	4602      	mov	r2, r0
 800a1f6:	460b      	mov	r3, r1
 800a1f8:	4630      	mov	r0, r6
 800a1fa:	4639      	mov	r1, r7
 800a1fc:	f7f6 f854 	bl	80002a8 <__aeabi_dsub>
 800a200:	9b11      	ldr	r3, [sp, #68]	; 0x44
 800a202:	3330      	adds	r3, #48	; 0x30
 800a204:	f805 3b01 	strb.w	r3, [r5], #1
 800a208:	9b02      	ldr	r3, [sp, #8]
 800a20a:	429d      	cmp	r5, r3
 800a20c:	4606      	mov	r6, r0
 800a20e:	460f      	mov	r7, r1
 800a210:	f04f 0200 	mov.w	r2, #0
 800a214:	d134      	bne.n	800a280 <_dtoa_r+0x660>
 800a216:	4b19      	ldr	r3, [pc, #100]	; (800a27c <_dtoa_r+0x65c>)
 800a218:	ec51 0b18 	vmov	r0, r1, d8
 800a21c:	f7f6 f846 	bl	80002ac <__adddf3>
 800a220:	4602      	mov	r2, r0
 800a222:	460b      	mov	r3, r1
 800a224:	4630      	mov	r0, r6
 800a226:	4639      	mov	r1, r7
 800a228:	f7f6 fc86 	bl	8000b38 <__aeabi_dcmpgt>
 800a22c:	2800      	cmp	r0, #0
 800a22e:	d175      	bne.n	800a31c <_dtoa_r+0x6fc>
 800a230:	ec53 2b18 	vmov	r2, r3, d8
 800a234:	4911      	ldr	r1, [pc, #68]	; (800a27c <_dtoa_r+0x65c>)
 800a236:	2000      	movs	r0, #0
 800a238:	f7f6 f836 	bl	80002a8 <__aeabi_dsub>
 800a23c:	4602      	mov	r2, r0
 800a23e:	460b      	mov	r3, r1
 800a240:	4630      	mov	r0, r6
 800a242:	4639      	mov	r1, r7
 800a244:	f7f6 fc5a 	bl	8000afc <__aeabi_dcmplt>
 800a248:	2800      	cmp	r0, #0
 800a24a:	f43f af27 	beq.w	800a09c <_dtoa_r+0x47c>
 800a24e:	9d0c      	ldr	r5, [sp, #48]	; 0x30
 800a250:	1e6b      	subs	r3, r5, #1
 800a252:	930c      	str	r3, [sp, #48]	; 0x30
 800a254:	f815 3c01 	ldrb.w	r3, [r5, #-1]
 800a258:	2b30      	cmp	r3, #48	; 0x30
 800a25a:	d0f8      	beq.n	800a24e <_dtoa_r+0x62e>
 800a25c:	f8dd a01c 	ldr.w	sl, [sp, #28]
 800a260:	e04a      	b.n	800a2f8 <_dtoa_r+0x6d8>
 800a262:	bf00      	nop
 800a264:	0800e528 	.word	0x0800e528
 800a268:	0800e500 	.word	0x0800e500
 800a26c:	3ff00000 	.word	0x3ff00000
 800a270:	40240000 	.word	0x40240000
 800a274:	401c0000 	.word	0x401c0000
 800a278:	40140000 	.word	0x40140000
 800a27c:	3fe00000 	.word	0x3fe00000
 800a280:	4baf      	ldr	r3, [pc, #700]	; (800a540 <_dtoa_r+0x920>)
 800a282:	f7f6 f9c9 	bl	8000618 <__aeabi_dmul>
 800a286:	4606      	mov	r6, r0
 800a288:	460f      	mov	r7, r1
 800a28a:	e7ac      	b.n	800a1e6 <_dtoa_r+0x5c6>
 800a28c:	e9dd 6702 	ldrd	r6, r7, [sp, #8]
 800a290:	9d00      	ldr	r5, [sp, #0]
 800a292:	4642      	mov	r2, r8
 800a294:	464b      	mov	r3, r9
 800a296:	4630      	mov	r0, r6
 800a298:	4639      	mov	r1, r7
 800a29a:	f7f6 fae7 	bl	800086c <__aeabi_ddiv>
 800a29e:	f7f6 fc6b 	bl	8000b78 <__aeabi_d2iz>
 800a2a2:	9002      	str	r0, [sp, #8]
 800a2a4:	f7f6 f94e 	bl	8000544 <__aeabi_i2d>
 800a2a8:	4642      	mov	r2, r8
 800a2aa:	464b      	mov	r3, r9
 800a2ac:	f7f6 f9b4 	bl	8000618 <__aeabi_dmul>
 800a2b0:	4602      	mov	r2, r0
 800a2b2:	460b      	mov	r3, r1
 800a2b4:	4630      	mov	r0, r6
 800a2b6:	4639      	mov	r1, r7
 800a2b8:	f7f5 fff6 	bl	80002a8 <__aeabi_dsub>
 800a2bc:	9e02      	ldr	r6, [sp, #8]
 800a2be:	9f01      	ldr	r7, [sp, #4]
 800a2c0:	3630      	adds	r6, #48	; 0x30
 800a2c2:	f805 6b01 	strb.w	r6, [r5], #1
 800a2c6:	9e00      	ldr	r6, [sp, #0]
 800a2c8:	1bae      	subs	r6, r5, r6
 800a2ca:	42b7      	cmp	r7, r6
 800a2cc:	4602      	mov	r2, r0
 800a2ce:	460b      	mov	r3, r1
 800a2d0:	d137      	bne.n	800a342 <_dtoa_r+0x722>
 800a2d2:	f7f5 ffeb 	bl	80002ac <__adddf3>
 800a2d6:	4642      	mov	r2, r8
 800a2d8:	464b      	mov	r3, r9
 800a2da:	4606      	mov	r6, r0
 800a2dc:	460f      	mov	r7, r1
 800a2de:	f7f6 fc2b 	bl	8000b38 <__aeabi_dcmpgt>
 800a2e2:	b9c8      	cbnz	r0, 800a318 <_dtoa_r+0x6f8>
 800a2e4:	4642      	mov	r2, r8
 800a2e6:	464b      	mov	r3, r9
 800a2e8:	4630      	mov	r0, r6
 800a2ea:	4639      	mov	r1, r7
 800a2ec:	f7f6 fbfc 	bl	8000ae8 <__aeabi_dcmpeq>
 800a2f0:	b110      	cbz	r0, 800a2f8 <_dtoa_r+0x6d8>
 800a2f2:	9b02      	ldr	r3, [sp, #8]
 800a2f4:	07d9      	lsls	r1, r3, #31
 800a2f6:	d40f      	bmi.n	800a318 <_dtoa_r+0x6f8>
 800a2f8:	4620      	mov	r0, r4
 800a2fa:	4659      	mov	r1, fp
 800a2fc:	f000 fe5c 	bl	800afb8 <_Bfree>
 800a300:	2300      	movs	r3, #0
 800a302:	702b      	strb	r3, [r5, #0]
 800a304:	9b0f      	ldr	r3, [sp, #60]	; 0x3c
 800a306:	f10a 0001 	add.w	r0, sl, #1
 800a30a:	6018      	str	r0, [r3, #0]
 800a30c:	9b21      	ldr	r3, [sp, #132]	; 0x84
 800a30e:	2b00      	cmp	r3, #0
 800a310:	f43f acd8 	beq.w	8009cc4 <_dtoa_r+0xa4>
 800a314:	601d      	str	r5, [r3, #0]
 800a316:	e4d5      	b.n	8009cc4 <_dtoa_r+0xa4>
 800a318:	f8cd a01c 	str.w	sl, [sp, #28]
 800a31c:	462b      	mov	r3, r5
 800a31e:	461d      	mov	r5, r3
 800a320:	f813 2d01 	ldrb.w	r2, [r3, #-1]!
 800a324:	2a39      	cmp	r2, #57	; 0x39
 800a326:	d108      	bne.n	800a33a <_dtoa_r+0x71a>
 800a328:	9a00      	ldr	r2, [sp, #0]
 800a32a:	429a      	cmp	r2, r3
 800a32c:	d1f7      	bne.n	800a31e <_dtoa_r+0x6fe>
 800a32e:	9a07      	ldr	r2, [sp, #28]
 800a330:	9900      	ldr	r1, [sp, #0]
 800a332:	3201      	adds	r2, #1
 800a334:	9207      	str	r2, [sp, #28]
 800a336:	2230      	movs	r2, #48	; 0x30
 800a338:	700a      	strb	r2, [r1, #0]
 800a33a:	781a      	ldrb	r2, [r3, #0]
 800a33c:	3201      	adds	r2, #1
 800a33e:	701a      	strb	r2, [r3, #0]
 800a340:	e78c      	b.n	800a25c <_dtoa_r+0x63c>
 800a342:	4b7f      	ldr	r3, [pc, #508]	; (800a540 <_dtoa_r+0x920>)
 800a344:	2200      	movs	r2, #0
 800a346:	f7f6 f967 	bl	8000618 <__aeabi_dmul>
 800a34a:	2200      	movs	r2, #0
 800a34c:	2300      	movs	r3, #0
 800a34e:	4606      	mov	r6, r0
 800a350:	460f      	mov	r7, r1
 800a352:	f7f6 fbc9 	bl	8000ae8 <__aeabi_dcmpeq>
 800a356:	2800      	cmp	r0, #0
 800a358:	d09b      	beq.n	800a292 <_dtoa_r+0x672>
 800a35a:	e7cd      	b.n	800a2f8 <_dtoa_r+0x6d8>
 800a35c:	9a08      	ldr	r2, [sp, #32]
 800a35e:	2a00      	cmp	r2, #0
 800a360:	f000 80c4 	beq.w	800a4ec <_dtoa_r+0x8cc>
 800a364:	9a05      	ldr	r2, [sp, #20]
 800a366:	2a01      	cmp	r2, #1
 800a368:	f300 80a8 	bgt.w	800a4bc <_dtoa_r+0x89c>
 800a36c:	9a10      	ldr	r2, [sp, #64]	; 0x40
 800a36e:	2a00      	cmp	r2, #0
 800a370:	f000 80a0 	beq.w	800a4b4 <_dtoa_r+0x894>
 800a374:	f203 4333 	addw	r3, r3, #1075	; 0x433
 800a378:	9e06      	ldr	r6, [sp, #24]
 800a37a:	4645      	mov	r5, r8
 800a37c:	9a04      	ldr	r2, [sp, #16]
 800a37e:	2101      	movs	r1, #1
 800a380:	441a      	add	r2, r3
 800a382:	4620      	mov	r0, r4
 800a384:	4498      	add	r8, r3
 800a386:	9204      	str	r2, [sp, #16]
 800a388:	f000 ff1c 	bl	800b1c4 <__i2b>
 800a38c:	4607      	mov	r7, r0
 800a38e:	2d00      	cmp	r5, #0
 800a390:	dd0b      	ble.n	800a3aa <_dtoa_r+0x78a>
 800a392:	9b04      	ldr	r3, [sp, #16]
 800a394:	2b00      	cmp	r3, #0
 800a396:	dd08      	ble.n	800a3aa <_dtoa_r+0x78a>
 800a398:	42ab      	cmp	r3, r5
 800a39a:	9a04      	ldr	r2, [sp, #16]
 800a39c:	bfa8      	it	ge
 800a39e:	462b      	movge	r3, r5
 800a3a0:	eba8 0803 	sub.w	r8, r8, r3
 800a3a4:	1aed      	subs	r5, r5, r3
 800a3a6:	1ad3      	subs	r3, r2, r3
 800a3a8:	9304      	str	r3, [sp, #16]
 800a3aa:	9b06      	ldr	r3, [sp, #24]
 800a3ac:	b1fb      	cbz	r3, 800a3ee <_dtoa_r+0x7ce>
 800a3ae:	9b08      	ldr	r3, [sp, #32]
 800a3b0:	2b00      	cmp	r3, #0
 800a3b2:	f000 809f 	beq.w	800a4f4 <_dtoa_r+0x8d4>
 800a3b6:	2e00      	cmp	r6, #0
 800a3b8:	dd11      	ble.n	800a3de <_dtoa_r+0x7be>
 800a3ba:	4639      	mov	r1, r7
 800a3bc:	4632      	mov	r2, r6
 800a3be:	4620      	mov	r0, r4
 800a3c0:	f000 ffbc 	bl	800b33c <__pow5mult>
 800a3c4:	465a      	mov	r2, fp
 800a3c6:	4601      	mov	r1, r0
 800a3c8:	4607      	mov	r7, r0
 800a3ca:	4620      	mov	r0, r4
 800a3cc:	f000 ff10 	bl	800b1f0 <__multiply>
 800a3d0:	4659      	mov	r1, fp
 800a3d2:	9007      	str	r0, [sp, #28]
 800a3d4:	4620      	mov	r0, r4
 800a3d6:	f000 fdef 	bl	800afb8 <_Bfree>
 800a3da:	9b07      	ldr	r3, [sp, #28]
 800a3dc:	469b      	mov	fp, r3
 800a3de:	9b06      	ldr	r3, [sp, #24]
 800a3e0:	1b9a      	subs	r2, r3, r6
 800a3e2:	d004      	beq.n	800a3ee <_dtoa_r+0x7ce>
 800a3e4:	4659      	mov	r1, fp
 800a3e6:	4620      	mov	r0, r4
 800a3e8:	f000 ffa8 	bl	800b33c <__pow5mult>
 800a3ec:	4683      	mov	fp, r0
 800a3ee:	2101      	movs	r1, #1
 800a3f0:	4620      	mov	r0, r4
 800a3f2:	f000 fee7 	bl	800b1c4 <__i2b>
 800a3f6:	9b0d      	ldr	r3, [sp, #52]	; 0x34
 800a3f8:	2b00      	cmp	r3, #0
 800a3fa:	4606      	mov	r6, r0
 800a3fc:	dd7c      	ble.n	800a4f8 <_dtoa_r+0x8d8>
 800a3fe:	461a      	mov	r2, r3
 800a400:	4601      	mov	r1, r0
 800a402:	4620      	mov	r0, r4
 800a404:	f000 ff9a 	bl	800b33c <__pow5mult>
 800a408:	9b05      	ldr	r3, [sp, #20]
 800a40a:	2b01      	cmp	r3, #1
 800a40c:	4606      	mov	r6, r0
 800a40e:	dd76      	ble.n	800a4fe <_dtoa_r+0x8de>
 800a410:	2300      	movs	r3, #0
 800a412:	9306      	str	r3, [sp, #24]
 800a414:	6933      	ldr	r3, [r6, #16]
 800a416:	eb06 0383 	add.w	r3, r6, r3, lsl #2
 800a41a:	6918      	ldr	r0, [r3, #16]
 800a41c:	f000 fe82 	bl	800b124 <__hi0bits>
 800a420:	f1c0 0020 	rsb	r0, r0, #32
 800a424:	9b04      	ldr	r3, [sp, #16]
 800a426:	4418      	add	r0, r3
 800a428:	f010 001f 	ands.w	r0, r0, #31
 800a42c:	f000 8086 	beq.w	800a53c <_dtoa_r+0x91c>
 800a430:	f1c0 0320 	rsb	r3, r0, #32
 800a434:	2b04      	cmp	r3, #4
 800a436:	dd7f      	ble.n	800a538 <_dtoa_r+0x918>
 800a438:	f1c0 001c 	rsb	r0, r0, #28
 800a43c:	9b04      	ldr	r3, [sp, #16]
 800a43e:	4403      	add	r3, r0
 800a440:	4480      	add	r8, r0
 800a442:	4405      	add	r5, r0
 800a444:	9304      	str	r3, [sp, #16]
 800a446:	f1b8 0f00 	cmp.w	r8, #0
 800a44a:	dd05      	ble.n	800a458 <_dtoa_r+0x838>
 800a44c:	4659      	mov	r1, fp
 800a44e:	4642      	mov	r2, r8
 800a450:	4620      	mov	r0, r4
 800a452:	f000 ffcd 	bl	800b3f0 <__lshift>
 800a456:	4683      	mov	fp, r0
 800a458:	9b04      	ldr	r3, [sp, #16]
 800a45a:	2b00      	cmp	r3, #0
 800a45c:	dd05      	ble.n	800a46a <_dtoa_r+0x84a>
 800a45e:	4631      	mov	r1, r6
 800a460:	461a      	mov	r2, r3
 800a462:	4620      	mov	r0, r4
 800a464:	f000 ffc4 	bl	800b3f0 <__lshift>
 800a468:	4606      	mov	r6, r0
 800a46a:	9b0e      	ldr	r3, [sp, #56]	; 0x38
 800a46c:	2b00      	cmp	r3, #0
 800a46e:	d069      	beq.n	800a544 <_dtoa_r+0x924>
 800a470:	4631      	mov	r1, r6
 800a472:	4658      	mov	r0, fp
 800a474:	f001 f828 	bl	800b4c8 <__mcmp>
 800a478:	2800      	cmp	r0, #0
 800a47a:	da63      	bge.n	800a544 <_dtoa_r+0x924>
 800a47c:	2300      	movs	r3, #0
 800a47e:	4659      	mov	r1, fp
 800a480:	220a      	movs	r2, #10
 800a482:	4620      	mov	r0, r4
 800a484:	f000 fdba 	bl	800affc <__multadd>
 800a488:	9b08      	ldr	r3, [sp, #32]
 800a48a:	f10a 3aff 	add.w	sl, sl, #4294967295
 800a48e:	4683      	mov	fp, r0
 800a490:	2b00      	cmp	r3, #0
 800a492:	f000 818f 	beq.w	800a7b4 <_dtoa_r+0xb94>
 800a496:	4639      	mov	r1, r7
 800a498:	2300      	movs	r3, #0
 800a49a:	220a      	movs	r2, #10
 800a49c:	4620      	mov	r0, r4
 800a49e:	f000 fdad 	bl	800affc <__multadd>
 800a4a2:	f1b9 0f00 	cmp.w	r9, #0
 800a4a6:	4607      	mov	r7, r0
 800a4a8:	f300 808e 	bgt.w	800a5c8 <_dtoa_r+0x9a8>
 800a4ac:	9b05      	ldr	r3, [sp, #20]
 800a4ae:	2b02      	cmp	r3, #2
 800a4b0:	dc50      	bgt.n	800a554 <_dtoa_r+0x934>
 800a4b2:	e089      	b.n	800a5c8 <_dtoa_r+0x9a8>
 800a4b4:	9b12      	ldr	r3, [sp, #72]	; 0x48
 800a4b6:	f1c3 0336 	rsb	r3, r3, #54	; 0x36
 800a4ba:	e75d      	b.n	800a378 <_dtoa_r+0x758>
 800a4bc:	9b01      	ldr	r3, [sp, #4]
 800a4be:	1e5e      	subs	r6, r3, #1
 800a4c0:	9b06      	ldr	r3, [sp, #24]
 800a4c2:	42b3      	cmp	r3, r6
 800a4c4:	bfbf      	itttt	lt
 800a4c6:	9b06      	ldrlt	r3, [sp, #24]
 800a4c8:	9606      	strlt	r6, [sp, #24]
 800a4ca:	1af2      	sublt	r2, r6, r3
 800a4cc:	9b0d      	ldrlt	r3, [sp, #52]	; 0x34
 800a4ce:	bfb6      	itet	lt
 800a4d0:	189b      	addlt	r3, r3, r2
 800a4d2:	1b9e      	subge	r6, r3, r6
 800a4d4:	930d      	strlt	r3, [sp, #52]	; 0x34
 800a4d6:	9b01      	ldr	r3, [sp, #4]
 800a4d8:	bfb8      	it	lt
 800a4da:	2600      	movlt	r6, #0
 800a4dc:	2b00      	cmp	r3, #0
 800a4de:	bfb5      	itete	lt
 800a4e0:	eba8 0503 	sublt.w	r5, r8, r3
 800a4e4:	9b01      	ldrge	r3, [sp, #4]
 800a4e6:	2300      	movlt	r3, #0
 800a4e8:	4645      	movge	r5, r8
 800a4ea:	e747      	b.n	800a37c <_dtoa_r+0x75c>
 800a4ec:	9e06      	ldr	r6, [sp, #24]
 800a4ee:	9f08      	ldr	r7, [sp, #32]
 800a4f0:	4645      	mov	r5, r8
 800a4f2:	e74c      	b.n	800a38e <_dtoa_r+0x76e>
 800a4f4:	9a06      	ldr	r2, [sp, #24]
 800a4f6:	e775      	b.n	800a3e4 <_dtoa_r+0x7c4>
 800a4f8:	9b05      	ldr	r3, [sp, #20]
 800a4fa:	2b01      	cmp	r3, #1
 800a4fc:	dc18      	bgt.n	800a530 <_dtoa_r+0x910>
 800a4fe:	9b02      	ldr	r3, [sp, #8]
 800a500:	b9b3      	cbnz	r3, 800a530 <_dtoa_r+0x910>
 800a502:	9b03      	ldr	r3, [sp, #12]
 800a504:	f3c3 0313 	ubfx	r3, r3, #0, #20
 800a508:	b9a3      	cbnz	r3, 800a534 <_dtoa_r+0x914>
 800a50a:	9b03      	ldr	r3, [sp, #12]
 800a50c:	f023 4300 	bic.w	r3, r3, #2147483648	; 0x80000000
 800a510:	0d1b      	lsrs	r3, r3, #20
 800a512:	051b      	lsls	r3, r3, #20
 800a514:	b12b      	cbz	r3, 800a522 <_dtoa_r+0x902>
 800a516:	9b04      	ldr	r3, [sp, #16]
 800a518:	3301      	adds	r3, #1
 800a51a:	9304      	str	r3, [sp, #16]
 800a51c:	f108 0801 	add.w	r8, r8, #1
 800a520:	2301      	movs	r3, #1
 800a522:	9306      	str	r3, [sp, #24]
 800a524:	9b0d      	ldr	r3, [sp, #52]	; 0x34
 800a526:	2b00      	cmp	r3, #0
 800a528:	f47f af74 	bne.w	800a414 <_dtoa_r+0x7f4>
 800a52c:	2001      	movs	r0, #1
 800a52e:	e779      	b.n	800a424 <_dtoa_r+0x804>
 800a530:	2300      	movs	r3, #0
 800a532:	e7f6      	b.n	800a522 <_dtoa_r+0x902>
 800a534:	9b02      	ldr	r3, [sp, #8]
 800a536:	e7f4      	b.n	800a522 <_dtoa_r+0x902>
 800a538:	d085      	beq.n	800a446 <_dtoa_r+0x826>
 800a53a:	4618      	mov	r0, r3
 800a53c:	301c      	adds	r0, #28
 800a53e:	e77d      	b.n	800a43c <_dtoa_r+0x81c>
 800a540:	40240000 	.word	0x40240000
 800a544:	9b01      	ldr	r3, [sp, #4]
 800a546:	2b00      	cmp	r3, #0
 800a548:	dc38      	bgt.n	800a5bc <_dtoa_r+0x99c>
 800a54a:	9b05      	ldr	r3, [sp, #20]
 800a54c:	2b02      	cmp	r3, #2
 800a54e:	dd35      	ble.n	800a5bc <_dtoa_r+0x99c>
 800a550:	f8dd 9004 	ldr.w	r9, [sp, #4]
 800a554:	f1b9 0f00 	cmp.w	r9, #0
 800a558:	d10d      	bne.n	800a576 <_dtoa_r+0x956>
 800a55a:	4631      	mov	r1, r6
 800a55c:	464b      	mov	r3, r9
 800a55e:	2205      	movs	r2, #5
 800a560:	4620      	mov	r0, r4
 800a562:	f000 fd4b 	bl	800affc <__multadd>
 800a566:	4601      	mov	r1, r0
 800a568:	4606      	mov	r6, r0
 800a56a:	4658      	mov	r0, fp
 800a56c:	f000 ffac 	bl	800b4c8 <__mcmp>
 800a570:	2800      	cmp	r0, #0
 800a572:	f73f adbd 	bgt.w	800a0f0 <_dtoa_r+0x4d0>
 800a576:	9b09      	ldr	r3, [sp, #36]	; 0x24
 800a578:	9d00      	ldr	r5, [sp, #0]
 800a57a:	ea6f 0a03 	mvn.w	sl, r3
 800a57e:	f04f 0800 	mov.w	r8, #0
 800a582:	4631      	mov	r1, r6
 800a584:	4620      	mov	r0, r4
 800a586:	f000 fd17 	bl	800afb8 <_Bfree>
 800a58a:	2f00      	cmp	r7, #0
 800a58c:	f43f aeb4 	beq.w	800a2f8 <_dtoa_r+0x6d8>
 800a590:	f1b8 0f00 	cmp.w	r8, #0
 800a594:	d005      	beq.n	800a5a2 <_dtoa_r+0x982>
 800a596:	45b8      	cmp	r8, r7
 800a598:	d003      	beq.n	800a5a2 <_dtoa_r+0x982>
 800a59a:	4641      	mov	r1, r8
 800a59c:	4620      	mov	r0, r4
 800a59e:	f000 fd0b 	bl	800afb8 <_Bfree>
 800a5a2:	4639      	mov	r1, r7
 800a5a4:	4620      	mov	r0, r4
 800a5a6:	f000 fd07 	bl	800afb8 <_Bfree>
 800a5aa:	e6a5      	b.n	800a2f8 <_dtoa_r+0x6d8>
 800a5ac:	2600      	movs	r6, #0
 800a5ae:	4637      	mov	r7, r6
 800a5b0:	e7e1      	b.n	800a576 <_dtoa_r+0x956>
 800a5b2:	9e0c      	ldr	r6, [sp, #48]	; 0x30
 800a5b4:	f8dd a01c 	ldr.w	sl, [sp, #28]
 800a5b8:	4637      	mov	r7, r6
 800a5ba:	e599      	b.n	800a0f0 <_dtoa_r+0x4d0>
 800a5bc:	9b08      	ldr	r3, [sp, #32]
 800a5be:	f8dd 9004 	ldr.w	r9, [sp, #4]
 800a5c2:	2b00      	cmp	r3, #0
 800a5c4:	f000 80fd 	beq.w	800a7c2 <_dtoa_r+0xba2>
 800a5c8:	2d00      	cmp	r5, #0
 800a5ca:	dd05      	ble.n	800a5d8 <_dtoa_r+0x9b8>
 800a5cc:	4639      	mov	r1, r7
 800a5ce:	462a      	mov	r2, r5
 800a5d0:	4620      	mov	r0, r4
 800a5d2:	f000 ff0d 	bl	800b3f0 <__lshift>
 800a5d6:	4607      	mov	r7, r0
 800a5d8:	9b06      	ldr	r3, [sp, #24]
 800a5da:	2b00      	cmp	r3, #0
 800a5dc:	d05c      	beq.n	800a698 <_dtoa_r+0xa78>
 800a5de:	6879      	ldr	r1, [r7, #4]
 800a5e0:	4620      	mov	r0, r4
 800a5e2:	f000 fca9 	bl	800af38 <_Balloc>
 800a5e6:	4605      	mov	r5, r0
 800a5e8:	b928      	cbnz	r0, 800a5f6 <_dtoa_r+0x9d6>
 800a5ea:	4b80      	ldr	r3, [pc, #512]	; (800a7ec <_dtoa_r+0xbcc>)
 800a5ec:	4602      	mov	r2, r0
 800a5ee:	f240 21ea 	movw	r1, #746	; 0x2ea
 800a5f2:	f7ff bb2e 	b.w	8009c52 <_dtoa_r+0x32>
 800a5f6:	693a      	ldr	r2, [r7, #16]
 800a5f8:	3202      	adds	r2, #2
 800a5fa:	0092      	lsls	r2, r2, #2
 800a5fc:	f107 010c 	add.w	r1, r7, #12
 800a600:	300c      	adds	r0, #12
 800a602:	f7fd fc69 	bl	8007ed8 <memcpy>
 800a606:	2201      	movs	r2, #1
 800a608:	4629      	mov	r1, r5
 800a60a:	4620      	mov	r0, r4
 800a60c:	f000 fef0 	bl	800b3f0 <__lshift>
 800a610:	9b00      	ldr	r3, [sp, #0]
 800a612:	3301      	adds	r3, #1
 800a614:	9301      	str	r3, [sp, #4]
 800a616:	9b00      	ldr	r3, [sp, #0]
 800a618:	444b      	add	r3, r9
 800a61a:	9307      	str	r3, [sp, #28]
 800a61c:	9b02      	ldr	r3, [sp, #8]
 800a61e:	f003 0301 	and.w	r3, r3, #1
 800a622:	46b8      	mov	r8, r7
 800a624:	9306      	str	r3, [sp, #24]
 800a626:	4607      	mov	r7, r0
 800a628:	9b01      	ldr	r3, [sp, #4]
 800a62a:	4631      	mov	r1, r6
 800a62c:	3b01      	subs	r3, #1
 800a62e:	4658      	mov	r0, fp
 800a630:	9302      	str	r3, [sp, #8]
 800a632:	f7ff fa69 	bl	8009b08 <quorem>
 800a636:	4603      	mov	r3, r0
 800a638:	3330      	adds	r3, #48	; 0x30
 800a63a:	9004      	str	r0, [sp, #16]
 800a63c:	4641      	mov	r1, r8
 800a63e:	4658      	mov	r0, fp
 800a640:	9308      	str	r3, [sp, #32]
 800a642:	f000 ff41 	bl	800b4c8 <__mcmp>
 800a646:	463a      	mov	r2, r7
 800a648:	4681      	mov	r9, r0
 800a64a:	4631      	mov	r1, r6
 800a64c:	4620      	mov	r0, r4
 800a64e:	f000 ff57 	bl	800b500 <__mdiff>
 800a652:	68c2      	ldr	r2, [r0, #12]
 800a654:	9b08      	ldr	r3, [sp, #32]
 800a656:	4605      	mov	r5, r0
 800a658:	bb02      	cbnz	r2, 800a69c <_dtoa_r+0xa7c>
 800a65a:	4601      	mov	r1, r0
 800a65c:	4658      	mov	r0, fp
 800a65e:	f000 ff33 	bl	800b4c8 <__mcmp>
 800a662:	9b08      	ldr	r3, [sp, #32]
 800a664:	4602      	mov	r2, r0
 800a666:	4629      	mov	r1, r5
 800a668:	4620      	mov	r0, r4
 800a66a:	e9cd 3208 	strd	r3, r2, [sp, #32]
 800a66e:	f000 fca3 	bl	800afb8 <_Bfree>
 800a672:	9b05      	ldr	r3, [sp, #20]
 800a674:	9a09      	ldr	r2, [sp, #36]	; 0x24
 800a676:	9d01      	ldr	r5, [sp, #4]
 800a678:	ea43 0102 	orr.w	r1, r3, r2
 800a67c:	9b06      	ldr	r3, [sp, #24]
 800a67e:	430b      	orrs	r3, r1
 800a680:	9b08      	ldr	r3, [sp, #32]
 800a682:	d10d      	bne.n	800a6a0 <_dtoa_r+0xa80>
 800a684:	2b39      	cmp	r3, #57	; 0x39
 800a686:	d029      	beq.n	800a6dc <_dtoa_r+0xabc>
 800a688:	f1b9 0f00 	cmp.w	r9, #0
 800a68c:	dd01      	ble.n	800a692 <_dtoa_r+0xa72>
 800a68e:	9b04      	ldr	r3, [sp, #16]
 800a690:	3331      	adds	r3, #49	; 0x31
 800a692:	9a02      	ldr	r2, [sp, #8]
 800a694:	7013      	strb	r3, [r2, #0]
 800a696:	e774      	b.n	800a582 <_dtoa_r+0x962>
 800a698:	4638      	mov	r0, r7
 800a69a:	e7b9      	b.n	800a610 <_dtoa_r+0x9f0>
 800a69c:	2201      	movs	r2, #1
 800a69e:	e7e2      	b.n	800a666 <_dtoa_r+0xa46>
 800a6a0:	f1b9 0f00 	cmp.w	r9, #0
 800a6a4:	db06      	blt.n	800a6b4 <_dtoa_r+0xa94>
 800a6a6:	9905      	ldr	r1, [sp, #20]
 800a6a8:	ea41 0909 	orr.w	r9, r1, r9
 800a6ac:	9906      	ldr	r1, [sp, #24]
 800a6ae:	ea59 0101 	orrs.w	r1, r9, r1
 800a6b2:	d120      	bne.n	800a6f6 <_dtoa_r+0xad6>
 800a6b4:	2a00      	cmp	r2, #0
 800a6b6:	ddec      	ble.n	800a692 <_dtoa_r+0xa72>
 800a6b8:	4659      	mov	r1, fp
 800a6ba:	2201      	movs	r2, #1
 800a6bc:	4620      	mov	r0, r4
 800a6be:	9301      	str	r3, [sp, #4]
 800a6c0:	f000 fe96 	bl	800b3f0 <__lshift>
 800a6c4:	4631      	mov	r1, r6
 800a6c6:	4683      	mov	fp, r0
 800a6c8:	f000 fefe 	bl	800b4c8 <__mcmp>
 800a6cc:	2800      	cmp	r0, #0
 800a6ce:	9b01      	ldr	r3, [sp, #4]
 800a6d0:	dc02      	bgt.n	800a6d8 <_dtoa_r+0xab8>
 800a6d2:	d1de      	bne.n	800a692 <_dtoa_r+0xa72>
 800a6d4:	07da      	lsls	r2, r3, #31
 800a6d6:	d5dc      	bpl.n	800a692 <_dtoa_r+0xa72>
 800a6d8:	2b39      	cmp	r3, #57	; 0x39
 800a6da:	d1d8      	bne.n	800a68e <_dtoa_r+0xa6e>
 800a6dc:	9a02      	ldr	r2, [sp, #8]
 800a6de:	2339      	movs	r3, #57	; 0x39
 800a6e0:	7013      	strb	r3, [r2, #0]
 800a6e2:	462b      	mov	r3, r5
 800a6e4:	461d      	mov	r5, r3
 800a6e6:	3b01      	subs	r3, #1
 800a6e8:	f815 2c01 	ldrb.w	r2, [r5, #-1]
 800a6ec:	2a39      	cmp	r2, #57	; 0x39
 800a6ee:	d050      	beq.n	800a792 <_dtoa_r+0xb72>
 800a6f0:	3201      	adds	r2, #1
 800a6f2:	701a      	strb	r2, [r3, #0]
 800a6f4:	e745      	b.n	800a582 <_dtoa_r+0x962>
 800a6f6:	2a00      	cmp	r2, #0
 800a6f8:	dd03      	ble.n	800a702 <_dtoa_r+0xae2>
 800a6fa:	2b39      	cmp	r3, #57	; 0x39
 800a6fc:	d0ee      	beq.n	800a6dc <_dtoa_r+0xabc>
 800a6fe:	3301      	adds	r3, #1
 800a700:	e7c7      	b.n	800a692 <_dtoa_r+0xa72>
 800a702:	9a01      	ldr	r2, [sp, #4]
 800a704:	9907      	ldr	r1, [sp, #28]
 800a706:	f802 3c01 	strb.w	r3, [r2, #-1]
 800a70a:	428a      	cmp	r2, r1
 800a70c:	d02a      	beq.n	800a764 <_dtoa_r+0xb44>
 800a70e:	4659      	mov	r1, fp
 800a710:	2300      	movs	r3, #0
 800a712:	220a      	movs	r2, #10
 800a714:	4620      	mov	r0, r4
 800a716:	f000 fc71 	bl	800affc <__multadd>
 800a71a:	45b8      	cmp	r8, r7
 800a71c:	4683      	mov	fp, r0
 800a71e:	f04f 0300 	mov.w	r3, #0
 800a722:	f04f 020a 	mov.w	r2, #10
 800a726:	4641      	mov	r1, r8
 800a728:	4620      	mov	r0, r4
 800a72a:	d107      	bne.n	800a73c <_dtoa_r+0xb1c>
 800a72c:	f000 fc66 	bl	800affc <__multadd>
 800a730:	4680      	mov	r8, r0
 800a732:	4607      	mov	r7, r0
 800a734:	9b01      	ldr	r3, [sp, #4]
 800a736:	3301      	adds	r3, #1
 800a738:	9301      	str	r3, [sp, #4]
 800a73a:	e775      	b.n	800a628 <_dtoa_r+0xa08>
 800a73c:	f000 fc5e 	bl	800affc <__multadd>
 800a740:	4639      	mov	r1, r7
 800a742:	4680      	mov	r8, r0
 800a744:	2300      	movs	r3, #0
 800a746:	220a      	movs	r2, #10
 800a748:	4620      	mov	r0, r4
 800a74a:	f000 fc57 	bl	800affc <__multadd>
 800a74e:	4607      	mov	r7, r0
 800a750:	e7f0      	b.n	800a734 <_dtoa_r+0xb14>
 800a752:	f1b9 0f00 	cmp.w	r9, #0
 800a756:	9a00      	ldr	r2, [sp, #0]
 800a758:	bfcc      	ite	gt
 800a75a:	464d      	movgt	r5, r9
 800a75c:	2501      	movle	r5, #1
 800a75e:	4415      	add	r5, r2
 800a760:	f04f 0800 	mov.w	r8, #0
 800a764:	4659      	mov	r1, fp
 800a766:	2201      	movs	r2, #1
 800a768:	4620      	mov	r0, r4
 800a76a:	9301      	str	r3, [sp, #4]
 800a76c:	f000 fe40 	bl	800b3f0 <__lshift>
 800a770:	4631      	mov	r1, r6
 800a772:	4683      	mov	fp, r0
 800a774:	f000 fea8 	bl	800b4c8 <__mcmp>
 800a778:	2800      	cmp	r0, #0
 800a77a:	dcb2      	bgt.n	800a6e2 <_dtoa_r+0xac2>
 800a77c:	d102      	bne.n	800a784 <_dtoa_r+0xb64>
 800a77e:	9b01      	ldr	r3, [sp, #4]
 800a780:	07db      	lsls	r3, r3, #31
 800a782:	d4ae      	bmi.n	800a6e2 <_dtoa_r+0xac2>
 800a784:	462b      	mov	r3, r5
 800a786:	461d      	mov	r5, r3
 800a788:	f813 2d01 	ldrb.w	r2, [r3, #-1]!
 800a78c:	2a30      	cmp	r2, #48	; 0x30
 800a78e:	d0fa      	beq.n	800a786 <_dtoa_r+0xb66>
 800a790:	e6f7      	b.n	800a582 <_dtoa_r+0x962>
 800a792:	9a00      	ldr	r2, [sp, #0]
 800a794:	429a      	cmp	r2, r3
 800a796:	d1a5      	bne.n	800a6e4 <_dtoa_r+0xac4>
 800a798:	f10a 0a01 	add.w	sl, sl, #1
 800a79c:	2331      	movs	r3, #49	; 0x31
 800a79e:	e779      	b.n	800a694 <_dtoa_r+0xa74>
 800a7a0:	4b13      	ldr	r3, [pc, #76]	; (800a7f0 <_dtoa_r+0xbd0>)
 800a7a2:	f7ff baaf 	b.w	8009d04 <_dtoa_r+0xe4>
 800a7a6:	9b21      	ldr	r3, [sp, #132]	; 0x84
 800a7a8:	2b00      	cmp	r3, #0
 800a7aa:	f47f aa86 	bne.w	8009cba <_dtoa_r+0x9a>
 800a7ae:	4b11      	ldr	r3, [pc, #68]	; (800a7f4 <_dtoa_r+0xbd4>)
 800a7b0:	f7ff baa8 	b.w	8009d04 <_dtoa_r+0xe4>
 800a7b4:	f1b9 0f00 	cmp.w	r9, #0
 800a7b8:	dc03      	bgt.n	800a7c2 <_dtoa_r+0xba2>
 800a7ba:	9b05      	ldr	r3, [sp, #20]
 800a7bc:	2b02      	cmp	r3, #2
 800a7be:	f73f aec9 	bgt.w	800a554 <_dtoa_r+0x934>
 800a7c2:	9d00      	ldr	r5, [sp, #0]
 800a7c4:	4631      	mov	r1, r6
 800a7c6:	4658      	mov	r0, fp
 800a7c8:	f7ff f99e 	bl	8009b08 <quorem>
 800a7cc:	f100 0330 	add.w	r3, r0, #48	; 0x30
 800a7d0:	f805 3b01 	strb.w	r3, [r5], #1
 800a7d4:	9a00      	ldr	r2, [sp, #0]
 800a7d6:	1aaa      	subs	r2, r5, r2
 800a7d8:	4591      	cmp	r9, r2
 800a7da:	ddba      	ble.n	800a752 <_dtoa_r+0xb32>
 800a7dc:	4659      	mov	r1, fp
 800a7de:	2300      	movs	r3, #0
 800a7e0:	220a      	movs	r2, #10
 800a7e2:	4620      	mov	r0, r4
 800a7e4:	f000 fc0a 	bl	800affc <__multadd>
 800a7e8:	4683      	mov	fp, r0
 800a7ea:	e7eb      	b.n	800a7c4 <_dtoa_r+0xba4>
 800a7ec:	0800e40b 	.word	0x0800e40b
 800a7f0:	0800e611 	.word	0x0800e611
 800a7f4:	0800e388 	.word	0x0800e388

0800a7f8 <rshift>:
 800a7f8:	6903      	ldr	r3, [r0, #16]
 800a7fa:	ebb3 1f61 	cmp.w	r3, r1, asr #5
 800a7fe:	e92d 43f0 	stmdb	sp!, {r4, r5, r6, r7, r8, r9, lr}
 800a802:	ea4f 1261 	mov.w	r2, r1, asr #5
 800a806:	f100 0414 	add.w	r4, r0, #20
 800a80a:	dd45      	ble.n	800a898 <rshift+0xa0>
 800a80c:	f011 011f 	ands.w	r1, r1, #31
 800a810:	eb04 0683 	add.w	r6, r4, r3, lsl #2
 800a814:	eb04 0582 	add.w	r5, r4, r2, lsl #2
 800a818:	d10c      	bne.n	800a834 <rshift+0x3c>
 800a81a:	f100 0710 	add.w	r7, r0, #16
 800a81e:	4629      	mov	r1, r5
 800a820:	42b1      	cmp	r1, r6
 800a822:	d334      	bcc.n	800a88e <rshift+0x96>
 800a824:	1a9b      	subs	r3, r3, r2
 800a826:	009b      	lsls	r3, r3, #2
 800a828:	1eea      	subs	r2, r5, #3
 800a82a:	4296      	cmp	r6, r2
 800a82c:	bf38      	it	cc
 800a82e:	2300      	movcc	r3, #0
 800a830:	4423      	add	r3, r4
 800a832:	e015      	b.n	800a860 <rshift+0x68>
 800a834:	f854 7022 	ldr.w	r7, [r4, r2, lsl #2]
 800a838:	f1c1 0820 	rsb	r8, r1, #32
 800a83c:	40cf      	lsrs	r7, r1
 800a83e:	f105 0e04 	add.w	lr, r5, #4
 800a842:	46a1      	mov	r9, r4
 800a844:	4576      	cmp	r6, lr
 800a846:	46f4      	mov	ip, lr
 800a848:	d815      	bhi.n	800a876 <rshift+0x7e>
 800a84a:	1a9b      	subs	r3, r3, r2
 800a84c:	009a      	lsls	r2, r3, #2
 800a84e:	3a04      	subs	r2, #4
 800a850:	3501      	adds	r5, #1
 800a852:	42ae      	cmp	r6, r5
 800a854:	bf38      	it	cc
 800a856:	2200      	movcc	r2, #0
 800a858:	18a3      	adds	r3, r4, r2
 800a85a:	50a7      	str	r7, [r4, r2]
 800a85c:	b107      	cbz	r7, 800a860 <rshift+0x68>
 800a85e:	3304      	adds	r3, #4
 800a860:	1b1a      	subs	r2, r3, r4
 800a862:	42a3      	cmp	r3, r4
 800a864:	ea4f 02a2 	mov.w	r2, r2, asr #2
 800a868:	bf08      	it	eq
 800a86a:	2300      	moveq	r3, #0
 800a86c:	6102      	str	r2, [r0, #16]
 800a86e:	bf08      	it	eq
 800a870:	6143      	streq	r3, [r0, #20]
 800a872:	e8bd 83f0 	ldmia.w	sp!, {r4, r5, r6, r7, r8, r9, pc}
 800a876:	f8dc c000 	ldr.w	ip, [ip]
 800a87a:	fa0c fc08 	lsl.w	ip, ip, r8
 800a87e:	ea4c 0707 	orr.w	r7, ip, r7
 800a882:	f849 7b04 	str.w	r7, [r9], #4
 800a886:	f85e 7b04 	ldr.w	r7, [lr], #4
 800a88a:	40cf      	lsrs	r7, r1
 800a88c:	e7da      	b.n	800a844 <rshift+0x4c>
 800a88e:	f851 cb04 	ldr.w	ip, [r1], #4
 800a892:	f847 cf04 	str.w	ip, [r7, #4]!
 800a896:	e7c3      	b.n	800a820 <rshift+0x28>
 800a898:	4623      	mov	r3, r4
 800a89a:	e7e1      	b.n	800a860 <rshift+0x68>

0800a89c <__hexdig_fun>:
 800a89c:	f1a0 0330 	sub.w	r3, r0, #48	; 0x30
 800a8a0:	2b09      	cmp	r3, #9
 800a8a2:	d802      	bhi.n	800a8aa <__hexdig_fun+0xe>
 800a8a4:	3820      	subs	r0, #32
 800a8a6:	b2c0      	uxtb	r0, r0
 800a8a8:	4770      	bx	lr
 800a8aa:	f1a0 0361 	sub.w	r3, r0, #97	; 0x61
 800a8ae:	2b05      	cmp	r3, #5
 800a8b0:	d801      	bhi.n	800a8b6 <__hexdig_fun+0x1a>
 800a8b2:	3847      	subs	r0, #71	; 0x47
 800a8b4:	e7f7      	b.n	800a8a6 <__hexdig_fun+0xa>
 800a8b6:	f1a0 0341 	sub.w	r3, r0, #65	; 0x41
 800a8ba:	2b05      	cmp	r3, #5
 800a8bc:	d801      	bhi.n	800a8c2 <__hexdig_fun+0x26>
 800a8be:	3827      	subs	r0, #39	; 0x27
 800a8c0:	e7f1      	b.n	800a8a6 <__hexdig_fun+0xa>
 800a8c2:	2000      	movs	r0, #0
 800a8c4:	4770      	bx	lr
	...

0800a8c8 <__gethex>:
 800a8c8:	e92d 4ff0 	stmdb	sp!, {r4, r5, r6, r7, r8, r9, sl, fp, lr}
 800a8cc:	ed2d 8b02 	vpush	{d8}
 800a8d0:	b089      	sub	sp, #36	; 0x24
 800a8d2:	ee08 0a10 	vmov	s16, r0
 800a8d6:	9304      	str	r3, [sp, #16]
 800a8d8:	4bbc      	ldr	r3, [pc, #752]	; (800abcc <__gethex+0x304>)
 800a8da:	681b      	ldr	r3, [r3, #0]
 800a8dc:	9301      	str	r3, [sp, #4]
 800a8de:	4618      	mov	r0, r3
 800a8e0:	468b      	mov	fp, r1
 800a8e2:	4690      	mov	r8, r2
 800a8e4:	f7f5 fc7e 	bl	80001e4 <strlen>
 800a8e8:	9b01      	ldr	r3, [sp, #4]
 800a8ea:	f8db 2000 	ldr.w	r2, [fp]
 800a8ee:	4403      	add	r3, r0
 800a8f0:	4682      	mov	sl, r0
 800a8f2:	f813 3c01 	ldrb.w	r3, [r3, #-1]
 800a8f6:	9305      	str	r3, [sp, #20]
 800a8f8:	1c93      	adds	r3, r2, #2
 800a8fa:	f1c2 22ff 	rsb	r2, r2, #4278255360	; 0xff00ff00
 800a8fe:	f502 027f 	add.w	r2, r2, #16711680	; 0xff0000
 800a902:	32fe      	adds	r2, #254	; 0xfe
 800a904:	18d1      	adds	r1, r2, r3
 800a906:	461f      	mov	r7, r3
 800a908:	f813 0b01 	ldrb.w	r0, [r3], #1
 800a90c:	9100      	str	r1, [sp, #0]
 800a90e:	2830      	cmp	r0, #48	; 0x30
 800a910:	d0f8      	beq.n	800a904 <__gethex+0x3c>
 800a912:	f7ff ffc3 	bl	800a89c <__hexdig_fun>
 800a916:	4604      	mov	r4, r0
 800a918:	2800      	cmp	r0, #0
 800a91a:	d13a      	bne.n	800a992 <__gethex+0xca>
 800a91c:	9901      	ldr	r1, [sp, #4]
 800a91e:	4652      	mov	r2, sl
 800a920:	4638      	mov	r0, r7
 800a922:	f7fe fa08 	bl	8008d36 <strncmp>
 800a926:	4605      	mov	r5, r0
 800a928:	2800      	cmp	r0, #0
 800a92a:	d168      	bne.n	800a9fe <__gethex+0x136>
 800a92c:	f817 000a 	ldrb.w	r0, [r7, sl]
 800a930:	eb07 060a 	add.w	r6, r7, sl
 800a934:	f7ff ffb2 	bl	800a89c <__hexdig_fun>
 800a938:	2800      	cmp	r0, #0
 800a93a:	d062      	beq.n	800aa02 <__gethex+0x13a>
 800a93c:	4633      	mov	r3, r6
 800a93e:	7818      	ldrb	r0, [r3, #0]
 800a940:	2830      	cmp	r0, #48	; 0x30
 800a942:	461f      	mov	r7, r3
 800a944:	f103 0301 	add.w	r3, r3, #1
 800a948:	d0f9      	beq.n	800a93e <__gethex+0x76>
 800a94a:	f7ff ffa7 	bl	800a89c <__hexdig_fun>
 800a94e:	2301      	movs	r3, #1
 800a950:	fab0 f480 	clz	r4, r0
 800a954:	0964      	lsrs	r4, r4, #5
 800a956:	4635      	mov	r5, r6
 800a958:	9300      	str	r3, [sp, #0]
 800a95a:	463a      	mov	r2, r7
 800a95c:	4616      	mov	r6, r2
 800a95e:	3201      	adds	r2, #1
 800a960:	7830      	ldrb	r0, [r6, #0]
 800a962:	f7ff ff9b 	bl	800a89c <__hexdig_fun>
 800a966:	2800      	cmp	r0, #0
 800a968:	d1f8      	bne.n	800a95c <__gethex+0x94>
 800a96a:	9901      	ldr	r1, [sp, #4]
 800a96c:	4652      	mov	r2, sl
 800a96e:	4630      	mov	r0, r6
 800a970:	f7fe f9e1 	bl	8008d36 <strncmp>
 800a974:	b980      	cbnz	r0, 800a998 <__gethex+0xd0>
 800a976:	b94d      	cbnz	r5, 800a98c <__gethex+0xc4>
 800a978:	eb06 050a 	add.w	r5, r6, sl
 800a97c:	462a      	mov	r2, r5
 800a97e:	4616      	mov	r6, r2
 800a980:	3201      	adds	r2, #1
 800a982:	7830      	ldrb	r0, [r6, #0]
 800a984:	f7ff ff8a 	bl	800a89c <__hexdig_fun>
 800a988:	2800      	cmp	r0, #0
 800a98a:	d1f8      	bne.n	800a97e <__gethex+0xb6>
 800a98c:	1bad      	subs	r5, r5, r6
 800a98e:	00ad      	lsls	r5, r5, #2
 800a990:	e004      	b.n	800a99c <__gethex+0xd4>
 800a992:	2400      	movs	r4, #0
 800a994:	4625      	mov	r5, r4
 800a996:	e7e0      	b.n	800a95a <__gethex+0x92>
 800a998:	2d00      	cmp	r5, #0
 800a99a:	d1f7      	bne.n	800a98c <__gethex+0xc4>
 800a99c:	7833      	ldrb	r3, [r6, #0]
 800a99e:	f003 03df 	and.w	r3, r3, #223	; 0xdf
 800a9a2:	2b50      	cmp	r3, #80	; 0x50
 800a9a4:	d13b      	bne.n	800aa1e <__gethex+0x156>
 800a9a6:	7873      	ldrb	r3, [r6, #1]
 800a9a8:	2b2b      	cmp	r3, #43	; 0x2b
 800a9aa:	d02c      	beq.n	800aa06 <__gethex+0x13e>
 800a9ac:	2b2d      	cmp	r3, #45	; 0x2d
 800a9ae:	d02e      	beq.n	800aa0e <__gethex+0x146>
 800a9b0:	1c71      	adds	r1, r6, #1
 800a9b2:	f04f 0900 	mov.w	r9, #0
 800a9b6:	7808      	ldrb	r0, [r1, #0]
 800a9b8:	f7ff ff70 	bl	800a89c <__hexdig_fun>
 800a9bc:	1e43      	subs	r3, r0, #1
 800a9be:	b2db      	uxtb	r3, r3
 800a9c0:	2b18      	cmp	r3, #24
 800a9c2:	d82c      	bhi.n	800aa1e <__gethex+0x156>
 800a9c4:	f1a0 0210 	sub.w	r2, r0, #16
 800a9c8:	f811 0f01 	ldrb.w	r0, [r1, #1]!
 800a9cc:	f7ff ff66 	bl	800a89c <__hexdig_fun>
 800a9d0:	1e43      	subs	r3, r0, #1
 800a9d2:	b2db      	uxtb	r3, r3
 800a9d4:	2b18      	cmp	r3, #24
 800a9d6:	d91d      	bls.n	800aa14 <__gethex+0x14c>
 800a9d8:	f1b9 0f00 	cmp.w	r9, #0
 800a9dc:	d000      	beq.n	800a9e0 <__gethex+0x118>
 800a9de:	4252      	negs	r2, r2
 800a9e0:	4415      	add	r5, r2
 800a9e2:	f8cb 1000 	str.w	r1, [fp]
 800a9e6:	b1e4      	cbz	r4, 800aa22 <__gethex+0x15a>
 800a9e8:	9b00      	ldr	r3, [sp, #0]
 800a9ea:	2b00      	cmp	r3, #0
 800a9ec:	bf14      	ite	ne
 800a9ee:	2700      	movne	r7, #0
 800a9f0:	2706      	moveq	r7, #6
 800a9f2:	4638      	mov	r0, r7
 800a9f4:	b009      	add	sp, #36	; 0x24
 800a9f6:	ecbd 8b02 	vpop	{d8}
 800a9fa:	e8bd 8ff0 	ldmia.w	sp!, {r4, r5, r6, r7, r8, r9, sl, fp, pc}
 800a9fe:	463e      	mov	r6, r7
 800aa00:	4625      	mov	r5, r4
 800aa02:	2401      	movs	r4, #1
 800aa04:	e7ca      	b.n	800a99c <__gethex+0xd4>
 800aa06:	f04f 0900 	mov.w	r9, #0
 800aa0a:	1cb1      	adds	r1, r6, #2
 800aa0c:	e7d3      	b.n	800a9b6 <__gethex+0xee>
 800aa0e:	f04f 0901 	mov.w	r9, #1
 800aa12:	e7fa      	b.n	800aa0a <__gethex+0x142>
 800aa14:	230a      	movs	r3, #10
 800aa16:	fb03 0202 	mla	r2, r3, r2, r0
 800aa1a:	3a10      	subs	r2, #16
 800aa1c:	e7d4      	b.n	800a9c8 <__gethex+0x100>
 800aa1e:	4631      	mov	r1, r6
 800aa20:	e7df      	b.n	800a9e2 <__gethex+0x11a>
 800aa22:	1bf3      	subs	r3, r6, r7
 800aa24:	3b01      	subs	r3, #1
 800aa26:	4621      	mov	r1, r4
 800aa28:	2b07      	cmp	r3, #7
 800aa2a:	dc0b      	bgt.n	800aa44 <__gethex+0x17c>
 800aa2c:	ee18 0a10 	vmov	r0, s16
 800aa30:	f000 fa82 	bl	800af38 <_Balloc>
 800aa34:	4604      	mov	r4, r0
 800aa36:	b940      	cbnz	r0, 800aa4a <__gethex+0x182>
 800aa38:	4b65      	ldr	r3, [pc, #404]	; (800abd0 <__gethex+0x308>)
 800aa3a:	4602      	mov	r2, r0
 800aa3c:	21de      	movs	r1, #222	; 0xde
 800aa3e:	4865      	ldr	r0, [pc, #404]	; (800abd4 <__gethex+0x30c>)
 800aa40:	f001 fd92 	bl	800c568 <__assert_func>
 800aa44:	3101      	adds	r1, #1
 800aa46:	105b      	asrs	r3, r3, #1
 800aa48:	e7ee      	b.n	800aa28 <__gethex+0x160>
 800aa4a:	f100 0914 	add.w	r9, r0, #20
 800aa4e:	f04f 0b00 	mov.w	fp, #0
 800aa52:	f1ca 0301 	rsb	r3, sl, #1
 800aa56:	f8cd 9008 	str.w	r9, [sp, #8]
 800aa5a:	f8cd b000 	str.w	fp, [sp]
 800aa5e:	9306      	str	r3, [sp, #24]
 800aa60:	42b7      	cmp	r7, r6
 800aa62:	d340      	bcc.n	800aae6 <__gethex+0x21e>
 800aa64:	9802      	ldr	r0, [sp, #8]
 800aa66:	9b00      	ldr	r3, [sp, #0]
 800aa68:	f840 3b04 	str.w	r3, [r0], #4
 800aa6c:	eba0 0009 	sub.w	r0, r0, r9
 800aa70:	1080      	asrs	r0, r0, #2
 800aa72:	0146      	lsls	r6, r0, #5
 800aa74:	6120      	str	r0, [r4, #16]
 800aa76:	4618      	mov	r0, r3
 800aa78:	f000 fb54 	bl	800b124 <__hi0bits>
 800aa7c:	1a30      	subs	r0, r6, r0
 800aa7e:	f8d8 6000 	ldr.w	r6, [r8]
 800aa82:	42b0      	cmp	r0, r6
 800aa84:	dd63      	ble.n	800ab4e <__gethex+0x286>
 800aa86:	1b87      	subs	r7, r0, r6
 800aa88:	4639      	mov	r1, r7
 800aa8a:	4620      	mov	r0, r4
 800aa8c:	f000 feee 	bl	800b86c <__any_on>
 800aa90:	4682      	mov	sl, r0
 800aa92:	b1a8      	cbz	r0, 800aac0 <__gethex+0x1f8>
 800aa94:	1e7b      	subs	r3, r7, #1
 800aa96:	1159      	asrs	r1, r3, #5
 800aa98:	f003 021f 	and.w	r2, r3, #31
 800aa9c:	f859 1021 	ldr.w	r1, [r9, r1, lsl #2]
 800aaa0:	f04f 0a01 	mov.w	sl, #1
 800aaa4:	fa0a f202 	lsl.w	r2, sl, r2
 800aaa8:	420a      	tst	r2, r1
 800aaaa:	d009      	beq.n	800aac0 <__gethex+0x1f8>
 800aaac:	4553      	cmp	r3, sl
 800aaae:	dd05      	ble.n	800aabc <__gethex+0x1f4>
 800aab0:	1eb9      	subs	r1, r7, #2
 800aab2:	4620      	mov	r0, r4
 800aab4:	f000 feda 	bl	800b86c <__any_on>
 800aab8:	2800      	cmp	r0, #0
 800aaba:	d145      	bne.n	800ab48 <__gethex+0x280>
 800aabc:	f04f 0a02 	mov.w	sl, #2
 800aac0:	4639      	mov	r1, r7
 800aac2:	4620      	mov	r0, r4
 800aac4:	f7ff fe98 	bl	800a7f8 <rshift>
 800aac8:	443d      	add	r5, r7
 800aaca:	f8d8 3008 	ldr.w	r3, [r8, #8]
 800aace:	42ab      	cmp	r3, r5
 800aad0:	da4c      	bge.n	800ab6c <__gethex+0x2a4>
 800aad2:	ee18 0a10 	vmov	r0, s16
 800aad6:	4621      	mov	r1, r4
 800aad8:	f000 fa6e 	bl	800afb8 <_Bfree>
 800aadc:	9a14      	ldr	r2, [sp, #80]	; 0x50
 800aade:	2300      	movs	r3, #0
 800aae0:	6013      	str	r3, [r2, #0]
 800aae2:	27a3      	movs	r7, #163	; 0xa3
 800aae4:	e785      	b.n	800a9f2 <__gethex+0x12a>
 800aae6:	1e73      	subs	r3, r6, #1
 800aae8:	9a05      	ldr	r2, [sp, #20]
 800aaea:	9303      	str	r3, [sp, #12]
 800aaec:	f816 3c01 	ldrb.w	r3, [r6, #-1]
 800aaf0:	4293      	cmp	r3, r2
 800aaf2:	d019      	beq.n	800ab28 <__gethex+0x260>
 800aaf4:	f1bb 0f20 	cmp.w	fp, #32
 800aaf8:	d107      	bne.n	800ab0a <__gethex+0x242>
 800aafa:	9b02      	ldr	r3, [sp, #8]
 800aafc:	9a00      	ldr	r2, [sp, #0]
 800aafe:	f843 2b04 	str.w	r2, [r3], #4
 800ab02:	9302      	str	r3, [sp, #8]
 800ab04:	2300      	movs	r3, #0
 800ab06:	9300      	str	r3, [sp, #0]
 800ab08:	469b      	mov	fp, r3
 800ab0a:	f816 0c01 	ldrb.w	r0, [r6, #-1]
 800ab0e:	f7ff fec5 	bl	800a89c <__hexdig_fun>
 800ab12:	9b00      	ldr	r3, [sp, #0]
 800ab14:	f000 000f 	and.w	r0, r0, #15
 800ab18:	fa00 f00b 	lsl.w	r0, r0, fp
 800ab1c:	4303      	orrs	r3, r0
 800ab1e:	9300      	str	r3, [sp, #0]
 800ab20:	f10b 0b04 	add.w	fp, fp, #4
 800ab24:	9b03      	ldr	r3, [sp, #12]
 800ab26:	e00d      	b.n	800ab44 <__gethex+0x27c>
 800ab28:	9b03      	ldr	r3, [sp, #12]
 800ab2a:	9a06      	ldr	r2, [sp, #24]
 800ab2c:	4413      	add	r3, r2
 800ab2e:	42bb      	cmp	r3, r7
 800ab30:	d3e0      	bcc.n	800aaf4 <__gethex+0x22c>
 800ab32:	4618      	mov	r0, r3
 800ab34:	9901      	ldr	r1, [sp, #4]
 800ab36:	9307      	str	r3, [sp, #28]
 800ab38:	4652      	mov	r2, sl
 800ab3a:	f7fe f8fc 	bl	8008d36 <strncmp>
 800ab3e:	9b07      	ldr	r3, [sp, #28]
 800ab40:	2800      	cmp	r0, #0
 800ab42:	d1d7      	bne.n	800aaf4 <__gethex+0x22c>
 800ab44:	461e      	mov	r6, r3
 800ab46:	e78b      	b.n	800aa60 <__gethex+0x198>
 800ab48:	f04f 0a03 	mov.w	sl, #3
 800ab4c:	e7b8      	b.n	800aac0 <__gethex+0x1f8>
 800ab4e:	da0a      	bge.n	800ab66 <__gethex+0x29e>
 800ab50:	1a37      	subs	r7, r6, r0
 800ab52:	4621      	mov	r1, r4
 800ab54:	ee18 0a10 	vmov	r0, s16
 800ab58:	463a      	mov	r2, r7
 800ab5a:	f000 fc49 	bl	800b3f0 <__lshift>
 800ab5e:	1bed      	subs	r5, r5, r7
 800ab60:	4604      	mov	r4, r0
 800ab62:	f100 0914 	add.w	r9, r0, #20
 800ab66:	f04f 0a00 	mov.w	sl, #0
 800ab6a:	e7ae      	b.n	800aaca <__gethex+0x202>
 800ab6c:	f8d8 0004 	ldr.w	r0, [r8, #4]
 800ab70:	42a8      	cmp	r0, r5
 800ab72:	dd72      	ble.n	800ac5a <__gethex+0x392>
 800ab74:	1b45      	subs	r5, r0, r5
 800ab76:	42ae      	cmp	r6, r5
 800ab78:	dc36      	bgt.n	800abe8 <__gethex+0x320>
 800ab7a:	f8d8 300c 	ldr.w	r3, [r8, #12]
 800ab7e:	2b02      	cmp	r3, #2
 800ab80:	d02a      	beq.n	800abd8 <__gethex+0x310>
 800ab82:	2b03      	cmp	r3, #3
 800ab84:	d02c      	beq.n	800abe0 <__gethex+0x318>
 800ab86:	2b01      	cmp	r3, #1
 800ab88:	d115      	bne.n	800abb6 <__gethex+0x2ee>
 800ab8a:	42ae      	cmp	r6, r5
 800ab8c:	d113      	bne.n	800abb6 <__gethex+0x2ee>
 800ab8e:	2e01      	cmp	r6, #1
 800ab90:	d10b      	bne.n	800abaa <__gethex+0x2e2>
 800ab92:	9a04      	ldr	r2, [sp, #16]
 800ab94:	f8d8 3004 	ldr.w	r3, [r8, #4]
 800ab98:	6013      	str	r3, [r2, #0]
 800ab9a:	2301      	movs	r3, #1
 800ab9c:	6123      	str	r3, [r4, #16]
 800ab9e:	f8c9 3000 	str.w	r3, [r9]
 800aba2:	9b14      	ldr	r3, [sp, #80]	; 0x50
 800aba4:	2762      	movs	r7, #98	; 0x62
 800aba6:	601c      	str	r4, [r3, #0]
 800aba8:	e723      	b.n	800a9f2 <__gethex+0x12a>
 800abaa:	1e71      	subs	r1, r6, #1
 800abac:	4620      	mov	r0, r4
 800abae:	f000 fe5d 	bl	800b86c <__any_on>
 800abb2:	2800      	cmp	r0, #0
 800abb4:	d1ed      	bne.n	800ab92 <__gethex+0x2ca>
 800abb6:	ee18 0a10 	vmov	r0, s16
 800abba:	4621      	mov	r1, r4
 800abbc:	f000 f9fc 	bl	800afb8 <_Bfree>
 800abc0:	9a14      	ldr	r2, [sp, #80]	; 0x50
 800abc2:	2300      	movs	r3, #0
 800abc4:	6013      	str	r3, [r2, #0]
 800abc6:	2750      	movs	r7, #80	; 0x50
 800abc8:	e713      	b.n	800a9f2 <__gethex+0x12a>
 800abca:	bf00      	nop
 800abcc:	0800e488 	.word	0x0800e488
 800abd0:	0800e40b 	.word	0x0800e40b
 800abd4:	0800e41c 	.word	0x0800e41c
 800abd8:	9b15      	ldr	r3, [sp, #84]	; 0x54
 800abda:	2b00      	cmp	r3, #0
 800abdc:	d1eb      	bne.n	800abb6 <__gethex+0x2ee>
 800abde:	e7d8      	b.n	800ab92 <__gethex+0x2ca>
 800abe0:	9b15      	ldr	r3, [sp, #84]	; 0x54
 800abe2:	2b00      	cmp	r3, #0
 800abe4:	d1d5      	bne.n	800ab92 <__gethex+0x2ca>
 800abe6:	e7e6      	b.n	800abb6 <__gethex+0x2ee>
 800abe8:	1e6f      	subs	r7, r5, #1
 800abea:	f1ba 0f00 	cmp.w	sl, #0
 800abee:	d131      	bne.n	800ac54 <__gethex+0x38c>
 800abf0:	b127      	cbz	r7, 800abfc <__gethex+0x334>
 800abf2:	4639      	mov	r1, r7
 800abf4:	4620      	mov	r0, r4
 800abf6:	f000 fe39 	bl	800b86c <__any_on>
 800abfa:	4682      	mov	sl, r0
 800abfc:	117b      	asrs	r3, r7, #5
 800abfe:	2101      	movs	r1, #1
 800ac00:	f859 3023 	ldr.w	r3, [r9, r3, lsl #2]
 800ac04:	f007 071f 	and.w	r7, r7, #31
 800ac08:	fa01 f707 	lsl.w	r7, r1, r7
 800ac0c:	421f      	tst	r7, r3
 800ac0e:	4629      	mov	r1, r5
 800ac10:	4620      	mov	r0, r4
 800ac12:	bf18      	it	ne
 800ac14:	f04a 0a02 	orrne.w	sl, sl, #2
 800ac18:	1b76      	subs	r6, r6, r5
 800ac1a:	f7ff fded 	bl	800a7f8 <rshift>
 800ac1e:	f8d8 5004 	ldr.w	r5, [r8, #4]
 800ac22:	2702      	movs	r7, #2
 800ac24:	f1ba 0f00 	cmp.w	sl, #0
 800ac28:	d048      	beq.n	800acbc <__gethex+0x3f4>
 800ac2a:	f8d8 300c 	ldr.w	r3, [r8, #12]
 800ac2e:	2b02      	cmp	r3, #2
 800ac30:	d015      	beq.n	800ac5e <__gethex+0x396>
 800ac32:	2b03      	cmp	r3, #3
 800ac34:	d017      	beq.n	800ac66 <__gethex+0x39e>
 800ac36:	2b01      	cmp	r3, #1
 800ac38:	d109      	bne.n	800ac4e <__gethex+0x386>
 800ac3a:	f01a 0f02 	tst.w	sl, #2
 800ac3e:	d006      	beq.n	800ac4e <__gethex+0x386>
 800ac40:	f8d9 0000 	ldr.w	r0, [r9]
 800ac44:	ea4a 0a00 	orr.w	sl, sl, r0
 800ac48:	f01a 0f01 	tst.w	sl, #1
 800ac4c:	d10e      	bne.n	800ac6c <__gethex+0x3a4>
 800ac4e:	f047 0710 	orr.w	r7, r7, #16
 800ac52:	e033      	b.n	800acbc <__gethex+0x3f4>
 800ac54:	f04f 0a01 	mov.w	sl, #1
 800ac58:	e7d0      	b.n	800abfc <__gethex+0x334>
 800ac5a:	2701      	movs	r7, #1
 800ac5c:	e7e2      	b.n	800ac24 <__gethex+0x35c>
 800ac5e:	9b15      	ldr	r3, [sp, #84]	; 0x54
 800ac60:	f1c3 0301 	rsb	r3, r3, #1
 800ac64:	9315      	str	r3, [sp, #84]	; 0x54
 800ac66:	9b15      	ldr	r3, [sp, #84]	; 0x54
 800ac68:	2b00      	cmp	r3, #0
 800ac6a:	d0f0      	beq.n	800ac4e <__gethex+0x386>
 800ac6c:	f8d4 b010 	ldr.w	fp, [r4, #16]
 800ac70:	f104 0314 	add.w	r3, r4, #20
 800ac74:	ea4f 0a8b 	mov.w	sl, fp, lsl #2
 800ac78:	eb03 018b 	add.w	r1, r3, fp, lsl #2
 800ac7c:	f04f 0c00 	mov.w	ip, #0
 800ac80:	4618      	mov	r0, r3
 800ac82:	f853 2b04 	ldr.w	r2, [r3], #4
 800ac86:	f1b2 3fff 	cmp.w	r2, #4294967295
 800ac8a:	d01c      	beq.n	800acc6 <__gethex+0x3fe>
 800ac8c:	3201      	adds	r2, #1
 800ac8e:	6002      	str	r2, [r0, #0]
 800ac90:	2f02      	cmp	r7, #2
 800ac92:	f104 0314 	add.w	r3, r4, #20
 800ac96:	d13f      	bne.n	800ad18 <__gethex+0x450>
 800ac98:	f8d8 2000 	ldr.w	r2, [r8]
 800ac9c:	3a01      	subs	r2, #1
 800ac9e:	42b2      	cmp	r2, r6
 800aca0:	d10a      	bne.n	800acb8 <__gethex+0x3f0>
 800aca2:	1171      	asrs	r1, r6, #5
 800aca4:	2201      	movs	r2, #1
 800aca6:	f853 3021 	ldr.w	r3, [r3, r1, lsl #2]
 800acaa:	f006 061f 	and.w	r6, r6, #31
 800acae:	fa02 f606 	lsl.w	r6, r2, r6
 800acb2:	421e      	tst	r6, r3
 800acb4:	bf18      	it	ne
 800acb6:	4617      	movne	r7, r2
 800acb8:	f047 0720 	orr.w	r7, r7, #32
 800acbc:	9b14      	ldr	r3, [sp, #80]	; 0x50
 800acbe:	601c      	str	r4, [r3, #0]
 800acc0:	9b04      	ldr	r3, [sp, #16]
 800acc2:	601d      	str	r5, [r3, #0]
 800acc4:	e695      	b.n	800a9f2 <__gethex+0x12a>
 800acc6:	4299      	cmp	r1, r3
 800acc8:	f843 cc04 	str.w	ip, [r3, #-4]
 800accc:	d8d8      	bhi.n	800ac80 <__gethex+0x3b8>
 800acce:	68a3      	ldr	r3, [r4, #8]
 800acd0:	459b      	cmp	fp, r3
 800acd2:	db19      	blt.n	800ad08 <__gethex+0x440>
 800acd4:	6861      	ldr	r1, [r4, #4]
 800acd6:	ee18 0a10 	vmov	r0, s16
 800acda:	3101      	adds	r1, #1
 800acdc:	f000 f92c 	bl	800af38 <_Balloc>
 800ace0:	4681      	mov	r9, r0
 800ace2:	b918      	cbnz	r0, 800acec <__gethex+0x424>
 800ace4:	4b1a      	ldr	r3, [pc, #104]	; (800ad50 <__gethex+0x488>)
 800ace6:	4602      	mov	r2, r0
 800ace8:	2184      	movs	r1, #132	; 0x84
 800acea:	e6a8      	b.n	800aa3e <__gethex+0x176>
 800acec:	6922      	ldr	r2, [r4, #16]
 800acee:	3202      	adds	r2, #2
 800acf0:	f104 010c 	add.w	r1, r4, #12
 800acf4:	0092      	lsls	r2, r2, #2
 800acf6:	300c      	adds	r0, #12
 800acf8:	f7fd f8ee 	bl	8007ed8 <memcpy>
 800acfc:	4621      	mov	r1, r4
 800acfe:	ee18 0a10 	vmov	r0, s16
 800ad02:	f000 f959 	bl	800afb8 <_Bfree>
 800ad06:	464c      	mov	r4, r9
 800ad08:	6923      	ldr	r3, [r4, #16]
 800ad0a:	1c5a      	adds	r2, r3, #1
 800ad0c:	eb04 0383 	add.w	r3, r4, r3, lsl #2
 800ad10:	6122      	str	r2, [r4, #16]
 800ad12:	2201      	movs	r2, #1
 800ad14:	615a      	str	r2, [r3, #20]
 800ad16:	e7bb      	b.n	800ac90 <__gethex+0x3c8>
 800ad18:	6922      	ldr	r2, [r4, #16]
 800ad1a:	455a      	cmp	r2, fp
 800ad1c:	dd0b      	ble.n	800ad36 <__gethex+0x46e>
 800ad1e:	2101      	movs	r1, #1
 800ad20:	4620      	mov	r0, r4
 800ad22:	f7ff fd69 	bl	800a7f8 <rshift>
 800ad26:	f8d8 3008 	ldr.w	r3, [r8, #8]
 800ad2a:	3501      	adds	r5, #1
 800ad2c:	42ab      	cmp	r3, r5
 800ad2e:	f6ff aed0 	blt.w	800aad2 <__gethex+0x20a>
 800ad32:	2701      	movs	r7, #1
 800ad34:	e7c0      	b.n	800acb8 <__gethex+0x3f0>
 800ad36:	f016 061f 	ands.w	r6, r6, #31
 800ad3a:	d0fa      	beq.n	800ad32 <__gethex+0x46a>
 800ad3c:	449a      	add	sl, r3
 800ad3e:	f1c6 0620 	rsb	r6, r6, #32
 800ad42:	f85a 0c04 	ldr.w	r0, [sl, #-4]
 800ad46:	f000 f9ed 	bl	800b124 <__hi0bits>
 800ad4a:	42b0      	cmp	r0, r6
 800ad4c:	dbe7      	blt.n	800ad1e <__gethex+0x456>
 800ad4e:	e7f0      	b.n	800ad32 <__gethex+0x46a>
 800ad50:	0800e40b 	.word	0x0800e40b

0800ad54 <L_shift>:
 800ad54:	f1c2 0208 	rsb	r2, r2, #8
 800ad58:	0092      	lsls	r2, r2, #2
 800ad5a:	b570      	push	{r4, r5, r6, lr}
 800ad5c:	f1c2 0620 	rsb	r6, r2, #32
 800ad60:	6843      	ldr	r3, [r0, #4]
 800ad62:	6804      	ldr	r4, [r0, #0]
 800ad64:	fa03 f506 	lsl.w	r5, r3, r6
 800ad68:	432c      	orrs	r4, r5
 800ad6a:	40d3      	lsrs	r3, r2
 800ad6c:	6004      	str	r4, [r0, #0]
 800ad6e:	f840 3f04 	str.w	r3, [r0, #4]!
 800ad72:	4288      	cmp	r0, r1
 800ad74:	d3f4      	bcc.n	800ad60 <L_shift+0xc>
 800ad76:	bd70      	pop	{r4, r5, r6, pc}

0800ad78 <__match>:
 800ad78:	b530      	push	{r4, r5, lr}
 800ad7a:	6803      	ldr	r3, [r0, #0]
 800ad7c:	3301      	adds	r3, #1
 800ad7e:	f811 4b01 	ldrb.w	r4, [r1], #1
 800ad82:	b914      	cbnz	r4, 800ad8a <__match+0x12>
 800ad84:	6003      	str	r3, [r0, #0]
 800ad86:	2001      	movs	r0, #1
 800ad88:	bd30      	pop	{r4, r5, pc}
 800ad8a:	f813 2b01 	ldrb.w	r2, [r3], #1
 800ad8e:	f1a2 0541 	sub.w	r5, r2, #65	; 0x41
 800ad92:	2d19      	cmp	r5, #25
 800ad94:	bf98      	it	ls
 800ad96:	3220      	addls	r2, #32
 800ad98:	42a2      	cmp	r2, r4
 800ad9a:	d0f0      	beq.n	800ad7e <__match+0x6>
 800ad9c:	2000      	movs	r0, #0
 800ad9e:	e7f3      	b.n	800ad88 <__match+0x10>

0800ada0 <__hexnan>:
 800ada0:	e92d 4ff0 	stmdb	sp!, {r4, r5, r6, r7, r8, r9, sl, fp, lr}
 800ada4:	680b      	ldr	r3, [r1, #0]
 800ada6:	6801      	ldr	r1, [r0, #0]
 800ada8:	115e      	asrs	r6, r3, #5
 800adaa:	eb02 0686 	add.w	r6, r2, r6, lsl #2
 800adae:	f013 031f 	ands.w	r3, r3, #31
 800adb2:	b087      	sub	sp, #28
 800adb4:	bf18      	it	ne
 800adb6:	3604      	addne	r6, #4
 800adb8:	2500      	movs	r5, #0
 800adba:	1f37      	subs	r7, r6, #4
 800adbc:	4682      	mov	sl, r0
 800adbe:	4690      	mov	r8, r2
 800adc0:	9301      	str	r3, [sp, #4]
 800adc2:	f846 5c04 	str.w	r5, [r6, #-4]
 800adc6:	46b9      	mov	r9, r7
 800adc8:	463c      	mov	r4, r7
 800adca:	9502      	str	r5, [sp, #8]
 800adcc:	46ab      	mov	fp, r5
 800adce:	784a      	ldrb	r2, [r1, #1]
 800add0:	1c4b      	adds	r3, r1, #1
 800add2:	9303      	str	r3, [sp, #12]
 800add4:	b342      	cbz	r2, 800ae28 <__hexnan+0x88>
 800add6:	4610      	mov	r0, r2
 800add8:	9105      	str	r1, [sp, #20]
 800adda:	9204      	str	r2, [sp, #16]
 800addc:	f7ff fd5e 	bl	800a89c <__hexdig_fun>
 800ade0:	2800      	cmp	r0, #0
 800ade2:	d14f      	bne.n	800ae84 <__hexnan+0xe4>
 800ade4:	9a04      	ldr	r2, [sp, #16]
 800ade6:	9905      	ldr	r1, [sp, #20]
 800ade8:	2a20      	cmp	r2, #32
 800adea:	d818      	bhi.n	800ae1e <__hexnan+0x7e>
 800adec:	9b02      	ldr	r3, [sp, #8]
 800adee:	459b      	cmp	fp, r3
 800adf0:	dd13      	ble.n	800ae1a <__hexnan+0x7a>
 800adf2:	454c      	cmp	r4, r9
 800adf4:	d206      	bcs.n	800ae04 <__hexnan+0x64>
 800adf6:	2d07      	cmp	r5, #7
 800adf8:	dc04      	bgt.n	800ae04 <__hexnan+0x64>
 800adfa:	462a      	mov	r2, r5
 800adfc:	4649      	mov	r1, r9
 800adfe:	4620      	mov	r0, r4
 800ae00:	f7ff ffa8 	bl	800ad54 <L_shift>
 800ae04:	4544      	cmp	r4, r8
 800ae06:	d950      	bls.n	800aeaa <__hexnan+0x10a>
 800ae08:	2300      	movs	r3, #0
 800ae0a:	f1a4 0904 	sub.w	r9, r4, #4
 800ae0e:	f844 3c04 	str.w	r3, [r4, #-4]
 800ae12:	f8cd b008 	str.w	fp, [sp, #8]
 800ae16:	464c      	mov	r4, r9
 800ae18:	461d      	mov	r5, r3
 800ae1a:	9903      	ldr	r1, [sp, #12]
 800ae1c:	e7d7      	b.n	800adce <__hexnan+0x2e>
 800ae1e:	2a29      	cmp	r2, #41	; 0x29
 800ae20:	d156      	bne.n	800aed0 <__hexnan+0x130>
 800ae22:	3102      	adds	r1, #2
 800ae24:	f8ca 1000 	str.w	r1, [sl]
 800ae28:	f1bb 0f00 	cmp.w	fp, #0
 800ae2c:	d050      	beq.n	800aed0 <__hexnan+0x130>
 800ae2e:	454c      	cmp	r4, r9
 800ae30:	d206      	bcs.n	800ae40 <__hexnan+0xa0>
 800ae32:	2d07      	cmp	r5, #7
 800ae34:	dc04      	bgt.n	800ae40 <__hexnan+0xa0>
 800ae36:	462a      	mov	r2, r5
 800ae38:	4649      	mov	r1, r9
 800ae3a:	4620      	mov	r0, r4
 800ae3c:	f7ff ff8a 	bl	800ad54 <L_shift>
 800ae40:	4544      	cmp	r4, r8
 800ae42:	d934      	bls.n	800aeae <__hexnan+0x10e>
 800ae44:	f1a8 0204 	sub.w	r2, r8, #4
 800ae48:	4623      	mov	r3, r4
 800ae4a:	f853 1b04 	ldr.w	r1, [r3], #4
 800ae4e:	f842 1f04 	str.w	r1, [r2, #4]!
 800ae52:	429f      	cmp	r7, r3
 800ae54:	d2f9      	bcs.n	800ae4a <__hexnan+0xaa>
 800ae56:	1b3b      	subs	r3, r7, r4
 800ae58:	f023 0303 	bic.w	r3, r3, #3
 800ae5c:	3304      	adds	r3, #4
 800ae5e:	3401      	adds	r4, #1
 800ae60:	3e03      	subs	r6, #3
 800ae62:	42b4      	cmp	r4, r6
 800ae64:	bf88      	it	hi
 800ae66:	2304      	movhi	r3, #4
 800ae68:	4443      	add	r3, r8
 800ae6a:	2200      	movs	r2, #0
 800ae6c:	f843 2b04 	str.w	r2, [r3], #4
 800ae70:	429f      	cmp	r7, r3
 800ae72:	d2fb      	bcs.n	800ae6c <__hexnan+0xcc>
 800ae74:	683b      	ldr	r3, [r7, #0]
 800ae76:	b91b      	cbnz	r3, 800ae80 <__hexnan+0xe0>
 800ae78:	4547      	cmp	r7, r8
 800ae7a:	d127      	bne.n	800aecc <__hexnan+0x12c>
 800ae7c:	2301      	movs	r3, #1
 800ae7e:	603b      	str	r3, [r7, #0]
 800ae80:	2005      	movs	r0, #5
 800ae82:	e026      	b.n	800aed2 <__hexnan+0x132>
 800ae84:	3501      	adds	r5, #1
 800ae86:	2d08      	cmp	r5, #8
 800ae88:	f10b 0b01 	add.w	fp, fp, #1
 800ae8c:	dd06      	ble.n	800ae9c <__hexnan+0xfc>
 800ae8e:	4544      	cmp	r4, r8
 800ae90:	d9c3      	bls.n	800ae1a <__hexnan+0x7a>
 800ae92:	2300      	movs	r3, #0
 800ae94:	f844 3c04 	str.w	r3, [r4, #-4]
 800ae98:	2501      	movs	r5, #1
 800ae9a:	3c04      	subs	r4, #4
 800ae9c:	6822      	ldr	r2, [r4, #0]
 800ae9e:	f000 000f 	and.w	r0, r0, #15
 800aea2:	ea40 1202 	orr.w	r2, r0, r2, lsl #4
 800aea6:	6022      	str	r2, [r4, #0]
 800aea8:	e7b7      	b.n	800ae1a <__hexnan+0x7a>
 800aeaa:	2508      	movs	r5, #8
 800aeac:	e7b5      	b.n	800ae1a <__hexnan+0x7a>
 800aeae:	9b01      	ldr	r3, [sp, #4]
 800aeb0:	2b00      	cmp	r3, #0
 800aeb2:	d0df      	beq.n	800ae74 <__hexnan+0xd4>
 800aeb4:	f04f 32ff 	mov.w	r2, #4294967295
 800aeb8:	f1c3 0320 	rsb	r3, r3, #32
 800aebc:	fa22 f303 	lsr.w	r3, r2, r3
 800aec0:	f856 2c04 	ldr.w	r2, [r6, #-4]
 800aec4:	401a      	ands	r2, r3
 800aec6:	f846 2c04 	str.w	r2, [r6, #-4]
 800aeca:	e7d3      	b.n	800ae74 <__hexnan+0xd4>
 800aecc:	3f04      	subs	r7, #4
 800aece:	e7d1      	b.n	800ae74 <__hexnan+0xd4>
 800aed0:	2004      	movs	r0, #4
 800aed2:	b007      	add	sp, #28
 800aed4:	e8bd 8ff0 	ldmia.w	sp!, {r4, r5, r6, r7, r8, r9, sl, fp, pc}

0800aed8 <_localeconv_r>:
 800aed8:	4800      	ldr	r0, [pc, #0]	; (800aedc <_localeconv_r+0x4>)
 800aeda:	4770      	bx	lr
 800aedc:	20000324 	.word	0x20000324

0800aee0 <_lseek_r>:
 800aee0:	b538      	push	{r3, r4, r5, lr}
 800aee2:	4d07      	ldr	r5, [pc, #28]	; (800af00 <_lseek_r+0x20>)
 800aee4:	4604      	mov	r4, r0
 800aee6:	4608      	mov	r0, r1
 800aee8:	4611      	mov	r1, r2
 800aeea:	2200      	movs	r2, #0
 800aeec:	602a      	str	r2, [r5, #0]
 800aeee:	461a      	mov	r2, r3
 800aef0:	f7f9 fa5a 	bl	80043a8 <_lseek>
 800aef4:	1c43      	adds	r3, r0, #1
 800aef6:	d102      	bne.n	800aefe <_lseek_r+0x1e>
 800aef8:	682b      	ldr	r3, [r5, #0]
 800aefa:	b103      	cbz	r3, 800aefe <_lseek_r+0x1e>
 800aefc:	6023      	str	r3, [r4, #0]
 800aefe:	bd38      	pop	{r3, r4, r5, pc}
 800af00:	20001fe4 	.word	0x20001fe4

0800af04 <malloc>:
 800af04:	4b02      	ldr	r3, [pc, #8]	; (800af10 <malloc+0xc>)
 800af06:	4601      	mov	r1, r0
 800af08:	6818      	ldr	r0, [r3, #0]
 800af0a:	f000 bd2f 	b.w	800b96c <_malloc_r>
 800af0e:	bf00      	nop
 800af10:	200001cc 	.word	0x200001cc

0800af14 <__ascii_mbtowc>:
 800af14:	b082      	sub	sp, #8
 800af16:	b901      	cbnz	r1, 800af1a <__ascii_mbtowc+0x6>
 800af18:	a901      	add	r1, sp, #4
 800af1a:	b142      	cbz	r2, 800af2e <__ascii_mbtowc+0x1a>
 800af1c:	b14b      	cbz	r3, 800af32 <__ascii_mbtowc+0x1e>
 800af1e:	7813      	ldrb	r3, [r2, #0]
 800af20:	600b      	str	r3, [r1, #0]
 800af22:	7812      	ldrb	r2, [r2, #0]
 800af24:	1e10      	subs	r0, r2, #0
 800af26:	bf18      	it	ne
 800af28:	2001      	movne	r0, #1
 800af2a:	b002      	add	sp, #8
 800af2c:	4770      	bx	lr
 800af2e:	4610      	mov	r0, r2
 800af30:	e7fb      	b.n	800af2a <__ascii_mbtowc+0x16>
 800af32:	f06f 0001 	mvn.w	r0, #1
 800af36:	e7f8      	b.n	800af2a <__ascii_mbtowc+0x16>

0800af38 <_Balloc>:
 800af38:	b570      	push	{r4, r5, r6, lr}
 800af3a:	6a46      	ldr	r6, [r0, #36]	; 0x24
 800af3c:	4604      	mov	r4, r0
 800af3e:	460d      	mov	r5, r1
 800af40:	b976      	cbnz	r6, 800af60 <_Balloc+0x28>
 800af42:	2010      	movs	r0, #16
 800af44:	f7ff ffde 	bl	800af04 <malloc>
 800af48:	4602      	mov	r2, r0
 800af4a:	6260      	str	r0, [r4, #36]	; 0x24
 800af4c:	b920      	cbnz	r0, 800af58 <_Balloc+0x20>
 800af4e:	4b18      	ldr	r3, [pc, #96]	; (800afb0 <_Balloc+0x78>)
 800af50:	4818      	ldr	r0, [pc, #96]	; (800afb4 <_Balloc+0x7c>)
 800af52:	2166      	movs	r1, #102	; 0x66
 800af54:	f001 fb08 	bl	800c568 <__assert_func>
 800af58:	e9c0 6601 	strd	r6, r6, [r0, #4]
 800af5c:	6006      	str	r6, [r0, #0]
 800af5e:	60c6      	str	r6, [r0, #12]
 800af60:	6a66      	ldr	r6, [r4, #36]	; 0x24
 800af62:	68f3      	ldr	r3, [r6, #12]
 800af64:	b183      	cbz	r3, 800af88 <_Balloc+0x50>
 800af66:	6a63      	ldr	r3, [r4, #36]	; 0x24
 800af68:	68db      	ldr	r3, [r3, #12]
 800af6a:	f853 0025 	ldr.w	r0, [r3, r5, lsl #2]
 800af6e:	b9b8      	cbnz	r0, 800afa0 <_Balloc+0x68>
 800af70:	2101      	movs	r1, #1
 800af72:	fa01 f605 	lsl.w	r6, r1, r5
 800af76:	1d72      	adds	r2, r6, #5
 800af78:	0092      	lsls	r2, r2, #2
 800af7a:	4620      	mov	r0, r4
 800af7c:	f000 fc97 	bl	800b8ae <_calloc_r>
 800af80:	b160      	cbz	r0, 800af9c <_Balloc+0x64>
 800af82:	e9c0 5601 	strd	r5, r6, [r0, #4]
 800af86:	e00e      	b.n	800afa6 <_Balloc+0x6e>
 800af88:	2221      	movs	r2, #33	; 0x21
 800af8a:	2104      	movs	r1, #4
 800af8c:	4620      	mov	r0, r4
 800af8e:	f000 fc8e 	bl	800b8ae <_calloc_r>
 800af92:	6a63      	ldr	r3, [r4, #36]	; 0x24
 800af94:	60f0      	str	r0, [r6, #12]
 800af96:	68db      	ldr	r3, [r3, #12]
 800af98:	2b00      	cmp	r3, #0
 800af9a:	d1e4      	bne.n	800af66 <_Balloc+0x2e>
 800af9c:	2000      	movs	r0, #0
 800af9e:	bd70      	pop	{r4, r5, r6, pc}
 800afa0:	6802      	ldr	r2, [r0, #0]
 800afa2:	f843 2025 	str.w	r2, [r3, r5, lsl #2]
 800afa6:	2300      	movs	r3, #0
 800afa8:	e9c0 3303 	strd	r3, r3, [r0, #12]
 800afac:	e7f7      	b.n	800af9e <_Balloc+0x66>
 800afae:	bf00      	nop
 800afb0:	0800e395 	.word	0x0800e395
 800afb4:	0800e49c 	.word	0x0800e49c

0800afb8 <_Bfree>:
 800afb8:	b570      	push	{r4, r5, r6, lr}
 800afba:	6a46      	ldr	r6, [r0, #36]	; 0x24
 800afbc:	4605      	mov	r5, r0
 800afbe:	460c      	mov	r4, r1
 800afc0:	b976      	cbnz	r6, 800afe0 <_Bfree+0x28>
 800afc2:	2010      	movs	r0, #16
 800afc4:	f7ff ff9e 	bl	800af04 <malloc>
 800afc8:	4602      	mov	r2, r0
 800afca:	6268      	str	r0, [r5, #36]	; 0x24
 800afcc:	b920      	cbnz	r0, 800afd8 <_Bfree+0x20>
 800afce:	4b09      	ldr	r3, [pc, #36]	; (800aff4 <_Bfree+0x3c>)
 800afd0:	4809      	ldr	r0, [pc, #36]	; (800aff8 <_Bfree+0x40>)
 800afd2:	218a      	movs	r1, #138	; 0x8a
 800afd4:	f001 fac8 	bl	800c568 <__assert_func>
 800afd8:	e9c0 6601 	strd	r6, r6, [r0, #4]
 800afdc:	6006      	str	r6, [r0, #0]
 800afde:	60c6      	str	r6, [r0, #12]
 800afe0:	b13c      	cbz	r4, 800aff2 <_Bfree+0x3a>
 800afe2:	6a6b      	ldr	r3, [r5, #36]	; 0x24
 800afe4:	6862      	ldr	r2, [r4, #4]
 800afe6:	68db      	ldr	r3, [r3, #12]
 800afe8:	f853 1022 	ldr.w	r1, [r3, r2, lsl #2]
 800afec:	6021      	str	r1, [r4, #0]
 800afee:	f843 4022 	str.w	r4, [r3, r2, lsl #2]
 800aff2:	bd70      	pop	{r4, r5, r6, pc}
 800aff4:	0800e395 	.word	0x0800e395
 800aff8:	0800e49c 	.word	0x0800e49c

0800affc <__multadd>:
 800affc:	e92d 41f0 	stmdb	sp!, {r4, r5, r6, r7, r8, lr}
 800b000:	690e      	ldr	r6, [r1, #16]
 800b002:	4607      	mov	r7, r0
 800b004:	4698      	mov	r8, r3
 800b006:	460c      	mov	r4, r1
 800b008:	f101 0014 	add.w	r0, r1, #20
 800b00c:	2300      	movs	r3, #0
 800b00e:	6805      	ldr	r5, [r0, #0]
 800b010:	b2a9      	uxth	r1, r5
 800b012:	fb02 8101 	mla	r1, r2, r1, r8
 800b016:	ea4f 4c11 	mov.w	ip, r1, lsr #16
 800b01a:	0c2d      	lsrs	r5, r5, #16
 800b01c:	fb02 c505 	mla	r5, r2, r5, ip
 800b020:	b289      	uxth	r1, r1
 800b022:	3301      	adds	r3, #1
 800b024:	eb01 4105 	add.w	r1, r1, r5, lsl #16
 800b028:	429e      	cmp	r6, r3
 800b02a:	f840 1b04 	str.w	r1, [r0], #4
 800b02e:	ea4f 4815 	mov.w	r8, r5, lsr #16
 800b032:	dcec      	bgt.n	800b00e <__multadd+0x12>
 800b034:	f1b8 0f00 	cmp.w	r8, #0
 800b038:	d022      	beq.n	800b080 <__multadd+0x84>
 800b03a:	68a3      	ldr	r3, [r4, #8]
 800b03c:	42b3      	cmp	r3, r6
 800b03e:	dc19      	bgt.n	800b074 <__multadd+0x78>
 800b040:	6861      	ldr	r1, [r4, #4]
 800b042:	4638      	mov	r0, r7
 800b044:	3101      	adds	r1, #1
 800b046:	f7ff ff77 	bl	800af38 <_Balloc>
 800b04a:	4605      	mov	r5, r0
 800b04c:	b928      	cbnz	r0, 800b05a <__multadd+0x5e>
 800b04e:	4602      	mov	r2, r0
 800b050:	4b0d      	ldr	r3, [pc, #52]	; (800b088 <__multadd+0x8c>)
 800b052:	480e      	ldr	r0, [pc, #56]	; (800b08c <__multadd+0x90>)
 800b054:	21b5      	movs	r1, #181	; 0xb5
 800b056:	f001 fa87 	bl	800c568 <__assert_func>
 800b05a:	6922      	ldr	r2, [r4, #16]
 800b05c:	3202      	adds	r2, #2
 800b05e:	f104 010c 	add.w	r1, r4, #12
 800b062:	0092      	lsls	r2, r2, #2
 800b064:	300c      	adds	r0, #12
 800b066:	f7fc ff37 	bl	8007ed8 <memcpy>
 800b06a:	4621      	mov	r1, r4
 800b06c:	4638      	mov	r0, r7
 800b06e:	f7ff ffa3 	bl	800afb8 <_Bfree>
 800b072:	462c      	mov	r4, r5
 800b074:	eb04 0386 	add.w	r3, r4, r6, lsl #2
 800b078:	3601      	adds	r6, #1
 800b07a:	f8c3 8014 	str.w	r8, [r3, #20]
 800b07e:	6126      	str	r6, [r4, #16]
 800b080:	4620      	mov	r0, r4
 800b082:	e8bd 81f0 	ldmia.w	sp!, {r4, r5, r6, r7, r8, pc}
 800b086:	bf00      	nop
 800b088:	0800e40b 	.word	0x0800e40b
 800b08c:	0800e49c 	.word	0x0800e49c

0800b090 <__s2b>:
 800b090:	e92d 43f8 	stmdb	sp!, {r3, r4, r5, r6, r7, r8, r9, lr}
 800b094:	460c      	mov	r4, r1
 800b096:	4615      	mov	r5, r2
 800b098:	461f      	mov	r7, r3
 800b09a:	2209      	movs	r2, #9
 800b09c:	3308      	adds	r3, #8
 800b09e:	4606      	mov	r6, r0
 800b0a0:	fb93 f3f2 	sdiv	r3, r3, r2
 800b0a4:	2100      	movs	r1, #0
 800b0a6:	2201      	movs	r2, #1
 800b0a8:	429a      	cmp	r2, r3
 800b0aa:	db09      	blt.n	800b0c0 <__s2b+0x30>
 800b0ac:	4630      	mov	r0, r6
 800b0ae:	f7ff ff43 	bl	800af38 <_Balloc>
 800b0b2:	b940      	cbnz	r0, 800b0c6 <__s2b+0x36>
 800b0b4:	4602      	mov	r2, r0
 800b0b6:	4b19      	ldr	r3, [pc, #100]	; (800b11c <__s2b+0x8c>)
 800b0b8:	4819      	ldr	r0, [pc, #100]	; (800b120 <__s2b+0x90>)
 800b0ba:	21ce      	movs	r1, #206	; 0xce
 800b0bc:	f001 fa54 	bl	800c568 <__assert_func>
 800b0c0:	0052      	lsls	r2, r2, #1
 800b0c2:	3101      	adds	r1, #1
 800b0c4:	e7f0      	b.n	800b0a8 <__s2b+0x18>
 800b0c6:	9b08      	ldr	r3, [sp, #32]
 800b0c8:	6143      	str	r3, [r0, #20]
 800b0ca:	2d09      	cmp	r5, #9
 800b0cc:	f04f 0301 	mov.w	r3, #1
 800b0d0:	6103      	str	r3, [r0, #16]
 800b0d2:	dd16      	ble.n	800b102 <__s2b+0x72>
 800b0d4:	f104 0909 	add.w	r9, r4, #9
 800b0d8:	46c8      	mov	r8, r9
 800b0da:	442c      	add	r4, r5
 800b0dc:	f818 3b01 	ldrb.w	r3, [r8], #1
 800b0e0:	4601      	mov	r1, r0
 800b0e2:	3b30      	subs	r3, #48	; 0x30
 800b0e4:	220a      	movs	r2, #10
 800b0e6:	4630      	mov	r0, r6
 800b0e8:	f7ff ff88 	bl	800affc <__multadd>
 800b0ec:	45a0      	cmp	r8, r4
 800b0ee:	d1f5      	bne.n	800b0dc <__s2b+0x4c>
 800b0f0:	f1a5 0408 	sub.w	r4, r5, #8
 800b0f4:	444c      	add	r4, r9
 800b0f6:	1b2d      	subs	r5, r5, r4
 800b0f8:	1963      	adds	r3, r4, r5
 800b0fa:	42bb      	cmp	r3, r7
 800b0fc:	db04      	blt.n	800b108 <__s2b+0x78>
 800b0fe:	e8bd 83f8 	ldmia.w	sp!, {r3, r4, r5, r6, r7, r8, r9, pc}
 800b102:	340a      	adds	r4, #10
 800b104:	2509      	movs	r5, #9
 800b106:	e7f6      	b.n	800b0f6 <__s2b+0x66>
 800b108:	f814 3b01 	ldrb.w	r3, [r4], #1
 800b10c:	4601      	mov	r1, r0
 800b10e:	3b30      	subs	r3, #48	; 0x30
 800b110:	220a      	movs	r2, #10
 800b112:	4630      	mov	r0, r6
 800b114:	f7ff ff72 	bl	800affc <__multadd>
 800b118:	e7ee      	b.n	800b0f8 <__s2b+0x68>
 800b11a:	bf00      	nop
 800b11c:	0800e40b 	.word	0x0800e40b
 800b120:	0800e49c 	.word	0x0800e49c

0800b124 <__hi0bits>:
 800b124:	0c03      	lsrs	r3, r0, #16
 800b126:	041b      	lsls	r3, r3, #16
 800b128:	b9d3      	cbnz	r3, 800b160 <__hi0bits+0x3c>
 800b12a:	0400      	lsls	r0, r0, #16
 800b12c:	2310      	movs	r3, #16
 800b12e:	f010 4f7f 	tst.w	r0, #4278190080	; 0xff000000
 800b132:	bf04      	itt	eq
 800b134:	0200      	lsleq	r0, r0, #8
 800b136:	3308      	addeq	r3, #8
 800b138:	f010 4f70 	tst.w	r0, #4026531840	; 0xf0000000
 800b13c:	bf04      	itt	eq
 800b13e:	0100      	lsleq	r0, r0, #4
 800b140:	3304      	addeq	r3, #4
 800b142:	f010 4f40 	tst.w	r0, #3221225472	; 0xc0000000
 800b146:	bf04      	itt	eq
 800b148:	0080      	lsleq	r0, r0, #2
 800b14a:	3302      	addeq	r3, #2
 800b14c:	2800      	cmp	r0, #0
 800b14e:	db05      	blt.n	800b15c <__hi0bits+0x38>
 800b150:	f010 4f80 	tst.w	r0, #1073741824	; 0x40000000
 800b154:	f103 0301 	add.w	r3, r3, #1
 800b158:	bf08      	it	eq
 800b15a:	2320      	moveq	r3, #32
 800b15c:	4618      	mov	r0, r3
 800b15e:	4770      	bx	lr
 800b160:	2300      	movs	r3, #0
 800b162:	e7e4      	b.n	800b12e <__hi0bits+0xa>

0800b164 <__lo0bits>:
 800b164:	6803      	ldr	r3, [r0, #0]
 800b166:	f013 0207 	ands.w	r2, r3, #7
 800b16a:	4601      	mov	r1, r0
 800b16c:	d00b      	beq.n	800b186 <__lo0bits+0x22>
 800b16e:	07da      	lsls	r2, r3, #31
 800b170:	d424      	bmi.n	800b1bc <__lo0bits+0x58>
 800b172:	0798      	lsls	r0, r3, #30
 800b174:	bf49      	itett	mi
 800b176:	085b      	lsrmi	r3, r3, #1
 800b178:	089b      	lsrpl	r3, r3, #2
 800b17a:	2001      	movmi	r0, #1
 800b17c:	600b      	strmi	r3, [r1, #0]
 800b17e:	bf5c      	itt	pl
 800b180:	600b      	strpl	r3, [r1, #0]
 800b182:	2002      	movpl	r0, #2
 800b184:	4770      	bx	lr
 800b186:	b298      	uxth	r0, r3
 800b188:	b9b0      	cbnz	r0, 800b1b8 <__lo0bits+0x54>
 800b18a:	0c1b      	lsrs	r3, r3, #16
 800b18c:	2010      	movs	r0, #16
 800b18e:	f013 0fff 	tst.w	r3, #255	; 0xff
 800b192:	bf04      	itt	eq
 800b194:	0a1b      	lsreq	r3, r3, #8
 800b196:	3008      	addeq	r0, #8
 800b198:	071a      	lsls	r2, r3, #28
 800b19a:	bf04      	itt	eq
 800b19c:	091b      	lsreq	r3, r3, #4
 800b19e:	3004      	addeq	r0, #4
 800b1a0:	079a      	lsls	r2, r3, #30
 800b1a2:	bf04      	itt	eq
 800b1a4:	089b      	lsreq	r3, r3, #2
 800b1a6:	3002      	addeq	r0, #2
 800b1a8:	07da      	lsls	r2, r3, #31
 800b1aa:	d403      	bmi.n	800b1b4 <__lo0bits+0x50>
 800b1ac:	085b      	lsrs	r3, r3, #1
 800b1ae:	f100 0001 	add.w	r0, r0, #1
 800b1b2:	d005      	beq.n	800b1c0 <__lo0bits+0x5c>
 800b1b4:	600b      	str	r3, [r1, #0]
 800b1b6:	4770      	bx	lr
 800b1b8:	4610      	mov	r0, r2
 800b1ba:	e7e8      	b.n	800b18e <__lo0bits+0x2a>
 800b1bc:	2000      	movs	r0, #0
 800b1be:	4770      	bx	lr
 800b1c0:	2020      	movs	r0, #32
 800b1c2:	4770      	bx	lr

0800b1c4 <__i2b>:
 800b1c4:	b510      	push	{r4, lr}
 800b1c6:	460c      	mov	r4, r1
 800b1c8:	2101      	movs	r1, #1
 800b1ca:	f7ff feb5 	bl	800af38 <_Balloc>
 800b1ce:	4602      	mov	r2, r0
 800b1d0:	b928      	cbnz	r0, 800b1de <__i2b+0x1a>
 800b1d2:	4b05      	ldr	r3, [pc, #20]	; (800b1e8 <__i2b+0x24>)
 800b1d4:	4805      	ldr	r0, [pc, #20]	; (800b1ec <__i2b+0x28>)
 800b1d6:	f44f 71a0 	mov.w	r1, #320	; 0x140
 800b1da:	f001 f9c5 	bl	800c568 <__assert_func>
 800b1de:	2301      	movs	r3, #1
 800b1e0:	6144      	str	r4, [r0, #20]
 800b1e2:	6103      	str	r3, [r0, #16]
 800b1e4:	bd10      	pop	{r4, pc}
 800b1e6:	bf00      	nop
 800b1e8:	0800e40b 	.word	0x0800e40b
 800b1ec:	0800e49c 	.word	0x0800e49c

0800b1f0 <__multiply>:
 800b1f0:	e92d 4ff0 	stmdb	sp!, {r4, r5, r6, r7, r8, r9, sl, fp, lr}
 800b1f4:	4614      	mov	r4, r2
 800b1f6:	690a      	ldr	r2, [r1, #16]
 800b1f8:	6923      	ldr	r3, [r4, #16]
 800b1fa:	429a      	cmp	r2, r3
 800b1fc:	bfb8      	it	lt
 800b1fe:	460b      	movlt	r3, r1
 800b200:	460d      	mov	r5, r1
 800b202:	bfbc      	itt	lt
 800b204:	4625      	movlt	r5, r4
 800b206:	461c      	movlt	r4, r3
 800b208:	f8d5 a010 	ldr.w	sl, [r5, #16]
 800b20c:	f8d4 9010 	ldr.w	r9, [r4, #16]
 800b210:	68ab      	ldr	r3, [r5, #8]
 800b212:	6869      	ldr	r1, [r5, #4]
 800b214:	eb0a 0709 	add.w	r7, sl, r9
 800b218:	42bb      	cmp	r3, r7
 800b21a:	b085      	sub	sp, #20
 800b21c:	bfb8      	it	lt
 800b21e:	3101      	addlt	r1, #1
 800b220:	f7ff fe8a 	bl	800af38 <_Balloc>
 800b224:	b930      	cbnz	r0, 800b234 <__multiply+0x44>
 800b226:	4602      	mov	r2, r0
 800b228:	4b42      	ldr	r3, [pc, #264]	; (800b334 <__multiply+0x144>)
 800b22a:	4843      	ldr	r0, [pc, #268]	; (800b338 <__multiply+0x148>)
 800b22c:	f240 115d 	movw	r1, #349	; 0x15d
 800b230:	f001 f99a 	bl	800c568 <__assert_func>
 800b234:	f100 0614 	add.w	r6, r0, #20
 800b238:	eb06 0887 	add.w	r8, r6, r7, lsl #2
 800b23c:	4633      	mov	r3, r6
 800b23e:	2200      	movs	r2, #0
 800b240:	4543      	cmp	r3, r8
 800b242:	d31e      	bcc.n	800b282 <__multiply+0x92>
 800b244:	f105 0c14 	add.w	ip, r5, #20
 800b248:	f104 0314 	add.w	r3, r4, #20
 800b24c:	eb0c 0c8a 	add.w	ip, ip, sl, lsl #2
 800b250:	eb03 0289 	add.w	r2, r3, r9, lsl #2
 800b254:	9202      	str	r2, [sp, #8]
 800b256:	ebac 0205 	sub.w	r2, ip, r5
 800b25a:	3a15      	subs	r2, #21
 800b25c:	f022 0203 	bic.w	r2, r2, #3
 800b260:	3204      	adds	r2, #4
 800b262:	f105 0115 	add.w	r1, r5, #21
 800b266:	458c      	cmp	ip, r1
 800b268:	bf38      	it	cc
 800b26a:	2204      	movcc	r2, #4
 800b26c:	9201      	str	r2, [sp, #4]
 800b26e:	9a02      	ldr	r2, [sp, #8]
 800b270:	9303      	str	r3, [sp, #12]
 800b272:	429a      	cmp	r2, r3
 800b274:	d808      	bhi.n	800b288 <__multiply+0x98>
 800b276:	2f00      	cmp	r7, #0
 800b278:	dc55      	bgt.n	800b326 <__multiply+0x136>
 800b27a:	6107      	str	r7, [r0, #16]
 800b27c:	b005      	add	sp, #20
 800b27e:	e8bd 8ff0 	ldmia.w	sp!, {r4, r5, r6, r7, r8, r9, sl, fp, pc}
 800b282:	f843 2b04 	str.w	r2, [r3], #4
 800b286:	e7db      	b.n	800b240 <__multiply+0x50>
 800b288:	f8b3 a000 	ldrh.w	sl, [r3]
 800b28c:	f1ba 0f00 	cmp.w	sl, #0
 800b290:	d020      	beq.n	800b2d4 <__multiply+0xe4>
 800b292:	f105 0e14 	add.w	lr, r5, #20
 800b296:	46b1      	mov	r9, r6
 800b298:	2200      	movs	r2, #0
 800b29a:	f85e 4b04 	ldr.w	r4, [lr], #4
 800b29e:	f8d9 b000 	ldr.w	fp, [r9]
 800b2a2:	b2a1      	uxth	r1, r4
 800b2a4:	fa1f fb8b 	uxth.w	fp, fp
 800b2a8:	fb0a b101 	mla	r1, sl, r1, fp
 800b2ac:	4411      	add	r1, r2
 800b2ae:	f8d9 2000 	ldr.w	r2, [r9]
 800b2b2:	0c24      	lsrs	r4, r4, #16
 800b2b4:	0c12      	lsrs	r2, r2, #16
 800b2b6:	fb0a 2404 	mla	r4, sl, r4, r2
 800b2ba:	eb04 4411 	add.w	r4, r4, r1, lsr #16
 800b2be:	b289      	uxth	r1, r1
 800b2c0:	ea41 4104 	orr.w	r1, r1, r4, lsl #16
 800b2c4:	45f4      	cmp	ip, lr
 800b2c6:	f849 1b04 	str.w	r1, [r9], #4
 800b2ca:	ea4f 4214 	mov.w	r2, r4, lsr #16
 800b2ce:	d8e4      	bhi.n	800b29a <__multiply+0xaa>
 800b2d0:	9901      	ldr	r1, [sp, #4]
 800b2d2:	5072      	str	r2, [r6, r1]
 800b2d4:	9a03      	ldr	r2, [sp, #12]
 800b2d6:	f8b2 9002 	ldrh.w	r9, [r2, #2]
 800b2da:	3304      	adds	r3, #4
 800b2dc:	f1b9 0f00 	cmp.w	r9, #0
 800b2e0:	d01f      	beq.n	800b322 <__multiply+0x132>
 800b2e2:	6834      	ldr	r4, [r6, #0]
 800b2e4:	f105 0114 	add.w	r1, r5, #20
 800b2e8:	46b6      	mov	lr, r6
 800b2ea:	f04f 0a00 	mov.w	sl, #0
 800b2ee:	880a      	ldrh	r2, [r1, #0]
 800b2f0:	f8be b002 	ldrh.w	fp, [lr, #2]
 800b2f4:	fb09 b202 	mla	r2, r9, r2, fp
 800b2f8:	4492      	add	sl, r2
 800b2fa:	b2a4      	uxth	r4, r4
 800b2fc:	ea44 440a 	orr.w	r4, r4, sl, lsl #16
 800b300:	f84e 4b04 	str.w	r4, [lr], #4
 800b304:	f851 4b04 	ldr.w	r4, [r1], #4
 800b308:	f8be 2000 	ldrh.w	r2, [lr]
 800b30c:	0c24      	lsrs	r4, r4, #16
 800b30e:	fb09 2404 	mla	r4, r9, r4, r2
 800b312:	eb04 441a 	add.w	r4, r4, sl, lsr #16
 800b316:	458c      	cmp	ip, r1
 800b318:	ea4f 4a14 	mov.w	sl, r4, lsr #16
 800b31c:	d8e7      	bhi.n	800b2ee <__multiply+0xfe>
 800b31e:	9a01      	ldr	r2, [sp, #4]
 800b320:	50b4      	str	r4, [r6, r2]
 800b322:	3604      	adds	r6, #4
 800b324:	e7a3      	b.n	800b26e <__multiply+0x7e>
 800b326:	f858 3d04 	ldr.w	r3, [r8, #-4]!
 800b32a:	2b00      	cmp	r3, #0
 800b32c:	d1a5      	bne.n	800b27a <__multiply+0x8a>
 800b32e:	3f01      	subs	r7, #1
 800b330:	e7a1      	b.n	800b276 <__multiply+0x86>
 800b332:	bf00      	nop
 800b334:	0800e40b 	.word	0x0800e40b
 800b338:	0800e49c 	.word	0x0800e49c

0800b33c <__pow5mult>:
 800b33c:	e92d 43f8 	stmdb	sp!, {r3, r4, r5, r6, r7, r8, r9, lr}
 800b340:	4615      	mov	r5, r2
 800b342:	f012 0203 	ands.w	r2, r2, #3
 800b346:	4606      	mov	r6, r0
 800b348:	460f      	mov	r7, r1
 800b34a:	d007      	beq.n	800b35c <__pow5mult+0x20>
 800b34c:	4c25      	ldr	r4, [pc, #148]	; (800b3e4 <__pow5mult+0xa8>)
 800b34e:	3a01      	subs	r2, #1
 800b350:	2300      	movs	r3, #0
 800b352:	f854 2022 	ldr.w	r2, [r4, r2, lsl #2]
 800b356:	f7ff fe51 	bl	800affc <__multadd>
 800b35a:	4607      	mov	r7, r0
 800b35c:	10ad      	asrs	r5, r5, #2
 800b35e:	d03d      	beq.n	800b3dc <__pow5mult+0xa0>
 800b360:	6a74      	ldr	r4, [r6, #36]	; 0x24
 800b362:	b97c      	cbnz	r4, 800b384 <__pow5mult+0x48>
 800b364:	2010      	movs	r0, #16
 800b366:	f7ff fdcd 	bl	800af04 <malloc>
 800b36a:	4602      	mov	r2, r0
 800b36c:	6270      	str	r0, [r6, #36]	; 0x24
 800b36e:	b928      	cbnz	r0, 800b37c <__pow5mult+0x40>
 800b370:	4b1d      	ldr	r3, [pc, #116]	; (800b3e8 <__pow5mult+0xac>)
 800b372:	481e      	ldr	r0, [pc, #120]	; (800b3ec <__pow5mult+0xb0>)
 800b374:	f44f 71d7 	mov.w	r1, #430	; 0x1ae
 800b378:	f001 f8f6 	bl	800c568 <__assert_func>
 800b37c:	e9c0 4401 	strd	r4, r4, [r0, #4]
 800b380:	6004      	str	r4, [r0, #0]
 800b382:	60c4      	str	r4, [r0, #12]
 800b384:	f8d6 8024 	ldr.w	r8, [r6, #36]	; 0x24
 800b388:	f8d8 4008 	ldr.w	r4, [r8, #8]
 800b38c:	b94c      	cbnz	r4, 800b3a2 <__pow5mult+0x66>
 800b38e:	f240 2171 	movw	r1, #625	; 0x271
 800b392:	4630      	mov	r0, r6
 800b394:	f7ff ff16 	bl	800b1c4 <__i2b>
 800b398:	2300      	movs	r3, #0
 800b39a:	f8c8 0008 	str.w	r0, [r8, #8]
 800b39e:	4604      	mov	r4, r0
 800b3a0:	6003      	str	r3, [r0, #0]
 800b3a2:	f04f 0900 	mov.w	r9, #0
 800b3a6:	07eb      	lsls	r3, r5, #31
 800b3a8:	d50a      	bpl.n	800b3c0 <__pow5mult+0x84>
 800b3aa:	4639      	mov	r1, r7
 800b3ac:	4622      	mov	r2, r4
 800b3ae:	4630      	mov	r0, r6
 800b3b0:	f7ff ff1e 	bl	800b1f0 <__multiply>
 800b3b4:	4639      	mov	r1, r7
 800b3b6:	4680      	mov	r8, r0
 800b3b8:	4630      	mov	r0, r6
 800b3ba:	f7ff fdfd 	bl	800afb8 <_Bfree>
 800b3be:	4647      	mov	r7, r8
 800b3c0:	106d      	asrs	r5, r5, #1
 800b3c2:	d00b      	beq.n	800b3dc <__pow5mult+0xa0>
 800b3c4:	6820      	ldr	r0, [r4, #0]
 800b3c6:	b938      	cbnz	r0, 800b3d8 <__pow5mult+0x9c>
 800b3c8:	4622      	mov	r2, r4
 800b3ca:	4621      	mov	r1, r4
 800b3cc:	4630      	mov	r0, r6
 800b3ce:	f7ff ff0f 	bl	800b1f0 <__multiply>
 800b3d2:	6020      	str	r0, [r4, #0]
 800b3d4:	f8c0 9000 	str.w	r9, [r0]
 800b3d8:	4604      	mov	r4, r0
 800b3da:	e7e4      	b.n	800b3a6 <__pow5mult+0x6a>
 800b3dc:	4638      	mov	r0, r7
 800b3de:	e8bd 83f8 	ldmia.w	sp!, {r3, r4, r5, r6, r7, r8, r9, pc}
 800b3e2:	bf00      	nop
 800b3e4:	0800e5f0 	.word	0x0800e5f0
 800b3e8:	0800e395 	.word	0x0800e395
 800b3ec:	0800e49c 	.word	0x0800e49c

0800b3f0 <__lshift>:
 800b3f0:	e92d 47f0 	stmdb	sp!, {r4, r5, r6, r7, r8, r9, sl, lr}
 800b3f4:	460c      	mov	r4, r1
 800b3f6:	6849      	ldr	r1, [r1, #4]
 800b3f8:	6923      	ldr	r3, [r4, #16]
 800b3fa:	eb03 1862 	add.w	r8, r3, r2, asr #5
 800b3fe:	68a3      	ldr	r3, [r4, #8]
 800b400:	4607      	mov	r7, r0
 800b402:	4691      	mov	r9, r2
 800b404:	ea4f 1a62 	mov.w	sl, r2, asr #5
 800b408:	f108 0601 	add.w	r6, r8, #1
 800b40c:	42b3      	cmp	r3, r6
 800b40e:	db0b      	blt.n	800b428 <__lshift+0x38>
 800b410:	4638      	mov	r0, r7
 800b412:	f7ff fd91 	bl	800af38 <_Balloc>
 800b416:	4605      	mov	r5, r0
 800b418:	b948      	cbnz	r0, 800b42e <__lshift+0x3e>
 800b41a:	4602      	mov	r2, r0
 800b41c:	4b28      	ldr	r3, [pc, #160]	; (800b4c0 <__lshift+0xd0>)
 800b41e:	4829      	ldr	r0, [pc, #164]	; (800b4c4 <__lshift+0xd4>)
 800b420:	f240 11d9 	movw	r1, #473	; 0x1d9
 800b424:	f001 f8a0 	bl	800c568 <__assert_func>
 800b428:	3101      	adds	r1, #1
 800b42a:	005b      	lsls	r3, r3, #1
 800b42c:	e7ee      	b.n	800b40c <__lshift+0x1c>
 800b42e:	2300      	movs	r3, #0
 800b430:	f100 0114 	add.w	r1, r0, #20
 800b434:	f100 0210 	add.w	r2, r0, #16
 800b438:	4618      	mov	r0, r3
 800b43a:	4553      	cmp	r3, sl
 800b43c:	db33      	blt.n	800b4a6 <__lshift+0xb6>
 800b43e:	6920      	ldr	r0, [r4, #16]
 800b440:	ea2a 7aea 	bic.w	sl, sl, sl, asr #31
 800b444:	f104 0314 	add.w	r3, r4, #20
 800b448:	f019 091f 	ands.w	r9, r9, #31
 800b44c:	eb01 018a 	add.w	r1, r1, sl, lsl #2
 800b450:	eb03 0c80 	add.w	ip, r3, r0, lsl #2
 800b454:	d02b      	beq.n	800b4ae <__lshift+0xbe>
 800b456:	f1c9 0e20 	rsb	lr, r9, #32
 800b45a:	468a      	mov	sl, r1
 800b45c:	2200      	movs	r2, #0
 800b45e:	6818      	ldr	r0, [r3, #0]
 800b460:	fa00 f009 	lsl.w	r0, r0, r9
 800b464:	4302      	orrs	r2, r0
 800b466:	f84a 2b04 	str.w	r2, [sl], #4
 800b46a:	f853 2b04 	ldr.w	r2, [r3], #4
 800b46e:	459c      	cmp	ip, r3
 800b470:	fa22 f20e 	lsr.w	r2, r2, lr
 800b474:	d8f3      	bhi.n	800b45e <__lshift+0x6e>
 800b476:	ebac 0304 	sub.w	r3, ip, r4
 800b47a:	3b15      	subs	r3, #21
 800b47c:	f023 0303 	bic.w	r3, r3, #3
 800b480:	3304      	adds	r3, #4
 800b482:	f104 0015 	add.w	r0, r4, #21
 800b486:	4584      	cmp	ip, r0
 800b488:	bf38      	it	cc
 800b48a:	2304      	movcc	r3, #4
 800b48c:	50ca      	str	r2, [r1, r3]
 800b48e:	b10a      	cbz	r2, 800b494 <__lshift+0xa4>
 800b490:	f108 0602 	add.w	r6, r8, #2
 800b494:	3e01      	subs	r6, #1
 800b496:	4638      	mov	r0, r7
 800b498:	612e      	str	r6, [r5, #16]
 800b49a:	4621      	mov	r1, r4
 800b49c:	f7ff fd8c 	bl	800afb8 <_Bfree>
 800b4a0:	4628      	mov	r0, r5
 800b4a2:	e8bd 87f0 	ldmia.w	sp!, {r4, r5, r6, r7, r8, r9, sl, pc}
 800b4a6:	f842 0f04 	str.w	r0, [r2, #4]!
 800b4aa:	3301      	adds	r3, #1
 800b4ac:	e7c5      	b.n	800b43a <__lshift+0x4a>
 800b4ae:	3904      	subs	r1, #4
 800b4b0:	f853 2b04 	ldr.w	r2, [r3], #4
 800b4b4:	f841 2f04 	str.w	r2, [r1, #4]!
 800b4b8:	459c      	cmp	ip, r3
 800b4ba:	d8f9      	bhi.n	800b4b0 <__lshift+0xc0>
 800b4bc:	e7ea      	b.n	800b494 <__lshift+0xa4>
 800b4be:	bf00      	nop
 800b4c0:	0800e40b 	.word	0x0800e40b
 800b4c4:	0800e49c 	.word	0x0800e49c

0800b4c8 <__mcmp>:
 800b4c8:	b530      	push	{r4, r5, lr}
 800b4ca:	6902      	ldr	r2, [r0, #16]
 800b4cc:	690c      	ldr	r4, [r1, #16]
 800b4ce:	1b12      	subs	r2, r2, r4
 800b4d0:	d10e      	bne.n	800b4f0 <__mcmp+0x28>
 800b4d2:	f100 0314 	add.w	r3, r0, #20
 800b4d6:	3114      	adds	r1, #20
 800b4d8:	eb03 0084 	add.w	r0, r3, r4, lsl #2
 800b4dc:	eb01 0184 	add.w	r1, r1, r4, lsl #2
 800b4e0:	f850 5d04 	ldr.w	r5, [r0, #-4]!
 800b4e4:	f851 4d04 	ldr.w	r4, [r1, #-4]!
 800b4e8:	42a5      	cmp	r5, r4
 800b4ea:	d003      	beq.n	800b4f4 <__mcmp+0x2c>
 800b4ec:	d305      	bcc.n	800b4fa <__mcmp+0x32>
 800b4ee:	2201      	movs	r2, #1
 800b4f0:	4610      	mov	r0, r2
 800b4f2:	bd30      	pop	{r4, r5, pc}
 800b4f4:	4283      	cmp	r3, r0
 800b4f6:	d3f3      	bcc.n	800b4e0 <__mcmp+0x18>
 800b4f8:	e7fa      	b.n	800b4f0 <__mcmp+0x28>
 800b4fa:	f04f 32ff 	mov.w	r2, #4294967295
 800b4fe:	e7f7      	b.n	800b4f0 <__mcmp+0x28>

0800b500 <__mdiff>:
 800b500:	e92d 4ff8 	stmdb	sp!, {r3, r4, r5, r6, r7, r8, r9, sl, fp, lr}
 800b504:	460c      	mov	r4, r1
 800b506:	4606      	mov	r6, r0
 800b508:	4611      	mov	r1, r2
 800b50a:	4620      	mov	r0, r4
 800b50c:	4617      	mov	r7, r2
 800b50e:	f7ff ffdb 	bl	800b4c8 <__mcmp>
 800b512:	1e05      	subs	r5, r0, #0
 800b514:	d110      	bne.n	800b538 <__mdiff+0x38>
 800b516:	4629      	mov	r1, r5
 800b518:	4630      	mov	r0, r6
 800b51a:	f7ff fd0d 	bl	800af38 <_Balloc>
 800b51e:	b930      	cbnz	r0, 800b52e <__mdiff+0x2e>
 800b520:	4b39      	ldr	r3, [pc, #228]	; (800b608 <__mdiff+0x108>)
 800b522:	4602      	mov	r2, r0
 800b524:	f240 2132 	movw	r1, #562	; 0x232
 800b528:	4838      	ldr	r0, [pc, #224]	; (800b60c <__mdiff+0x10c>)
 800b52a:	f001 f81d 	bl	800c568 <__assert_func>
 800b52e:	2301      	movs	r3, #1
 800b530:	e9c0 3504 	strd	r3, r5, [r0, #16]
 800b534:	e8bd 8ff8 	ldmia.w	sp!, {r3, r4, r5, r6, r7, r8, r9, sl, fp, pc}
 800b538:	bfa4      	itt	ge
 800b53a:	463b      	movge	r3, r7
 800b53c:	4627      	movge	r7, r4
 800b53e:	4630      	mov	r0, r6
 800b540:	6879      	ldr	r1, [r7, #4]
 800b542:	bfa6      	itte	ge
 800b544:	461c      	movge	r4, r3
 800b546:	2500      	movge	r5, #0
 800b548:	2501      	movlt	r5, #1
 800b54a:	f7ff fcf5 	bl	800af38 <_Balloc>
 800b54e:	b920      	cbnz	r0, 800b55a <__mdiff+0x5a>
 800b550:	4b2d      	ldr	r3, [pc, #180]	; (800b608 <__mdiff+0x108>)
 800b552:	4602      	mov	r2, r0
 800b554:	f44f 7110 	mov.w	r1, #576	; 0x240
 800b558:	e7e6      	b.n	800b528 <__mdiff+0x28>
 800b55a:	693e      	ldr	r6, [r7, #16]
 800b55c:	60c5      	str	r5, [r0, #12]
 800b55e:	6925      	ldr	r5, [r4, #16]
 800b560:	f107 0114 	add.w	r1, r7, #20
 800b564:	f104 0914 	add.w	r9, r4, #20
 800b568:	f100 0e14 	add.w	lr, r0, #20
 800b56c:	f107 0210 	add.w	r2, r7, #16
 800b570:	eb01 0c86 	add.w	ip, r1, r6, lsl #2
 800b574:	eb09 0585 	add.w	r5, r9, r5, lsl #2
 800b578:	46f2      	mov	sl, lr
 800b57a:	2700      	movs	r7, #0
 800b57c:	f859 3b04 	ldr.w	r3, [r9], #4
 800b580:	f852 bf04 	ldr.w	fp, [r2, #4]!
 800b584:	fa1f f883 	uxth.w	r8, r3
 800b588:	fa17 f78b 	uxtah	r7, r7, fp
 800b58c:	0c1b      	lsrs	r3, r3, #16
 800b58e:	eba7 0808 	sub.w	r8, r7, r8
 800b592:	ebc3 431b 	rsb	r3, r3, fp, lsr #16
 800b596:	eb03 4328 	add.w	r3, r3, r8, asr #16
 800b59a:	fa1f f888 	uxth.w	r8, r8
 800b59e:	141f      	asrs	r7, r3, #16
 800b5a0:	454d      	cmp	r5, r9
 800b5a2:	ea48 4303 	orr.w	r3, r8, r3, lsl #16
 800b5a6:	f84a 3b04 	str.w	r3, [sl], #4
 800b5aa:	d8e7      	bhi.n	800b57c <__mdiff+0x7c>
 800b5ac:	1b2b      	subs	r3, r5, r4
 800b5ae:	3b15      	subs	r3, #21
 800b5b0:	f023 0303 	bic.w	r3, r3, #3
 800b5b4:	3304      	adds	r3, #4
 800b5b6:	3415      	adds	r4, #21
 800b5b8:	42a5      	cmp	r5, r4
 800b5ba:	bf38      	it	cc
 800b5bc:	2304      	movcc	r3, #4
 800b5be:	4419      	add	r1, r3
 800b5c0:	4473      	add	r3, lr
 800b5c2:	469e      	mov	lr, r3
 800b5c4:	460d      	mov	r5, r1
 800b5c6:	4565      	cmp	r5, ip
 800b5c8:	d30e      	bcc.n	800b5e8 <__mdiff+0xe8>
 800b5ca:	f10c 0203 	add.w	r2, ip, #3
 800b5ce:	1a52      	subs	r2, r2, r1
 800b5d0:	f022 0203 	bic.w	r2, r2, #3
 800b5d4:	3903      	subs	r1, #3
 800b5d6:	458c      	cmp	ip, r1
 800b5d8:	bf38      	it	cc
 800b5da:	2200      	movcc	r2, #0
 800b5dc:	441a      	add	r2, r3
 800b5de:	f852 3d04 	ldr.w	r3, [r2, #-4]!
 800b5e2:	b17b      	cbz	r3, 800b604 <__mdiff+0x104>
 800b5e4:	6106      	str	r6, [r0, #16]
 800b5e6:	e7a5      	b.n	800b534 <__mdiff+0x34>
 800b5e8:	f855 8b04 	ldr.w	r8, [r5], #4
 800b5ec:	fa17 f488 	uxtah	r4, r7, r8
 800b5f0:	1422      	asrs	r2, r4, #16
 800b5f2:	eb02 4218 	add.w	r2, r2, r8, lsr #16
 800b5f6:	b2a4      	uxth	r4, r4
 800b5f8:	ea44 4402 	orr.w	r4, r4, r2, lsl #16
 800b5fc:	f84e 4b04 	str.w	r4, [lr], #4
 800b600:	1417      	asrs	r7, r2, #16
 800b602:	e7e0      	b.n	800b5c6 <__mdiff+0xc6>
 800b604:	3e01      	subs	r6, #1
 800b606:	e7ea      	b.n	800b5de <__mdiff+0xde>
 800b608:	0800e40b 	.word	0x0800e40b
 800b60c:	0800e49c 	.word	0x0800e49c

0800b610 <__ulp>:
 800b610:	b082      	sub	sp, #8
 800b612:	ed8d 0b00 	vstr	d0, [sp]
 800b616:	9b01      	ldr	r3, [sp, #4]
 800b618:	4912      	ldr	r1, [pc, #72]	; (800b664 <__ulp+0x54>)
 800b61a:	4019      	ands	r1, r3
 800b61c:	f1a1 7150 	sub.w	r1, r1, #54525952	; 0x3400000
 800b620:	2900      	cmp	r1, #0
 800b622:	dd05      	ble.n	800b630 <__ulp+0x20>
 800b624:	2200      	movs	r2, #0
 800b626:	460b      	mov	r3, r1
 800b628:	ec43 2b10 	vmov	d0, r2, r3
 800b62c:	b002      	add	sp, #8
 800b62e:	4770      	bx	lr
 800b630:	4249      	negs	r1, r1
 800b632:	f1b1 7fa0 	cmp.w	r1, #20971520	; 0x1400000
 800b636:	ea4f 5021 	mov.w	r0, r1, asr #20
 800b63a:	f04f 0200 	mov.w	r2, #0
 800b63e:	f04f 0300 	mov.w	r3, #0
 800b642:	da04      	bge.n	800b64e <__ulp+0x3e>
 800b644:	f44f 2100 	mov.w	r1, #524288	; 0x80000
 800b648:	fa41 f300 	asr.w	r3, r1, r0
 800b64c:	e7ec      	b.n	800b628 <__ulp+0x18>
 800b64e:	f1a0 0114 	sub.w	r1, r0, #20
 800b652:	291e      	cmp	r1, #30
 800b654:	bfda      	itte	le
 800b656:	f04f 4000 	movle.w	r0, #2147483648	; 0x80000000
 800b65a:	fa20 f101 	lsrle.w	r1, r0, r1
 800b65e:	2101      	movgt	r1, #1
 800b660:	460a      	mov	r2, r1
 800b662:	e7e1      	b.n	800b628 <__ulp+0x18>
 800b664:	7ff00000 	.word	0x7ff00000

0800b668 <__b2d>:
 800b668:	b5f8      	push	{r3, r4, r5, r6, r7, lr}
 800b66a:	6905      	ldr	r5, [r0, #16]
 800b66c:	f100 0714 	add.w	r7, r0, #20
 800b670:	eb07 0585 	add.w	r5, r7, r5, lsl #2
 800b674:	1f2e      	subs	r6, r5, #4
 800b676:	f855 4c04 	ldr.w	r4, [r5, #-4]
 800b67a:	4620      	mov	r0, r4
 800b67c:	f7ff fd52 	bl	800b124 <__hi0bits>
 800b680:	f1c0 0320 	rsb	r3, r0, #32
 800b684:	280a      	cmp	r0, #10
 800b686:	f8df c07c 	ldr.w	ip, [pc, #124]	; 800b704 <__b2d+0x9c>
 800b68a:	600b      	str	r3, [r1, #0]
 800b68c:	dc14      	bgt.n	800b6b8 <__b2d+0x50>
 800b68e:	f1c0 0e0b 	rsb	lr, r0, #11
 800b692:	fa24 f10e 	lsr.w	r1, r4, lr
 800b696:	42b7      	cmp	r7, r6
 800b698:	ea41 030c 	orr.w	r3, r1, ip
 800b69c:	bf34      	ite	cc
 800b69e:	f855 1c08 	ldrcc.w	r1, [r5, #-8]
 800b6a2:	2100      	movcs	r1, #0
 800b6a4:	3015      	adds	r0, #21
 800b6a6:	fa04 f000 	lsl.w	r0, r4, r0
 800b6aa:	fa21 f10e 	lsr.w	r1, r1, lr
 800b6ae:	ea40 0201 	orr.w	r2, r0, r1
 800b6b2:	ec43 2b10 	vmov	d0, r2, r3
 800b6b6:	bdf8      	pop	{r3, r4, r5, r6, r7, pc}
 800b6b8:	42b7      	cmp	r7, r6
 800b6ba:	bf3a      	itte	cc
 800b6bc:	f855 1c08 	ldrcc.w	r1, [r5, #-8]
 800b6c0:	f1a5 0608 	subcc.w	r6, r5, #8
 800b6c4:	2100      	movcs	r1, #0
 800b6c6:	380b      	subs	r0, #11
 800b6c8:	d017      	beq.n	800b6fa <__b2d+0x92>
 800b6ca:	f1c0 0c20 	rsb	ip, r0, #32
 800b6ce:	fa04 f500 	lsl.w	r5, r4, r0
 800b6d2:	42be      	cmp	r6, r7
 800b6d4:	fa21 f40c 	lsr.w	r4, r1, ip
 800b6d8:	ea45 0504 	orr.w	r5, r5, r4
 800b6dc:	bf8c      	ite	hi
 800b6de:	f856 4c04 	ldrhi.w	r4, [r6, #-4]
 800b6e2:	2400      	movls	r4, #0
 800b6e4:	f045 537f 	orr.w	r3, r5, #1069547520	; 0x3fc00000
 800b6e8:	fa01 f000 	lsl.w	r0, r1, r0
 800b6ec:	fa24 f40c 	lsr.w	r4, r4, ip
 800b6f0:	f443 1340 	orr.w	r3, r3, #3145728	; 0x300000
 800b6f4:	ea40 0204 	orr.w	r2, r0, r4
 800b6f8:	e7db      	b.n	800b6b2 <__b2d+0x4a>
 800b6fa:	ea44 030c 	orr.w	r3, r4, ip
 800b6fe:	460a      	mov	r2, r1
 800b700:	e7d7      	b.n	800b6b2 <__b2d+0x4a>
 800b702:	bf00      	nop
 800b704:	3ff00000 	.word	0x3ff00000

0800b708 <__d2b>:
 800b708:	e92d 43f7 	stmdb	sp!, {r0, r1, r2, r4, r5, r6, r7, r8, r9, lr}
 800b70c:	4689      	mov	r9, r1
 800b70e:	2101      	movs	r1, #1
 800b710:	ec57 6b10 	vmov	r6, r7, d0
 800b714:	4690      	mov	r8, r2
 800b716:	f7ff fc0f 	bl	800af38 <_Balloc>
 800b71a:	4604      	mov	r4, r0
 800b71c:	b930      	cbnz	r0, 800b72c <__d2b+0x24>
 800b71e:	4602      	mov	r2, r0
 800b720:	4b25      	ldr	r3, [pc, #148]	; (800b7b8 <__d2b+0xb0>)
 800b722:	4826      	ldr	r0, [pc, #152]	; (800b7bc <__d2b+0xb4>)
 800b724:	f240 310a 	movw	r1, #778	; 0x30a
 800b728:	f000 ff1e 	bl	800c568 <__assert_func>
 800b72c:	f3c7 550a 	ubfx	r5, r7, #20, #11
 800b730:	f3c7 0313 	ubfx	r3, r7, #0, #20
 800b734:	bb35      	cbnz	r5, 800b784 <__d2b+0x7c>
 800b736:	2e00      	cmp	r6, #0
 800b738:	9301      	str	r3, [sp, #4]
 800b73a:	d028      	beq.n	800b78e <__d2b+0x86>
 800b73c:	4668      	mov	r0, sp
 800b73e:	9600      	str	r6, [sp, #0]
 800b740:	f7ff fd10 	bl	800b164 <__lo0bits>
 800b744:	9900      	ldr	r1, [sp, #0]
 800b746:	b300      	cbz	r0, 800b78a <__d2b+0x82>
 800b748:	9a01      	ldr	r2, [sp, #4]
 800b74a:	f1c0 0320 	rsb	r3, r0, #32
 800b74e:	fa02 f303 	lsl.w	r3, r2, r3
 800b752:	430b      	orrs	r3, r1
 800b754:	40c2      	lsrs	r2, r0
 800b756:	6163      	str	r3, [r4, #20]
 800b758:	9201      	str	r2, [sp, #4]
 800b75a:	9b01      	ldr	r3, [sp, #4]
 800b75c:	61a3      	str	r3, [r4, #24]
 800b75e:	2b00      	cmp	r3, #0
 800b760:	bf14      	ite	ne
 800b762:	2202      	movne	r2, #2
 800b764:	2201      	moveq	r2, #1
 800b766:	6122      	str	r2, [r4, #16]
 800b768:	b1d5      	cbz	r5, 800b7a0 <__d2b+0x98>
 800b76a:	f2a5 4533 	subw	r5, r5, #1075	; 0x433
 800b76e:	4405      	add	r5, r0
 800b770:	f8c9 5000 	str.w	r5, [r9]
 800b774:	f1c0 0035 	rsb	r0, r0, #53	; 0x35
 800b778:	f8c8 0000 	str.w	r0, [r8]
 800b77c:	4620      	mov	r0, r4
 800b77e:	b003      	add	sp, #12
 800b780:	e8bd 83f0 	ldmia.w	sp!, {r4, r5, r6, r7, r8, r9, pc}
 800b784:	f443 1380 	orr.w	r3, r3, #1048576	; 0x100000
 800b788:	e7d5      	b.n	800b736 <__d2b+0x2e>
 800b78a:	6161      	str	r1, [r4, #20]
 800b78c:	e7e5      	b.n	800b75a <__d2b+0x52>
 800b78e:	a801      	add	r0, sp, #4
 800b790:	f7ff fce8 	bl	800b164 <__lo0bits>
 800b794:	9b01      	ldr	r3, [sp, #4]
 800b796:	6163      	str	r3, [r4, #20]
 800b798:	2201      	movs	r2, #1
 800b79a:	6122      	str	r2, [r4, #16]
 800b79c:	3020      	adds	r0, #32
 800b79e:	e7e3      	b.n	800b768 <__d2b+0x60>
 800b7a0:	eb04 0382 	add.w	r3, r4, r2, lsl #2
 800b7a4:	f2a0 4032 	subw	r0, r0, #1074	; 0x432
 800b7a8:	f8c9 0000 	str.w	r0, [r9]
 800b7ac:	6918      	ldr	r0, [r3, #16]
 800b7ae:	f7ff fcb9 	bl	800b124 <__hi0bits>
 800b7b2:	ebc0 1042 	rsb	r0, r0, r2, lsl #5
 800b7b6:	e7df      	b.n	800b778 <__d2b+0x70>
 800b7b8:	0800e40b 	.word	0x0800e40b
 800b7bc:	0800e49c 	.word	0x0800e49c

0800b7c0 <__ratio>:
 800b7c0:	e92d 4ff7 	stmdb	sp!, {r0, r1, r2, r4, r5, r6, r7, r8, r9, sl, fp, lr}
 800b7c4:	4688      	mov	r8, r1
 800b7c6:	4669      	mov	r1, sp
 800b7c8:	4681      	mov	r9, r0
 800b7ca:	f7ff ff4d 	bl	800b668 <__b2d>
 800b7ce:	a901      	add	r1, sp, #4
 800b7d0:	4640      	mov	r0, r8
 800b7d2:	ec55 4b10 	vmov	r4, r5, d0
 800b7d6:	f7ff ff47 	bl	800b668 <__b2d>
 800b7da:	f8d9 3010 	ldr.w	r3, [r9, #16]
 800b7de:	f8d8 2010 	ldr.w	r2, [r8, #16]
 800b7e2:	eba3 0c02 	sub.w	ip, r3, r2
 800b7e6:	e9dd 3200 	ldrd	r3, r2, [sp]
 800b7ea:	1a9b      	subs	r3, r3, r2
 800b7ec:	eb03 134c 	add.w	r3, r3, ip, lsl #5
 800b7f0:	ec51 0b10 	vmov	r0, r1, d0
 800b7f4:	2b00      	cmp	r3, #0
 800b7f6:	bfd6      	itet	le
 800b7f8:	460a      	movle	r2, r1
 800b7fa:	462a      	movgt	r2, r5
 800b7fc:	ebc3 3303 	rsble	r3, r3, r3, lsl #12
 800b800:	468b      	mov	fp, r1
 800b802:	462f      	mov	r7, r5
 800b804:	bfd4      	ite	le
 800b806:	eb02 5b03 	addle.w	fp, r2, r3, lsl #20
 800b80a:	eb02 5703 	addgt.w	r7, r2, r3, lsl #20
 800b80e:	4620      	mov	r0, r4
 800b810:	ee10 2a10 	vmov	r2, s0
 800b814:	465b      	mov	r3, fp
 800b816:	4639      	mov	r1, r7
 800b818:	f7f5 f828 	bl	800086c <__aeabi_ddiv>
 800b81c:	ec41 0b10 	vmov	d0, r0, r1
 800b820:	b003      	add	sp, #12
 800b822:	e8bd 8ff0 	ldmia.w	sp!, {r4, r5, r6, r7, r8, r9, sl, fp, pc}

0800b826 <__copybits>:
 800b826:	3901      	subs	r1, #1
 800b828:	b570      	push	{r4, r5, r6, lr}
 800b82a:	1149      	asrs	r1, r1, #5
 800b82c:	6914      	ldr	r4, [r2, #16]
 800b82e:	3101      	adds	r1, #1
 800b830:	f102 0314 	add.w	r3, r2, #20
 800b834:	eb00 0181 	add.w	r1, r0, r1, lsl #2
 800b838:	eb03 0484 	add.w	r4, r3, r4, lsl #2
 800b83c:	1f05      	subs	r5, r0, #4
 800b83e:	42a3      	cmp	r3, r4
 800b840:	d30c      	bcc.n	800b85c <__copybits+0x36>
 800b842:	1aa3      	subs	r3, r4, r2
 800b844:	3b11      	subs	r3, #17
 800b846:	f023 0303 	bic.w	r3, r3, #3
 800b84a:	3211      	adds	r2, #17
 800b84c:	42a2      	cmp	r2, r4
 800b84e:	bf88      	it	hi
 800b850:	2300      	movhi	r3, #0
 800b852:	4418      	add	r0, r3
 800b854:	2300      	movs	r3, #0
 800b856:	4288      	cmp	r0, r1
 800b858:	d305      	bcc.n	800b866 <__copybits+0x40>
 800b85a:	bd70      	pop	{r4, r5, r6, pc}
 800b85c:	f853 6b04 	ldr.w	r6, [r3], #4
 800b860:	f845 6f04 	str.w	r6, [r5, #4]!
 800b864:	e7eb      	b.n	800b83e <__copybits+0x18>
 800b866:	f840 3b04 	str.w	r3, [r0], #4
 800b86a:	e7f4      	b.n	800b856 <__copybits+0x30>

0800b86c <__any_on>:
 800b86c:	f100 0214 	add.w	r2, r0, #20
 800b870:	6900      	ldr	r0, [r0, #16]
 800b872:	114b      	asrs	r3, r1, #5
 800b874:	4298      	cmp	r0, r3
 800b876:	b510      	push	{r4, lr}
 800b878:	db11      	blt.n	800b89e <__any_on+0x32>
 800b87a:	dd0a      	ble.n	800b892 <__any_on+0x26>
 800b87c:	f011 011f 	ands.w	r1, r1, #31
 800b880:	d007      	beq.n	800b892 <__any_on+0x26>
 800b882:	f852 4023 	ldr.w	r4, [r2, r3, lsl #2]
 800b886:	fa24 f001 	lsr.w	r0, r4, r1
 800b88a:	fa00 f101 	lsl.w	r1, r0, r1
 800b88e:	428c      	cmp	r4, r1
 800b890:	d10b      	bne.n	800b8aa <__any_on+0x3e>
 800b892:	eb02 0383 	add.w	r3, r2, r3, lsl #2
 800b896:	4293      	cmp	r3, r2
 800b898:	d803      	bhi.n	800b8a2 <__any_on+0x36>
 800b89a:	2000      	movs	r0, #0
 800b89c:	bd10      	pop	{r4, pc}
 800b89e:	4603      	mov	r3, r0
 800b8a0:	e7f7      	b.n	800b892 <__any_on+0x26>
 800b8a2:	f853 1d04 	ldr.w	r1, [r3, #-4]!
 800b8a6:	2900      	cmp	r1, #0
 800b8a8:	d0f5      	beq.n	800b896 <__any_on+0x2a>
 800b8aa:	2001      	movs	r0, #1
 800b8ac:	e7f6      	b.n	800b89c <__any_on+0x30>

0800b8ae <_calloc_r>:
 800b8ae:	b513      	push	{r0, r1, r4, lr}
 800b8b0:	434a      	muls	r2, r1
 800b8b2:	4611      	mov	r1, r2
 800b8b4:	9201      	str	r2, [sp, #4]
 800b8b6:	f000 f859 	bl	800b96c <_malloc_r>
 800b8ba:	4604      	mov	r4, r0
 800b8bc:	b118      	cbz	r0, 800b8c6 <_calloc_r+0x18>
 800b8be:	9a01      	ldr	r2, [sp, #4]
 800b8c0:	2100      	movs	r1, #0
 800b8c2:	f7fc fb17 	bl	8007ef4 <memset>
 800b8c6:	4620      	mov	r0, r4
 800b8c8:	b002      	add	sp, #8
 800b8ca:	bd10      	pop	{r4, pc}

0800b8cc <_free_r>:
 800b8cc:	b537      	push	{r0, r1, r2, r4, r5, lr}
 800b8ce:	2900      	cmp	r1, #0
 800b8d0:	d048      	beq.n	800b964 <_free_r+0x98>
 800b8d2:	f851 3c04 	ldr.w	r3, [r1, #-4]
 800b8d6:	9001      	str	r0, [sp, #4]
 800b8d8:	2b00      	cmp	r3, #0
 800b8da:	f1a1 0404 	sub.w	r4, r1, #4
 800b8de:	bfb8      	it	lt
 800b8e0:	18e4      	addlt	r4, r4, r3
 800b8e2:	f001 f845 	bl	800c970 <__malloc_lock>
 800b8e6:	4a20      	ldr	r2, [pc, #128]	; (800b968 <_free_r+0x9c>)
 800b8e8:	9801      	ldr	r0, [sp, #4]
 800b8ea:	6813      	ldr	r3, [r2, #0]
 800b8ec:	4615      	mov	r5, r2
 800b8ee:	b933      	cbnz	r3, 800b8fe <_free_r+0x32>
 800b8f0:	6063      	str	r3, [r4, #4]
 800b8f2:	6014      	str	r4, [r2, #0]
 800b8f4:	b003      	add	sp, #12
 800b8f6:	e8bd 4030 	ldmia.w	sp!, {r4, r5, lr}
 800b8fa:	f001 b83f 	b.w	800c97c <__malloc_unlock>
 800b8fe:	42a3      	cmp	r3, r4
 800b900:	d90b      	bls.n	800b91a <_free_r+0x4e>
 800b902:	6821      	ldr	r1, [r4, #0]
 800b904:	1862      	adds	r2, r4, r1
 800b906:	4293      	cmp	r3, r2
 800b908:	bf04      	itt	eq
 800b90a:	681a      	ldreq	r2, [r3, #0]
 800b90c:	685b      	ldreq	r3, [r3, #4]
 800b90e:	6063      	str	r3, [r4, #4]
 800b910:	bf04      	itt	eq
 800b912:	1852      	addeq	r2, r2, r1
 800b914:	6022      	streq	r2, [r4, #0]
 800b916:	602c      	str	r4, [r5, #0]
 800b918:	e7ec      	b.n	800b8f4 <_free_r+0x28>
 800b91a:	461a      	mov	r2, r3
 800b91c:	685b      	ldr	r3, [r3, #4]
 800b91e:	b10b      	cbz	r3, 800b924 <_free_r+0x58>
 800b920:	42a3      	cmp	r3, r4
 800b922:	d9fa      	bls.n	800b91a <_free_r+0x4e>
 800b924:	6811      	ldr	r1, [r2, #0]
 800b926:	1855      	adds	r5, r2, r1
 800b928:	42a5      	cmp	r5, r4
 800b92a:	d10b      	bne.n	800b944 <_free_r+0x78>
 800b92c:	6824      	ldr	r4, [r4, #0]
 800b92e:	4421      	add	r1, r4
 800b930:	1854      	adds	r4, r2, r1
 800b932:	42a3      	cmp	r3, r4
 800b934:	6011      	str	r1, [r2, #0]
 800b936:	d1dd      	bne.n	800b8f4 <_free_r+0x28>
 800b938:	681c      	ldr	r4, [r3, #0]
 800b93a:	685b      	ldr	r3, [r3, #4]
 800b93c:	6053      	str	r3, [r2, #4]
 800b93e:	4421      	add	r1, r4
 800b940:	6011      	str	r1, [r2, #0]
 800b942:	e7d7      	b.n	800b8f4 <_free_r+0x28>
 800b944:	d902      	bls.n	800b94c <_free_r+0x80>
 800b946:	230c      	movs	r3, #12
 800b948:	6003      	str	r3, [r0, #0]
 800b94a:	e7d3      	b.n	800b8f4 <_free_r+0x28>
 800b94c:	6825      	ldr	r5, [r4, #0]
 800b94e:	1961      	adds	r1, r4, r5
 800b950:	428b      	cmp	r3, r1
 800b952:	bf04      	itt	eq
 800b954:	6819      	ldreq	r1, [r3, #0]
 800b956:	685b      	ldreq	r3, [r3, #4]
 800b958:	6063      	str	r3, [r4, #4]
 800b95a:	bf04      	itt	eq
 800b95c:	1949      	addeq	r1, r1, r5
 800b95e:	6021      	streq	r1, [r4, #0]
 800b960:	6054      	str	r4, [r2, #4]
 800b962:	e7c7      	b.n	800b8f4 <_free_r+0x28>
 800b964:	b003      	add	sp, #12
 800b966:	bd30      	pop	{r4, r5, pc}
 800b968:	200009f8 	.word	0x200009f8

0800b96c <_malloc_r>:
 800b96c:	b5f8      	push	{r3, r4, r5, r6, r7, lr}
 800b96e:	1ccd      	adds	r5, r1, #3
 800b970:	f025 0503 	bic.w	r5, r5, #3
 800b974:	3508      	adds	r5, #8
 800b976:	2d0c      	cmp	r5, #12
 800b978:	bf38      	it	cc
 800b97a:	250c      	movcc	r5, #12
 800b97c:	2d00      	cmp	r5, #0
 800b97e:	4606      	mov	r6, r0
 800b980:	db01      	blt.n	800b986 <_malloc_r+0x1a>
 800b982:	42a9      	cmp	r1, r5
 800b984:	d903      	bls.n	800b98e <_malloc_r+0x22>
 800b986:	230c      	movs	r3, #12
 800b988:	6033      	str	r3, [r6, #0]
 800b98a:	2000      	movs	r0, #0
 800b98c:	bdf8      	pop	{r3, r4, r5, r6, r7, pc}
 800b98e:	f000 ffef 	bl	800c970 <__malloc_lock>
 800b992:	4921      	ldr	r1, [pc, #132]	; (800ba18 <_malloc_r+0xac>)
 800b994:	680a      	ldr	r2, [r1, #0]
 800b996:	4614      	mov	r4, r2
 800b998:	b99c      	cbnz	r4, 800b9c2 <_malloc_r+0x56>
 800b99a:	4f20      	ldr	r7, [pc, #128]	; (800ba1c <_malloc_r+0xb0>)
 800b99c:	683b      	ldr	r3, [r7, #0]
 800b99e:	b923      	cbnz	r3, 800b9aa <_malloc_r+0x3e>
 800b9a0:	4621      	mov	r1, r4
 800b9a2:	4630      	mov	r0, r6
 800b9a4:	f000 fcd0 	bl	800c348 <_sbrk_r>
 800b9a8:	6038      	str	r0, [r7, #0]
 800b9aa:	4629      	mov	r1, r5
 800b9ac:	4630      	mov	r0, r6
 800b9ae:	f000 fccb 	bl	800c348 <_sbrk_r>
 800b9b2:	1c43      	adds	r3, r0, #1
 800b9b4:	d123      	bne.n	800b9fe <_malloc_r+0x92>
 800b9b6:	230c      	movs	r3, #12
 800b9b8:	6033      	str	r3, [r6, #0]
 800b9ba:	4630      	mov	r0, r6
 800b9bc:	f000 ffde 	bl	800c97c <__malloc_unlock>
 800b9c0:	e7e3      	b.n	800b98a <_malloc_r+0x1e>
 800b9c2:	6823      	ldr	r3, [r4, #0]
 800b9c4:	1b5b      	subs	r3, r3, r5
 800b9c6:	d417      	bmi.n	800b9f8 <_malloc_r+0x8c>
 800b9c8:	2b0b      	cmp	r3, #11
 800b9ca:	d903      	bls.n	800b9d4 <_malloc_r+0x68>
 800b9cc:	6023      	str	r3, [r4, #0]
 800b9ce:	441c      	add	r4, r3
 800b9d0:	6025      	str	r5, [r4, #0]
 800b9d2:	e004      	b.n	800b9de <_malloc_r+0x72>
 800b9d4:	6863      	ldr	r3, [r4, #4]
 800b9d6:	42a2      	cmp	r2, r4
 800b9d8:	bf0c      	ite	eq
 800b9da:	600b      	streq	r3, [r1, #0]
 800b9dc:	6053      	strne	r3, [r2, #4]
 800b9de:	4630      	mov	r0, r6
 800b9e0:	f000 ffcc 	bl	800c97c <__malloc_unlock>
 800b9e4:	f104 000b 	add.w	r0, r4, #11
 800b9e8:	1d23      	adds	r3, r4, #4
 800b9ea:	f020 0007 	bic.w	r0, r0, #7
 800b9ee:	1ac2      	subs	r2, r0, r3
 800b9f0:	d0cc      	beq.n	800b98c <_malloc_r+0x20>
 800b9f2:	1a1b      	subs	r3, r3, r0
 800b9f4:	50a3      	str	r3, [r4, r2]
 800b9f6:	e7c9      	b.n	800b98c <_malloc_r+0x20>
 800b9f8:	4622      	mov	r2, r4
 800b9fa:	6864      	ldr	r4, [r4, #4]
 800b9fc:	e7cc      	b.n	800b998 <_malloc_r+0x2c>
 800b9fe:	1cc4      	adds	r4, r0, #3
 800ba00:	f024 0403 	bic.w	r4, r4, #3
 800ba04:	42a0      	cmp	r0, r4
 800ba06:	d0e3      	beq.n	800b9d0 <_malloc_r+0x64>
 800ba08:	1a21      	subs	r1, r4, r0
 800ba0a:	4630      	mov	r0, r6
 800ba0c:	f000 fc9c 	bl	800c348 <_sbrk_r>
 800ba10:	3001      	adds	r0, #1
 800ba12:	d1dd      	bne.n	800b9d0 <_malloc_r+0x64>
 800ba14:	e7cf      	b.n	800b9b6 <_malloc_r+0x4a>
 800ba16:	bf00      	nop
 800ba18:	200009f8 	.word	0x200009f8
 800ba1c:	200009fc 	.word	0x200009fc

0800ba20 <__ssputs_r>:
 800ba20:	e92d 47f0 	stmdb	sp!, {r4, r5, r6, r7, r8, r9, sl, lr}
 800ba24:	688e      	ldr	r6, [r1, #8]
 800ba26:	429e      	cmp	r6, r3
 800ba28:	4682      	mov	sl, r0
 800ba2a:	460c      	mov	r4, r1
 800ba2c:	4690      	mov	r8, r2
 800ba2e:	461f      	mov	r7, r3
 800ba30:	d838      	bhi.n	800baa4 <__ssputs_r+0x84>
 800ba32:	898a      	ldrh	r2, [r1, #12]
 800ba34:	f412 6f90 	tst.w	r2, #1152	; 0x480
 800ba38:	d032      	beq.n	800baa0 <__ssputs_r+0x80>
 800ba3a:	6825      	ldr	r5, [r4, #0]
 800ba3c:	6909      	ldr	r1, [r1, #16]
 800ba3e:	eba5 0901 	sub.w	r9, r5, r1
 800ba42:	6965      	ldr	r5, [r4, #20]
 800ba44:	eb05 0545 	add.w	r5, r5, r5, lsl #1
 800ba48:	eb05 75d5 	add.w	r5, r5, r5, lsr #31
 800ba4c:	3301      	adds	r3, #1
 800ba4e:	444b      	add	r3, r9
 800ba50:	106d      	asrs	r5, r5, #1
 800ba52:	429d      	cmp	r5, r3
 800ba54:	bf38      	it	cc
 800ba56:	461d      	movcc	r5, r3
 800ba58:	0553      	lsls	r3, r2, #21
 800ba5a:	d531      	bpl.n	800bac0 <__ssputs_r+0xa0>
 800ba5c:	4629      	mov	r1, r5
 800ba5e:	f7ff ff85 	bl	800b96c <_malloc_r>
 800ba62:	4606      	mov	r6, r0
 800ba64:	b950      	cbnz	r0, 800ba7c <__ssputs_r+0x5c>
 800ba66:	230c      	movs	r3, #12
 800ba68:	f8ca 3000 	str.w	r3, [sl]
 800ba6c:	89a3      	ldrh	r3, [r4, #12]
 800ba6e:	f043 0340 	orr.w	r3, r3, #64	; 0x40
 800ba72:	81a3      	strh	r3, [r4, #12]
 800ba74:	f04f 30ff 	mov.w	r0, #4294967295
 800ba78:	e8bd 87f0 	ldmia.w	sp!, {r4, r5, r6, r7, r8, r9, sl, pc}
 800ba7c:	6921      	ldr	r1, [r4, #16]
 800ba7e:	464a      	mov	r2, r9
 800ba80:	f7fc fa2a 	bl	8007ed8 <memcpy>
 800ba84:	89a3      	ldrh	r3, [r4, #12]
 800ba86:	f423 6390 	bic.w	r3, r3, #1152	; 0x480
 800ba8a:	f043 0380 	orr.w	r3, r3, #128	; 0x80
 800ba8e:	81a3      	strh	r3, [r4, #12]
 800ba90:	6126      	str	r6, [r4, #16]
 800ba92:	6165      	str	r5, [r4, #20]
 800ba94:	444e      	add	r6, r9
 800ba96:	eba5 0509 	sub.w	r5, r5, r9
 800ba9a:	6026      	str	r6, [r4, #0]
 800ba9c:	60a5      	str	r5, [r4, #8]
 800ba9e:	463e      	mov	r6, r7
 800baa0:	42be      	cmp	r6, r7
 800baa2:	d900      	bls.n	800baa6 <__ssputs_r+0x86>
 800baa4:	463e      	mov	r6, r7
 800baa6:	4632      	mov	r2, r6
 800baa8:	6820      	ldr	r0, [r4, #0]
 800baaa:	4641      	mov	r1, r8
 800baac:	f000 ff46 	bl	800c93c <memmove>
 800bab0:	68a3      	ldr	r3, [r4, #8]
 800bab2:	6822      	ldr	r2, [r4, #0]
 800bab4:	1b9b      	subs	r3, r3, r6
 800bab6:	4432      	add	r2, r6
 800bab8:	60a3      	str	r3, [r4, #8]
 800baba:	6022      	str	r2, [r4, #0]
 800babc:	2000      	movs	r0, #0
 800babe:	e7db      	b.n	800ba78 <__ssputs_r+0x58>
 800bac0:	462a      	mov	r2, r5
 800bac2:	f000 ff61 	bl	800c988 <_realloc_r>
 800bac6:	4606      	mov	r6, r0
 800bac8:	2800      	cmp	r0, #0
 800baca:	d1e1      	bne.n	800ba90 <__ssputs_r+0x70>
 800bacc:	6921      	ldr	r1, [r4, #16]
 800bace:	4650      	mov	r0, sl
 800bad0:	f7ff fefc 	bl	800b8cc <_free_r>
 800bad4:	e7c7      	b.n	800ba66 <__ssputs_r+0x46>
	...

0800bad8 <_svfiprintf_r>:
 800bad8:	e92d 4ff0 	stmdb	sp!, {r4, r5, r6, r7, r8, r9, sl, fp, lr}
 800badc:	4698      	mov	r8, r3
 800bade:	898b      	ldrh	r3, [r1, #12]
 800bae0:	061b      	lsls	r3, r3, #24
 800bae2:	b09d      	sub	sp, #116	; 0x74
 800bae4:	4607      	mov	r7, r0
 800bae6:	460d      	mov	r5, r1
 800bae8:	4614      	mov	r4, r2
 800baea:	d50e      	bpl.n	800bb0a <_svfiprintf_r+0x32>
 800baec:	690b      	ldr	r3, [r1, #16]
 800baee:	b963      	cbnz	r3, 800bb0a <_svfiprintf_r+0x32>
 800baf0:	2140      	movs	r1, #64	; 0x40
 800baf2:	f7ff ff3b 	bl	800b96c <_malloc_r>
 800baf6:	6028      	str	r0, [r5, #0]
 800baf8:	6128      	str	r0, [r5, #16]
 800bafa:	b920      	cbnz	r0, 800bb06 <_svfiprintf_r+0x2e>
 800bafc:	230c      	movs	r3, #12
 800bafe:	603b      	str	r3, [r7, #0]
 800bb00:	f04f 30ff 	mov.w	r0, #4294967295
 800bb04:	e0d1      	b.n	800bcaa <_svfiprintf_r+0x1d2>
 800bb06:	2340      	movs	r3, #64	; 0x40
 800bb08:	616b      	str	r3, [r5, #20]
 800bb0a:	2300      	movs	r3, #0
 800bb0c:	9309      	str	r3, [sp, #36]	; 0x24
 800bb0e:	2320      	movs	r3, #32
 800bb10:	f88d 3029 	strb.w	r3, [sp, #41]	; 0x29
 800bb14:	f8cd 800c 	str.w	r8, [sp, #12]
 800bb18:	2330      	movs	r3, #48	; 0x30
 800bb1a:	f8df 81a8 	ldr.w	r8, [pc, #424]	; 800bcc4 <_svfiprintf_r+0x1ec>
 800bb1e:	f88d 302a 	strb.w	r3, [sp, #42]	; 0x2a
 800bb22:	f04f 0901 	mov.w	r9, #1
 800bb26:	4623      	mov	r3, r4
 800bb28:	469a      	mov	sl, r3
 800bb2a:	f813 2b01 	ldrb.w	r2, [r3], #1
 800bb2e:	b10a      	cbz	r2, 800bb34 <_svfiprintf_r+0x5c>
 800bb30:	2a25      	cmp	r2, #37	; 0x25
 800bb32:	d1f9      	bne.n	800bb28 <_svfiprintf_r+0x50>
 800bb34:	ebba 0b04 	subs.w	fp, sl, r4
 800bb38:	d00b      	beq.n	800bb52 <_svfiprintf_r+0x7a>
 800bb3a:	465b      	mov	r3, fp
 800bb3c:	4622      	mov	r2, r4
 800bb3e:	4629      	mov	r1, r5
 800bb40:	4638      	mov	r0, r7
 800bb42:	f7ff ff6d 	bl	800ba20 <__ssputs_r>
 800bb46:	3001      	adds	r0, #1
 800bb48:	f000 80aa 	beq.w	800bca0 <_svfiprintf_r+0x1c8>
 800bb4c:	9a09      	ldr	r2, [sp, #36]	; 0x24
 800bb4e:	445a      	add	r2, fp
 800bb50:	9209      	str	r2, [sp, #36]	; 0x24
 800bb52:	f89a 3000 	ldrb.w	r3, [sl]
 800bb56:	2b00      	cmp	r3, #0
 800bb58:	f000 80a2 	beq.w	800bca0 <_svfiprintf_r+0x1c8>
 800bb5c:	2300      	movs	r3, #0
 800bb5e:	f04f 32ff 	mov.w	r2, #4294967295
 800bb62:	e9cd 2305 	strd	r2, r3, [sp, #20]
 800bb66:	f10a 0a01 	add.w	sl, sl, #1
 800bb6a:	9304      	str	r3, [sp, #16]
 800bb6c:	9307      	str	r3, [sp, #28]
 800bb6e:	f88d 3053 	strb.w	r3, [sp, #83]	; 0x53
 800bb72:	931a      	str	r3, [sp, #104]	; 0x68
 800bb74:	4654      	mov	r4, sl
 800bb76:	2205      	movs	r2, #5
 800bb78:	f814 1b01 	ldrb.w	r1, [r4], #1
 800bb7c:	4851      	ldr	r0, [pc, #324]	; (800bcc4 <_svfiprintf_r+0x1ec>)
 800bb7e:	f7f4 fb3f 	bl	8000200 <memchr>
 800bb82:	9a04      	ldr	r2, [sp, #16]
 800bb84:	b9d8      	cbnz	r0, 800bbbe <_svfiprintf_r+0xe6>
 800bb86:	06d0      	lsls	r0, r2, #27
 800bb88:	bf44      	itt	mi
 800bb8a:	2320      	movmi	r3, #32
 800bb8c:	f88d 3053 	strbmi.w	r3, [sp, #83]	; 0x53
 800bb90:	0711      	lsls	r1, r2, #28
 800bb92:	bf44      	itt	mi
 800bb94:	232b      	movmi	r3, #43	; 0x2b
 800bb96:	f88d 3053 	strbmi.w	r3, [sp, #83]	; 0x53
 800bb9a:	f89a 3000 	ldrb.w	r3, [sl]
 800bb9e:	2b2a      	cmp	r3, #42	; 0x2a
 800bba0:	d015      	beq.n	800bbce <_svfiprintf_r+0xf6>
 800bba2:	9a07      	ldr	r2, [sp, #28]
 800bba4:	4654      	mov	r4, sl
 800bba6:	2000      	movs	r0, #0
 800bba8:	f04f 0c0a 	mov.w	ip, #10
 800bbac:	4621      	mov	r1, r4
 800bbae:	f811 3b01 	ldrb.w	r3, [r1], #1
 800bbb2:	3b30      	subs	r3, #48	; 0x30
 800bbb4:	2b09      	cmp	r3, #9
 800bbb6:	d94e      	bls.n	800bc56 <_svfiprintf_r+0x17e>
 800bbb8:	b1b0      	cbz	r0, 800bbe8 <_svfiprintf_r+0x110>
 800bbba:	9207      	str	r2, [sp, #28]
 800bbbc:	e014      	b.n	800bbe8 <_svfiprintf_r+0x110>
 800bbbe:	eba0 0308 	sub.w	r3, r0, r8
 800bbc2:	fa09 f303 	lsl.w	r3, r9, r3
 800bbc6:	4313      	orrs	r3, r2
 800bbc8:	9304      	str	r3, [sp, #16]
 800bbca:	46a2      	mov	sl, r4
 800bbcc:	e7d2      	b.n	800bb74 <_svfiprintf_r+0x9c>
 800bbce:	9b03      	ldr	r3, [sp, #12]
 800bbd0:	1d19      	adds	r1, r3, #4
 800bbd2:	681b      	ldr	r3, [r3, #0]
 800bbd4:	9103      	str	r1, [sp, #12]
 800bbd6:	2b00      	cmp	r3, #0
 800bbd8:	bfbb      	ittet	lt
 800bbda:	425b      	neglt	r3, r3
 800bbdc:	f042 0202 	orrlt.w	r2, r2, #2
 800bbe0:	9307      	strge	r3, [sp, #28]
 800bbe2:	9307      	strlt	r3, [sp, #28]
 800bbe4:	bfb8      	it	lt
 800bbe6:	9204      	strlt	r2, [sp, #16]
 800bbe8:	7823      	ldrb	r3, [r4, #0]
 800bbea:	2b2e      	cmp	r3, #46	; 0x2e
 800bbec:	d10c      	bne.n	800bc08 <_svfiprintf_r+0x130>
 800bbee:	7863      	ldrb	r3, [r4, #1]
 800bbf0:	2b2a      	cmp	r3, #42	; 0x2a
 800bbf2:	d135      	bne.n	800bc60 <_svfiprintf_r+0x188>
 800bbf4:	9b03      	ldr	r3, [sp, #12]
 800bbf6:	1d1a      	adds	r2, r3, #4
 800bbf8:	681b      	ldr	r3, [r3, #0]
 800bbfa:	9203      	str	r2, [sp, #12]
 800bbfc:	2b00      	cmp	r3, #0
 800bbfe:	bfb8      	it	lt
 800bc00:	f04f 33ff 	movlt.w	r3, #4294967295
 800bc04:	3402      	adds	r4, #2
 800bc06:	9305      	str	r3, [sp, #20]
 800bc08:	f8df a0c8 	ldr.w	sl, [pc, #200]	; 800bcd4 <_svfiprintf_r+0x1fc>
 800bc0c:	7821      	ldrb	r1, [r4, #0]
 800bc0e:	2203      	movs	r2, #3
 800bc10:	4650      	mov	r0, sl
 800bc12:	f7f4 faf5 	bl	8000200 <memchr>
 800bc16:	b140      	cbz	r0, 800bc2a <_svfiprintf_r+0x152>
 800bc18:	2340      	movs	r3, #64	; 0x40
 800bc1a:	eba0 000a 	sub.w	r0, r0, sl
 800bc1e:	fa03 f000 	lsl.w	r0, r3, r0
 800bc22:	9b04      	ldr	r3, [sp, #16]
 800bc24:	4303      	orrs	r3, r0
 800bc26:	3401      	adds	r4, #1
 800bc28:	9304      	str	r3, [sp, #16]
 800bc2a:	f814 1b01 	ldrb.w	r1, [r4], #1
 800bc2e:	4826      	ldr	r0, [pc, #152]	; (800bcc8 <_svfiprintf_r+0x1f0>)
 800bc30:	f88d 1028 	strb.w	r1, [sp, #40]	; 0x28
 800bc34:	2206      	movs	r2, #6
 800bc36:	f7f4 fae3 	bl	8000200 <memchr>
 800bc3a:	2800      	cmp	r0, #0
 800bc3c:	d038      	beq.n	800bcb0 <_svfiprintf_r+0x1d8>
 800bc3e:	4b23      	ldr	r3, [pc, #140]	; (800bccc <_svfiprintf_r+0x1f4>)
 800bc40:	bb1b      	cbnz	r3, 800bc8a <_svfiprintf_r+0x1b2>
 800bc42:	9b03      	ldr	r3, [sp, #12]
 800bc44:	3307      	adds	r3, #7
 800bc46:	f023 0307 	bic.w	r3, r3, #7
 800bc4a:	3308      	adds	r3, #8
 800bc4c:	9303      	str	r3, [sp, #12]
 800bc4e:	9b09      	ldr	r3, [sp, #36]	; 0x24
 800bc50:	4433      	add	r3, r6
 800bc52:	9309      	str	r3, [sp, #36]	; 0x24
 800bc54:	e767      	b.n	800bb26 <_svfiprintf_r+0x4e>
 800bc56:	fb0c 3202 	mla	r2, ip, r2, r3
 800bc5a:	460c      	mov	r4, r1
 800bc5c:	2001      	movs	r0, #1
 800bc5e:	e7a5      	b.n	800bbac <_svfiprintf_r+0xd4>
 800bc60:	2300      	movs	r3, #0
 800bc62:	3401      	adds	r4, #1
 800bc64:	9305      	str	r3, [sp, #20]
 800bc66:	4619      	mov	r1, r3
 800bc68:	f04f 0c0a 	mov.w	ip, #10
 800bc6c:	4620      	mov	r0, r4
 800bc6e:	f810 2b01 	ldrb.w	r2, [r0], #1
 800bc72:	3a30      	subs	r2, #48	; 0x30
 800bc74:	2a09      	cmp	r2, #9
 800bc76:	d903      	bls.n	800bc80 <_svfiprintf_r+0x1a8>
 800bc78:	2b00      	cmp	r3, #0
 800bc7a:	d0c5      	beq.n	800bc08 <_svfiprintf_r+0x130>
 800bc7c:	9105      	str	r1, [sp, #20]
 800bc7e:	e7c3      	b.n	800bc08 <_svfiprintf_r+0x130>
 800bc80:	fb0c 2101 	mla	r1, ip, r1, r2
 800bc84:	4604      	mov	r4, r0
 800bc86:	2301      	movs	r3, #1
 800bc88:	e7f0      	b.n	800bc6c <_svfiprintf_r+0x194>
 800bc8a:	ab03      	add	r3, sp, #12
 800bc8c:	9300      	str	r3, [sp, #0]
 800bc8e:	462a      	mov	r2, r5
 800bc90:	4b0f      	ldr	r3, [pc, #60]	; (800bcd0 <_svfiprintf_r+0x1f8>)
 800bc92:	a904      	add	r1, sp, #16
 800bc94:	4638      	mov	r0, r7
 800bc96:	f7fc f9d5 	bl	8008044 <_printf_float>
 800bc9a:	1c42      	adds	r2, r0, #1
 800bc9c:	4606      	mov	r6, r0
 800bc9e:	d1d6      	bne.n	800bc4e <_svfiprintf_r+0x176>
 800bca0:	89ab      	ldrh	r3, [r5, #12]
 800bca2:	065b      	lsls	r3, r3, #25
 800bca4:	f53f af2c 	bmi.w	800bb00 <_svfiprintf_r+0x28>
 800bca8:	9809      	ldr	r0, [sp, #36]	; 0x24
 800bcaa:	b01d      	add	sp, #116	; 0x74
 800bcac:	e8bd 8ff0 	ldmia.w	sp!, {r4, r5, r6, r7, r8, r9, sl, fp, pc}
 800bcb0:	ab03      	add	r3, sp, #12
 800bcb2:	9300      	str	r3, [sp, #0]
 800bcb4:	462a      	mov	r2, r5
 800bcb6:	4b06      	ldr	r3, [pc, #24]	; (800bcd0 <_svfiprintf_r+0x1f8>)
 800bcb8:	a904      	add	r1, sp, #16
 800bcba:	4638      	mov	r0, r7
 800bcbc:	f7fc fc66 	bl	800858c <_printf_i>
 800bcc0:	e7eb      	b.n	800bc9a <_svfiprintf_r+0x1c2>
 800bcc2:	bf00      	nop
 800bcc4:	0800e5fc 	.word	0x0800e5fc
 800bcc8:	0800e606 	.word	0x0800e606
 800bccc:	08008045 	.word	0x08008045
 800bcd0:	0800ba21 	.word	0x0800ba21
 800bcd4:	0800e602 	.word	0x0800e602

0800bcd8 <_sungetc_r>:
 800bcd8:	b538      	push	{r3, r4, r5, lr}
 800bcda:	1c4b      	adds	r3, r1, #1
 800bcdc:	4614      	mov	r4, r2
 800bcde:	d103      	bne.n	800bce8 <_sungetc_r+0x10>
 800bce0:	f04f 35ff 	mov.w	r5, #4294967295
 800bce4:	4628      	mov	r0, r5
 800bce6:	bd38      	pop	{r3, r4, r5, pc}
 800bce8:	8993      	ldrh	r3, [r2, #12]
 800bcea:	f023 0320 	bic.w	r3, r3, #32
 800bcee:	8193      	strh	r3, [r2, #12]
 800bcf0:	6b63      	ldr	r3, [r4, #52]	; 0x34
 800bcf2:	6852      	ldr	r2, [r2, #4]
 800bcf4:	b2cd      	uxtb	r5, r1
 800bcf6:	b18b      	cbz	r3, 800bd1c <_sungetc_r+0x44>
 800bcf8:	6ba3      	ldr	r3, [r4, #56]	; 0x38
 800bcfa:	4293      	cmp	r3, r2
 800bcfc:	dd08      	ble.n	800bd10 <_sungetc_r+0x38>
 800bcfe:	6823      	ldr	r3, [r4, #0]
 800bd00:	1e5a      	subs	r2, r3, #1
 800bd02:	6022      	str	r2, [r4, #0]
 800bd04:	f803 5c01 	strb.w	r5, [r3, #-1]
 800bd08:	6863      	ldr	r3, [r4, #4]
 800bd0a:	3301      	adds	r3, #1
 800bd0c:	6063      	str	r3, [r4, #4]
 800bd0e:	e7e9      	b.n	800bce4 <_sungetc_r+0xc>
 800bd10:	4621      	mov	r1, r4
 800bd12:	f000 fbe1 	bl	800c4d8 <__submore>
 800bd16:	2800      	cmp	r0, #0
 800bd18:	d0f1      	beq.n	800bcfe <_sungetc_r+0x26>
 800bd1a:	e7e1      	b.n	800bce0 <_sungetc_r+0x8>
 800bd1c:	6921      	ldr	r1, [r4, #16]
 800bd1e:	6823      	ldr	r3, [r4, #0]
 800bd20:	b151      	cbz	r1, 800bd38 <_sungetc_r+0x60>
 800bd22:	4299      	cmp	r1, r3
 800bd24:	d208      	bcs.n	800bd38 <_sungetc_r+0x60>
 800bd26:	f813 1c01 	ldrb.w	r1, [r3, #-1]
 800bd2a:	42a9      	cmp	r1, r5
 800bd2c:	d104      	bne.n	800bd38 <_sungetc_r+0x60>
 800bd2e:	3b01      	subs	r3, #1
 800bd30:	3201      	adds	r2, #1
 800bd32:	6023      	str	r3, [r4, #0]
 800bd34:	6062      	str	r2, [r4, #4]
 800bd36:	e7d5      	b.n	800bce4 <_sungetc_r+0xc>
 800bd38:	e9c4 320f 	strd	r3, r2, [r4, #60]	; 0x3c
 800bd3c:	f104 0344 	add.w	r3, r4, #68	; 0x44
 800bd40:	6363      	str	r3, [r4, #52]	; 0x34
 800bd42:	2303      	movs	r3, #3
 800bd44:	63a3      	str	r3, [r4, #56]	; 0x38
 800bd46:	4623      	mov	r3, r4
 800bd48:	f803 5f46 	strb.w	r5, [r3, #70]!
 800bd4c:	6023      	str	r3, [r4, #0]
 800bd4e:	2301      	movs	r3, #1
 800bd50:	e7dc      	b.n	800bd0c <_sungetc_r+0x34>

0800bd52 <__ssrefill_r>:
 800bd52:	b510      	push	{r4, lr}
 800bd54:	460c      	mov	r4, r1
 800bd56:	6b49      	ldr	r1, [r1, #52]	; 0x34
 800bd58:	b169      	cbz	r1, 800bd76 <__ssrefill_r+0x24>
 800bd5a:	f104 0344 	add.w	r3, r4, #68	; 0x44
 800bd5e:	4299      	cmp	r1, r3
 800bd60:	d001      	beq.n	800bd66 <__ssrefill_r+0x14>
 800bd62:	f7ff fdb3 	bl	800b8cc <_free_r>
 800bd66:	6c23      	ldr	r3, [r4, #64]	; 0x40
 800bd68:	6063      	str	r3, [r4, #4]
 800bd6a:	2000      	movs	r0, #0
 800bd6c:	6360      	str	r0, [r4, #52]	; 0x34
 800bd6e:	b113      	cbz	r3, 800bd76 <__ssrefill_r+0x24>
 800bd70:	6be3      	ldr	r3, [r4, #60]	; 0x3c
 800bd72:	6023      	str	r3, [r4, #0]
 800bd74:	bd10      	pop	{r4, pc}
 800bd76:	6923      	ldr	r3, [r4, #16]
 800bd78:	6023      	str	r3, [r4, #0]
 800bd7a:	2300      	movs	r3, #0
 800bd7c:	6063      	str	r3, [r4, #4]
 800bd7e:	89a3      	ldrh	r3, [r4, #12]
 800bd80:	f043 0320 	orr.w	r3, r3, #32
 800bd84:	81a3      	strh	r3, [r4, #12]
 800bd86:	f04f 30ff 	mov.w	r0, #4294967295
 800bd8a:	e7f3      	b.n	800bd74 <__ssrefill_r+0x22>

0800bd8c <__ssvfiscanf_r>:
 800bd8c:	e92d 4ff0 	stmdb	sp!, {r4, r5, r6, r7, r8, r9, sl, fp, lr}
 800bd90:	460c      	mov	r4, r1
 800bd92:	f5ad 7d23 	sub.w	sp, sp, #652	; 0x28c
 800bd96:	2100      	movs	r1, #0
 800bd98:	e9cd 1144 	strd	r1, r1, [sp, #272]	; 0x110
 800bd9c:	49b2      	ldr	r1, [pc, #712]	; (800c068 <__ssvfiscanf_r+0x2dc>)
 800bd9e:	91a0      	str	r1, [sp, #640]	; 0x280
 800bda0:	f10d 0804 	add.w	r8, sp, #4
 800bda4:	49b1      	ldr	r1, [pc, #708]	; (800c06c <__ssvfiscanf_r+0x2e0>)
 800bda6:	4fb2      	ldr	r7, [pc, #712]	; (800c070 <__ssvfiscanf_r+0x2e4>)
 800bda8:	f8df 92c8 	ldr.w	r9, [pc, #712]	; 800c074 <__ssvfiscanf_r+0x2e8>
 800bdac:	f8cd 8118 	str.w	r8, [sp, #280]	; 0x118
 800bdb0:	4606      	mov	r6, r0
 800bdb2:	91a1      	str	r1, [sp, #644]	; 0x284
 800bdb4:	9300      	str	r3, [sp, #0]
 800bdb6:	f892 a000 	ldrb.w	sl, [r2]
 800bdba:	f1ba 0f00 	cmp.w	sl, #0
 800bdbe:	f000 8151 	beq.w	800c064 <__ssvfiscanf_r+0x2d8>
 800bdc2:	f81a 3007 	ldrb.w	r3, [sl, r7]
 800bdc6:	f013 0308 	ands.w	r3, r3, #8
 800bdca:	f102 0501 	add.w	r5, r2, #1
 800bdce:	d019      	beq.n	800be04 <__ssvfiscanf_r+0x78>
 800bdd0:	6863      	ldr	r3, [r4, #4]
 800bdd2:	2b00      	cmp	r3, #0
 800bdd4:	dd0f      	ble.n	800bdf6 <__ssvfiscanf_r+0x6a>
 800bdd6:	6823      	ldr	r3, [r4, #0]
 800bdd8:	781a      	ldrb	r2, [r3, #0]
 800bdda:	5cba      	ldrb	r2, [r7, r2]
 800bddc:	0712      	lsls	r2, r2, #28
 800bdde:	d401      	bmi.n	800bde4 <__ssvfiscanf_r+0x58>
 800bde0:	462a      	mov	r2, r5
 800bde2:	e7e8      	b.n	800bdb6 <__ssvfiscanf_r+0x2a>
 800bde4:	9a45      	ldr	r2, [sp, #276]	; 0x114
 800bde6:	3201      	adds	r2, #1
 800bde8:	9245      	str	r2, [sp, #276]	; 0x114
 800bdea:	6862      	ldr	r2, [r4, #4]
 800bdec:	3301      	adds	r3, #1
 800bdee:	3a01      	subs	r2, #1
 800bdf0:	6062      	str	r2, [r4, #4]
 800bdf2:	6023      	str	r3, [r4, #0]
 800bdf4:	e7ec      	b.n	800bdd0 <__ssvfiscanf_r+0x44>
 800bdf6:	9ba1      	ldr	r3, [sp, #644]	; 0x284
 800bdf8:	4621      	mov	r1, r4
 800bdfa:	4630      	mov	r0, r6
 800bdfc:	4798      	blx	r3
 800bdfe:	2800      	cmp	r0, #0
 800be00:	d0e9      	beq.n	800bdd6 <__ssvfiscanf_r+0x4a>
 800be02:	e7ed      	b.n	800bde0 <__ssvfiscanf_r+0x54>
 800be04:	f1ba 0f25 	cmp.w	sl, #37	; 0x25
 800be08:	f040 8083 	bne.w	800bf12 <__ssvfiscanf_r+0x186>
 800be0c:	9341      	str	r3, [sp, #260]	; 0x104
 800be0e:	9343      	str	r3, [sp, #268]	; 0x10c
 800be10:	7853      	ldrb	r3, [r2, #1]
 800be12:	2b2a      	cmp	r3, #42	; 0x2a
 800be14:	bf02      	ittt	eq
 800be16:	2310      	moveq	r3, #16
 800be18:	1c95      	addeq	r5, r2, #2
 800be1a:	9341      	streq	r3, [sp, #260]	; 0x104
 800be1c:	220a      	movs	r2, #10
 800be1e:	46ab      	mov	fp, r5
 800be20:	f81b 1b01 	ldrb.w	r1, [fp], #1
 800be24:	f1a1 0330 	sub.w	r3, r1, #48	; 0x30
 800be28:	2b09      	cmp	r3, #9
 800be2a:	d91d      	bls.n	800be68 <__ssvfiscanf_r+0xdc>
 800be2c:	4891      	ldr	r0, [pc, #580]	; (800c074 <__ssvfiscanf_r+0x2e8>)
 800be2e:	2203      	movs	r2, #3
 800be30:	f7f4 f9e6 	bl	8000200 <memchr>
 800be34:	b140      	cbz	r0, 800be48 <__ssvfiscanf_r+0xbc>
 800be36:	2301      	movs	r3, #1
 800be38:	eba0 0009 	sub.w	r0, r0, r9
 800be3c:	fa03 f000 	lsl.w	r0, r3, r0
 800be40:	9b41      	ldr	r3, [sp, #260]	; 0x104
 800be42:	4318      	orrs	r0, r3
 800be44:	9041      	str	r0, [sp, #260]	; 0x104
 800be46:	465d      	mov	r5, fp
 800be48:	f815 3b01 	ldrb.w	r3, [r5], #1
 800be4c:	2b78      	cmp	r3, #120	; 0x78
 800be4e:	d806      	bhi.n	800be5e <__ssvfiscanf_r+0xd2>
 800be50:	2b57      	cmp	r3, #87	; 0x57
 800be52:	d810      	bhi.n	800be76 <__ssvfiscanf_r+0xea>
 800be54:	2b25      	cmp	r3, #37	; 0x25
 800be56:	d05c      	beq.n	800bf12 <__ssvfiscanf_r+0x186>
 800be58:	d856      	bhi.n	800bf08 <__ssvfiscanf_r+0x17c>
 800be5a:	2b00      	cmp	r3, #0
 800be5c:	d074      	beq.n	800bf48 <__ssvfiscanf_r+0x1bc>
 800be5e:	2303      	movs	r3, #3
 800be60:	9347      	str	r3, [sp, #284]	; 0x11c
 800be62:	230a      	movs	r3, #10
 800be64:	9342      	str	r3, [sp, #264]	; 0x108
 800be66:	e081      	b.n	800bf6c <__ssvfiscanf_r+0x1e0>
 800be68:	9b43      	ldr	r3, [sp, #268]	; 0x10c
 800be6a:	fb02 1303 	mla	r3, r2, r3, r1
 800be6e:	3b30      	subs	r3, #48	; 0x30
 800be70:	9343      	str	r3, [sp, #268]	; 0x10c
 800be72:	465d      	mov	r5, fp
 800be74:	e7d3      	b.n	800be1e <__ssvfiscanf_r+0x92>
 800be76:	f1a3 0258 	sub.w	r2, r3, #88	; 0x58
 800be7a:	2a20      	cmp	r2, #32
 800be7c:	d8ef      	bhi.n	800be5e <__ssvfiscanf_r+0xd2>
 800be7e:	a101      	add	r1, pc, #4	; (adr r1, 800be84 <__ssvfiscanf_r+0xf8>)
 800be80:	f851 f022 	ldr.w	pc, [r1, r2, lsl #2]
 800be84:	0800bf57 	.word	0x0800bf57
 800be88:	0800be5f 	.word	0x0800be5f
 800be8c:	0800be5f 	.word	0x0800be5f
 800be90:	0800bfb5 	.word	0x0800bfb5
 800be94:	0800be5f 	.word	0x0800be5f
 800be98:	0800be5f 	.word	0x0800be5f
 800be9c:	0800be5f 	.word	0x0800be5f
 800bea0:	0800be5f 	.word	0x0800be5f
 800bea4:	0800be5f 	.word	0x0800be5f
 800bea8:	0800be5f 	.word	0x0800be5f
 800beac:	0800be5f 	.word	0x0800be5f
 800beb0:	0800bfcb 	.word	0x0800bfcb
 800beb4:	0800bfa1 	.word	0x0800bfa1
 800beb8:	0800bf0f 	.word	0x0800bf0f
 800bebc:	0800bf0f 	.word	0x0800bf0f
 800bec0:	0800bf0f 	.word	0x0800bf0f
 800bec4:	0800be5f 	.word	0x0800be5f
 800bec8:	0800bfa5 	.word	0x0800bfa5
 800becc:	0800be5f 	.word	0x0800be5f
 800bed0:	0800be5f 	.word	0x0800be5f
 800bed4:	0800be5f 	.word	0x0800be5f
 800bed8:	0800be5f 	.word	0x0800be5f
 800bedc:	0800bfdb 	.word	0x0800bfdb
 800bee0:	0800bfad 	.word	0x0800bfad
 800bee4:	0800bf4f 	.word	0x0800bf4f
 800bee8:	0800be5f 	.word	0x0800be5f
 800beec:	0800be5f 	.word	0x0800be5f
 800bef0:	0800bfd7 	.word	0x0800bfd7
 800bef4:	0800be5f 	.word	0x0800be5f
 800bef8:	0800bfa1 	.word	0x0800bfa1
 800befc:	0800be5f 	.word	0x0800be5f
 800bf00:	0800be5f 	.word	0x0800be5f
 800bf04:	0800bf57 	.word	0x0800bf57
 800bf08:	3b45      	subs	r3, #69	; 0x45
 800bf0a:	2b02      	cmp	r3, #2
 800bf0c:	d8a7      	bhi.n	800be5e <__ssvfiscanf_r+0xd2>
 800bf0e:	2305      	movs	r3, #5
 800bf10:	e02b      	b.n	800bf6a <__ssvfiscanf_r+0x1de>
 800bf12:	6863      	ldr	r3, [r4, #4]
 800bf14:	2b00      	cmp	r3, #0
 800bf16:	dd0d      	ble.n	800bf34 <__ssvfiscanf_r+0x1a8>
 800bf18:	6823      	ldr	r3, [r4, #0]
 800bf1a:	781a      	ldrb	r2, [r3, #0]
 800bf1c:	4552      	cmp	r2, sl
 800bf1e:	f040 80a1 	bne.w	800c064 <__ssvfiscanf_r+0x2d8>
 800bf22:	3301      	adds	r3, #1
 800bf24:	6862      	ldr	r2, [r4, #4]
 800bf26:	6023      	str	r3, [r4, #0]
 800bf28:	9b45      	ldr	r3, [sp, #276]	; 0x114
 800bf2a:	3a01      	subs	r2, #1
 800bf2c:	3301      	adds	r3, #1
 800bf2e:	6062      	str	r2, [r4, #4]
 800bf30:	9345      	str	r3, [sp, #276]	; 0x114
 800bf32:	e755      	b.n	800bde0 <__ssvfiscanf_r+0x54>
 800bf34:	9ba1      	ldr	r3, [sp, #644]	; 0x284
 800bf36:	4621      	mov	r1, r4
 800bf38:	4630      	mov	r0, r6
 800bf3a:	4798      	blx	r3
 800bf3c:	2800      	cmp	r0, #0
 800bf3e:	d0eb      	beq.n	800bf18 <__ssvfiscanf_r+0x18c>
 800bf40:	9844      	ldr	r0, [sp, #272]	; 0x110
 800bf42:	2800      	cmp	r0, #0
 800bf44:	f040 8084 	bne.w	800c050 <__ssvfiscanf_r+0x2c4>
 800bf48:	f04f 30ff 	mov.w	r0, #4294967295
 800bf4c:	e086      	b.n	800c05c <__ssvfiscanf_r+0x2d0>
 800bf4e:	9a41      	ldr	r2, [sp, #260]	; 0x104
 800bf50:	f042 0220 	orr.w	r2, r2, #32
 800bf54:	9241      	str	r2, [sp, #260]	; 0x104
 800bf56:	9a41      	ldr	r2, [sp, #260]	; 0x104
 800bf58:	f442 7200 	orr.w	r2, r2, #512	; 0x200
 800bf5c:	9241      	str	r2, [sp, #260]	; 0x104
 800bf5e:	2210      	movs	r2, #16
 800bf60:	2b6f      	cmp	r3, #111	; 0x6f
 800bf62:	9242      	str	r2, [sp, #264]	; 0x108
 800bf64:	bf34      	ite	cc
 800bf66:	2303      	movcc	r3, #3
 800bf68:	2304      	movcs	r3, #4
 800bf6a:	9347      	str	r3, [sp, #284]	; 0x11c
 800bf6c:	6863      	ldr	r3, [r4, #4]
 800bf6e:	2b00      	cmp	r3, #0
 800bf70:	dd41      	ble.n	800bff6 <__ssvfiscanf_r+0x26a>
 800bf72:	9b41      	ldr	r3, [sp, #260]	; 0x104
 800bf74:	0659      	lsls	r1, r3, #25
 800bf76:	d404      	bmi.n	800bf82 <__ssvfiscanf_r+0x1f6>
 800bf78:	6823      	ldr	r3, [r4, #0]
 800bf7a:	781a      	ldrb	r2, [r3, #0]
 800bf7c:	5cba      	ldrb	r2, [r7, r2]
 800bf7e:	0712      	lsls	r2, r2, #28
 800bf80:	d440      	bmi.n	800c004 <__ssvfiscanf_r+0x278>
 800bf82:	9b47      	ldr	r3, [sp, #284]	; 0x11c
 800bf84:	2b02      	cmp	r3, #2
 800bf86:	dc4f      	bgt.n	800c028 <__ssvfiscanf_r+0x29c>
 800bf88:	466b      	mov	r3, sp
 800bf8a:	4622      	mov	r2, r4
 800bf8c:	a941      	add	r1, sp, #260	; 0x104
 800bf8e:	4630      	mov	r0, r6
 800bf90:	f000 f874 	bl	800c07c <_scanf_chars>
 800bf94:	2801      	cmp	r0, #1
 800bf96:	d065      	beq.n	800c064 <__ssvfiscanf_r+0x2d8>
 800bf98:	2802      	cmp	r0, #2
 800bf9a:	f47f af21 	bne.w	800bde0 <__ssvfiscanf_r+0x54>
 800bf9e:	e7cf      	b.n	800bf40 <__ssvfiscanf_r+0x1b4>
 800bfa0:	220a      	movs	r2, #10
 800bfa2:	e7dd      	b.n	800bf60 <__ssvfiscanf_r+0x1d4>
 800bfa4:	2300      	movs	r3, #0
 800bfa6:	9342      	str	r3, [sp, #264]	; 0x108
 800bfa8:	2303      	movs	r3, #3
 800bfaa:	e7de      	b.n	800bf6a <__ssvfiscanf_r+0x1de>
 800bfac:	2308      	movs	r3, #8
 800bfae:	9342      	str	r3, [sp, #264]	; 0x108
 800bfb0:	2304      	movs	r3, #4
 800bfb2:	e7da      	b.n	800bf6a <__ssvfiscanf_r+0x1de>
 800bfb4:	4629      	mov	r1, r5
 800bfb6:	4640      	mov	r0, r8
 800bfb8:	f000 f9d6 	bl	800c368 <__sccl>
 800bfbc:	9b41      	ldr	r3, [sp, #260]	; 0x104
 800bfbe:	f043 0340 	orr.w	r3, r3, #64	; 0x40
 800bfc2:	9341      	str	r3, [sp, #260]	; 0x104
 800bfc4:	4605      	mov	r5, r0
 800bfc6:	2301      	movs	r3, #1
 800bfc8:	e7cf      	b.n	800bf6a <__ssvfiscanf_r+0x1de>
 800bfca:	9b41      	ldr	r3, [sp, #260]	; 0x104
 800bfcc:	f043 0340 	orr.w	r3, r3, #64	; 0x40
 800bfd0:	9341      	str	r3, [sp, #260]	; 0x104
 800bfd2:	2300      	movs	r3, #0
 800bfd4:	e7c9      	b.n	800bf6a <__ssvfiscanf_r+0x1de>
 800bfd6:	2302      	movs	r3, #2
 800bfd8:	e7c7      	b.n	800bf6a <__ssvfiscanf_r+0x1de>
 800bfda:	9841      	ldr	r0, [sp, #260]	; 0x104
 800bfdc:	06c3      	lsls	r3, r0, #27
 800bfde:	f53f aeff 	bmi.w	800bde0 <__ssvfiscanf_r+0x54>
 800bfe2:	9b00      	ldr	r3, [sp, #0]
 800bfe4:	9a45      	ldr	r2, [sp, #276]	; 0x114
 800bfe6:	1d19      	adds	r1, r3, #4
 800bfe8:	9100      	str	r1, [sp, #0]
 800bfea:	681b      	ldr	r3, [r3, #0]
 800bfec:	07c0      	lsls	r0, r0, #31
 800bfee:	bf4c      	ite	mi
 800bff0:	801a      	strhmi	r2, [r3, #0]
 800bff2:	601a      	strpl	r2, [r3, #0]
 800bff4:	e6f4      	b.n	800bde0 <__ssvfiscanf_r+0x54>
 800bff6:	9ba1      	ldr	r3, [sp, #644]	; 0x284
 800bff8:	4621      	mov	r1, r4
 800bffa:	4630      	mov	r0, r6
 800bffc:	4798      	blx	r3
 800bffe:	2800      	cmp	r0, #0
 800c000:	d0b7      	beq.n	800bf72 <__ssvfiscanf_r+0x1e6>
 800c002:	e79d      	b.n	800bf40 <__ssvfiscanf_r+0x1b4>
 800c004:	9a45      	ldr	r2, [sp, #276]	; 0x114
 800c006:	3201      	adds	r2, #1
 800c008:	9245      	str	r2, [sp, #276]	; 0x114
 800c00a:	6862      	ldr	r2, [r4, #4]
 800c00c:	3a01      	subs	r2, #1
 800c00e:	2a00      	cmp	r2, #0
 800c010:	6062      	str	r2, [r4, #4]
 800c012:	dd02      	ble.n	800c01a <__ssvfiscanf_r+0x28e>
 800c014:	3301      	adds	r3, #1
 800c016:	6023      	str	r3, [r4, #0]
 800c018:	e7ae      	b.n	800bf78 <__ssvfiscanf_r+0x1ec>
 800c01a:	9ba1      	ldr	r3, [sp, #644]	; 0x284
 800c01c:	4621      	mov	r1, r4
 800c01e:	4630      	mov	r0, r6
 800c020:	4798      	blx	r3
 800c022:	2800      	cmp	r0, #0
 800c024:	d0a8      	beq.n	800bf78 <__ssvfiscanf_r+0x1ec>
 800c026:	e78b      	b.n	800bf40 <__ssvfiscanf_r+0x1b4>
 800c028:	2b04      	cmp	r3, #4
 800c02a:	dc06      	bgt.n	800c03a <__ssvfiscanf_r+0x2ae>
 800c02c:	466b      	mov	r3, sp
 800c02e:	4622      	mov	r2, r4
 800c030:	a941      	add	r1, sp, #260	; 0x104
 800c032:	4630      	mov	r0, r6
 800c034:	f000 f87a 	bl	800c12c <_scanf_i>
 800c038:	e7ac      	b.n	800bf94 <__ssvfiscanf_r+0x208>
 800c03a:	4b0f      	ldr	r3, [pc, #60]	; (800c078 <__ssvfiscanf_r+0x2ec>)
 800c03c:	2b00      	cmp	r3, #0
 800c03e:	f43f aecf 	beq.w	800bde0 <__ssvfiscanf_r+0x54>
 800c042:	466b      	mov	r3, sp
 800c044:	4622      	mov	r2, r4
 800c046:	a941      	add	r1, sp, #260	; 0x104
 800c048:	4630      	mov	r0, r6
 800c04a:	f7fc fbc5 	bl	80087d8 <_scanf_float>
 800c04e:	e7a1      	b.n	800bf94 <__ssvfiscanf_r+0x208>
 800c050:	89a3      	ldrh	r3, [r4, #12]
 800c052:	f013 0f40 	tst.w	r3, #64	; 0x40
 800c056:	bf18      	it	ne
 800c058:	f04f 30ff 	movne.w	r0, #4294967295
 800c05c:	f50d 7d23 	add.w	sp, sp, #652	; 0x28c
 800c060:	e8bd 8ff0 	ldmia.w	sp!, {r4, r5, r6, r7, r8, r9, sl, fp, pc}
 800c064:	9844      	ldr	r0, [sp, #272]	; 0x110
 800c066:	e7f9      	b.n	800c05c <__ssvfiscanf_r+0x2d0>
 800c068:	0800bcd9 	.word	0x0800bcd9
 800c06c:	0800bd53 	.word	0x0800bd53
 800c070:	0800e1f6 	.word	0x0800e1f6
 800c074:	0800e602 	.word	0x0800e602
 800c078:	080087d9 	.word	0x080087d9

0800c07c <_scanf_chars>:
 800c07c:	e92d 43f8 	stmdb	sp!, {r3, r4, r5, r6, r7, r8, r9, lr}
 800c080:	4615      	mov	r5, r2
 800c082:	688a      	ldr	r2, [r1, #8]
 800c084:	4680      	mov	r8, r0
 800c086:	460c      	mov	r4, r1
 800c088:	b932      	cbnz	r2, 800c098 <_scanf_chars+0x1c>
 800c08a:	698a      	ldr	r2, [r1, #24]
 800c08c:	2a00      	cmp	r2, #0
 800c08e:	bf0c      	ite	eq
 800c090:	2201      	moveq	r2, #1
 800c092:	f04f 32ff 	movne.w	r2, #4294967295
 800c096:	608a      	str	r2, [r1, #8]
 800c098:	6822      	ldr	r2, [r4, #0]
 800c09a:	f8df 908c 	ldr.w	r9, [pc, #140]	; 800c128 <_scanf_chars+0xac>
 800c09e:	06d1      	lsls	r1, r2, #27
 800c0a0:	bf5f      	itttt	pl
 800c0a2:	681a      	ldrpl	r2, [r3, #0]
 800c0a4:	1d11      	addpl	r1, r2, #4
 800c0a6:	6019      	strpl	r1, [r3, #0]
 800c0a8:	6816      	ldrpl	r6, [r2, #0]
 800c0aa:	2700      	movs	r7, #0
 800c0ac:	69a0      	ldr	r0, [r4, #24]
 800c0ae:	b188      	cbz	r0, 800c0d4 <_scanf_chars+0x58>
 800c0b0:	2801      	cmp	r0, #1
 800c0b2:	d107      	bne.n	800c0c4 <_scanf_chars+0x48>
 800c0b4:	682b      	ldr	r3, [r5, #0]
 800c0b6:	781a      	ldrb	r2, [r3, #0]
 800c0b8:	6963      	ldr	r3, [r4, #20]
 800c0ba:	5c9b      	ldrb	r3, [r3, r2]
 800c0bc:	b953      	cbnz	r3, 800c0d4 <_scanf_chars+0x58>
 800c0be:	bb27      	cbnz	r7, 800c10a <_scanf_chars+0x8e>
 800c0c0:	e8bd 83f8 	ldmia.w	sp!, {r3, r4, r5, r6, r7, r8, r9, pc}
 800c0c4:	2802      	cmp	r0, #2
 800c0c6:	d120      	bne.n	800c10a <_scanf_chars+0x8e>
 800c0c8:	682b      	ldr	r3, [r5, #0]
 800c0ca:	781b      	ldrb	r3, [r3, #0]
 800c0cc:	f813 3009 	ldrb.w	r3, [r3, r9]
 800c0d0:	071b      	lsls	r3, r3, #28
 800c0d2:	d41a      	bmi.n	800c10a <_scanf_chars+0x8e>
 800c0d4:	6823      	ldr	r3, [r4, #0]
 800c0d6:	06da      	lsls	r2, r3, #27
 800c0d8:	bf5e      	ittt	pl
 800c0da:	682b      	ldrpl	r3, [r5, #0]
 800c0dc:	781b      	ldrbpl	r3, [r3, #0]
 800c0de:	f806 3b01 	strbpl.w	r3, [r6], #1
 800c0e2:	682a      	ldr	r2, [r5, #0]
 800c0e4:	686b      	ldr	r3, [r5, #4]
 800c0e6:	3201      	adds	r2, #1
 800c0e8:	602a      	str	r2, [r5, #0]
 800c0ea:	68a2      	ldr	r2, [r4, #8]
 800c0ec:	3b01      	subs	r3, #1
 800c0ee:	3a01      	subs	r2, #1
 800c0f0:	606b      	str	r3, [r5, #4]
 800c0f2:	3701      	adds	r7, #1
 800c0f4:	60a2      	str	r2, [r4, #8]
 800c0f6:	b142      	cbz	r2, 800c10a <_scanf_chars+0x8e>
 800c0f8:	2b00      	cmp	r3, #0
 800c0fa:	dcd7      	bgt.n	800c0ac <_scanf_chars+0x30>
 800c0fc:	f8d4 3180 	ldr.w	r3, [r4, #384]	; 0x180
 800c100:	4629      	mov	r1, r5
 800c102:	4640      	mov	r0, r8
 800c104:	4798      	blx	r3
 800c106:	2800      	cmp	r0, #0
 800c108:	d0d0      	beq.n	800c0ac <_scanf_chars+0x30>
 800c10a:	6823      	ldr	r3, [r4, #0]
 800c10c:	f013 0310 	ands.w	r3, r3, #16
 800c110:	d105      	bne.n	800c11e <_scanf_chars+0xa2>
 800c112:	68e2      	ldr	r2, [r4, #12]
 800c114:	3201      	adds	r2, #1
 800c116:	60e2      	str	r2, [r4, #12]
 800c118:	69a2      	ldr	r2, [r4, #24]
 800c11a:	b102      	cbz	r2, 800c11e <_scanf_chars+0xa2>
 800c11c:	7033      	strb	r3, [r6, #0]
 800c11e:	6923      	ldr	r3, [r4, #16]
 800c120:	441f      	add	r7, r3
 800c122:	6127      	str	r7, [r4, #16]
 800c124:	2000      	movs	r0, #0
 800c126:	e7cb      	b.n	800c0c0 <_scanf_chars+0x44>
 800c128:	0800e1f6 	.word	0x0800e1f6

0800c12c <_scanf_i>:
 800c12c:	e92d 4ff0 	stmdb	sp!, {r4, r5, r6, r7, r8, r9, sl, fp, lr}
 800c130:	4698      	mov	r8, r3
 800c132:	4b74      	ldr	r3, [pc, #464]	; (800c304 <_scanf_i+0x1d8>)
 800c134:	460c      	mov	r4, r1
 800c136:	4682      	mov	sl, r0
 800c138:	4616      	mov	r6, r2
 800c13a:	e893 0007 	ldmia.w	r3, {r0, r1, r2}
 800c13e:	b087      	sub	sp, #28
 800c140:	ab03      	add	r3, sp, #12
 800c142:	e883 0007 	stmia.w	r3, {r0, r1, r2}
 800c146:	4b70      	ldr	r3, [pc, #448]	; (800c308 <_scanf_i+0x1dc>)
 800c148:	69a1      	ldr	r1, [r4, #24]
 800c14a:	4a70      	ldr	r2, [pc, #448]	; (800c30c <_scanf_i+0x1e0>)
 800c14c:	2903      	cmp	r1, #3
 800c14e:	bf18      	it	ne
 800c150:	461a      	movne	r2, r3
 800c152:	68a3      	ldr	r3, [r4, #8]
 800c154:	9201      	str	r2, [sp, #4]
 800c156:	1e5a      	subs	r2, r3, #1
 800c158:	f5b2 7fae 	cmp.w	r2, #348	; 0x15c
 800c15c:	bf88      	it	hi
 800c15e:	f46f 75ae 	mvnhi.w	r5, #348	; 0x15c
 800c162:	4627      	mov	r7, r4
 800c164:	bf82      	ittt	hi
 800c166:	eb03 0905 	addhi.w	r9, r3, r5
 800c16a:	f240 135d 	movwhi	r3, #349	; 0x15d
 800c16e:	60a3      	strhi	r3, [r4, #8]
 800c170:	f857 3b1c 	ldr.w	r3, [r7], #28
 800c174:	f443 6350 	orr.w	r3, r3, #3328	; 0xd00
 800c178:	bf98      	it	ls
 800c17a:	f04f 0900 	movls.w	r9, #0
 800c17e:	6023      	str	r3, [r4, #0]
 800c180:	463d      	mov	r5, r7
 800c182:	f04f 0b00 	mov.w	fp, #0
 800c186:	6831      	ldr	r1, [r6, #0]
 800c188:	ab03      	add	r3, sp, #12
 800c18a:	7809      	ldrb	r1, [r1, #0]
 800c18c:	f853 002b 	ldr.w	r0, [r3, fp, lsl #2]
 800c190:	2202      	movs	r2, #2
 800c192:	f7f4 f835 	bl	8000200 <memchr>
 800c196:	b328      	cbz	r0, 800c1e4 <_scanf_i+0xb8>
 800c198:	f1bb 0f01 	cmp.w	fp, #1
 800c19c:	d159      	bne.n	800c252 <_scanf_i+0x126>
 800c19e:	6862      	ldr	r2, [r4, #4]
 800c1a0:	b92a      	cbnz	r2, 800c1ae <_scanf_i+0x82>
 800c1a2:	6822      	ldr	r2, [r4, #0]
 800c1a4:	2308      	movs	r3, #8
 800c1a6:	f442 7200 	orr.w	r2, r2, #512	; 0x200
 800c1aa:	6063      	str	r3, [r4, #4]
 800c1ac:	6022      	str	r2, [r4, #0]
 800c1ae:	6822      	ldr	r2, [r4, #0]
 800c1b0:	f422 62a0 	bic.w	r2, r2, #1280	; 0x500
 800c1b4:	6022      	str	r2, [r4, #0]
 800c1b6:	68a2      	ldr	r2, [r4, #8]
 800c1b8:	1e51      	subs	r1, r2, #1
 800c1ba:	60a1      	str	r1, [r4, #8]
 800c1bc:	b192      	cbz	r2, 800c1e4 <_scanf_i+0xb8>
 800c1be:	6832      	ldr	r2, [r6, #0]
 800c1c0:	1c51      	adds	r1, r2, #1
 800c1c2:	6031      	str	r1, [r6, #0]
 800c1c4:	7812      	ldrb	r2, [r2, #0]
 800c1c6:	f805 2b01 	strb.w	r2, [r5], #1
 800c1ca:	6872      	ldr	r2, [r6, #4]
 800c1cc:	3a01      	subs	r2, #1
 800c1ce:	2a00      	cmp	r2, #0
 800c1d0:	6072      	str	r2, [r6, #4]
 800c1d2:	dc07      	bgt.n	800c1e4 <_scanf_i+0xb8>
 800c1d4:	f8d4 2180 	ldr.w	r2, [r4, #384]	; 0x180
 800c1d8:	4631      	mov	r1, r6
 800c1da:	4650      	mov	r0, sl
 800c1dc:	4790      	blx	r2
 800c1de:	2800      	cmp	r0, #0
 800c1e0:	f040 8085 	bne.w	800c2ee <_scanf_i+0x1c2>
 800c1e4:	f10b 0b01 	add.w	fp, fp, #1
 800c1e8:	f1bb 0f03 	cmp.w	fp, #3
 800c1ec:	d1cb      	bne.n	800c186 <_scanf_i+0x5a>
 800c1ee:	6863      	ldr	r3, [r4, #4]
 800c1f0:	b90b      	cbnz	r3, 800c1f6 <_scanf_i+0xca>
 800c1f2:	230a      	movs	r3, #10
 800c1f4:	6063      	str	r3, [r4, #4]
 800c1f6:	6863      	ldr	r3, [r4, #4]
 800c1f8:	4945      	ldr	r1, [pc, #276]	; (800c310 <_scanf_i+0x1e4>)
 800c1fa:	6960      	ldr	r0, [r4, #20]
 800c1fc:	1ac9      	subs	r1, r1, r3
 800c1fe:	f000 f8b3 	bl	800c368 <__sccl>
 800c202:	f04f 0b00 	mov.w	fp, #0
 800c206:	68a3      	ldr	r3, [r4, #8]
 800c208:	6822      	ldr	r2, [r4, #0]
 800c20a:	2b00      	cmp	r3, #0
 800c20c:	d03d      	beq.n	800c28a <_scanf_i+0x15e>
 800c20e:	6831      	ldr	r1, [r6, #0]
 800c210:	6960      	ldr	r0, [r4, #20]
 800c212:	f891 c000 	ldrb.w	ip, [r1]
 800c216:	f810 000c 	ldrb.w	r0, [r0, ip]
 800c21a:	2800      	cmp	r0, #0
 800c21c:	d035      	beq.n	800c28a <_scanf_i+0x15e>
 800c21e:	f1bc 0f30 	cmp.w	ip, #48	; 0x30
 800c222:	d124      	bne.n	800c26e <_scanf_i+0x142>
 800c224:	0510      	lsls	r0, r2, #20
 800c226:	d522      	bpl.n	800c26e <_scanf_i+0x142>
 800c228:	f10b 0b01 	add.w	fp, fp, #1
 800c22c:	f1b9 0f00 	cmp.w	r9, #0
 800c230:	d003      	beq.n	800c23a <_scanf_i+0x10e>
 800c232:	3301      	adds	r3, #1
 800c234:	f109 39ff 	add.w	r9, r9, #4294967295
 800c238:	60a3      	str	r3, [r4, #8]
 800c23a:	6873      	ldr	r3, [r6, #4]
 800c23c:	3b01      	subs	r3, #1
 800c23e:	2b00      	cmp	r3, #0
 800c240:	6073      	str	r3, [r6, #4]
 800c242:	dd1b      	ble.n	800c27c <_scanf_i+0x150>
 800c244:	6833      	ldr	r3, [r6, #0]
 800c246:	3301      	adds	r3, #1
 800c248:	6033      	str	r3, [r6, #0]
 800c24a:	68a3      	ldr	r3, [r4, #8]
 800c24c:	3b01      	subs	r3, #1
 800c24e:	60a3      	str	r3, [r4, #8]
 800c250:	e7d9      	b.n	800c206 <_scanf_i+0xda>
 800c252:	f1bb 0f02 	cmp.w	fp, #2
 800c256:	d1ae      	bne.n	800c1b6 <_scanf_i+0x8a>
 800c258:	6822      	ldr	r2, [r4, #0]
 800c25a:	f402 61c0 	and.w	r1, r2, #1536	; 0x600
 800c25e:	f5b1 7f00 	cmp.w	r1, #512	; 0x200
 800c262:	d1bf      	bne.n	800c1e4 <_scanf_i+0xb8>
 800c264:	2310      	movs	r3, #16
 800c266:	6063      	str	r3, [r4, #4]
 800c268:	f442 7280 	orr.w	r2, r2, #256	; 0x100
 800c26c:	e7a2      	b.n	800c1b4 <_scanf_i+0x88>
 800c26e:	f422 6210 	bic.w	r2, r2, #2304	; 0x900
 800c272:	6022      	str	r2, [r4, #0]
 800c274:	780b      	ldrb	r3, [r1, #0]
 800c276:	f805 3b01 	strb.w	r3, [r5], #1
 800c27a:	e7de      	b.n	800c23a <_scanf_i+0x10e>
 800c27c:	f8d4 3180 	ldr.w	r3, [r4, #384]	; 0x180
 800c280:	4631      	mov	r1, r6
 800c282:	4650      	mov	r0, sl
 800c284:	4798      	blx	r3
 800c286:	2800      	cmp	r0, #0
 800c288:	d0df      	beq.n	800c24a <_scanf_i+0x11e>
 800c28a:	6823      	ldr	r3, [r4, #0]
 800c28c:	05d9      	lsls	r1, r3, #23
 800c28e:	d50d      	bpl.n	800c2ac <_scanf_i+0x180>
 800c290:	42bd      	cmp	r5, r7
 800c292:	d909      	bls.n	800c2a8 <_scanf_i+0x17c>
 800c294:	f815 1c01 	ldrb.w	r1, [r5, #-1]
 800c298:	f8d4 317c 	ldr.w	r3, [r4, #380]	; 0x17c
 800c29c:	4632      	mov	r2, r6
 800c29e:	4650      	mov	r0, sl
 800c2a0:	4798      	blx	r3
 800c2a2:	f105 39ff 	add.w	r9, r5, #4294967295
 800c2a6:	464d      	mov	r5, r9
 800c2a8:	42bd      	cmp	r5, r7
 800c2aa:	d028      	beq.n	800c2fe <_scanf_i+0x1d2>
 800c2ac:	6822      	ldr	r2, [r4, #0]
 800c2ae:	f012 0210 	ands.w	r2, r2, #16
 800c2b2:	d113      	bne.n	800c2dc <_scanf_i+0x1b0>
 800c2b4:	702a      	strb	r2, [r5, #0]
 800c2b6:	6863      	ldr	r3, [r4, #4]
 800c2b8:	9e01      	ldr	r6, [sp, #4]
 800c2ba:	4639      	mov	r1, r7
 800c2bc:	4650      	mov	r0, sl
 800c2be:	47b0      	blx	r6
 800c2c0:	f8d8 3000 	ldr.w	r3, [r8]
 800c2c4:	6821      	ldr	r1, [r4, #0]
 800c2c6:	1d1a      	adds	r2, r3, #4
 800c2c8:	f8c8 2000 	str.w	r2, [r8]
 800c2cc:	f011 0f20 	tst.w	r1, #32
 800c2d0:	681b      	ldr	r3, [r3, #0]
 800c2d2:	d00f      	beq.n	800c2f4 <_scanf_i+0x1c8>
 800c2d4:	6018      	str	r0, [r3, #0]
 800c2d6:	68e3      	ldr	r3, [r4, #12]
 800c2d8:	3301      	adds	r3, #1
 800c2da:	60e3      	str	r3, [r4, #12]
 800c2dc:	1bed      	subs	r5, r5, r7
 800c2de:	44ab      	add	fp, r5
 800c2e0:	6925      	ldr	r5, [r4, #16]
 800c2e2:	445d      	add	r5, fp
 800c2e4:	6125      	str	r5, [r4, #16]
 800c2e6:	2000      	movs	r0, #0
 800c2e8:	b007      	add	sp, #28
 800c2ea:	e8bd 8ff0 	ldmia.w	sp!, {r4, r5, r6, r7, r8, r9, sl, fp, pc}
 800c2ee:	f04f 0b00 	mov.w	fp, #0
 800c2f2:	e7ca      	b.n	800c28a <_scanf_i+0x15e>
 800c2f4:	07ca      	lsls	r2, r1, #31
 800c2f6:	bf4c      	ite	mi
 800c2f8:	8018      	strhmi	r0, [r3, #0]
 800c2fa:	6018      	strpl	r0, [r3, #0]
 800c2fc:	e7eb      	b.n	800c2d6 <_scanf_i+0x1aa>
 800c2fe:	2001      	movs	r0, #1
 800c300:	e7f2      	b.n	800c2e8 <_scanf_i+0x1bc>
 800c302:	bf00      	nop
 800c304:	0800d5a8 	.word	0x0800d5a8
 800c308:	0800c4d5 	.word	0x0800c4d5
 800c30c:	08009ac1 	.word	0x08009ac1
 800c310:	0800e626 	.word	0x0800e626

0800c314 <_read_r>:
 800c314:	b538      	push	{r3, r4, r5, lr}
 800c316:	4d07      	ldr	r5, [pc, #28]	; (800c334 <_read_r+0x20>)
 800c318:	4604      	mov	r4, r0
 800c31a:	4608      	mov	r0, r1
 800c31c:	4611      	mov	r1, r2
 800c31e:	2200      	movs	r2, #0
 800c320:	602a      	str	r2, [r5, #0]
 800c322:	461a      	mov	r2, r3
 800c324:	f7f8 f81c 	bl	8004360 <_read>
 800c328:	1c43      	adds	r3, r0, #1
 800c32a:	d102      	bne.n	800c332 <_read_r+0x1e>
 800c32c:	682b      	ldr	r3, [r5, #0]
 800c32e:	b103      	cbz	r3, 800c332 <_read_r+0x1e>
 800c330:	6023      	str	r3, [r4, #0]
 800c332:	bd38      	pop	{r3, r4, r5, pc}
 800c334:	20001fe4 	.word	0x20001fe4

0800c338 <nan>:
 800c338:	ed9f 0b01 	vldr	d0, [pc, #4]	; 800c340 <nan+0x8>
 800c33c:	4770      	bx	lr
 800c33e:	bf00      	nop
 800c340:	00000000 	.word	0x00000000
 800c344:	7ff80000 	.word	0x7ff80000

0800c348 <_sbrk_r>:
 800c348:	b538      	push	{r3, r4, r5, lr}
 800c34a:	4d06      	ldr	r5, [pc, #24]	; (800c364 <_sbrk_r+0x1c>)
 800c34c:	2300      	movs	r3, #0
 800c34e:	4604      	mov	r4, r0
 800c350:	4608      	mov	r0, r1
 800c352:	602b      	str	r3, [r5, #0]
 800c354:	f7f8 f82a 	bl	80043ac <_sbrk>
 800c358:	1c43      	adds	r3, r0, #1
 800c35a:	d102      	bne.n	800c362 <_sbrk_r+0x1a>
 800c35c:	682b      	ldr	r3, [r5, #0]
 800c35e:	b103      	cbz	r3, 800c362 <_sbrk_r+0x1a>
 800c360:	6023      	str	r3, [r4, #0]
 800c362:	bd38      	pop	{r3, r4, r5, pc}
 800c364:	20001fe4 	.word	0x20001fe4

0800c368 <__sccl>:
 800c368:	b570      	push	{r4, r5, r6, lr}
 800c36a:	780b      	ldrb	r3, [r1, #0]
 800c36c:	4604      	mov	r4, r0
 800c36e:	2b5e      	cmp	r3, #94	; 0x5e
 800c370:	bf0b      	itete	eq
 800c372:	784b      	ldrbeq	r3, [r1, #1]
 800c374:	1c48      	addne	r0, r1, #1
 800c376:	1c88      	addeq	r0, r1, #2
 800c378:	2200      	movne	r2, #0
 800c37a:	bf08      	it	eq
 800c37c:	2201      	moveq	r2, #1
 800c37e:	1e61      	subs	r1, r4, #1
 800c380:	f104 05ff 	add.w	r5, r4, #255	; 0xff
 800c384:	f801 2f01 	strb.w	r2, [r1, #1]!
 800c388:	42a9      	cmp	r1, r5
 800c38a:	d1fb      	bne.n	800c384 <__sccl+0x1c>
 800c38c:	b90b      	cbnz	r3, 800c392 <__sccl+0x2a>
 800c38e:	3801      	subs	r0, #1
 800c390:	bd70      	pop	{r4, r5, r6, pc}
 800c392:	f082 0101 	eor.w	r1, r2, #1
 800c396:	54e1      	strb	r1, [r4, r3]
 800c398:	1c42      	adds	r2, r0, #1
 800c39a:	f812 5c01 	ldrb.w	r5, [r2, #-1]
 800c39e:	2d2d      	cmp	r5, #45	; 0x2d
 800c3a0:	f102 36ff 	add.w	r6, r2, #4294967295
 800c3a4:	4610      	mov	r0, r2
 800c3a6:	d006      	beq.n	800c3b6 <__sccl+0x4e>
 800c3a8:	2d5d      	cmp	r5, #93	; 0x5d
 800c3aa:	d0f1      	beq.n	800c390 <__sccl+0x28>
 800c3ac:	b90d      	cbnz	r5, 800c3b2 <__sccl+0x4a>
 800c3ae:	4630      	mov	r0, r6
 800c3b0:	e7ee      	b.n	800c390 <__sccl+0x28>
 800c3b2:	462b      	mov	r3, r5
 800c3b4:	e7ef      	b.n	800c396 <__sccl+0x2e>
 800c3b6:	7816      	ldrb	r6, [r2, #0]
 800c3b8:	2e5d      	cmp	r6, #93	; 0x5d
 800c3ba:	d0fa      	beq.n	800c3b2 <__sccl+0x4a>
 800c3bc:	42b3      	cmp	r3, r6
 800c3be:	dcf8      	bgt.n	800c3b2 <__sccl+0x4a>
 800c3c0:	4618      	mov	r0, r3
 800c3c2:	3001      	adds	r0, #1
 800c3c4:	4286      	cmp	r6, r0
 800c3c6:	5421      	strb	r1, [r4, r0]
 800c3c8:	dcfb      	bgt.n	800c3c2 <__sccl+0x5a>
 800c3ca:	43d8      	mvns	r0, r3
 800c3cc:	4430      	add	r0, r6
 800c3ce:	1c5d      	adds	r5, r3, #1
 800c3d0:	42b3      	cmp	r3, r6
 800c3d2:	bfa8      	it	ge
 800c3d4:	2000      	movge	r0, #0
 800c3d6:	182b      	adds	r3, r5, r0
 800c3d8:	3202      	adds	r2, #2
 800c3da:	e7de      	b.n	800c39a <__sccl+0x32>

0800c3dc <_strtoul_l.isra.0>:
 800c3dc:	e92d 43f0 	stmdb	sp!, {r4, r5, r6, r7, r8, r9, lr}
 800c3e0:	4e3b      	ldr	r6, [pc, #236]	; (800c4d0 <_strtoul_l.isra.0+0xf4>)
 800c3e2:	4686      	mov	lr, r0
 800c3e4:	468c      	mov	ip, r1
 800c3e6:	4660      	mov	r0, ip
 800c3e8:	f81c 4b01 	ldrb.w	r4, [ip], #1
 800c3ec:	5da5      	ldrb	r5, [r4, r6]
 800c3ee:	f015 0508 	ands.w	r5, r5, #8
 800c3f2:	d1f8      	bne.n	800c3e6 <_strtoul_l.isra.0+0xa>
 800c3f4:	2c2d      	cmp	r4, #45	; 0x2d
 800c3f6:	d134      	bne.n	800c462 <_strtoul_l.isra.0+0x86>
 800c3f8:	f89c 4000 	ldrb.w	r4, [ip]
 800c3fc:	f04f 0801 	mov.w	r8, #1
 800c400:	f100 0c02 	add.w	ip, r0, #2
 800c404:	2b00      	cmp	r3, #0
 800c406:	d05e      	beq.n	800c4c6 <_strtoul_l.isra.0+0xea>
 800c408:	2b10      	cmp	r3, #16
 800c40a:	d10c      	bne.n	800c426 <_strtoul_l.isra.0+0x4a>
 800c40c:	2c30      	cmp	r4, #48	; 0x30
 800c40e:	d10a      	bne.n	800c426 <_strtoul_l.isra.0+0x4a>
 800c410:	f89c 0000 	ldrb.w	r0, [ip]
 800c414:	f000 00df 	and.w	r0, r0, #223	; 0xdf
 800c418:	2858      	cmp	r0, #88	; 0x58
 800c41a:	d14f      	bne.n	800c4bc <_strtoul_l.isra.0+0xe0>
 800c41c:	f89c 4001 	ldrb.w	r4, [ip, #1]
 800c420:	2310      	movs	r3, #16
 800c422:	f10c 0c02 	add.w	ip, ip, #2
 800c426:	f04f 37ff 	mov.w	r7, #4294967295
 800c42a:	2500      	movs	r5, #0
 800c42c:	fbb7 f7f3 	udiv	r7, r7, r3
 800c430:	fb03 f907 	mul.w	r9, r3, r7
 800c434:	ea6f 0909 	mvn.w	r9, r9
 800c438:	4628      	mov	r0, r5
 800c43a:	f1a4 0630 	sub.w	r6, r4, #48	; 0x30
 800c43e:	2e09      	cmp	r6, #9
 800c440:	d818      	bhi.n	800c474 <_strtoul_l.isra.0+0x98>
 800c442:	4634      	mov	r4, r6
 800c444:	42a3      	cmp	r3, r4
 800c446:	dd24      	ble.n	800c492 <_strtoul_l.isra.0+0xb6>
 800c448:	2d00      	cmp	r5, #0
 800c44a:	db1f      	blt.n	800c48c <_strtoul_l.isra.0+0xb0>
 800c44c:	4287      	cmp	r7, r0
 800c44e:	d31d      	bcc.n	800c48c <_strtoul_l.isra.0+0xb0>
 800c450:	d101      	bne.n	800c456 <_strtoul_l.isra.0+0x7a>
 800c452:	45a1      	cmp	r9, r4
 800c454:	db1a      	blt.n	800c48c <_strtoul_l.isra.0+0xb0>
 800c456:	fb00 4003 	mla	r0, r0, r3, r4
 800c45a:	2501      	movs	r5, #1
 800c45c:	f81c 4b01 	ldrb.w	r4, [ip], #1
 800c460:	e7eb      	b.n	800c43a <_strtoul_l.isra.0+0x5e>
 800c462:	2c2b      	cmp	r4, #43	; 0x2b
 800c464:	bf08      	it	eq
 800c466:	f89c 4000 	ldrbeq.w	r4, [ip]
 800c46a:	46a8      	mov	r8, r5
 800c46c:	bf08      	it	eq
 800c46e:	f100 0c02 	addeq.w	ip, r0, #2
 800c472:	e7c7      	b.n	800c404 <_strtoul_l.isra.0+0x28>
 800c474:	f1a4 0641 	sub.w	r6, r4, #65	; 0x41
 800c478:	2e19      	cmp	r6, #25
 800c47a:	d801      	bhi.n	800c480 <_strtoul_l.isra.0+0xa4>
 800c47c:	3c37      	subs	r4, #55	; 0x37
 800c47e:	e7e1      	b.n	800c444 <_strtoul_l.isra.0+0x68>
 800c480:	f1a4 0661 	sub.w	r6, r4, #97	; 0x61
 800c484:	2e19      	cmp	r6, #25
 800c486:	d804      	bhi.n	800c492 <_strtoul_l.isra.0+0xb6>
 800c488:	3c57      	subs	r4, #87	; 0x57
 800c48a:	e7db      	b.n	800c444 <_strtoul_l.isra.0+0x68>
 800c48c:	f04f 35ff 	mov.w	r5, #4294967295
 800c490:	e7e4      	b.n	800c45c <_strtoul_l.isra.0+0x80>
 800c492:	2d00      	cmp	r5, #0
 800c494:	da07      	bge.n	800c4a6 <_strtoul_l.isra.0+0xca>
 800c496:	2322      	movs	r3, #34	; 0x22
 800c498:	f8ce 3000 	str.w	r3, [lr]
 800c49c:	f04f 30ff 	mov.w	r0, #4294967295
 800c4a0:	b942      	cbnz	r2, 800c4b4 <_strtoul_l.isra.0+0xd8>
 800c4a2:	e8bd 83f0 	ldmia.w	sp!, {r4, r5, r6, r7, r8, r9, pc}
 800c4a6:	f1b8 0f00 	cmp.w	r8, #0
 800c4aa:	d000      	beq.n	800c4ae <_strtoul_l.isra.0+0xd2>
 800c4ac:	4240      	negs	r0, r0
 800c4ae:	2a00      	cmp	r2, #0
 800c4b0:	d0f7      	beq.n	800c4a2 <_strtoul_l.isra.0+0xc6>
 800c4b2:	b10d      	cbz	r5, 800c4b8 <_strtoul_l.isra.0+0xdc>
 800c4b4:	f10c 31ff 	add.w	r1, ip, #4294967295
 800c4b8:	6011      	str	r1, [r2, #0]
 800c4ba:	e7f2      	b.n	800c4a2 <_strtoul_l.isra.0+0xc6>
 800c4bc:	2430      	movs	r4, #48	; 0x30
 800c4be:	2b00      	cmp	r3, #0
 800c4c0:	d1b1      	bne.n	800c426 <_strtoul_l.isra.0+0x4a>
 800c4c2:	2308      	movs	r3, #8
 800c4c4:	e7af      	b.n	800c426 <_strtoul_l.isra.0+0x4a>
 800c4c6:	2c30      	cmp	r4, #48	; 0x30
 800c4c8:	d0a2      	beq.n	800c410 <_strtoul_l.isra.0+0x34>
 800c4ca:	230a      	movs	r3, #10
 800c4cc:	e7ab      	b.n	800c426 <_strtoul_l.isra.0+0x4a>
 800c4ce:	bf00      	nop
 800c4d0:	0800e1f6 	.word	0x0800e1f6

0800c4d4 <_strtoul_r>:
 800c4d4:	f7ff bf82 	b.w	800c3dc <_strtoul_l.isra.0>

0800c4d8 <__submore>:
 800c4d8:	e92d 41f0 	stmdb	sp!, {r4, r5, r6, r7, r8, lr}
 800c4dc:	460c      	mov	r4, r1
 800c4de:	6b49      	ldr	r1, [r1, #52]	; 0x34
 800c4e0:	f104 0344 	add.w	r3, r4, #68	; 0x44
 800c4e4:	4299      	cmp	r1, r3
 800c4e6:	d11d      	bne.n	800c524 <__submore+0x4c>
 800c4e8:	f44f 6180 	mov.w	r1, #1024	; 0x400
 800c4ec:	f7ff fa3e 	bl	800b96c <_malloc_r>
 800c4f0:	b918      	cbnz	r0, 800c4fa <__submore+0x22>
 800c4f2:	f04f 30ff 	mov.w	r0, #4294967295
 800c4f6:	e8bd 81f0 	ldmia.w	sp!, {r4, r5, r6, r7, r8, pc}
 800c4fa:	f44f 6380 	mov.w	r3, #1024	; 0x400
 800c4fe:	63a3      	str	r3, [r4, #56]	; 0x38
 800c500:	f894 3046 	ldrb.w	r3, [r4, #70]	; 0x46
 800c504:	6360      	str	r0, [r4, #52]	; 0x34
 800c506:	f880 33ff 	strb.w	r3, [r0, #1023]	; 0x3ff
 800c50a:	f894 3045 	ldrb.w	r3, [r4, #69]	; 0x45
 800c50e:	f880 33fe 	strb.w	r3, [r0, #1022]	; 0x3fe
 800c512:	f894 3044 	ldrb.w	r3, [r4, #68]	; 0x44
 800c516:	f880 33fd 	strb.w	r3, [r0, #1021]	; 0x3fd
 800c51a:	f200 30fd 	addw	r0, r0, #1021	; 0x3fd
 800c51e:	6020      	str	r0, [r4, #0]
 800c520:	2000      	movs	r0, #0
 800c522:	e7e8      	b.n	800c4f6 <__submore+0x1e>
 800c524:	6ba6      	ldr	r6, [r4, #56]	; 0x38
 800c526:	0077      	lsls	r7, r6, #1
 800c528:	463a      	mov	r2, r7
 800c52a:	f000 fa2d 	bl	800c988 <_realloc_r>
 800c52e:	4605      	mov	r5, r0
 800c530:	2800      	cmp	r0, #0
 800c532:	d0de      	beq.n	800c4f2 <__submore+0x1a>
 800c534:	eb00 0806 	add.w	r8, r0, r6
 800c538:	4601      	mov	r1, r0
 800c53a:	4632      	mov	r2, r6
 800c53c:	4640      	mov	r0, r8
 800c53e:	f7fb fccb 	bl	8007ed8 <memcpy>
 800c542:	e9c4 570d 	strd	r5, r7, [r4, #52]	; 0x34
 800c546:	f8c4 8000 	str.w	r8, [r4]
 800c54a:	e7e9      	b.n	800c520 <__submore+0x48>

0800c54c <__ascii_wctomb>:
 800c54c:	b149      	cbz	r1, 800c562 <__ascii_wctomb+0x16>
 800c54e:	2aff      	cmp	r2, #255	; 0xff
 800c550:	bf85      	ittet	hi
 800c552:	238a      	movhi	r3, #138	; 0x8a
 800c554:	6003      	strhi	r3, [r0, #0]
 800c556:	700a      	strbls	r2, [r1, #0]
 800c558:	f04f 30ff 	movhi.w	r0, #4294967295
 800c55c:	bf98      	it	ls
 800c55e:	2001      	movls	r0, #1
 800c560:	4770      	bx	lr
 800c562:	4608      	mov	r0, r1
 800c564:	4770      	bx	lr
	...

0800c568 <__assert_func>:
 800c568:	b51f      	push	{r0, r1, r2, r3, r4, lr}
 800c56a:	4614      	mov	r4, r2
 800c56c:	461a      	mov	r2, r3
 800c56e:	4b09      	ldr	r3, [pc, #36]	; (800c594 <__assert_func+0x2c>)
 800c570:	681b      	ldr	r3, [r3, #0]
 800c572:	4605      	mov	r5, r0
 800c574:	68d8      	ldr	r0, [r3, #12]
 800c576:	b14c      	cbz	r4, 800c58c <__assert_func+0x24>
 800c578:	4b07      	ldr	r3, [pc, #28]	; (800c598 <__assert_func+0x30>)
 800c57a:	9100      	str	r1, [sp, #0]
 800c57c:	e9cd 3401 	strd	r3, r4, [sp, #4]
 800c580:	4906      	ldr	r1, [pc, #24]	; (800c59c <__assert_func+0x34>)
 800c582:	462b      	mov	r3, r5
 800c584:	f000 f9a6 	bl	800c8d4 <fiprintf>
 800c588:	f000 fc3e 	bl	800ce08 <abort>
 800c58c:	4b04      	ldr	r3, [pc, #16]	; (800c5a0 <__assert_func+0x38>)
 800c58e:	461c      	mov	r4, r3
 800c590:	e7f3      	b.n	800c57a <__assert_func+0x12>
 800c592:	bf00      	nop
 800c594:	200001cc 	.word	0x200001cc
 800c598:	0800e628 	.word	0x0800e628
 800c59c:	0800e635 	.word	0x0800e635
 800c5a0:	0800dbdc 	.word	0x0800dbdc

0800c5a4 <__sflush_r>:
 800c5a4:	898a      	ldrh	r2, [r1, #12]
 800c5a6:	e92d 41f0 	stmdb	sp!, {r4, r5, r6, r7, r8, lr}
 800c5aa:	4605      	mov	r5, r0
 800c5ac:	0710      	lsls	r0, r2, #28
 800c5ae:	460c      	mov	r4, r1
 800c5b0:	d458      	bmi.n	800c664 <__sflush_r+0xc0>
 800c5b2:	684b      	ldr	r3, [r1, #4]
 800c5b4:	2b00      	cmp	r3, #0
 800c5b6:	dc05      	bgt.n	800c5c4 <__sflush_r+0x20>
 800c5b8:	6c0b      	ldr	r3, [r1, #64]	; 0x40
 800c5ba:	2b00      	cmp	r3, #0
 800c5bc:	dc02      	bgt.n	800c5c4 <__sflush_r+0x20>
 800c5be:	2000      	movs	r0, #0
 800c5c0:	e8bd 81f0 	ldmia.w	sp!, {r4, r5, r6, r7, r8, pc}
 800c5c4:	6ae6      	ldr	r6, [r4, #44]	; 0x2c
 800c5c6:	2e00      	cmp	r6, #0
 800c5c8:	d0f9      	beq.n	800c5be <__sflush_r+0x1a>
 800c5ca:	2300      	movs	r3, #0
 800c5cc:	f412 5280 	ands.w	r2, r2, #4096	; 0x1000
 800c5d0:	682f      	ldr	r7, [r5, #0]
 800c5d2:	602b      	str	r3, [r5, #0]
 800c5d4:	d032      	beq.n	800c63c <__sflush_r+0x98>
 800c5d6:	6d60      	ldr	r0, [r4, #84]	; 0x54
 800c5d8:	89a3      	ldrh	r3, [r4, #12]
 800c5da:	075a      	lsls	r2, r3, #29
 800c5dc:	d505      	bpl.n	800c5ea <__sflush_r+0x46>
 800c5de:	6863      	ldr	r3, [r4, #4]
 800c5e0:	1ac0      	subs	r0, r0, r3
 800c5e2:	6b63      	ldr	r3, [r4, #52]	; 0x34
 800c5e4:	b10b      	cbz	r3, 800c5ea <__sflush_r+0x46>
 800c5e6:	6c23      	ldr	r3, [r4, #64]	; 0x40
 800c5e8:	1ac0      	subs	r0, r0, r3
 800c5ea:	2300      	movs	r3, #0
 800c5ec:	4602      	mov	r2, r0
 800c5ee:	6ae6      	ldr	r6, [r4, #44]	; 0x2c
 800c5f0:	6a21      	ldr	r1, [r4, #32]
 800c5f2:	4628      	mov	r0, r5
 800c5f4:	47b0      	blx	r6
 800c5f6:	1c43      	adds	r3, r0, #1
 800c5f8:	89a3      	ldrh	r3, [r4, #12]
 800c5fa:	d106      	bne.n	800c60a <__sflush_r+0x66>
 800c5fc:	6829      	ldr	r1, [r5, #0]
 800c5fe:	291d      	cmp	r1, #29
 800c600:	d82c      	bhi.n	800c65c <__sflush_r+0xb8>
 800c602:	4a2a      	ldr	r2, [pc, #168]	; (800c6ac <__sflush_r+0x108>)
 800c604:	40ca      	lsrs	r2, r1
 800c606:	07d6      	lsls	r6, r2, #31
 800c608:	d528      	bpl.n	800c65c <__sflush_r+0xb8>
 800c60a:	2200      	movs	r2, #0
 800c60c:	6062      	str	r2, [r4, #4]
 800c60e:	04d9      	lsls	r1, r3, #19
 800c610:	6922      	ldr	r2, [r4, #16]
 800c612:	6022      	str	r2, [r4, #0]
 800c614:	d504      	bpl.n	800c620 <__sflush_r+0x7c>
 800c616:	1c42      	adds	r2, r0, #1
 800c618:	d101      	bne.n	800c61e <__sflush_r+0x7a>
 800c61a:	682b      	ldr	r3, [r5, #0]
 800c61c:	b903      	cbnz	r3, 800c620 <__sflush_r+0x7c>
 800c61e:	6560      	str	r0, [r4, #84]	; 0x54
 800c620:	6b61      	ldr	r1, [r4, #52]	; 0x34
 800c622:	602f      	str	r7, [r5, #0]
 800c624:	2900      	cmp	r1, #0
 800c626:	d0ca      	beq.n	800c5be <__sflush_r+0x1a>
 800c628:	f104 0344 	add.w	r3, r4, #68	; 0x44
 800c62c:	4299      	cmp	r1, r3
 800c62e:	d002      	beq.n	800c636 <__sflush_r+0x92>
 800c630:	4628      	mov	r0, r5
 800c632:	f7ff f94b 	bl	800b8cc <_free_r>
 800c636:	2000      	movs	r0, #0
 800c638:	6360      	str	r0, [r4, #52]	; 0x34
 800c63a:	e7c1      	b.n	800c5c0 <__sflush_r+0x1c>
 800c63c:	6a21      	ldr	r1, [r4, #32]
 800c63e:	2301      	movs	r3, #1
 800c640:	4628      	mov	r0, r5
 800c642:	47b0      	blx	r6
 800c644:	1c41      	adds	r1, r0, #1
 800c646:	d1c7      	bne.n	800c5d8 <__sflush_r+0x34>
 800c648:	682b      	ldr	r3, [r5, #0]
 800c64a:	2b00      	cmp	r3, #0
 800c64c:	d0c4      	beq.n	800c5d8 <__sflush_r+0x34>
 800c64e:	2b1d      	cmp	r3, #29
 800c650:	d001      	beq.n	800c656 <__sflush_r+0xb2>
 800c652:	2b16      	cmp	r3, #22
 800c654:	d101      	bne.n	800c65a <__sflush_r+0xb6>
 800c656:	602f      	str	r7, [r5, #0]
 800c658:	e7b1      	b.n	800c5be <__sflush_r+0x1a>
 800c65a:	89a3      	ldrh	r3, [r4, #12]
 800c65c:	f043 0340 	orr.w	r3, r3, #64	; 0x40
 800c660:	81a3      	strh	r3, [r4, #12]
 800c662:	e7ad      	b.n	800c5c0 <__sflush_r+0x1c>
 800c664:	690f      	ldr	r7, [r1, #16]
 800c666:	2f00      	cmp	r7, #0
 800c668:	d0a9      	beq.n	800c5be <__sflush_r+0x1a>
 800c66a:	0793      	lsls	r3, r2, #30
 800c66c:	680e      	ldr	r6, [r1, #0]
 800c66e:	bf08      	it	eq
 800c670:	694b      	ldreq	r3, [r1, #20]
 800c672:	600f      	str	r7, [r1, #0]
 800c674:	bf18      	it	ne
 800c676:	2300      	movne	r3, #0
 800c678:	eba6 0807 	sub.w	r8, r6, r7
 800c67c:	608b      	str	r3, [r1, #8]
 800c67e:	f1b8 0f00 	cmp.w	r8, #0
 800c682:	dd9c      	ble.n	800c5be <__sflush_r+0x1a>
 800c684:	6a21      	ldr	r1, [r4, #32]
 800c686:	6aa6      	ldr	r6, [r4, #40]	; 0x28
 800c688:	4643      	mov	r3, r8
 800c68a:	463a      	mov	r2, r7
 800c68c:	4628      	mov	r0, r5
 800c68e:	47b0      	blx	r6
 800c690:	2800      	cmp	r0, #0
 800c692:	dc06      	bgt.n	800c6a2 <__sflush_r+0xfe>
 800c694:	89a3      	ldrh	r3, [r4, #12]
 800c696:	f043 0340 	orr.w	r3, r3, #64	; 0x40
 800c69a:	81a3      	strh	r3, [r4, #12]
 800c69c:	f04f 30ff 	mov.w	r0, #4294967295
 800c6a0:	e78e      	b.n	800c5c0 <__sflush_r+0x1c>
 800c6a2:	4407      	add	r7, r0
 800c6a4:	eba8 0800 	sub.w	r8, r8, r0
 800c6a8:	e7e9      	b.n	800c67e <__sflush_r+0xda>
 800c6aa:	bf00      	nop
 800c6ac:	20400001 	.word	0x20400001

0800c6b0 <_fflush_r>:
 800c6b0:	b538      	push	{r3, r4, r5, lr}
 800c6b2:	690b      	ldr	r3, [r1, #16]
 800c6b4:	4605      	mov	r5, r0
 800c6b6:	460c      	mov	r4, r1
 800c6b8:	b913      	cbnz	r3, 800c6c0 <_fflush_r+0x10>
 800c6ba:	2500      	movs	r5, #0
 800c6bc:	4628      	mov	r0, r5
 800c6be:	bd38      	pop	{r3, r4, r5, pc}
 800c6c0:	b118      	cbz	r0, 800c6ca <_fflush_r+0x1a>
 800c6c2:	6983      	ldr	r3, [r0, #24]
 800c6c4:	b90b      	cbnz	r3, 800c6ca <_fflush_r+0x1a>
 800c6c6:	f000 f887 	bl	800c7d8 <__sinit>
 800c6ca:	4b14      	ldr	r3, [pc, #80]	; (800c71c <_fflush_r+0x6c>)
 800c6cc:	429c      	cmp	r4, r3
 800c6ce:	d11b      	bne.n	800c708 <_fflush_r+0x58>
 800c6d0:	686c      	ldr	r4, [r5, #4]
 800c6d2:	f9b4 300c 	ldrsh.w	r3, [r4, #12]
 800c6d6:	2b00      	cmp	r3, #0
 800c6d8:	d0ef      	beq.n	800c6ba <_fflush_r+0xa>
 800c6da:	6e62      	ldr	r2, [r4, #100]	; 0x64
 800c6dc:	07d0      	lsls	r0, r2, #31
 800c6de:	d404      	bmi.n	800c6ea <_fflush_r+0x3a>
 800c6e0:	0599      	lsls	r1, r3, #22
 800c6e2:	d402      	bmi.n	800c6ea <_fflush_r+0x3a>
 800c6e4:	6da0      	ldr	r0, [r4, #88]	; 0x58
 800c6e6:	f000 f927 	bl	800c938 <__retarget_lock_acquire_recursive>
 800c6ea:	4628      	mov	r0, r5
 800c6ec:	4621      	mov	r1, r4
 800c6ee:	f7ff ff59 	bl	800c5a4 <__sflush_r>
 800c6f2:	6e63      	ldr	r3, [r4, #100]	; 0x64
 800c6f4:	07da      	lsls	r2, r3, #31
 800c6f6:	4605      	mov	r5, r0
 800c6f8:	d4e0      	bmi.n	800c6bc <_fflush_r+0xc>
 800c6fa:	89a3      	ldrh	r3, [r4, #12]
 800c6fc:	059b      	lsls	r3, r3, #22
 800c6fe:	d4dd      	bmi.n	800c6bc <_fflush_r+0xc>
 800c700:	6da0      	ldr	r0, [r4, #88]	; 0x58
 800c702:	f000 f91a 	bl	800c93a <__retarget_lock_release_recursive>
 800c706:	e7d9      	b.n	800c6bc <_fflush_r+0xc>
 800c708:	4b05      	ldr	r3, [pc, #20]	; (800c720 <_fflush_r+0x70>)
 800c70a:	429c      	cmp	r4, r3
 800c70c:	d101      	bne.n	800c712 <_fflush_r+0x62>
 800c70e:	68ac      	ldr	r4, [r5, #8]
 800c710:	e7df      	b.n	800c6d2 <_fflush_r+0x22>
 800c712:	4b04      	ldr	r3, [pc, #16]	; (800c724 <_fflush_r+0x74>)
 800c714:	429c      	cmp	r4, r3
 800c716:	bf08      	it	eq
 800c718:	68ec      	ldreq	r4, [r5, #12]
 800c71a:	e7da      	b.n	800c6d2 <_fflush_r+0x22>
 800c71c:	0800e684 	.word	0x0800e684
 800c720:	0800e6a4 	.word	0x0800e6a4
 800c724:	0800e664 	.word	0x0800e664

0800c728 <std>:
 800c728:	2300      	movs	r3, #0
 800c72a:	b510      	push	{r4, lr}
 800c72c:	4604      	mov	r4, r0
 800c72e:	e9c0 3300 	strd	r3, r3, [r0]
 800c732:	e9c0 3304 	strd	r3, r3, [r0, #16]
 800c736:	6083      	str	r3, [r0, #8]
 800c738:	8181      	strh	r1, [r0, #12]
 800c73a:	6643      	str	r3, [r0, #100]	; 0x64
 800c73c:	81c2      	strh	r2, [r0, #14]
 800c73e:	6183      	str	r3, [r0, #24]
 800c740:	4619      	mov	r1, r3
 800c742:	2208      	movs	r2, #8
 800c744:	305c      	adds	r0, #92	; 0x5c
 800c746:	f7fb fbd5 	bl	8007ef4 <memset>
 800c74a:	4b05      	ldr	r3, [pc, #20]	; (800c760 <std+0x38>)
 800c74c:	6263      	str	r3, [r4, #36]	; 0x24
 800c74e:	4b05      	ldr	r3, [pc, #20]	; (800c764 <std+0x3c>)
 800c750:	62a3      	str	r3, [r4, #40]	; 0x28
 800c752:	4b05      	ldr	r3, [pc, #20]	; (800c768 <std+0x40>)
 800c754:	62e3      	str	r3, [r4, #44]	; 0x2c
 800c756:	4b05      	ldr	r3, [pc, #20]	; (800c76c <std+0x44>)
 800c758:	6224      	str	r4, [r4, #32]
 800c75a:	6323      	str	r3, [r4, #48]	; 0x30
 800c75c:	bd10      	pop	{r4, pc}
 800c75e:	bf00      	nop
 800c760:	08008c9d 	.word	0x08008c9d
 800c764:	08008cc3 	.word	0x08008cc3
 800c768:	08008cfb 	.word	0x08008cfb
 800c76c:	08008d1f 	.word	0x08008d1f

0800c770 <_cleanup_r>:
 800c770:	4901      	ldr	r1, [pc, #4]	; (800c778 <_cleanup_r+0x8>)
 800c772:	f000 b8c1 	b.w	800c8f8 <_fwalk_reent>
 800c776:	bf00      	nop
 800c778:	0800c6b1 	.word	0x0800c6b1

0800c77c <__sfmoreglue>:
 800c77c:	b570      	push	{r4, r5, r6, lr}
 800c77e:	1e4a      	subs	r2, r1, #1
 800c780:	2568      	movs	r5, #104	; 0x68
 800c782:	4355      	muls	r5, r2
 800c784:	460e      	mov	r6, r1
 800c786:	f105 0174 	add.w	r1, r5, #116	; 0x74
 800c78a:	f7ff f8ef 	bl	800b96c <_malloc_r>
 800c78e:	4604      	mov	r4, r0
 800c790:	b140      	cbz	r0, 800c7a4 <__sfmoreglue+0x28>
 800c792:	2100      	movs	r1, #0
 800c794:	e9c0 1600 	strd	r1, r6, [r0]
 800c798:	300c      	adds	r0, #12
 800c79a:	60a0      	str	r0, [r4, #8]
 800c79c:	f105 0268 	add.w	r2, r5, #104	; 0x68
 800c7a0:	f7fb fba8 	bl	8007ef4 <memset>
 800c7a4:	4620      	mov	r0, r4
 800c7a6:	bd70      	pop	{r4, r5, r6, pc}

0800c7a8 <__sfp_lock_acquire>:
 800c7a8:	4801      	ldr	r0, [pc, #4]	; (800c7b0 <__sfp_lock_acquire+0x8>)
 800c7aa:	f000 b8c5 	b.w	800c938 <__retarget_lock_acquire_recursive>
 800c7ae:	bf00      	nop
 800c7b0:	20001ff0 	.word	0x20001ff0

0800c7b4 <__sfp_lock_release>:
 800c7b4:	4801      	ldr	r0, [pc, #4]	; (800c7bc <__sfp_lock_release+0x8>)
 800c7b6:	f000 b8c0 	b.w	800c93a <__retarget_lock_release_recursive>
 800c7ba:	bf00      	nop
 800c7bc:	20001ff0 	.word	0x20001ff0

0800c7c0 <__sinit_lock_acquire>:
 800c7c0:	4801      	ldr	r0, [pc, #4]	; (800c7c8 <__sinit_lock_acquire+0x8>)
 800c7c2:	f000 b8b9 	b.w	800c938 <__retarget_lock_acquire_recursive>
 800c7c6:	bf00      	nop
 800c7c8:	20001feb 	.word	0x20001feb

0800c7cc <__sinit_lock_release>:
 800c7cc:	4801      	ldr	r0, [pc, #4]	; (800c7d4 <__sinit_lock_release+0x8>)
 800c7ce:	f000 b8b4 	b.w	800c93a <__retarget_lock_release_recursive>
 800c7d2:	bf00      	nop
 800c7d4:	20001feb 	.word	0x20001feb

0800c7d8 <__sinit>:
 800c7d8:	b510      	push	{r4, lr}
 800c7da:	4604      	mov	r4, r0
 800c7dc:	f7ff fff0 	bl	800c7c0 <__sinit_lock_acquire>
 800c7e0:	69a3      	ldr	r3, [r4, #24]
 800c7e2:	b11b      	cbz	r3, 800c7ec <__sinit+0x14>
 800c7e4:	e8bd 4010 	ldmia.w	sp!, {r4, lr}
 800c7e8:	f7ff bff0 	b.w	800c7cc <__sinit_lock_release>
 800c7ec:	e9c4 3312 	strd	r3, r3, [r4, #72]	; 0x48
 800c7f0:	6523      	str	r3, [r4, #80]	; 0x50
 800c7f2:	4b13      	ldr	r3, [pc, #76]	; (800c840 <__sinit+0x68>)
 800c7f4:	4a13      	ldr	r2, [pc, #76]	; (800c844 <__sinit+0x6c>)
 800c7f6:	681b      	ldr	r3, [r3, #0]
 800c7f8:	62a2      	str	r2, [r4, #40]	; 0x28
 800c7fa:	42a3      	cmp	r3, r4
 800c7fc:	bf04      	itt	eq
 800c7fe:	2301      	moveq	r3, #1
 800c800:	61a3      	streq	r3, [r4, #24]
 800c802:	4620      	mov	r0, r4
 800c804:	f000 f820 	bl	800c848 <__sfp>
 800c808:	6060      	str	r0, [r4, #4]
 800c80a:	4620      	mov	r0, r4
 800c80c:	f000 f81c 	bl	800c848 <__sfp>
 800c810:	60a0      	str	r0, [r4, #8]
 800c812:	4620      	mov	r0, r4
 800c814:	f000 f818 	bl	800c848 <__sfp>
 800c818:	2200      	movs	r2, #0
 800c81a:	60e0      	str	r0, [r4, #12]
 800c81c:	2104      	movs	r1, #4
 800c81e:	6860      	ldr	r0, [r4, #4]
 800c820:	f7ff ff82 	bl	800c728 <std>
 800c824:	68a0      	ldr	r0, [r4, #8]
 800c826:	2201      	movs	r2, #1
 800c828:	2109      	movs	r1, #9
 800c82a:	f7ff ff7d 	bl	800c728 <std>
 800c82e:	68e0      	ldr	r0, [r4, #12]
 800c830:	2202      	movs	r2, #2
 800c832:	2112      	movs	r1, #18
 800c834:	f7ff ff78 	bl	800c728 <std>
 800c838:	2301      	movs	r3, #1
 800c83a:	61a3      	str	r3, [r4, #24]
 800c83c:	e7d2      	b.n	800c7e4 <__sinit+0xc>
 800c83e:	bf00      	nop
 800c840:	0800e2f8 	.word	0x0800e2f8
 800c844:	0800c771 	.word	0x0800c771

0800c848 <__sfp>:
 800c848:	b5f8      	push	{r3, r4, r5, r6, r7, lr}
 800c84a:	4607      	mov	r7, r0
 800c84c:	f7ff ffac 	bl	800c7a8 <__sfp_lock_acquire>
 800c850:	4b1e      	ldr	r3, [pc, #120]	; (800c8cc <__sfp+0x84>)
 800c852:	681e      	ldr	r6, [r3, #0]
 800c854:	69b3      	ldr	r3, [r6, #24]
 800c856:	b913      	cbnz	r3, 800c85e <__sfp+0x16>
 800c858:	4630      	mov	r0, r6
 800c85a:	f7ff ffbd 	bl	800c7d8 <__sinit>
 800c85e:	3648      	adds	r6, #72	; 0x48
 800c860:	e9d6 3401 	ldrd	r3, r4, [r6, #4]
 800c864:	3b01      	subs	r3, #1
 800c866:	d503      	bpl.n	800c870 <__sfp+0x28>
 800c868:	6833      	ldr	r3, [r6, #0]
 800c86a:	b30b      	cbz	r3, 800c8b0 <__sfp+0x68>
 800c86c:	6836      	ldr	r6, [r6, #0]
 800c86e:	e7f7      	b.n	800c860 <__sfp+0x18>
 800c870:	f9b4 500c 	ldrsh.w	r5, [r4, #12]
 800c874:	b9d5      	cbnz	r5, 800c8ac <__sfp+0x64>
 800c876:	4b16      	ldr	r3, [pc, #88]	; (800c8d0 <__sfp+0x88>)
 800c878:	60e3      	str	r3, [r4, #12]
 800c87a:	f104 0058 	add.w	r0, r4, #88	; 0x58
 800c87e:	6665      	str	r5, [r4, #100]	; 0x64
 800c880:	f000 f859 	bl	800c936 <__retarget_lock_init_recursive>
 800c884:	f7ff ff96 	bl	800c7b4 <__sfp_lock_release>
 800c888:	e9c4 5501 	strd	r5, r5, [r4, #4]
 800c88c:	e9c4 5504 	strd	r5, r5, [r4, #16]
 800c890:	6025      	str	r5, [r4, #0]
 800c892:	61a5      	str	r5, [r4, #24]
 800c894:	2208      	movs	r2, #8
 800c896:	4629      	mov	r1, r5
 800c898:	f104 005c 	add.w	r0, r4, #92	; 0x5c
 800c89c:	f7fb fb2a 	bl	8007ef4 <memset>
 800c8a0:	e9c4 550d 	strd	r5, r5, [r4, #52]	; 0x34
 800c8a4:	e9c4 5512 	strd	r5, r5, [r4, #72]	; 0x48
 800c8a8:	4620      	mov	r0, r4
 800c8aa:	bdf8      	pop	{r3, r4, r5, r6, r7, pc}
 800c8ac:	3468      	adds	r4, #104	; 0x68
 800c8ae:	e7d9      	b.n	800c864 <__sfp+0x1c>
 800c8b0:	2104      	movs	r1, #4
 800c8b2:	4638      	mov	r0, r7
 800c8b4:	f7ff ff62 	bl	800c77c <__sfmoreglue>
 800c8b8:	4604      	mov	r4, r0
 800c8ba:	6030      	str	r0, [r6, #0]
 800c8bc:	2800      	cmp	r0, #0
 800c8be:	d1d5      	bne.n	800c86c <__sfp+0x24>
 800c8c0:	f7ff ff78 	bl	800c7b4 <__sfp_lock_release>
 800c8c4:	230c      	movs	r3, #12
 800c8c6:	603b      	str	r3, [r7, #0]
 800c8c8:	e7ee      	b.n	800c8a8 <__sfp+0x60>
 800c8ca:	bf00      	nop
 800c8cc:	0800e2f8 	.word	0x0800e2f8
 800c8d0:	ffff0001 	.word	0xffff0001

0800c8d4 <fiprintf>:
 800c8d4:	b40e      	push	{r1, r2, r3}
 800c8d6:	b503      	push	{r0, r1, lr}
 800c8d8:	4601      	mov	r1, r0
 800c8da:	ab03      	add	r3, sp, #12
 800c8dc:	4805      	ldr	r0, [pc, #20]	; (800c8f4 <fiprintf+0x20>)
 800c8de:	f853 2b04 	ldr.w	r2, [r3], #4
 800c8e2:	6800      	ldr	r0, [r0, #0]
 800c8e4:	9301      	str	r3, [sp, #4]
 800c8e6:	f000 f89f 	bl	800ca28 <_vfiprintf_r>
 800c8ea:	b002      	add	sp, #8
 800c8ec:	f85d eb04 	ldr.w	lr, [sp], #4
 800c8f0:	b003      	add	sp, #12
 800c8f2:	4770      	bx	lr
 800c8f4:	200001cc 	.word	0x200001cc

0800c8f8 <_fwalk_reent>:
 800c8f8:	e92d 43f8 	stmdb	sp!, {r3, r4, r5, r6, r7, r8, r9, lr}
 800c8fc:	4606      	mov	r6, r0
 800c8fe:	4688      	mov	r8, r1
 800c900:	f100 0448 	add.w	r4, r0, #72	; 0x48
 800c904:	2700      	movs	r7, #0
 800c906:	e9d4 9501 	ldrd	r9, r5, [r4, #4]
 800c90a:	f1b9 0901 	subs.w	r9, r9, #1
 800c90e:	d505      	bpl.n	800c91c <_fwalk_reent+0x24>
 800c910:	6824      	ldr	r4, [r4, #0]
 800c912:	2c00      	cmp	r4, #0
 800c914:	d1f7      	bne.n	800c906 <_fwalk_reent+0xe>
 800c916:	4638      	mov	r0, r7
 800c918:	e8bd 83f8 	ldmia.w	sp!, {r3, r4, r5, r6, r7, r8, r9, pc}
 800c91c:	89ab      	ldrh	r3, [r5, #12]
 800c91e:	2b01      	cmp	r3, #1
 800c920:	d907      	bls.n	800c932 <_fwalk_reent+0x3a>
 800c922:	f9b5 300e 	ldrsh.w	r3, [r5, #14]
 800c926:	3301      	adds	r3, #1
 800c928:	d003      	beq.n	800c932 <_fwalk_reent+0x3a>
 800c92a:	4629      	mov	r1, r5
 800c92c:	4630      	mov	r0, r6
 800c92e:	47c0      	blx	r8
 800c930:	4307      	orrs	r7, r0
 800c932:	3568      	adds	r5, #104	; 0x68
 800c934:	e7e9      	b.n	800c90a <_fwalk_reent+0x12>

0800c936 <__retarget_lock_init_recursive>:
 800c936:	4770      	bx	lr

0800c938 <__retarget_lock_acquire_recursive>:
 800c938:	4770      	bx	lr

0800c93a <__retarget_lock_release_recursive>:
 800c93a:	4770      	bx	lr

0800c93c <memmove>:
 800c93c:	4288      	cmp	r0, r1
 800c93e:	b510      	push	{r4, lr}
 800c940:	eb01 0402 	add.w	r4, r1, r2
 800c944:	d902      	bls.n	800c94c <memmove+0x10>
 800c946:	4284      	cmp	r4, r0
 800c948:	4623      	mov	r3, r4
 800c94a:	d807      	bhi.n	800c95c <memmove+0x20>
 800c94c:	1e43      	subs	r3, r0, #1
 800c94e:	42a1      	cmp	r1, r4
 800c950:	d008      	beq.n	800c964 <memmove+0x28>
 800c952:	f811 2b01 	ldrb.w	r2, [r1], #1
 800c956:	f803 2f01 	strb.w	r2, [r3, #1]!
 800c95a:	e7f8      	b.n	800c94e <memmove+0x12>
 800c95c:	4402      	add	r2, r0
 800c95e:	4601      	mov	r1, r0
 800c960:	428a      	cmp	r2, r1
 800c962:	d100      	bne.n	800c966 <memmove+0x2a>
 800c964:	bd10      	pop	{r4, pc}
 800c966:	f813 4d01 	ldrb.w	r4, [r3, #-1]!
 800c96a:	f802 4d01 	strb.w	r4, [r2, #-1]!
 800c96e:	e7f7      	b.n	800c960 <memmove+0x24>

0800c970 <__malloc_lock>:
 800c970:	4801      	ldr	r0, [pc, #4]	; (800c978 <__malloc_lock+0x8>)
 800c972:	f7ff bfe1 	b.w	800c938 <__retarget_lock_acquire_recursive>
 800c976:	bf00      	nop
 800c978:	20001fec 	.word	0x20001fec

0800c97c <__malloc_unlock>:
 800c97c:	4801      	ldr	r0, [pc, #4]	; (800c984 <__malloc_unlock+0x8>)
 800c97e:	f7ff bfdc 	b.w	800c93a <__retarget_lock_release_recursive>
 800c982:	bf00      	nop
 800c984:	20001fec 	.word	0x20001fec

0800c988 <_realloc_r>:
 800c988:	b5f8      	push	{r3, r4, r5, r6, r7, lr}
 800c98a:	4607      	mov	r7, r0
 800c98c:	4614      	mov	r4, r2
 800c98e:	460e      	mov	r6, r1
 800c990:	b921      	cbnz	r1, 800c99c <_realloc_r+0x14>
 800c992:	e8bd 40f8 	ldmia.w	sp!, {r3, r4, r5, r6, r7, lr}
 800c996:	4611      	mov	r1, r2
 800c998:	f7fe bfe8 	b.w	800b96c <_malloc_r>
 800c99c:	b922      	cbnz	r2, 800c9a8 <_realloc_r+0x20>
 800c99e:	f7fe ff95 	bl	800b8cc <_free_r>
 800c9a2:	4625      	mov	r5, r4
 800c9a4:	4628      	mov	r0, r5
 800c9a6:	bdf8      	pop	{r3, r4, r5, r6, r7, pc}
 800c9a8:	f000 fa9a 	bl	800cee0 <_malloc_usable_size_r>
 800c9ac:	42a0      	cmp	r0, r4
 800c9ae:	d20f      	bcs.n	800c9d0 <_realloc_r+0x48>
 800c9b0:	4621      	mov	r1, r4
 800c9b2:	4638      	mov	r0, r7
 800c9b4:	f7fe ffda 	bl	800b96c <_malloc_r>
 800c9b8:	4605      	mov	r5, r0
 800c9ba:	2800      	cmp	r0, #0
 800c9bc:	d0f2      	beq.n	800c9a4 <_realloc_r+0x1c>
 800c9be:	4631      	mov	r1, r6
 800c9c0:	4622      	mov	r2, r4
 800c9c2:	f7fb fa89 	bl	8007ed8 <memcpy>
 800c9c6:	4631      	mov	r1, r6
 800c9c8:	4638      	mov	r0, r7
 800c9ca:	f7fe ff7f 	bl	800b8cc <_free_r>
 800c9ce:	e7e9      	b.n	800c9a4 <_realloc_r+0x1c>
 800c9d0:	4635      	mov	r5, r6
 800c9d2:	e7e7      	b.n	800c9a4 <_realloc_r+0x1c>

0800c9d4 <__sfputc_r>:
 800c9d4:	6893      	ldr	r3, [r2, #8]
 800c9d6:	3b01      	subs	r3, #1
 800c9d8:	2b00      	cmp	r3, #0
 800c9da:	b410      	push	{r4}
 800c9dc:	6093      	str	r3, [r2, #8]
 800c9de:	da08      	bge.n	800c9f2 <__sfputc_r+0x1e>
 800c9e0:	6994      	ldr	r4, [r2, #24]
 800c9e2:	42a3      	cmp	r3, r4
 800c9e4:	db01      	blt.n	800c9ea <__sfputc_r+0x16>
 800c9e6:	290a      	cmp	r1, #10
 800c9e8:	d103      	bne.n	800c9f2 <__sfputc_r+0x1e>
 800c9ea:	f85d 4b04 	ldr.w	r4, [sp], #4
 800c9ee:	f000 b94b 	b.w	800cc88 <__swbuf_r>
 800c9f2:	6813      	ldr	r3, [r2, #0]
 800c9f4:	1c58      	adds	r0, r3, #1
 800c9f6:	6010      	str	r0, [r2, #0]
 800c9f8:	7019      	strb	r1, [r3, #0]
 800c9fa:	4608      	mov	r0, r1
 800c9fc:	f85d 4b04 	ldr.w	r4, [sp], #4
 800ca00:	4770      	bx	lr

0800ca02 <__sfputs_r>:
 800ca02:	b5f8      	push	{r3, r4, r5, r6, r7, lr}
 800ca04:	4606      	mov	r6, r0
 800ca06:	460f      	mov	r7, r1
 800ca08:	4614      	mov	r4, r2
 800ca0a:	18d5      	adds	r5, r2, r3
 800ca0c:	42ac      	cmp	r4, r5
 800ca0e:	d101      	bne.n	800ca14 <__sfputs_r+0x12>
 800ca10:	2000      	movs	r0, #0
 800ca12:	e007      	b.n	800ca24 <__sfputs_r+0x22>
 800ca14:	f814 1b01 	ldrb.w	r1, [r4], #1
 800ca18:	463a      	mov	r2, r7
 800ca1a:	4630      	mov	r0, r6
 800ca1c:	f7ff ffda 	bl	800c9d4 <__sfputc_r>
 800ca20:	1c43      	adds	r3, r0, #1
 800ca22:	d1f3      	bne.n	800ca0c <__sfputs_r+0xa>
 800ca24:	bdf8      	pop	{r3, r4, r5, r6, r7, pc}
	...

0800ca28 <_vfiprintf_r>:
 800ca28:	e92d 4ff0 	stmdb	sp!, {r4, r5, r6, r7, r8, r9, sl, fp, lr}
 800ca2c:	460d      	mov	r5, r1
 800ca2e:	b09d      	sub	sp, #116	; 0x74
 800ca30:	4614      	mov	r4, r2
 800ca32:	4698      	mov	r8, r3
 800ca34:	4606      	mov	r6, r0
 800ca36:	b118      	cbz	r0, 800ca40 <_vfiprintf_r+0x18>
 800ca38:	6983      	ldr	r3, [r0, #24]
 800ca3a:	b90b      	cbnz	r3, 800ca40 <_vfiprintf_r+0x18>
 800ca3c:	f7ff fecc 	bl	800c7d8 <__sinit>
 800ca40:	4b89      	ldr	r3, [pc, #548]	; (800cc68 <_vfiprintf_r+0x240>)
 800ca42:	429d      	cmp	r5, r3
 800ca44:	d11b      	bne.n	800ca7e <_vfiprintf_r+0x56>
 800ca46:	6875      	ldr	r5, [r6, #4]
 800ca48:	6e6b      	ldr	r3, [r5, #100]	; 0x64
 800ca4a:	07d9      	lsls	r1, r3, #31
 800ca4c:	d405      	bmi.n	800ca5a <_vfiprintf_r+0x32>
 800ca4e:	89ab      	ldrh	r3, [r5, #12]
 800ca50:	059a      	lsls	r2, r3, #22
 800ca52:	d402      	bmi.n	800ca5a <_vfiprintf_r+0x32>
 800ca54:	6da8      	ldr	r0, [r5, #88]	; 0x58
 800ca56:	f7ff ff6f 	bl	800c938 <__retarget_lock_acquire_recursive>
 800ca5a:	89ab      	ldrh	r3, [r5, #12]
 800ca5c:	071b      	lsls	r3, r3, #28
 800ca5e:	d501      	bpl.n	800ca64 <_vfiprintf_r+0x3c>
 800ca60:	692b      	ldr	r3, [r5, #16]
 800ca62:	b9eb      	cbnz	r3, 800caa0 <_vfiprintf_r+0x78>
 800ca64:	4629      	mov	r1, r5
 800ca66:	4630      	mov	r0, r6
 800ca68:	f000 f960 	bl	800cd2c <__swsetup_r>
 800ca6c:	b1c0      	cbz	r0, 800caa0 <_vfiprintf_r+0x78>
 800ca6e:	6e6b      	ldr	r3, [r5, #100]	; 0x64
 800ca70:	07dc      	lsls	r4, r3, #31
 800ca72:	d50e      	bpl.n	800ca92 <_vfiprintf_r+0x6a>
 800ca74:	f04f 30ff 	mov.w	r0, #4294967295
 800ca78:	b01d      	add	sp, #116	; 0x74
 800ca7a:	e8bd 8ff0 	ldmia.w	sp!, {r4, r5, r6, r7, r8, r9, sl, fp, pc}
 800ca7e:	4b7b      	ldr	r3, [pc, #492]	; (800cc6c <_vfiprintf_r+0x244>)
 800ca80:	429d      	cmp	r5, r3
 800ca82:	d101      	bne.n	800ca88 <_vfiprintf_r+0x60>
 800ca84:	68b5      	ldr	r5, [r6, #8]
 800ca86:	e7df      	b.n	800ca48 <_vfiprintf_r+0x20>
 800ca88:	4b79      	ldr	r3, [pc, #484]	; (800cc70 <_vfiprintf_r+0x248>)
 800ca8a:	429d      	cmp	r5, r3
 800ca8c:	bf08      	it	eq
 800ca8e:	68f5      	ldreq	r5, [r6, #12]
 800ca90:	e7da      	b.n	800ca48 <_vfiprintf_r+0x20>
 800ca92:	89ab      	ldrh	r3, [r5, #12]
 800ca94:	0598      	lsls	r0, r3, #22
 800ca96:	d4ed      	bmi.n	800ca74 <_vfiprintf_r+0x4c>
 800ca98:	6da8      	ldr	r0, [r5, #88]	; 0x58
 800ca9a:	f7ff ff4e 	bl	800c93a <__retarget_lock_release_recursive>
 800ca9e:	e7e9      	b.n	800ca74 <_vfiprintf_r+0x4c>
 800caa0:	2300      	movs	r3, #0
 800caa2:	9309      	str	r3, [sp, #36]	; 0x24
 800caa4:	2320      	movs	r3, #32
 800caa6:	f88d 3029 	strb.w	r3, [sp, #41]	; 0x29
 800caaa:	f8cd 800c 	str.w	r8, [sp, #12]
 800caae:	2330      	movs	r3, #48	; 0x30
 800cab0:	f8df 81c0 	ldr.w	r8, [pc, #448]	; 800cc74 <_vfiprintf_r+0x24c>
 800cab4:	f88d 302a 	strb.w	r3, [sp, #42]	; 0x2a
 800cab8:	f04f 0901 	mov.w	r9, #1
 800cabc:	4623      	mov	r3, r4
 800cabe:	469a      	mov	sl, r3
 800cac0:	f813 2b01 	ldrb.w	r2, [r3], #1
 800cac4:	b10a      	cbz	r2, 800caca <_vfiprintf_r+0xa2>
 800cac6:	2a25      	cmp	r2, #37	; 0x25
 800cac8:	d1f9      	bne.n	800cabe <_vfiprintf_r+0x96>
 800caca:	ebba 0b04 	subs.w	fp, sl, r4
 800cace:	d00b      	beq.n	800cae8 <_vfiprintf_r+0xc0>
 800cad0:	465b      	mov	r3, fp
 800cad2:	4622      	mov	r2, r4
 800cad4:	4629      	mov	r1, r5
 800cad6:	4630      	mov	r0, r6
 800cad8:	f7ff ff93 	bl	800ca02 <__sfputs_r>
 800cadc:	3001      	adds	r0, #1
 800cade:	f000 80aa 	beq.w	800cc36 <_vfiprintf_r+0x20e>
 800cae2:	9a09      	ldr	r2, [sp, #36]	; 0x24
 800cae4:	445a      	add	r2, fp
 800cae6:	9209      	str	r2, [sp, #36]	; 0x24
 800cae8:	f89a 3000 	ldrb.w	r3, [sl]
 800caec:	2b00      	cmp	r3, #0
 800caee:	f000 80a2 	beq.w	800cc36 <_vfiprintf_r+0x20e>
 800caf2:	2300      	movs	r3, #0
 800caf4:	f04f 32ff 	mov.w	r2, #4294967295
 800caf8:	e9cd 2305 	strd	r2, r3, [sp, #20]
 800cafc:	f10a 0a01 	add.w	sl, sl, #1
 800cb00:	9304      	str	r3, [sp, #16]
 800cb02:	9307      	str	r3, [sp, #28]
 800cb04:	f88d 3053 	strb.w	r3, [sp, #83]	; 0x53
 800cb08:	931a      	str	r3, [sp, #104]	; 0x68
 800cb0a:	4654      	mov	r4, sl
 800cb0c:	2205      	movs	r2, #5
 800cb0e:	f814 1b01 	ldrb.w	r1, [r4], #1
 800cb12:	4858      	ldr	r0, [pc, #352]	; (800cc74 <_vfiprintf_r+0x24c>)
 800cb14:	f7f3 fb74 	bl	8000200 <memchr>
 800cb18:	9a04      	ldr	r2, [sp, #16]
 800cb1a:	b9d8      	cbnz	r0, 800cb54 <_vfiprintf_r+0x12c>
 800cb1c:	06d1      	lsls	r1, r2, #27
 800cb1e:	bf44      	itt	mi
 800cb20:	2320      	movmi	r3, #32
 800cb22:	f88d 3053 	strbmi.w	r3, [sp, #83]	; 0x53
 800cb26:	0713      	lsls	r3, r2, #28
 800cb28:	bf44      	itt	mi
 800cb2a:	232b      	movmi	r3, #43	; 0x2b
 800cb2c:	f88d 3053 	strbmi.w	r3, [sp, #83]	; 0x53
 800cb30:	f89a 3000 	ldrb.w	r3, [sl]
 800cb34:	2b2a      	cmp	r3, #42	; 0x2a
 800cb36:	d015      	beq.n	800cb64 <_vfiprintf_r+0x13c>
 800cb38:	9a07      	ldr	r2, [sp, #28]
 800cb3a:	4654      	mov	r4, sl
 800cb3c:	2000      	movs	r0, #0
 800cb3e:	f04f 0c0a 	mov.w	ip, #10
 800cb42:	4621      	mov	r1, r4
 800cb44:	f811 3b01 	ldrb.w	r3, [r1], #1
 800cb48:	3b30      	subs	r3, #48	; 0x30
 800cb4a:	2b09      	cmp	r3, #9
 800cb4c:	d94e      	bls.n	800cbec <_vfiprintf_r+0x1c4>
 800cb4e:	b1b0      	cbz	r0, 800cb7e <_vfiprintf_r+0x156>
 800cb50:	9207      	str	r2, [sp, #28]
 800cb52:	e014      	b.n	800cb7e <_vfiprintf_r+0x156>
 800cb54:	eba0 0308 	sub.w	r3, r0, r8
 800cb58:	fa09 f303 	lsl.w	r3, r9, r3
 800cb5c:	4313      	orrs	r3, r2
 800cb5e:	9304      	str	r3, [sp, #16]
 800cb60:	46a2      	mov	sl, r4
 800cb62:	e7d2      	b.n	800cb0a <_vfiprintf_r+0xe2>
 800cb64:	9b03      	ldr	r3, [sp, #12]
 800cb66:	1d19      	adds	r1, r3, #4
 800cb68:	681b      	ldr	r3, [r3, #0]
 800cb6a:	9103      	str	r1, [sp, #12]
 800cb6c:	2b00      	cmp	r3, #0
 800cb6e:	bfbb      	ittet	lt
 800cb70:	425b      	neglt	r3, r3
 800cb72:	f042 0202 	orrlt.w	r2, r2, #2
 800cb76:	9307      	strge	r3, [sp, #28]
 800cb78:	9307      	strlt	r3, [sp, #28]
 800cb7a:	bfb8      	it	lt
 800cb7c:	9204      	strlt	r2, [sp, #16]
 800cb7e:	7823      	ldrb	r3, [r4, #0]
 800cb80:	2b2e      	cmp	r3, #46	; 0x2e
 800cb82:	d10c      	bne.n	800cb9e <_vfiprintf_r+0x176>
 800cb84:	7863      	ldrb	r3, [r4, #1]
 800cb86:	2b2a      	cmp	r3, #42	; 0x2a
 800cb88:	d135      	bne.n	800cbf6 <_vfiprintf_r+0x1ce>
 800cb8a:	9b03      	ldr	r3, [sp, #12]
 800cb8c:	1d1a      	adds	r2, r3, #4
 800cb8e:	681b      	ldr	r3, [r3, #0]
 800cb90:	9203      	str	r2, [sp, #12]
 800cb92:	2b00      	cmp	r3, #0
 800cb94:	bfb8      	it	lt
 800cb96:	f04f 33ff 	movlt.w	r3, #4294967295
 800cb9a:	3402      	adds	r4, #2
 800cb9c:	9305      	str	r3, [sp, #20]
 800cb9e:	f8df a0e4 	ldr.w	sl, [pc, #228]	; 800cc84 <_vfiprintf_r+0x25c>
 800cba2:	7821      	ldrb	r1, [r4, #0]
 800cba4:	2203      	movs	r2, #3
 800cba6:	4650      	mov	r0, sl
 800cba8:	f7f3 fb2a 	bl	8000200 <memchr>
 800cbac:	b140      	cbz	r0, 800cbc0 <_vfiprintf_r+0x198>
 800cbae:	2340      	movs	r3, #64	; 0x40
 800cbb0:	eba0 000a 	sub.w	r0, r0, sl
 800cbb4:	fa03 f000 	lsl.w	r0, r3, r0
 800cbb8:	9b04      	ldr	r3, [sp, #16]
 800cbba:	4303      	orrs	r3, r0
 800cbbc:	3401      	adds	r4, #1
 800cbbe:	9304      	str	r3, [sp, #16]
 800cbc0:	f814 1b01 	ldrb.w	r1, [r4], #1
 800cbc4:	482c      	ldr	r0, [pc, #176]	; (800cc78 <_vfiprintf_r+0x250>)
 800cbc6:	f88d 1028 	strb.w	r1, [sp, #40]	; 0x28
 800cbca:	2206      	movs	r2, #6
 800cbcc:	f7f3 fb18 	bl	8000200 <memchr>
 800cbd0:	2800      	cmp	r0, #0
 800cbd2:	d03f      	beq.n	800cc54 <_vfiprintf_r+0x22c>
 800cbd4:	4b29      	ldr	r3, [pc, #164]	; (800cc7c <_vfiprintf_r+0x254>)
 800cbd6:	bb1b      	cbnz	r3, 800cc20 <_vfiprintf_r+0x1f8>
 800cbd8:	9b03      	ldr	r3, [sp, #12]
 800cbda:	3307      	adds	r3, #7
 800cbdc:	f023 0307 	bic.w	r3, r3, #7
 800cbe0:	3308      	adds	r3, #8
 800cbe2:	9303      	str	r3, [sp, #12]
 800cbe4:	9b09      	ldr	r3, [sp, #36]	; 0x24
 800cbe6:	443b      	add	r3, r7
 800cbe8:	9309      	str	r3, [sp, #36]	; 0x24
 800cbea:	e767      	b.n	800cabc <_vfiprintf_r+0x94>
 800cbec:	fb0c 3202 	mla	r2, ip, r2, r3
 800cbf0:	460c      	mov	r4, r1
 800cbf2:	2001      	movs	r0, #1
 800cbf4:	e7a5      	b.n	800cb42 <_vfiprintf_r+0x11a>
 800cbf6:	2300      	movs	r3, #0
 800cbf8:	3401      	adds	r4, #1
 800cbfa:	9305      	str	r3, [sp, #20]
 800cbfc:	4619      	mov	r1, r3
 800cbfe:	f04f 0c0a 	mov.w	ip, #10
 800cc02:	4620      	mov	r0, r4
 800cc04:	f810 2b01 	ldrb.w	r2, [r0], #1
 800cc08:	3a30      	subs	r2, #48	; 0x30
 800cc0a:	2a09      	cmp	r2, #9
 800cc0c:	d903      	bls.n	800cc16 <_vfiprintf_r+0x1ee>
 800cc0e:	2b00      	cmp	r3, #0
 800cc10:	d0c5      	beq.n	800cb9e <_vfiprintf_r+0x176>
 800cc12:	9105      	str	r1, [sp, #20]
 800cc14:	e7c3      	b.n	800cb9e <_vfiprintf_r+0x176>
 800cc16:	fb0c 2101 	mla	r1, ip, r1, r2
 800cc1a:	4604      	mov	r4, r0
 800cc1c:	2301      	movs	r3, #1
 800cc1e:	e7f0      	b.n	800cc02 <_vfiprintf_r+0x1da>
 800cc20:	ab03      	add	r3, sp, #12
 800cc22:	9300      	str	r3, [sp, #0]
 800cc24:	462a      	mov	r2, r5
 800cc26:	4b16      	ldr	r3, [pc, #88]	; (800cc80 <_vfiprintf_r+0x258>)
 800cc28:	a904      	add	r1, sp, #16
 800cc2a:	4630      	mov	r0, r6
 800cc2c:	f7fb fa0a 	bl	8008044 <_printf_float>
 800cc30:	4607      	mov	r7, r0
 800cc32:	1c78      	adds	r0, r7, #1
 800cc34:	d1d6      	bne.n	800cbe4 <_vfiprintf_r+0x1bc>
 800cc36:	6e6b      	ldr	r3, [r5, #100]	; 0x64
 800cc38:	07d9      	lsls	r1, r3, #31
 800cc3a:	d405      	bmi.n	800cc48 <_vfiprintf_r+0x220>
 800cc3c:	89ab      	ldrh	r3, [r5, #12]
 800cc3e:	059a      	lsls	r2, r3, #22
 800cc40:	d402      	bmi.n	800cc48 <_vfiprintf_r+0x220>
 800cc42:	6da8      	ldr	r0, [r5, #88]	; 0x58
 800cc44:	f7ff fe79 	bl	800c93a <__retarget_lock_release_recursive>
 800cc48:	89ab      	ldrh	r3, [r5, #12]
 800cc4a:	065b      	lsls	r3, r3, #25
 800cc4c:	f53f af12 	bmi.w	800ca74 <_vfiprintf_r+0x4c>
 800cc50:	9809      	ldr	r0, [sp, #36]	; 0x24
 800cc52:	e711      	b.n	800ca78 <_vfiprintf_r+0x50>
 800cc54:	ab03      	add	r3, sp, #12
 800cc56:	9300      	str	r3, [sp, #0]
 800cc58:	462a      	mov	r2, r5
 800cc5a:	4b09      	ldr	r3, [pc, #36]	; (800cc80 <_vfiprintf_r+0x258>)
 800cc5c:	a904      	add	r1, sp, #16
 800cc5e:	4630      	mov	r0, r6
 800cc60:	f7fb fc94 	bl	800858c <_printf_i>
 800cc64:	e7e4      	b.n	800cc30 <_vfiprintf_r+0x208>
 800cc66:	bf00      	nop
 800cc68:	0800e684 	.word	0x0800e684
 800cc6c:	0800e6a4 	.word	0x0800e6a4
 800cc70:	0800e664 	.word	0x0800e664
 800cc74:	0800e5fc 	.word	0x0800e5fc
 800cc78:	0800e606 	.word	0x0800e606
 800cc7c:	08008045 	.word	0x08008045
 800cc80:	0800ca03 	.word	0x0800ca03
 800cc84:	0800e602 	.word	0x0800e602

0800cc88 <__swbuf_r>:
 800cc88:	b5f8      	push	{r3, r4, r5, r6, r7, lr}
 800cc8a:	460e      	mov	r6, r1
 800cc8c:	4614      	mov	r4, r2
 800cc8e:	4605      	mov	r5, r0
 800cc90:	b118      	cbz	r0, 800cc9a <__swbuf_r+0x12>
 800cc92:	6983      	ldr	r3, [r0, #24]
 800cc94:	b90b      	cbnz	r3, 800cc9a <__swbuf_r+0x12>
 800cc96:	f7ff fd9f 	bl	800c7d8 <__sinit>
 800cc9a:	4b21      	ldr	r3, [pc, #132]	; (800cd20 <__swbuf_r+0x98>)
 800cc9c:	429c      	cmp	r4, r3
 800cc9e:	d12b      	bne.n	800ccf8 <__swbuf_r+0x70>
 800cca0:	686c      	ldr	r4, [r5, #4]
 800cca2:	69a3      	ldr	r3, [r4, #24]
 800cca4:	60a3      	str	r3, [r4, #8]
 800cca6:	89a3      	ldrh	r3, [r4, #12]
 800cca8:	071a      	lsls	r2, r3, #28
 800ccaa:	d52f      	bpl.n	800cd0c <__swbuf_r+0x84>
 800ccac:	6923      	ldr	r3, [r4, #16]
 800ccae:	b36b      	cbz	r3, 800cd0c <__swbuf_r+0x84>
 800ccb0:	6923      	ldr	r3, [r4, #16]
 800ccb2:	6820      	ldr	r0, [r4, #0]
 800ccb4:	1ac0      	subs	r0, r0, r3
 800ccb6:	6963      	ldr	r3, [r4, #20]
 800ccb8:	b2f6      	uxtb	r6, r6
 800ccba:	4283      	cmp	r3, r0
 800ccbc:	4637      	mov	r7, r6
 800ccbe:	dc04      	bgt.n	800ccca <__swbuf_r+0x42>
 800ccc0:	4621      	mov	r1, r4
 800ccc2:	4628      	mov	r0, r5
 800ccc4:	f7ff fcf4 	bl	800c6b0 <_fflush_r>
 800ccc8:	bb30      	cbnz	r0, 800cd18 <__swbuf_r+0x90>
 800ccca:	68a3      	ldr	r3, [r4, #8]
 800cccc:	3b01      	subs	r3, #1
 800ccce:	60a3      	str	r3, [r4, #8]
 800ccd0:	6823      	ldr	r3, [r4, #0]
 800ccd2:	1c5a      	adds	r2, r3, #1
 800ccd4:	6022      	str	r2, [r4, #0]
 800ccd6:	701e      	strb	r6, [r3, #0]
 800ccd8:	6963      	ldr	r3, [r4, #20]
 800ccda:	3001      	adds	r0, #1
 800ccdc:	4283      	cmp	r3, r0
 800ccde:	d004      	beq.n	800ccea <__swbuf_r+0x62>
 800cce0:	89a3      	ldrh	r3, [r4, #12]
 800cce2:	07db      	lsls	r3, r3, #31
 800cce4:	d506      	bpl.n	800ccf4 <__swbuf_r+0x6c>
 800cce6:	2e0a      	cmp	r6, #10
 800cce8:	d104      	bne.n	800ccf4 <__swbuf_r+0x6c>
 800ccea:	4621      	mov	r1, r4
 800ccec:	4628      	mov	r0, r5
 800ccee:	f7ff fcdf 	bl	800c6b0 <_fflush_r>
 800ccf2:	b988      	cbnz	r0, 800cd18 <__swbuf_r+0x90>
 800ccf4:	4638      	mov	r0, r7
 800ccf6:	bdf8      	pop	{r3, r4, r5, r6, r7, pc}
 800ccf8:	4b0a      	ldr	r3, [pc, #40]	; (800cd24 <__swbuf_r+0x9c>)
 800ccfa:	429c      	cmp	r4, r3
 800ccfc:	d101      	bne.n	800cd02 <__swbuf_r+0x7a>
 800ccfe:	68ac      	ldr	r4, [r5, #8]
 800cd00:	e7cf      	b.n	800cca2 <__swbuf_r+0x1a>
 800cd02:	4b09      	ldr	r3, [pc, #36]	; (800cd28 <__swbuf_r+0xa0>)
 800cd04:	429c      	cmp	r4, r3
 800cd06:	bf08      	it	eq
 800cd08:	68ec      	ldreq	r4, [r5, #12]
 800cd0a:	e7ca      	b.n	800cca2 <__swbuf_r+0x1a>
 800cd0c:	4621      	mov	r1, r4
 800cd0e:	4628      	mov	r0, r5
 800cd10:	f000 f80c 	bl	800cd2c <__swsetup_r>
 800cd14:	2800      	cmp	r0, #0
 800cd16:	d0cb      	beq.n	800ccb0 <__swbuf_r+0x28>
 800cd18:	f04f 37ff 	mov.w	r7, #4294967295
 800cd1c:	e7ea      	b.n	800ccf4 <__swbuf_r+0x6c>
 800cd1e:	bf00      	nop
 800cd20:	0800e684 	.word	0x0800e684
 800cd24:	0800e6a4 	.word	0x0800e6a4
 800cd28:	0800e664 	.word	0x0800e664

0800cd2c <__swsetup_r>:
 800cd2c:	4b32      	ldr	r3, [pc, #200]	; (800cdf8 <__swsetup_r+0xcc>)
 800cd2e:	b570      	push	{r4, r5, r6, lr}
 800cd30:	681d      	ldr	r5, [r3, #0]
 800cd32:	4606      	mov	r6, r0
 800cd34:	460c      	mov	r4, r1
 800cd36:	b125      	cbz	r5, 800cd42 <__swsetup_r+0x16>
 800cd38:	69ab      	ldr	r3, [r5, #24]
 800cd3a:	b913      	cbnz	r3, 800cd42 <__swsetup_r+0x16>
 800cd3c:	4628      	mov	r0, r5
 800cd3e:	f7ff fd4b 	bl	800c7d8 <__sinit>
 800cd42:	4b2e      	ldr	r3, [pc, #184]	; (800cdfc <__swsetup_r+0xd0>)
 800cd44:	429c      	cmp	r4, r3
 800cd46:	d10f      	bne.n	800cd68 <__swsetup_r+0x3c>
 800cd48:	686c      	ldr	r4, [r5, #4]
 800cd4a:	89a3      	ldrh	r3, [r4, #12]
 800cd4c:	f9b4 200c 	ldrsh.w	r2, [r4, #12]
 800cd50:	0719      	lsls	r1, r3, #28
 800cd52:	d42c      	bmi.n	800cdae <__swsetup_r+0x82>
 800cd54:	06dd      	lsls	r5, r3, #27
 800cd56:	d411      	bmi.n	800cd7c <__swsetup_r+0x50>
 800cd58:	2309      	movs	r3, #9
 800cd5a:	6033      	str	r3, [r6, #0]
 800cd5c:	f042 0340 	orr.w	r3, r2, #64	; 0x40
 800cd60:	81a3      	strh	r3, [r4, #12]
 800cd62:	f04f 30ff 	mov.w	r0, #4294967295
 800cd66:	e03e      	b.n	800cde6 <__swsetup_r+0xba>
 800cd68:	4b25      	ldr	r3, [pc, #148]	; (800ce00 <__swsetup_r+0xd4>)
 800cd6a:	429c      	cmp	r4, r3
 800cd6c:	d101      	bne.n	800cd72 <__swsetup_r+0x46>
 800cd6e:	68ac      	ldr	r4, [r5, #8]
 800cd70:	e7eb      	b.n	800cd4a <__swsetup_r+0x1e>
 800cd72:	4b24      	ldr	r3, [pc, #144]	; (800ce04 <__swsetup_r+0xd8>)
 800cd74:	429c      	cmp	r4, r3
 800cd76:	bf08      	it	eq
 800cd78:	68ec      	ldreq	r4, [r5, #12]
 800cd7a:	e7e6      	b.n	800cd4a <__swsetup_r+0x1e>
 800cd7c:	0758      	lsls	r0, r3, #29
 800cd7e:	d512      	bpl.n	800cda6 <__swsetup_r+0x7a>
 800cd80:	6b61      	ldr	r1, [r4, #52]	; 0x34
 800cd82:	b141      	cbz	r1, 800cd96 <__swsetup_r+0x6a>
 800cd84:	f104 0344 	add.w	r3, r4, #68	; 0x44
 800cd88:	4299      	cmp	r1, r3
 800cd8a:	d002      	beq.n	800cd92 <__swsetup_r+0x66>
 800cd8c:	4630      	mov	r0, r6
 800cd8e:	f7fe fd9d 	bl	800b8cc <_free_r>
 800cd92:	2300      	movs	r3, #0
 800cd94:	6363      	str	r3, [r4, #52]	; 0x34
 800cd96:	89a3      	ldrh	r3, [r4, #12]
 800cd98:	f023 0324 	bic.w	r3, r3, #36	; 0x24
 800cd9c:	81a3      	strh	r3, [r4, #12]
 800cd9e:	2300      	movs	r3, #0
 800cda0:	6063      	str	r3, [r4, #4]
 800cda2:	6923      	ldr	r3, [r4, #16]
 800cda4:	6023      	str	r3, [r4, #0]
 800cda6:	89a3      	ldrh	r3, [r4, #12]
 800cda8:	f043 0308 	orr.w	r3, r3, #8
 800cdac:	81a3      	strh	r3, [r4, #12]
 800cdae:	6923      	ldr	r3, [r4, #16]
 800cdb0:	b94b      	cbnz	r3, 800cdc6 <__swsetup_r+0x9a>
 800cdb2:	89a3      	ldrh	r3, [r4, #12]
 800cdb4:	f403 7320 	and.w	r3, r3, #640	; 0x280
 800cdb8:	f5b3 7f00 	cmp.w	r3, #512	; 0x200
 800cdbc:	d003      	beq.n	800cdc6 <__swsetup_r+0x9a>
 800cdbe:	4621      	mov	r1, r4
 800cdc0:	4630      	mov	r0, r6
 800cdc2:	f000 f84d 	bl	800ce60 <__smakebuf_r>
 800cdc6:	89a0      	ldrh	r0, [r4, #12]
 800cdc8:	f9b4 200c 	ldrsh.w	r2, [r4, #12]
 800cdcc:	f010 0301 	ands.w	r3, r0, #1
 800cdd0:	d00a      	beq.n	800cde8 <__swsetup_r+0xbc>
 800cdd2:	2300      	movs	r3, #0
 800cdd4:	60a3      	str	r3, [r4, #8]
 800cdd6:	6963      	ldr	r3, [r4, #20]
 800cdd8:	425b      	negs	r3, r3
 800cdda:	61a3      	str	r3, [r4, #24]
 800cddc:	6923      	ldr	r3, [r4, #16]
 800cdde:	b943      	cbnz	r3, 800cdf2 <__swsetup_r+0xc6>
 800cde0:	f010 0080 	ands.w	r0, r0, #128	; 0x80
 800cde4:	d1ba      	bne.n	800cd5c <__swsetup_r+0x30>
 800cde6:	bd70      	pop	{r4, r5, r6, pc}
 800cde8:	0781      	lsls	r1, r0, #30
 800cdea:	bf58      	it	pl
 800cdec:	6963      	ldrpl	r3, [r4, #20]
 800cdee:	60a3      	str	r3, [r4, #8]
 800cdf0:	e7f4      	b.n	800cddc <__swsetup_r+0xb0>
 800cdf2:	2000      	movs	r0, #0
 800cdf4:	e7f7      	b.n	800cde6 <__swsetup_r+0xba>
 800cdf6:	bf00      	nop
 800cdf8:	200001cc 	.word	0x200001cc
 800cdfc:	0800e684 	.word	0x0800e684
 800ce00:	0800e6a4 	.word	0x0800e6a4
 800ce04:	0800e664 	.word	0x0800e664

0800ce08 <abort>:
 800ce08:	b508      	push	{r3, lr}
 800ce0a:	2006      	movs	r0, #6
 800ce0c:	f000 f898 	bl	800cf40 <raise>
 800ce10:	2001      	movs	r0, #1
 800ce12:	f7f7 fa9f 	bl	8004354 <_exit>

0800ce16 <__swhatbuf_r>:
 800ce16:	b570      	push	{r4, r5, r6, lr}
 800ce18:	460e      	mov	r6, r1
 800ce1a:	f9b1 100e 	ldrsh.w	r1, [r1, #14]
 800ce1e:	2900      	cmp	r1, #0
 800ce20:	b096      	sub	sp, #88	; 0x58
 800ce22:	4614      	mov	r4, r2
 800ce24:	461d      	mov	r5, r3
 800ce26:	da07      	bge.n	800ce38 <__swhatbuf_r+0x22>
 800ce28:	2300      	movs	r3, #0
 800ce2a:	602b      	str	r3, [r5, #0]
 800ce2c:	89b3      	ldrh	r3, [r6, #12]
 800ce2e:	061a      	lsls	r2, r3, #24
 800ce30:	d410      	bmi.n	800ce54 <__swhatbuf_r+0x3e>
 800ce32:	f44f 6380 	mov.w	r3, #1024	; 0x400
 800ce36:	e00e      	b.n	800ce56 <__swhatbuf_r+0x40>
 800ce38:	466a      	mov	r2, sp
 800ce3a:	f000 f89d 	bl	800cf78 <_fstat_r>
 800ce3e:	2800      	cmp	r0, #0
 800ce40:	dbf2      	blt.n	800ce28 <__swhatbuf_r+0x12>
 800ce42:	9a01      	ldr	r2, [sp, #4]
 800ce44:	f402 4270 	and.w	r2, r2, #61440	; 0xf000
 800ce48:	f5a2 5300 	sub.w	r3, r2, #8192	; 0x2000
 800ce4c:	425a      	negs	r2, r3
 800ce4e:	415a      	adcs	r2, r3
 800ce50:	602a      	str	r2, [r5, #0]
 800ce52:	e7ee      	b.n	800ce32 <__swhatbuf_r+0x1c>
 800ce54:	2340      	movs	r3, #64	; 0x40
 800ce56:	2000      	movs	r0, #0
 800ce58:	6023      	str	r3, [r4, #0]
 800ce5a:	b016      	add	sp, #88	; 0x58
 800ce5c:	bd70      	pop	{r4, r5, r6, pc}
	...

0800ce60 <__smakebuf_r>:
 800ce60:	898b      	ldrh	r3, [r1, #12]
 800ce62:	b573      	push	{r0, r1, r4, r5, r6, lr}
 800ce64:	079d      	lsls	r5, r3, #30
 800ce66:	4606      	mov	r6, r0
 800ce68:	460c      	mov	r4, r1
 800ce6a:	d507      	bpl.n	800ce7c <__smakebuf_r+0x1c>
 800ce6c:	f104 0347 	add.w	r3, r4, #71	; 0x47
 800ce70:	6023      	str	r3, [r4, #0]
 800ce72:	6123      	str	r3, [r4, #16]
 800ce74:	2301      	movs	r3, #1
 800ce76:	6163      	str	r3, [r4, #20]
 800ce78:	b002      	add	sp, #8
 800ce7a:	bd70      	pop	{r4, r5, r6, pc}
 800ce7c:	ab01      	add	r3, sp, #4
 800ce7e:	466a      	mov	r2, sp
 800ce80:	f7ff ffc9 	bl	800ce16 <__swhatbuf_r>
 800ce84:	9900      	ldr	r1, [sp, #0]
 800ce86:	4605      	mov	r5, r0
 800ce88:	4630      	mov	r0, r6
 800ce8a:	f7fe fd6f 	bl	800b96c <_malloc_r>
 800ce8e:	b948      	cbnz	r0, 800cea4 <__smakebuf_r+0x44>
 800ce90:	f9b4 300c 	ldrsh.w	r3, [r4, #12]
 800ce94:	059a      	lsls	r2, r3, #22
 800ce96:	d4ef      	bmi.n	800ce78 <__smakebuf_r+0x18>
 800ce98:	f023 0303 	bic.w	r3, r3, #3
 800ce9c:	f043 0302 	orr.w	r3, r3, #2
 800cea0:	81a3      	strh	r3, [r4, #12]
 800cea2:	e7e3      	b.n	800ce6c <__smakebuf_r+0xc>
 800cea4:	4b0d      	ldr	r3, [pc, #52]	; (800cedc <__smakebuf_r+0x7c>)
 800cea6:	62b3      	str	r3, [r6, #40]	; 0x28
 800cea8:	89a3      	ldrh	r3, [r4, #12]
 800ceaa:	6020      	str	r0, [r4, #0]
 800ceac:	f043 0380 	orr.w	r3, r3, #128	; 0x80
 800ceb0:	81a3      	strh	r3, [r4, #12]
 800ceb2:	9b00      	ldr	r3, [sp, #0]
 800ceb4:	6163      	str	r3, [r4, #20]
 800ceb6:	9b01      	ldr	r3, [sp, #4]
 800ceb8:	6120      	str	r0, [r4, #16]
 800ceba:	b15b      	cbz	r3, 800ced4 <__smakebuf_r+0x74>
 800cebc:	f9b4 100e 	ldrsh.w	r1, [r4, #14]
 800cec0:	4630      	mov	r0, r6
 800cec2:	f000 f86b 	bl	800cf9c <_isatty_r>
 800cec6:	b128      	cbz	r0, 800ced4 <__smakebuf_r+0x74>
 800cec8:	89a3      	ldrh	r3, [r4, #12]
 800ceca:	f023 0303 	bic.w	r3, r3, #3
 800cece:	f043 0301 	orr.w	r3, r3, #1
 800ced2:	81a3      	strh	r3, [r4, #12]
 800ced4:	89a0      	ldrh	r0, [r4, #12]
 800ced6:	4305      	orrs	r5, r0
 800ced8:	81a5      	strh	r5, [r4, #12]
 800ceda:	e7cd      	b.n	800ce78 <__smakebuf_r+0x18>
 800cedc:	0800c771 	.word	0x0800c771

0800cee0 <_malloc_usable_size_r>:
 800cee0:	f851 3c04 	ldr.w	r3, [r1, #-4]
 800cee4:	1f18      	subs	r0, r3, #4
 800cee6:	2b00      	cmp	r3, #0
 800cee8:	bfbc      	itt	lt
 800ceea:	580b      	ldrlt	r3, [r1, r0]
 800ceec:	18c0      	addlt	r0, r0, r3
 800ceee:	4770      	bx	lr

0800cef0 <_raise_r>:
 800cef0:	291f      	cmp	r1, #31
 800cef2:	b538      	push	{r3, r4, r5, lr}
 800cef4:	4604      	mov	r4, r0
 800cef6:	460d      	mov	r5, r1
 800cef8:	d904      	bls.n	800cf04 <_raise_r+0x14>
 800cefa:	2316      	movs	r3, #22
 800cefc:	6003      	str	r3, [r0, #0]
 800cefe:	f04f 30ff 	mov.w	r0, #4294967295
 800cf02:	bd38      	pop	{r3, r4, r5, pc}
 800cf04:	6c42      	ldr	r2, [r0, #68]	; 0x44
 800cf06:	b112      	cbz	r2, 800cf0e <_raise_r+0x1e>
 800cf08:	f852 3021 	ldr.w	r3, [r2, r1, lsl #2]
 800cf0c:	b94b      	cbnz	r3, 800cf22 <_raise_r+0x32>
 800cf0e:	4620      	mov	r0, r4
 800cf10:	f000 f830 	bl	800cf74 <_getpid_r>
 800cf14:	462a      	mov	r2, r5
 800cf16:	4601      	mov	r1, r0
 800cf18:	4620      	mov	r0, r4
 800cf1a:	e8bd 4038 	ldmia.w	sp!, {r3, r4, r5, lr}
 800cf1e:	f000 b817 	b.w	800cf50 <_kill_r>
 800cf22:	2b01      	cmp	r3, #1
 800cf24:	d00a      	beq.n	800cf3c <_raise_r+0x4c>
 800cf26:	1c59      	adds	r1, r3, #1
 800cf28:	d103      	bne.n	800cf32 <_raise_r+0x42>
 800cf2a:	2316      	movs	r3, #22
 800cf2c:	6003      	str	r3, [r0, #0]
 800cf2e:	2001      	movs	r0, #1
 800cf30:	e7e7      	b.n	800cf02 <_raise_r+0x12>
 800cf32:	2400      	movs	r4, #0
 800cf34:	f842 4025 	str.w	r4, [r2, r5, lsl #2]
 800cf38:	4628      	mov	r0, r5
 800cf3a:	4798      	blx	r3
 800cf3c:	2000      	movs	r0, #0
 800cf3e:	e7e0      	b.n	800cf02 <_raise_r+0x12>

0800cf40 <raise>:
 800cf40:	4b02      	ldr	r3, [pc, #8]	; (800cf4c <raise+0xc>)
 800cf42:	4601      	mov	r1, r0
 800cf44:	6818      	ldr	r0, [r3, #0]
 800cf46:	f7ff bfd3 	b.w	800cef0 <_raise_r>
 800cf4a:	bf00      	nop
 800cf4c:	200001cc 	.word	0x200001cc

0800cf50 <_kill_r>:
 800cf50:	b538      	push	{r3, r4, r5, lr}
 800cf52:	4d07      	ldr	r5, [pc, #28]	; (800cf70 <_kill_r+0x20>)
 800cf54:	2300      	movs	r3, #0
 800cf56:	4604      	mov	r4, r0
 800cf58:	4608      	mov	r0, r1
 800cf5a:	4611      	mov	r1, r2
 800cf5c:	602b      	str	r3, [r5, #0]
 800cf5e:	f7f7 f9f1 	bl	8004344 <_kill>
 800cf62:	1c43      	adds	r3, r0, #1
 800cf64:	d102      	bne.n	800cf6c <_kill_r+0x1c>
 800cf66:	682b      	ldr	r3, [r5, #0]
 800cf68:	b103      	cbz	r3, 800cf6c <_kill_r+0x1c>
 800cf6a:	6023      	str	r3, [r4, #0]
 800cf6c:	bd38      	pop	{r3, r4, r5, pc}
 800cf6e:	bf00      	nop
 800cf70:	20001fe4 	.word	0x20001fe4

0800cf74 <_getpid_r>:
 800cf74:	f7f7 b9e4 	b.w	8004340 <_getpid>

0800cf78 <_fstat_r>:
 800cf78:	b538      	push	{r3, r4, r5, lr}
 800cf7a:	4d07      	ldr	r5, [pc, #28]	; (800cf98 <_fstat_r+0x20>)
 800cf7c:	2300      	movs	r3, #0
 800cf7e:	4604      	mov	r4, r0
 800cf80:	4608      	mov	r0, r1
 800cf82:	4611      	mov	r1, r2
 800cf84:	602b      	str	r3, [r5, #0]
 800cf86:	f7f7 fa08 	bl	800439a <_fstat>
 800cf8a:	1c43      	adds	r3, r0, #1
 800cf8c:	d102      	bne.n	800cf94 <_fstat_r+0x1c>
 800cf8e:	682b      	ldr	r3, [r5, #0]
 800cf90:	b103      	cbz	r3, 800cf94 <_fstat_r+0x1c>
 800cf92:	6023      	str	r3, [r4, #0]
 800cf94:	bd38      	pop	{r3, r4, r5, pc}
 800cf96:	bf00      	nop
 800cf98:	20001fe4 	.word	0x20001fe4

0800cf9c <_isatty_r>:
 800cf9c:	b538      	push	{r3, r4, r5, lr}
 800cf9e:	4d06      	ldr	r5, [pc, #24]	; (800cfb8 <_isatty_r+0x1c>)
 800cfa0:	2300      	movs	r3, #0
 800cfa2:	4604      	mov	r4, r0
 800cfa4:	4608      	mov	r0, r1
 800cfa6:	602b      	str	r3, [r5, #0]
 800cfa8:	f7f7 f9fc 	bl	80043a4 <_isatty>
 800cfac:	1c43      	adds	r3, r0, #1
 800cfae:	d102      	bne.n	800cfb6 <_isatty_r+0x1a>
 800cfb0:	682b      	ldr	r3, [r5, #0]
 800cfb2:	b103      	cbz	r3, 800cfb6 <_isatty_r+0x1a>
 800cfb4:	6023      	str	r3, [r4, #0]
 800cfb6:	bd38      	pop	{r3, r4, r5, pc}
 800cfb8:	20001fe4 	.word	0x20001fe4

0800cfbc <round>:
 800cfbc:	ec51 0b10 	vmov	r0, r1, d0
 800cfc0:	b570      	push	{r4, r5, r6, lr}
 800cfc2:	f3c1 550a 	ubfx	r5, r1, #20, #11
 800cfc6:	f2a5 34ff 	subw	r4, r5, #1023	; 0x3ff
 800cfca:	2c13      	cmp	r4, #19
 800cfcc:	ee10 2a10 	vmov	r2, s0
 800cfd0:	460b      	mov	r3, r1
 800cfd2:	dc19      	bgt.n	800d008 <round+0x4c>
 800cfd4:	2c00      	cmp	r4, #0
 800cfd6:	da09      	bge.n	800cfec <round+0x30>
 800cfd8:	3401      	adds	r4, #1
 800cfda:	f001 4300 	and.w	r3, r1, #2147483648	; 0x80000000
 800cfde:	d103      	bne.n	800cfe8 <round+0x2c>
 800cfe0:	f043 537f 	orr.w	r3, r3, #1069547520	; 0x3fc00000
 800cfe4:	f443 1340 	orr.w	r3, r3, #3145728	; 0x300000
 800cfe8:	2100      	movs	r1, #0
 800cfea:	e028      	b.n	800d03e <round+0x82>
 800cfec:	4d15      	ldr	r5, [pc, #84]	; (800d044 <round+0x88>)
 800cfee:	4125      	asrs	r5, r4
 800cff0:	ea01 0605 	and.w	r6, r1, r5
 800cff4:	4332      	orrs	r2, r6
 800cff6:	d00e      	beq.n	800d016 <round+0x5a>
 800cff8:	f44f 2200 	mov.w	r2, #524288	; 0x80000
 800cffc:	fa42 f404 	asr.w	r4, r2, r4
 800d000:	4423      	add	r3, r4
 800d002:	ea23 0305 	bic.w	r3, r3, r5
 800d006:	e7ef      	b.n	800cfe8 <round+0x2c>
 800d008:	2c33      	cmp	r4, #51	; 0x33
 800d00a:	dd07      	ble.n	800d01c <round+0x60>
 800d00c:	f5b4 6f80 	cmp.w	r4, #1024	; 0x400
 800d010:	d101      	bne.n	800d016 <round+0x5a>
 800d012:	f7f3 f94b 	bl	80002ac <__adddf3>
 800d016:	ec41 0b10 	vmov	d0, r0, r1
 800d01a:	bd70      	pop	{r4, r5, r6, pc}
 800d01c:	f2a5 4613 	subw	r6, r5, #1043	; 0x413
 800d020:	f04f 35ff 	mov.w	r5, #4294967295
 800d024:	40f5      	lsrs	r5, r6
 800d026:	4228      	tst	r0, r5
 800d028:	d0f5      	beq.n	800d016 <round+0x5a>
 800d02a:	2101      	movs	r1, #1
 800d02c:	f1c4 0433 	rsb	r4, r4, #51	; 0x33
 800d030:	fa01 f404 	lsl.w	r4, r1, r4
 800d034:	1912      	adds	r2, r2, r4
 800d036:	bf28      	it	cs
 800d038:	185b      	addcs	r3, r3, r1
 800d03a:	ea22 0105 	bic.w	r1, r2, r5
 800d03e:	4608      	mov	r0, r1
 800d040:	4619      	mov	r1, r3
 800d042:	e7e8      	b.n	800d016 <round+0x5a>
 800d044:	000fffff 	.word	0x000fffff

0800d048 <atan2>:
 800d048:	f000 b826 	b.w	800d098 <__ieee754_atan2>

0800d04c <sqrtf>:
 800d04c:	b508      	push	{r3, lr}
 800d04e:	ed2d 8b02 	vpush	{d8}
 800d052:	eeb0 8a40 	vmov.f32	s16, s0
 800d056:	f000 f8e9 	bl	800d22c <__ieee754_sqrtf>
 800d05a:	4b0d      	ldr	r3, [pc, #52]	; (800d090 <sqrtf+0x44>)
 800d05c:	f993 3000 	ldrsb.w	r3, [r3]
 800d060:	3301      	adds	r3, #1
 800d062:	d011      	beq.n	800d088 <sqrtf+0x3c>
 800d064:	eeb4 8a48 	vcmp.f32	s16, s16
 800d068:	eef1 fa10 	vmrs	APSR_nzcv, fpscr
 800d06c:	d60c      	bvs.n	800d088 <sqrtf+0x3c>
 800d06e:	eddf 8a09 	vldr	s17, [pc, #36]	; 800d094 <sqrtf+0x48>
 800d072:	eeb4 8ae8 	vcmpe.f32	s16, s17
 800d076:	eef1 fa10 	vmrs	APSR_nzcv, fpscr
 800d07a:	d505      	bpl.n	800d088 <sqrtf+0x3c>
 800d07c:	f7fa ff02 	bl	8007e84 <__errno>
 800d080:	ee88 0aa8 	vdiv.f32	s0, s17, s17
 800d084:	2321      	movs	r3, #33	; 0x21
 800d086:	6003      	str	r3, [r0, #0]
 800d088:	ecbd 8b02 	vpop	{d8}
 800d08c:	bd08      	pop	{r3, pc}
 800d08e:	bf00      	nop
 800d090:	200003a0 	.word	0x200003a0
 800d094:	00000000 	.word	0x00000000

0800d098 <__ieee754_atan2>:
 800d098:	e92d 43f8 	stmdb	sp!, {r3, r4, r5, r6, r7, r8, r9, lr}
 800d09c:	ec57 6b11 	vmov	r6, r7, d1
 800d0a0:	4273      	negs	r3, r6
 800d0a2:	f8df e184 	ldr.w	lr, [pc, #388]	; 800d228 <__ieee754_atan2+0x190>
 800d0a6:	f027 4200 	bic.w	r2, r7, #2147483648	; 0x80000000
 800d0aa:	4333      	orrs	r3, r6
 800d0ac:	ea42 73d3 	orr.w	r3, r2, r3, lsr #31
 800d0b0:	4573      	cmp	r3, lr
 800d0b2:	ec51 0b10 	vmov	r0, r1, d0
 800d0b6:	ee11 8a10 	vmov	r8, s2
 800d0ba:	d80a      	bhi.n	800d0d2 <__ieee754_atan2+0x3a>
 800d0bc:	4244      	negs	r4, r0
 800d0be:	f021 4300 	bic.w	r3, r1, #2147483648	; 0x80000000
 800d0c2:	4304      	orrs	r4, r0
 800d0c4:	ea43 74d4 	orr.w	r4, r3, r4, lsr #31
 800d0c8:	4574      	cmp	r4, lr
 800d0ca:	ee10 9a10 	vmov	r9, s0
 800d0ce:	468c      	mov	ip, r1
 800d0d0:	d907      	bls.n	800d0e2 <__ieee754_atan2+0x4a>
 800d0d2:	4632      	mov	r2, r6
 800d0d4:	463b      	mov	r3, r7
 800d0d6:	f7f3 f8e9 	bl	80002ac <__adddf3>
 800d0da:	ec41 0b10 	vmov	d0, r0, r1
 800d0de:	e8bd 83f8 	ldmia.w	sp!, {r3, r4, r5, r6, r7, r8, r9, pc}
 800d0e2:	f107 4440 	add.w	r4, r7, #3221225472	; 0xc0000000
 800d0e6:	f504 1480 	add.w	r4, r4, #1048576	; 0x100000
 800d0ea:	4334      	orrs	r4, r6
 800d0ec:	d103      	bne.n	800d0f6 <__ieee754_atan2+0x5e>
 800d0ee:	e8bd 43f8 	ldmia.w	sp!, {r3, r4, r5, r6, r7, r8, r9, lr}
 800d0f2:	f000 b8a1 	b.w	800d238 <atan>
 800d0f6:	17bc      	asrs	r4, r7, #30
 800d0f8:	f004 0402 	and.w	r4, r4, #2
 800d0fc:	ea53 0909 	orrs.w	r9, r3, r9
 800d100:	ea44 74d1 	orr.w	r4, r4, r1, lsr #31
 800d104:	d107      	bne.n	800d116 <__ieee754_atan2+0x7e>
 800d106:	2c02      	cmp	r4, #2
 800d108:	d060      	beq.n	800d1cc <__ieee754_atan2+0x134>
 800d10a:	2c03      	cmp	r4, #3
 800d10c:	d1e5      	bne.n	800d0da <__ieee754_atan2+0x42>
 800d10e:	a142      	add	r1, pc, #264	; (adr r1, 800d218 <__ieee754_atan2+0x180>)
 800d110:	e9d1 0100 	ldrd	r0, r1, [r1]
 800d114:	e7e1      	b.n	800d0da <__ieee754_atan2+0x42>
 800d116:	ea52 0808 	orrs.w	r8, r2, r8
 800d11a:	d106      	bne.n	800d12a <__ieee754_atan2+0x92>
 800d11c:	f1bc 0f00 	cmp.w	ip, #0
 800d120:	da5f      	bge.n	800d1e2 <__ieee754_atan2+0x14a>
 800d122:	a13f      	add	r1, pc, #252	; (adr r1, 800d220 <__ieee754_atan2+0x188>)
 800d124:	e9d1 0100 	ldrd	r0, r1, [r1]
 800d128:	e7d7      	b.n	800d0da <__ieee754_atan2+0x42>
 800d12a:	4572      	cmp	r2, lr
 800d12c:	d10f      	bne.n	800d14e <__ieee754_atan2+0xb6>
 800d12e:	4293      	cmp	r3, r2
 800d130:	f104 34ff 	add.w	r4, r4, #4294967295
 800d134:	d107      	bne.n	800d146 <__ieee754_atan2+0xae>
 800d136:	2c02      	cmp	r4, #2
 800d138:	d84c      	bhi.n	800d1d4 <__ieee754_atan2+0x13c>
 800d13a:	4b35      	ldr	r3, [pc, #212]	; (800d210 <__ieee754_atan2+0x178>)
 800d13c:	eb03 04c4 	add.w	r4, r3, r4, lsl #3
 800d140:	e9d4 0100 	ldrd	r0, r1, [r4]
 800d144:	e7c9      	b.n	800d0da <__ieee754_atan2+0x42>
 800d146:	2c02      	cmp	r4, #2
 800d148:	d848      	bhi.n	800d1dc <__ieee754_atan2+0x144>
 800d14a:	4b32      	ldr	r3, [pc, #200]	; (800d214 <__ieee754_atan2+0x17c>)
 800d14c:	e7f6      	b.n	800d13c <__ieee754_atan2+0xa4>
 800d14e:	4573      	cmp	r3, lr
 800d150:	d0e4      	beq.n	800d11c <__ieee754_atan2+0x84>
 800d152:	1a9b      	subs	r3, r3, r2
 800d154:	f1b3 7f74 	cmp.w	r3, #63963136	; 0x3d00000
 800d158:	ea4f 5223 	mov.w	r2, r3, asr #20
 800d15c:	da1e      	bge.n	800d19c <__ieee754_atan2+0x104>
 800d15e:	2f00      	cmp	r7, #0
 800d160:	da01      	bge.n	800d166 <__ieee754_atan2+0xce>
 800d162:	323c      	adds	r2, #60	; 0x3c
 800d164:	db1e      	blt.n	800d1a4 <__ieee754_atan2+0x10c>
 800d166:	4632      	mov	r2, r6
 800d168:	463b      	mov	r3, r7
 800d16a:	f7f3 fb7f 	bl	800086c <__aeabi_ddiv>
 800d16e:	ec41 0b10 	vmov	d0, r0, r1
 800d172:	f000 fa01 	bl	800d578 <fabs>
 800d176:	f000 f85f 	bl	800d238 <atan>
 800d17a:	ec51 0b10 	vmov	r0, r1, d0
 800d17e:	2c01      	cmp	r4, #1
 800d180:	d013      	beq.n	800d1aa <__ieee754_atan2+0x112>
 800d182:	2c02      	cmp	r4, #2
 800d184:	d015      	beq.n	800d1b2 <__ieee754_atan2+0x11a>
 800d186:	2c00      	cmp	r4, #0
 800d188:	d0a7      	beq.n	800d0da <__ieee754_atan2+0x42>
 800d18a:	a319      	add	r3, pc, #100	; (adr r3, 800d1f0 <__ieee754_atan2+0x158>)
 800d18c:	e9d3 2300 	ldrd	r2, r3, [r3]
 800d190:	f7f3 f88a 	bl	80002a8 <__aeabi_dsub>
 800d194:	a318      	add	r3, pc, #96	; (adr r3, 800d1f8 <__ieee754_atan2+0x160>)
 800d196:	e9d3 2300 	ldrd	r2, r3, [r3]
 800d19a:	e014      	b.n	800d1c6 <__ieee754_atan2+0x12e>
 800d19c:	a118      	add	r1, pc, #96	; (adr r1, 800d200 <__ieee754_atan2+0x168>)
 800d19e:	e9d1 0100 	ldrd	r0, r1, [r1]
 800d1a2:	e7ec      	b.n	800d17e <__ieee754_atan2+0xe6>
 800d1a4:	2000      	movs	r0, #0
 800d1a6:	2100      	movs	r1, #0
 800d1a8:	e7e9      	b.n	800d17e <__ieee754_atan2+0xe6>
 800d1aa:	f101 4300 	add.w	r3, r1, #2147483648	; 0x80000000
 800d1ae:	4619      	mov	r1, r3
 800d1b0:	e793      	b.n	800d0da <__ieee754_atan2+0x42>
 800d1b2:	a30f      	add	r3, pc, #60	; (adr r3, 800d1f0 <__ieee754_atan2+0x158>)
 800d1b4:	e9d3 2300 	ldrd	r2, r3, [r3]
 800d1b8:	f7f3 f876 	bl	80002a8 <__aeabi_dsub>
 800d1bc:	4602      	mov	r2, r0
 800d1be:	460b      	mov	r3, r1
 800d1c0:	a10d      	add	r1, pc, #52	; (adr r1, 800d1f8 <__ieee754_atan2+0x160>)
 800d1c2:	e9d1 0100 	ldrd	r0, r1, [r1]
 800d1c6:	f7f3 f86f 	bl	80002a8 <__aeabi_dsub>
 800d1ca:	e786      	b.n	800d0da <__ieee754_atan2+0x42>
 800d1cc:	a10a      	add	r1, pc, #40	; (adr r1, 800d1f8 <__ieee754_atan2+0x160>)
 800d1ce:	e9d1 0100 	ldrd	r0, r1, [r1]
 800d1d2:	e782      	b.n	800d0da <__ieee754_atan2+0x42>
 800d1d4:	a10c      	add	r1, pc, #48	; (adr r1, 800d208 <__ieee754_atan2+0x170>)
 800d1d6:	e9d1 0100 	ldrd	r0, r1, [r1]
 800d1da:	e77e      	b.n	800d0da <__ieee754_atan2+0x42>
 800d1dc:	2000      	movs	r0, #0
 800d1de:	2100      	movs	r1, #0
 800d1e0:	e77b      	b.n	800d0da <__ieee754_atan2+0x42>
 800d1e2:	a107      	add	r1, pc, #28	; (adr r1, 800d200 <__ieee754_atan2+0x168>)
 800d1e4:	e9d1 0100 	ldrd	r0, r1, [r1]
 800d1e8:	e777      	b.n	800d0da <__ieee754_atan2+0x42>
 800d1ea:	bf00      	nop
 800d1ec:	f3af 8000 	nop.w
 800d1f0:	33145c07 	.word	0x33145c07
 800d1f4:	3ca1a626 	.word	0x3ca1a626
 800d1f8:	54442d18 	.word	0x54442d18
 800d1fc:	400921fb 	.word	0x400921fb
 800d200:	54442d18 	.word	0x54442d18
 800d204:	3ff921fb 	.word	0x3ff921fb
 800d208:	54442d18 	.word	0x54442d18
 800d20c:	3fe921fb 	.word	0x3fe921fb
 800d210:	0800e6c8 	.word	0x0800e6c8
 800d214:	0800e6e0 	.word	0x0800e6e0
 800d218:	54442d18 	.word	0x54442d18
 800d21c:	c00921fb 	.word	0xc00921fb
 800d220:	54442d18 	.word	0x54442d18
 800d224:	bff921fb 	.word	0xbff921fb
 800d228:	7ff00000 	.word	0x7ff00000

0800d22c <__ieee754_sqrtf>:
 800d22c:	eeb1 0ac0 	vsqrt.f32	s0, s0
 800d230:	4770      	bx	lr
 800d232:	0000      	movs	r0, r0
 800d234:	0000      	movs	r0, r0
	...

0800d238 <atan>:
 800d238:	e92d 4ff8 	stmdb	sp!, {r3, r4, r5, r6, r7, r8, r9, sl, fp, lr}
 800d23c:	ec55 4b10 	vmov	r4, r5, d0
 800d240:	4bc3      	ldr	r3, [pc, #780]	; (800d550 <atan+0x318>)
 800d242:	f025 4600 	bic.w	r6, r5, #2147483648	; 0x80000000
 800d246:	429e      	cmp	r6, r3
 800d248:	46ab      	mov	fp, r5
 800d24a:	dd18      	ble.n	800d27e <atan+0x46>
 800d24c:	4bc1      	ldr	r3, [pc, #772]	; (800d554 <atan+0x31c>)
 800d24e:	429e      	cmp	r6, r3
 800d250:	dc01      	bgt.n	800d256 <atan+0x1e>
 800d252:	d109      	bne.n	800d268 <atan+0x30>
 800d254:	b144      	cbz	r4, 800d268 <atan+0x30>
 800d256:	4622      	mov	r2, r4
 800d258:	462b      	mov	r3, r5
 800d25a:	4620      	mov	r0, r4
 800d25c:	4629      	mov	r1, r5
 800d25e:	f7f3 f825 	bl	80002ac <__adddf3>
 800d262:	4604      	mov	r4, r0
 800d264:	460d      	mov	r5, r1
 800d266:	e006      	b.n	800d276 <atan+0x3e>
 800d268:	f1bb 0f00 	cmp.w	fp, #0
 800d26c:	f300 8131 	bgt.w	800d4d2 <atan+0x29a>
 800d270:	a59b      	add	r5, pc, #620	; (adr r5, 800d4e0 <atan+0x2a8>)
 800d272:	e9d5 4500 	ldrd	r4, r5, [r5]
 800d276:	ec45 4b10 	vmov	d0, r4, r5
 800d27a:	e8bd 8ff8 	ldmia.w	sp!, {r3, r4, r5, r6, r7, r8, r9, sl, fp, pc}
 800d27e:	4bb6      	ldr	r3, [pc, #728]	; (800d558 <atan+0x320>)
 800d280:	429e      	cmp	r6, r3
 800d282:	dc14      	bgt.n	800d2ae <atan+0x76>
 800d284:	f1a3 73de 	sub.w	r3, r3, #29097984	; 0x1bc0000
 800d288:	429e      	cmp	r6, r3
 800d28a:	dc0d      	bgt.n	800d2a8 <atan+0x70>
 800d28c:	a396      	add	r3, pc, #600	; (adr r3, 800d4e8 <atan+0x2b0>)
 800d28e:	e9d3 2300 	ldrd	r2, r3, [r3]
 800d292:	ee10 0a10 	vmov	r0, s0
 800d296:	4629      	mov	r1, r5
 800d298:	f7f3 f808 	bl	80002ac <__adddf3>
 800d29c:	4baf      	ldr	r3, [pc, #700]	; (800d55c <atan+0x324>)
 800d29e:	2200      	movs	r2, #0
 800d2a0:	f7f3 fc4a 	bl	8000b38 <__aeabi_dcmpgt>
 800d2a4:	2800      	cmp	r0, #0
 800d2a6:	d1e6      	bne.n	800d276 <atan+0x3e>
 800d2a8:	f04f 3aff 	mov.w	sl, #4294967295
 800d2ac:	e02b      	b.n	800d306 <atan+0xce>
 800d2ae:	f000 f963 	bl	800d578 <fabs>
 800d2b2:	4bab      	ldr	r3, [pc, #684]	; (800d560 <atan+0x328>)
 800d2b4:	429e      	cmp	r6, r3
 800d2b6:	ec55 4b10 	vmov	r4, r5, d0
 800d2ba:	f300 80bf 	bgt.w	800d43c <atan+0x204>
 800d2be:	f5a3 2350 	sub.w	r3, r3, #851968	; 0xd0000
 800d2c2:	429e      	cmp	r6, r3
 800d2c4:	f300 80a0 	bgt.w	800d408 <atan+0x1d0>
 800d2c8:	ee10 2a10 	vmov	r2, s0
 800d2cc:	ee10 0a10 	vmov	r0, s0
 800d2d0:	462b      	mov	r3, r5
 800d2d2:	4629      	mov	r1, r5
 800d2d4:	f7f2 ffea 	bl	80002ac <__adddf3>
 800d2d8:	4ba0      	ldr	r3, [pc, #640]	; (800d55c <atan+0x324>)
 800d2da:	2200      	movs	r2, #0
 800d2dc:	f7f2 ffe4 	bl	80002a8 <__aeabi_dsub>
 800d2e0:	2200      	movs	r2, #0
 800d2e2:	4606      	mov	r6, r0
 800d2e4:	460f      	mov	r7, r1
 800d2e6:	f04f 4380 	mov.w	r3, #1073741824	; 0x40000000
 800d2ea:	4620      	mov	r0, r4
 800d2ec:	4629      	mov	r1, r5
 800d2ee:	f7f2 ffdd 	bl	80002ac <__adddf3>
 800d2f2:	4602      	mov	r2, r0
 800d2f4:	460b      	mov	r3, r1
 800d2f6:	4630      	mov	r0, r6
 800d2f8:	4639      	mov	r1, r7
 800d2fa:	f7f3 fab7 	bl	800086c <__aeabi_ddiv>
 800d2fe:	f04f 0a00 	mov.w	sl, #0
 800d302:	4604      	mov	r4, r0
 800d304:	460d      	mov	r5, r1
 800d306:	4622      	mov	r2, r4
 800d308:	462b      	mov	r3, r5
 800d30a:	4620      	mov	r0, r4
 800d30c:	4629      	mov	r1, r5
 800d30e:	f7f3 f983 	bl	8000618 <__aeabi_dmul>
 800d312:	4602      	mov	r2, r0
 800d314:	460b      	mov	r3, r1
 800d316:	4680      	mov	r8, r0
 800d318:	4689      	mov	r9, r1
 800d31a:	f7f3 f97d 	bl	8000618 <__aeabi_dmul>
 800d31e:	a374      	add	r3, pc, #464	; (adr r3, 800d4f0 <atan+0x2b8>)
 800d320:	e9d3 2300 	ldrd	r2, r3, [r3]
 800d324:	4606      	mov	r6, r0
 800d326:	460f      	mov	r7, r1
 800d328:	f7f3 f976 	bl	8000618 <__aeabi_dmul>
 800d32c:	a372      	add	r3, pc, #456	; (adr r3, 800d4f8 <atan+0x2c0>)
 800d32e:	e9d3 2300 	ldrd	r2, r3, [r3]
 800d332:	f7f2 ffbb 	bl	80002ac <__adddf3>
 800d336:	4632      	mov	r2, r6
 800d338:	463b      	mov	r3, r7
 800d33a:	f7f3 f96d 	bl	8000618 <__aeabi_dmul>
 800d33e:	a370      	add	r3, pc, #448	; (adr r3, 800d500 <atan+0x2c8>)
 800d340:	e9d3 2300 	ldrd	r2, r3, [r3]
 800d344:	f7f2 ffb2 	bl	80002ac <__adddf3>
 800d348:	4632      	mov	r2, r6
 800d34a:	463b      	mov	r3, r7
 800d34c:	f7f3 f964 	bl	8000618 <__aeabi_dmul>
 800d350:	a36d      	add	r3, pc, #436	; (adr r3, 800d508 <atan+0x2d0>)
 800d352:	e9d3 2300 	ldrd	r2, r3, [r3]
 800d356:	f7f2 ffa9 	bl	80002ac <__adddf3>
 800d35a:	4632      	mov	r2, r6
 800d35c:	463b      	mov	r3, r7
 800d35e:	f7f3 f95b 	bl	8000618 <__aeabi_dmul>
 800d362:	a36b      	add	r3, pc, #428	; (adr r3, 800d510 <atan+0x2d8>)
 800d364:	e9d3 2300 	ldrd	r2, r3, [r3]
 800d368:	f7f2 ffa0 	bl	80002ac <__adddf3>
 800d36c:	4632      	mov	r2, r6
 800d36e:	463b      	mov	r3, r7
 800d370:	f7f3 f952 	bl	8000618 <__aeabi_dmul>
 800d374:	a368      	add	r3, pc, #416	; (adr r3, 800d518 <atan+0x2e0>)
 800d376:	e9d3 2300 	ldrd	r2, r3, [r3]
 800d37a:	f7f2 ff97 	bl	80002ac <__adddf3>
 800d37e:	4642      	mov	r2, r8
 800d380:	464b      	mov	r3, r9
 800d382:	f7f3 f949 	bl	8000618 <__aeabi_dmul>
 800d386:	a366      	add	r3, pc, #408	; (adr r3, 800d520 <atan+0x2e8>)
 800d388:	e9d3 2300 	ldrd	r2, r3, [r3]
 800d38c:	4680      	mov	r8, r0
 800d38e:	4689      	mov	r9, r1
 800d390:	4630      	mov	r0, r6
 800d392:	4639      	mov	r1, r7
 800d394:	f7f3 f940 	bl	8000618 <__aeabi_dmul>
 800d398:	a363      	add	r3, pc, #396	; (adr r3, 800d528 <atan+0x2f0>)
 800d39a:	e9d3 2300 	ldrd	r2, r3, [r3]
 800d39e:	f7f2 ff83 	bl	80002a8 <__aeabi_dsub>
 800d3a2:	4632      	mov	r2, r6
 800d3a4:	463b      	mov	r3, r7
 800d3a6:	f7f3 f937 	bl	8000618 <__aeabi_dmul>
 800d3aa:	a361      	add	r3, pc, #388	; (adr r3, 800d530 <atan+0x2f8>)
 800d3ac:	e9d3 2300 	ldrd	r2, r3, [r3]
 800d3b0:	f7f2 ff7a 	bl	80002a8 <__aeabi_dsub>
 800d3b4:	4632      	mov	r2, r6
 800d3b6:	463b      	mov	r3, r7
 800d3b8:	f7f3 f92e 	bl	8000618 <__aeabi_dmul>
 800d3bc:	a35e      	add	r3, pc, #376	; (adr r3, 800d538 <atan+0x300>)
 800d3be:	e9d3 2300 	ldrd	r2, r3, [r3]
 800d3c2:	f7f2 ff71 	bl	80002a8 <__aeabi_dsub>
 800d3c6:	4632      	mov	r2, r6
 800d3c8:	463b      	mov	r3, r7
 800d3ca:	f7f3 f925 	bl	8000618 <__aeabi_dmul>
 800d3ce:	a35c      	add	r3, pc, #368	; (adr r3, 800d540 <atan+0x308>)
 800d3d0:	e9d3 2300 	ldrd	r2, r3, [r3]
 800d3d4:	f7f2 ff68 	bl	80002a8 <__aeabi_dsub>
 800d3d8:	4632      	mov	r2, r6
 800d3da:	463b      	mov	r3, r7
 800d3dc:	f7f3 f91c 	bl	8000618 <__aeabi_dmul>
 800d3e0:	4602      	mov	r2, r0
 800d3e2:	460b      	mov	r3, r1
 800d3e4:	4640      	mov	r0, r8
 800d3e6:	4649      	mov	r1, r9
 800d3e8:	f7f2 ff60 	bl	80002ac <__adddf3>
 800d3ec:	4622      	mov	r2, r4
 800d3ee:	462b      	mov	r3, r5
 800d3f0:	f7f3 f912 	bl	8000618 <__aeabi_dmul>
 800d3f4:	f1ba 3fff 	cmp.w	sl, #4294967295
 800d3f8:	4602      	mov	r2, r0
 800d3fa:	460b      	mov	r3, r1
 800d3fc:	d14b      	bne.n	800d496 <atan+0x25e>
 800d3fe:	4620      	mov	r0, r4
 800d400:	4629      	mov	r1, r5
 800d402:	f7f2 ff51 	bl	80002a8 <__aeabi_dsub>
 800d406:	e72c      	b.n	800d262 <atan+0x2a>
 800d408:	ee10 0a10 	vmov	r0, s0
 800d40c:	4b53      	ldr	r3, [pc, #332]	; (800d55c <atan+0x324>)
 800d40e:	2200      	movs	r2, #0
 800d410:	4629      	mov	r1, r5
 800d412:	f7f2 ff49 	bl	80002a8 <__aeabi_dsub>
 800d416:	4b51      	ldr	r3, [pc, #324]	; (800d55c <atan+0x324>)
 800d418:	4606      	mov	r6, r0
 800d41a:	460f      	mov	r7, r1
 800d41c:	2200      	movs	r2, #0
 800d41e:	4620      	mov	r0, r4
 800d420:	4629      	mov	r1, r5
 800d422:	f7f2 ff43 	bl	80002ac <__adddf3>
 800d426:	4602      	mov	r2, r0
 800d428:	460b      	mov	r3, r1
 800d42a:	4630      	mov	r0, r6
 800d42c:	4639      	mov	r1, r7
 800d42e:	f7f3 fa1d 	bl	800086c <__aeabi_ddiv>
 800d432:	f04f 0a01 	mov.w	sl, #1
 800d436:	4604      	mov	r4, r0
 800d438:	460d      	mov	r5, r1
 800d43a:	e764      	b.n	800d306 <atan+0xce>
 800d43c:	4b49      	ldr	r3, [pc, #292]	; (800d564 <atan+0x32c>)
 800d43e:	429e      	cmp	r6, r3
 800d440:	da1d      	bge.n	800d47e <atan+0x246>
 800d442:	ee10 0a10 	vmov	r0, s0
 800d446:	4b48      	ldr	r3, [pc, #288]	; (800d568 <atan+0x330>)
 800d448:	2200      	movs	r2, #0
 800d44a:	4629      	mov	r1, r5
 800d44c:	f7f2 ff2c 	bl	80002a8 <__aeabi_dsub>
 800d450:	4b45      	ldr	r3, [pc, #276]	; (800d568 <atan+0x330>)
 800d452:	4606      	mov	r6, r0
 800d454:	460f      	mov	r7, r1
 800d456:	2200      	movs	r2, #0
 800d458:	4620      	mov	r0, r4
 800d45a:	4629      	mov	r1, r5
 800d45c:	f7f3 f8dc 	bl	8000618 <__aeabi_dmul>
 800d460:	4b3e      	ldr	r3, [pc, #248]	; (800d55c <atan+0x324>)
 800d462:	2200      	movs	r2, #0
 800d464:	f7f2 ff22 	bl	80002ac <__adddf3>
 800d468:	4602      	mov	r2, r0
 800d46a:	460b      	mov	r3, r1
 800d46c:	4630      	mov	r0, r6
 800d46e:	4639      	mov	r1, r7
 800d470:	f7f3 f9fc 	bl	800086c <__aeabi_ddiv>
 800d474:	f04f 0a02 	mov.w	sl, #2
 800d478:	4604      	mov	r4, r0
 800d47a:	460d      	mov	r5, r1
 800d47c:	e743      	b.n	800d306 <atan+0xce>
 800d47e:	462b      	mov	r3, r5
 800d480:	ee10 2a10 	vmov	r2, s0
 800d484:	4939      	ldr	r1, [pc, #228]	; (800d56c <atan+0x334>)
 800d486:	2000      	movs	r0, #0
 800d488:	f7f3 f9f0 	bl	800086c <__aeabi_ddiv>
 800d48c:	f04f 0a03 	mov.w	sl, #3
 800d490:	4604      	mov	r4, r0
 800d492:	460d      	mov	r5, r1
 800d494:	e737      	b.n	800d306 <atan+0xce>
 800d496:	4b36      	ldr	r3, [pc, #216]	; (800d570 <atan+0x338>)
 800d498:	4e36      	ldr	r6, [pc, #216]	; (800d574 <atan+0x33c>)
 800d49a:	eb06 06ca 	add.w	r6, r6, sl, lsl #3
 800d49e:	eb03 0aca 	add.w	sl, r3, sl, lsl #3
 800d4a2:	e9da 2300 	ldrd	r2, r3, [sl]
 800d4a6:	f7f2 feff 	bl	80002a8 <__aeabi_dsub>
 800d4aa:	4622      	mov	r2, r4
 800d4ac:	462b      	mov	r3, r5
 800d4ae:	f7f2 fefb 	bl	80002a8 <__aeabi_dsub>
 800d4b2:	4602      	mov	r2, r0
 800d4b4:	460b      	mov	r3, r1
 800d4b6:	e9d6 0100 	ldrd	r0, r1, [r6]
 800d4ba:	f7f2 fef5 	bl	80002a8 <__aeabi_dsub>
 800d4be:	f1bb 0f00 	cmp.w	fp, #0
 800d4c2:	4604      	mov	r4, r0
 800d4c4:	460d      	mov	r5, r1
 800d4c6:	f6bf aed6 	bge.w	800d276 <atan+0x3e>
 800d4ca:	f101 4300 	add.w	r3, r1, #2147483648	; 0x80000000
 800d4ce:	461d      	mov	r5, r3
 800d4d0:	e6d1      	b.n	800d276 <atan+0x3e>
 800d4d2:	a51d      	add	r5, pc, #116	; (adr r5, 800d548 <atan+0x310>)
 800d4d4:	e9d5 4500 	ldrd	r4, r5, [r5]
 800d4d8:	e6cd      	b.n	800d276 <atan+0x3e>
 800d4da:	bf00      	nop
 800d4dc:	f3af 8000 	nop.w
 800d4e0:	54442d18 	.word	0x54442d18
 800d4e4:	bff921fb 	.word	0xbff921fb
 800d4e8:	8800759c 	.word	0x8800759c
 800d4ec:	7e37e43c 	.word	0x7e37e43c
 800d4f0:	e322da11 	.word	0xe322da11
 800d4f4:	3f90ad3a 	.word	0x3f90ad3a
 800d4f8:	24760deb 	.word	0x24760deb
 800d4fc:	3fa97b4b 	.word	0x3fa97b4b
 800d500:	a0d03d51 	.word	0xa0d03d51
 800d504:	3fb10d66 	.word	0x3fb10d66
 800d508:	c54c206e 	.word	0xc54c206e
 800d50c:	3fb745cd 	.word	0x3fb745cd
 800d510:	920083ff 	.word	0x920083ff
 800d514:	3fc24924 	.word	0x3fc24924
 800d518:	5555550d 	.word	0x5555550d
 800d51c:	3fd55555 	.word	0x3fd55555
 800d520:	2c6a6c2f 	.word	0x2c6a6c2f
 800d524:	bfa2b444 	.word	0xbfa2b444
 800d528:	52defd9a 	.word	0x52defd9a
 800d52c:	3fadde2d 	.word	0x3fadde2d
 800d530:	af749a6d 	.word	0xaf749a6d
 800d534:	3fb3b0f2 	.word	0x3fb3b0f2
 800d538:	fe231671 	.word	0xfe231671
 800d53c:	3fbc71c6 	.word	0x3fbc71c6
 800d540:	9998ebc4 	.word	0x9998ebc4
 800d544:	3fc99999 	.word	0x3fc99999
 800d548:	54442d18 	.word	0x54442d18
 800d54c:	3ff921fb 	.word	0x3ff921fb
 800d550:	440fffff 	.word	0x440fffff
 800d554:	7ff00000 	.word	0x7ff00000
 800d558:	3fdbffff 	.word	0x3fdbffff
 800d55c:	3ff00000 	.word	0x3ff00000
 800d560:	3ff2ffff 	.word	0x3ff2ffff
 800d564:	40038000 	.word	0x40038000
 800d568:	3ff80000 	.word	0x3ff80000
 800d56c:	bff00000 	.word	0xbff00000
 800d570:	0800e718 	.word	0x0800e718
 800d574:	0800e6f8 	.word	0x0800e6f8

0800d578 <fabs>:
 800d578:	ec51 0b10 	vmov	r0, r1, d0
 800d57c:	ee10 2a10 	vmov	r2, s0
 800d580:	f021 4300 	bic.w	r3, r1, #2147483648	; 0x80000000
 800d584:	ec43 2b10 	vmov	d0, r2, r3
 800d588:	4770      	bx	lr
	...

0800d58c <_init>:
 800d58c:	b5f8      	push	{r3, r4, r5, r6, r7, lr}
 800d58e:	bf00      	nop
 800d590:	bcf8      	pop	{r3, r4, r5, r6, r7}
 800d592:	bc08      	pop	{r3}
 800d594:	469e      	mov	lr, r3
 800d596:	4770      	bx	lr

0800d598 <_fini>:
 800d598:	b5f8      	push	{r3, r4, r5, r6, r7, lr}
 800d59a:	bf00      	nop
 800d59c:	bcf8      	pop	{r3, r4, r5, r6, r7}
 800d59e:	bc08      	pop	{r3}
 800d5a0:	469e      	mov	lr, r3
 800d5a2:	4770      	bx	lr
