
RazorBoard 1.0 rev. E.elf:     file format elf32-littlearm

Sections:
Idx Name          Size      VMA       LMA       File off  Algn
  0 .isr_vector   00000188  08000000  08000000  00010000  2**0
                  CONTENTS, ALLOC, LOAD, READONLY, DATA
  1 .text         0000e554  08000190  08000190  00010190  2**4
                  CONTENTS, ALLOC, LOAD, READONLY, CODE
  2 .rodata       00001930  0800e6e8  0800e6e8  0001e6e8  2**3
                  CONTENTS, ALLOC, LOAD, READONLY, DATA
  3 .ARM.extab    00000000  08010018  08010018  00030380  2**0
                  CONTENTS
  4 .ARM          00000008  08010018  08010018  00020018  2**2
                  CONTENTS, ALLOC, LOAD, READONLY, DATA
  5 .preinit_array 00000000  08010020  08010020  00030380  2**0
                  CONTENTS, ALLOC, LOAD, DATA
  6 .init_array   00000004  08010020  08010020  00020020  2**2
                  CONTENTS, ALLOC, LOAD, DATA
  7 .fini_array   00000004  08010024  08010024  00020024  2**2
                  CONTENTS, ALLOC, LOAD, DATA
  8 .data         00000380  20000000  08010028  00030000  2**2
                  CONTENTS, ALLOC, LOAD, DATA
  9 .bss          00001cc8  20000380  080103a8  00030380  2**3
                  ALLOC
 10 ._user_heap_stack 00000600  20002048  080103a8  00032048  2**0
                  ALLOC
 11 .ARM.attributes 00000030  00000000  00000000  00030380  2**0
                  CONTENTS, READONLY
 12 .comment      000000c1  00000000  00000000  000303b0  2**0
                  CONTENTS, READONLY
 13 .debug_info   000007bd  00000000  00000000  00030471  2**0
                  CONTENTS, READONLY, DEBUGGING, OCTETS
 14 .debug_abbrev 000002cc  00000000  00000000  00030c2e  2**0
                  CONTENTS, READONLY, DEBUGGING, OCTETS
 15 .debug_loc    00001b48  00000000  00000000  00030efa  2**0
                  CONTENTS, READONLY, DEBUGGING, OCTETS
 16 .debug_aranges 00000060  00000000  00000000  00032a42  2**0
                  CONTENTS, READONLY, DEBUGGING, OCTETS
 17 .debug_ranges 000000f0  00000000  00000000  00032aa2  2**0
                  CONTENTS, READONLY, DEBUGGING, OCTETS
 18 .debug_line   00000689  00000000  00000000  00032b92  2**0
                  CONTENTS, READONLY, DEBUGGING, OCTETS
 19 .debug_str    000003c8  00000000  00000000  0003321b  2**0
                  CONTENTS, READONLY, DEBUGGING, OCTETS
 20 .debug_frame  00001b04  00000000  00000000  000335e4  2**2
                  CONTENTS, READONLY, DEBUGGING, OCTETS

Disassembly of section .text:

08000190 <__do_global_dtors_aux>:
 8000190:	b510      	push	{r4, lr}
 8000192:	4c05      	ldr	r4, [pc, #20]	; (80001a8 <__do_global_dtors_aux+0x18>)
 8000194:	7823      	ldrb	r3, [r4, #0]
 8000196:	b933      	cbnz	r3, 80001a6 <__do_global_dtors_aux+0x16>
 8000198:	4b04      	ldr	r3, [pc, #16]	; (80001ac <__do_global_dtors_aux+0x1c>)
 800019a:	b113      	cbz	r3, 80001a2 <__do_global_dtors_aux+0x12>
 800019c:	4804      	ldr	r0, [pc, #16]	; (80001b0 <__do_global_dtors_aux+0x20>)
 800019e:	f3af 8000 	nop.w
 80001a2:	2301      	movs	r3, #1
 80001a4:	7023      	strb	r3, [r4, #0]
 80001a6:	bd10      	pop	{r4, pc}
 80001a8:	20000380 	.word	0x20000380
 80001ac:	00000000 	.word	0x00000000
 80001b0:	0800e6cc 	.word	0x0800e6cc

080001b4 <frame_dummy>:
 80001b4:	b508      	push	{r3, lr}
 80001b6:	4b03      	ldr	r3, [pc, #12]	; (80001c4 <frame_dummy+0x10>)
 80001b8:	b11b      	cbz	r3, 80001c2 <frame_dummy+0xe>
 80001ba:	4903      	ldr	r1, [pc, #12]	; (80001c8 <frame_dummy+0x14>)
 80001bc:	4803      	ldr	r0, [pc, #12]	; (80001cc <frame_dummy+0x18>)
 80001be:	f3af 8000 	nop.w
 80001c2:	bd08      	pop	{r3, pc}
 80001c4:	00000000 	.word	0x00000000
 80001c8:	20000384 	.word	0x20000384
 80001cc:	0800e6cc 	.word	0x0800e6cc

080001d0 <strcmp>:
 80001d0:	f810 2b01 	ldrb.w	r2, [r0], #1
 80001d4:	f811 3b01 	ldrb.w	r3, [r1], #1
 80001d8:	2a01      	cmp	r2, #1
 80001da:	bf28      	it	cs
 80001dc:	429a      	cmpcs	r2, r3
 80001de:	d0f7      	beq.n	80001d0 <strcmp>
 80001e0:	1ad0      	subs	r0, r2, r3
 80001e2:	4770      	bx	lr

080001e4 <strlen>:
 80001e4:	4603      	mov	r3, r0
 80001e6:	f813 2b01 	ldrb.w	r2, [r3], #1
 80001ea:	2a00      	cmp	r2, #0
 80001ec:	d1fb      	bne.n	80001e6 <strlen+0x2>
 80001ee:	1a18      	subs	r0, r3, r0
 80001f0:	3801      	subs	r0, #1
 80001f2:	4770      	bx	lr
	...

08000200 <memchr>:
 8000200:	f001 01ff 	and.w	r1, r1, #255	; 0xff
 8000204:	2a10      	cmp	r2, #16
 8000206:	db2b      	blt.n	8000260 <memchr+0x60>
 8000208:	f010 0f07 	tst.w	r0, #7
 800020c:	d008      	beq.n	8000220 <memchr+0x20>
 800020e:	f810 3b01 	ldrb.w	r3, [r0], #1
 8000212:	3a01      	subs	r2, #1
 8000214:	428b      	cmp	r3, r1
 8000216:	d02d      	beq.n	8000274 <memchr+0x74>
 8000218:	f010 0f07 	tst.w	r0, #7
 800021c:	b342      	cbz	r2, 8000270 <memchr+0x70>
 800021e:	d1f6      	bne.n	800020e <memchr+0xe>
 8000220:	b4f0      	push	{r4, r5, r6, r7}
 8000222:	ea41 2101 	orr.w	r1, r1, r1, lsl #8
 8000226:	ea41 4101 	orr.w	r1, r1, r1, lsl #16
 800022a:	f022 0407 	bic.w	r4, r2, #7
 800022e:	f07f 0700 	mvns.w	r7, #0
 8000232:	2300      	movs	r3, #0
 8000234:	e8f0 5602 	ldrd	r5, r6, [r0], #8
 8000238:	3c08      	subs	r4, #8
 800023a:	ea85 0501 	eor.w	r5, r5, r1
 800023e:	ea86 0601 	eor.w	r6, r6, r1
 8000242:	fa85 f547 	uadd8	r5, r5, r7
 8000246:	faa3 f587 	sel	r5, r3, r7
 800024a:	fa86 f647 	uadd8	r6, r6, r7
 800024e:	faa5 f687 	sel	r6, r5, r7
 8000252:	b98e      	cbnz	r6, 8000278 <memchr+0x78>
 8000254:	d1ee      	bne.n	8000234 <memchr+0x34>
 8000256:	bcf0      	pop	{r4, r5, r6, r7}
 8000258:	f001 01ff 	and.w	r1, r1, #255	; 0xff
 800025c:	f002 0207 	and.w	r2, r2, #7
 8000260:	b132      	cbz	r2, 8000270 <memchr+0x70>
 8000262:	f810 3b01 	ldrb.w	r3, [r0], #1
 8000266:	3a01      	subs	r2, #1
 8000268:	ea83 0301 	eor.w	r3, r3, r1
 800026c:	b113      	cbz	r3, 8000274 <memchr+0x74>
 800026e:	d1f8      	bne.n	8000262 <memchr+0x62>
 8000270:	2000      	movs	r0, #0
 8000272:	4770      	bx	lr
 8000274:	3801      	subs	r0, #1
 8000276:	4770      	bx	lr
 8000278:	2d00      	cmp	r5, #0
 800027a:	bf06      	itte	eq
 800027c:	4635      	moveq	r5, r6
 800027e:	3803      	subeq	r0, #3
 8000280:	3807      	subne	r0, #7
 8000282:	f015 0f01 	tst.w	r5, #1
 8000286:	d107      	bne.n	8000298 <memchr+0x98>
 8000288:	3001      	adds	r0, #1
 800028a:	f415 7f80 	tst.w	r5, #256	; 0x100
 800028e:	bf02      	ittt	eq
 8000290:	3001      	addeq	r0, #1
 8000292:	f415 3fc0 	tsteq.w	r5, #98304	; 0x18000
 8000296:	3001      	addeq	r0, #1
 8000298:	bcf0      	pop	{r4, r5, r6, r7}
 800029a:	3801      	subs	r0, #1
 800029c:	4770      	bx	lr
 800029e:	bf00      	nop

080002a0 <__aeabi_drsub>:
 80002a0:	f081 4100 	eor.w	r1, r1, #2147483648	; 0x80000000
 80002a4:	e002      	b.n	80002ac <__adddf3>
 80002a6:	bf00      	nop

080002a8 <__aeabi_dsub>:
 80002a8:	f083 4300 	eor.w	r3, r3, #2147483648	; 0x80000000

080002ac <__adddf3>:
 80002ac:	b530      	push	{r4, r5, lr}
 80002ae:	ea4f 0441 	mov.w	r4, r1, lsl #1
 80002b2:	ea4f 0543 	mov.w	r5, r3, lsl #1
 80002b6:	ea94 0f05 	teq	r4, r5
 80002ba:	bf08      	it	eq
 80002bc:	ea90 0f02 	teqeq	r0, r2
 80002c0:	bf1f      	itttt	ne
 80002c2:	ea54 0c00 	orrsne.w	ip, r4, r0
 80002c6:	ea55 0c02 	orrsne.w	ip, r5, r2
 80002ca:	ea7f 5c64 	mvnsne.w	ip, r4, asr #21
 80002ce:	ea7f 5c65 	mvnsne.w	ip, r5, asr #21
 80002d2:	f000 80e2 	beq.w	800049a <__adddf3+0x1ee>
 80002d6:	ea4f 5454 	mov.w	r4, r4, lsr #21
 80002da:	ebd4 5555 	rsbs	r5, r4, r5, lsr #21
 80002de:	bfb8      	it	lt
 80002e0:	426d      	neglt	r5, r5
 80002e2:	dd0c      	ble.n	80002fe <__adddf3+0x52>
 80002e4:	442c      	add	r4, r5
 80002e6:	ea80 0202 	eor.w	r2, r0, r2
 80002ea:	ea81 0303 	eor.w	r3, r1, r3
 80002ee:	ea82 0000 	eor.w	r0, r2, r0
 80002f2:	ea83 0101 	eor.w	r1, r3, r1
 80002f6:	ea80 0202 	eor.w	r2, r0, r2
 80002fa:	ea81 0303 	eor.w	r3, r1, r3
 80002fe:	2d36      	cmp	r5, #54	; 0x36
 8000300:	bf88      	it	hi
 8000302:	bd30      	pophi	{r4, r5, pc}
 8000304:	f011 4f00 	tst.w	r1, #2147483648	; 0x80000000
 8000308:	ea4f 3101 	mov.w	r1, r1, lsl #12
 800030c:	f44f 1c80 	mov.w	ip, #1048576	; 0x100000
 8000310:	ea4c 3111 	orr.w	r1, ip, r1, lsr #12
 8000314:	d002      	beq.n	800031c <__adddf3+0x70>
 8000316:	4240      	negs	r0, r0
 8000318:	eb61 0141 	sbc.w	r1, r1, r1, lsl #1
 800031c:	f013 4f00 	tst.w	r3, #2147483648	; 0x80000000
 8000320:	ea4f 3303 	mov.w	r3, r3, lsl #12
 8000324:	ea4c 3313 	orr.w	r3, ip, r3, lsr #12
 8000328:	d002      	beq.n	8000330 <__adddf3+0x84>
 800032a:	4252      	negs	r2, r2
 800032c:	eb63 0343 	sbc.w	r3, r3, r3, lsl #1
 8000330:	ea94 0f05 	teq	r4, r5
 8000334:	f000 80a7 	beq.w	8000486 <__adddf3+0x1da>
 8000338:	f1a4 0401 	sub.w	r4, r4, #1
 800033c:	f1d5 0e20 	rsbs	lr, r5, #32
 8000340:	db0d      	blt.n	800035e <__adddf3+0xb2>
 8000342:	fa02 fc0e 	lsl.w	ip, r2, lr
 8000346:	fa22 f205 	lsr.w	r2, r2, r5
 800034a:	1880      	adds	r0, r0, r2
 800034c:	f141 0100 	adc.w	r1, r1, #0
 8000350:	fa03 f20e 	lsl.w	r2, r3, lr
 8000354:	1880      	adds	r0, r0, r2
 8000356:	fa43 f305 	asr.w	r3, r3, r5
 800035a:	4159      	adcs	r1, r3
 800035c:	e00e      	b.n	800037c <__adddf3+0xd0>
 800035e:	f1a5 0520 	sub.w	r5, r5, #32
 8000362:	f10e 0e20 	add.w	lr, lr, #32
 8000366:	2a01      	cmp	r2, #1
 8000368:	fa03 fc0e 	lsl.w	ip, r3, lr
 800036c:	bf28      	it	cs
 800036e:	f04c 0c02 	orrcs.w	ip, ip, #2
 8000372:	fa43 f305 	asr.w	r3, r3, r5
 8000376:	18c0      	adds	r0, r0, r3
 8000378:	eb51 71e3 	adcs.w	r1, r1, r3, asr #31
 800037c:	f001 4500 	and.w	r5, r1, #2147483648	; 0x80000000
 8000380:	d507      	bpl.n	8000392 <__adddf3+0xe6>
 8000382:	f04f 0e00 	mov.w	lr, #0
 8000386:	f1dc 0c00 	rsbs	ip, ip, #0
 800038a:	eb7e 0000 	sbcs.w	r0, lr, r0
 800038e:	eb6e 0101 	sbc.w	r1, lr, r1
 8000392:	f5b1 1f80 	cmp.w	r1, #1048576	; 0x100000
 8000396:	d31b      	bcc.n	80003d0 <__adddf3+0x124>
 8000398:	f5b1 1f00 	cmp.w	r1, #2097152	; 0x200000
 800039c:	d30c      	bcc.n	80003b8 <__adddf3+0x10c>
 800039e:	0849      	lsrs	r1, r1, #1
 80003a0:	ea5f 0030 	movs.w	r0, r0, rrx
 80003a4:	ea4f 0c3c 	mov.w	ip, ip, rrx
 80003a8:	f104 0401 	add.w	r4, r4, #1
 80003ac:	ea4f 5244 	mov.w	r2, r4, lsl #21
 80003b0:	f512 0f80 	cmn.w	r2, #4194304	; 0x400000
 80003b4:	f080 809a 	bcs.w	80004ec <__adddf3+0x240>
 80003b8:	f1bc 4f00 	cmp.w	ip, #2147483648	; 0x80000000
 80003bc:	bf08      	it	eq
 80003be:	ea5f 0c50 	movseq.w	ip, r0, lsr #1
 80003c2:	f150 0000 	adcs.w	r0, r0, #0
 80003c6:	eb41 5104 	adc.w	r1, r1, r4, lsl #20
 80003ca:	ea41 0105 	orr.w	r1, r1, r5
 80003ce:	bd30      	pop	{r4, r5, pc}
 80003d0:	ea5f 0c4c 	movs.w	ip, ip, lsl #1
 80003d4:	4140      	adcs	r0, r0
 80003d6:	eb41 0101 	adc.w	r1, r1, r1
 80003da:	3c01      	subs	r4, #1
 80003dc:	bf28      	it	cs
 80003de:	f5b1 1f80 	cmpcs.w	r1, #1048576	; 0x100000
 80003e2:	d2e9      	bcs.n	80003b8 <__adddf3+0x10c>
 80003e4:	f091 0f00 	teq	r1, #0
 80003e8:	bf04      	itt	eq
 80003ea:	4601      	moveq	r1, r0
 80003ec:	2000      	moveq	r0, #0
 80003ee:	fab1 f381 	clz	r3, r1
 80003f2:	bf08      	it	eq
 80003f4:	3320      	addeq	r3, #32
 80003f6:	f1a3 030b 	sub.w	r3, r3, #11
 80003fa:	f1b3 0220 	subs.w	r2, r3, #32
 80003fe:	da0c      	bge.n	800041a <__adddf3+0x16e>
 8000400:	320c      	adds	r2, #12
 8000402:	dd08      	ble.n	8000416 <__adddf3+0x16a>
 8000404:	f102 0c14 	add.w	ip, r2, #20
 8000408:	f1c2 020c 	rsb	r2, r2, #12
 800040c:	fa01 f00c 	lsl.w	r0, r1, ip
 8000410:	fa21 f102 	lsr.w	r1, r1, r2
 8000414:	e00c      	b.n	8000430 <__adddf3+0x184>
 8000416:	f102 0214 	add.w	r2, r2, #20
 800041a:	bfd8      	it	le
 800041c:	f1c2 0c20 	rsble	ip, r2, #32
 8000420:	fa01 f102 	lsl.w	r1, r1, r2
 8000424:	fa20 fc0c 	lsr.w	ip, r0, ip
 8000428:	bfdc      	itt	le
 800042a:	ea41 010c 	orrle.w	r1, r1, ip
 800042e:	4090      	lslle	r0, r2
 8000430:	1ae4      	subs	r4, r4, r3
 8000432:	bfa2      	ittt	ge
 8000434:	eb01 5104 	addge.w	r1, r1, r4, lsl #20
 8000438:	4329      	orrge	r1, r5
 800043a:	bd30      	popge	{r4, r5, pc}
 800043c:	ea6f 0404 	mvn.w	r4, r4
 8000440:	3c1f      	subs	r4, #31
 8000442:	da1c      	bge.n	800047e <__adddf3+0x1d2>
 8000444:	340c      	adds	r4, #12
 8000446:	dc0e      	bgt.n	8000466 <__adddf3+0x1ba>
 8000448:	f104 0414 	add.w	r4, r4, #20
 800044c:	f1c4 0220 	rsb	r2, r4, #32
 8000450:	fa20 f004 	lsr.w	r0, r0, r4
 8000454:	fa01 f302 	lsl.w	r3, r1, r2
 8000458:	ea40 0003 	orr.w	r0, r0, r3
 800045c:	fa21 f304 	lsr.w	r3, r1, r4
 8000460:	ea45 0103 	orr.w	r1, r5, r3
 8000464:	bd30      	pop	{r4, r5, pc}
 8000466:	f1c4 040c 	rsb	r4, r4, #12
 800046a:	f1c4 0220 	rsb	r2, r4, #32
 800046e:	fa20 f002 	lsr.w	r0, r0, r2
 8000472:	fa01 f304 	lsl.w	r3, r1, r4
 8000476:	ea40 0003 	orr.w	r0, r0, r3
 800047a:	4629      	mov	r1, r5
 800047c:	bd30      	pop	{r4, r5, pc}
 800047e:	fa21 f004 	lsr.w	r0, r1, r4
 8000482:	4629      	mov	r1, r5
 8000484:	bd30      	pop	{r4, r5, pc}
 8000486:	f094 0f00 	teq	r4, #0
 800048a:	f483 1380 	eor.w	r3, r3, #1048576	; 0x100000
 800048e:	bf06      	itte	eq
 8000490:	f481 1180 	eoreq.w	r1, r1, #1048576	; 0x100000
 8000494:	3401      	addeq	r4, #1
 8000496:	3d01      	subne	r5, #1
 8000498:	e74e      	b.n	8000338 <__adddf3+0x8c>
 800049a:	ea7f 5c64 	mvns.w	ip, r4, asr #21
 800049e:	bf18      	it	ne
 80004a0:	ea7f 5c65 	mvnsne.w	ip, r5, asr #21
 80004a4:	d029      	beq.n	80004fa <__adddf3+0x24e>
 80004a6:	ea94 0f05 	teq	r4, r5
 80004aa:	bf08      	it	eq
 80004ac:	ea90 0f02 	teqeq	r0, r2
 80004b0:	d005      	beq.n	80004be <__adddf3+0x212>
 80004b2:	ea54 0c00 	orrs.w	ip, r4, r0
 80004b6:	bf04      	itt	eq
 80004b8:	4619      	moveq	r1, r3
 80004ba:	4610      	moveq	r0, r2
 80004bc:	bd30      	pop	{r4, r5, pc}
 80004be:	ea91 0f03 	teq	r1, r3
 80004c2:	bf1e      	ittt	ne
 80004c4:	2100      	movne	r1, #0
 80004c6:	2000      	movne	r0, #0
 80004c8:	bd30      	popne	{r4, r5, pc}
 80004ca:	ea5f 5c54 	movs.w	ip, r4, lsr #21
 80004ce:	d105      	bne.n	80004dc <__adddf3+0x230>
 80004d0:	0040      	lsls	r0, r0, #1
 80004d2:	4149      	adcs	r1, r1
 80004d4:	bf28      	it	cs
 80004d6:	f041 4100 	orrcs.w	r1, r1, #2147483648	; 0x80000000
 80004da:	bd30      	pop	{r4, r5, pc}
 80004dc:	f514 0480 	adds.w	r4, r4, #4194304	; 0x400000
 80004e0:	bf3c      	itt	cc
 80004e2:	f501 1180 	addcc.w	r1, r1, #1048576	; 0x100000
 80004e6:	bd30      	popcc	{r4, r5, pc}
 80004e8:	f001 4500 	and.w	r5, r1, #2147483648	; 0x80000000
 80004ec:	f045 41fe 	orr.w	r1, r5, #2130706432	; 0x7f000000
 80004f0:	f441 0170 	orr.w	r1, r1, #15728640	; 0xf00000
 80004f4:	f04f 0000 	mov.w	r0, #0
 80004f8:	bd30      	pop	{r4, r5, pc}
 80004fa:	ea7f 5c64 	mvns.w	ip, r4, asr #21
 80004fe:	bf1a      	itte	ne
 8000500:	4619      	movne	r1, r3
 8000502:	4610      	movne	r0, r2
 8000504:	ea7f 5c65 	mvnseq.w	ip, r5, asr #21
 8000508:	bf1c      	itt	ne
 800050a:	460b      	movne	r3, r1
 800050c:	4602      	movne	r2, r0
 800050e:	ea50 3401 	orrs.w	r4, r0, r1, lsl #12
 8000512:	bf06      	itte	eq
 8000514:	ea52 3503 	orrseq.w	r5, r2, r3, lsl #12
 8000518:	ea91 0f03 	teqeq	r1, r3
 800051c:	f441 2100 	orrne.w	r1, r1, #524288	; 0x80000
 8000520:	bd30      	pop	{r4, r5, pc}
 8000522:	bf00      	nop

08000524 <__aeabi_ui2d>:
 8000524:	f090 0f00 	teq	r0, #0
 8000528:	bf04      	itt	eq
 800052a:	2100      	moveq	r1, #0
 800052c:	4770      	bxeq	lr
 800052e:	b530      	push	{r4, r5, lr}
 8000530:	f44f 6480 	mov.w	r4, #1024	; 0x400
 8000534:	f104 0432 	add.w	r4, r4, #50	; 0x32
 8000538:	f04f 0500 	mov.w	r5, #0
 800053c:	f04f 0100 	mov.w	r1, #0
 8000540:	e750      	b.n	80003e4 <__adddf3+0x138>
 8000542:	bf00      	nop

08000544 <__aeabi_i2d>:
 8000544:	f090 0f00 	teq	r0, #0
 8000548:	bf04      	itt	eq
 800054a:	2100      	moveq	r1, #0
 800054c:	4770      	bxeq	lr
 800054e:	b530      	push	{r4, r5, lr}
 8000550:	f44f 6480 	mov.w	r4, #1024	; 0x400
 8000554:	f104 0432 	add.w	r4, r4, #50	; 0x32
 8000558:	f010 4500 	ands.w	r5, r0, #2147483648	; 0x80000000
 800055c:	bf48      	it	mi
 800055e:	4240      	negmi	r0, r0
 8000560:	f04f 0100 	mov.w	r1, #0
 8000564:	e73e      	b.n	80003e4 <__adddf3+0x138>
 8000566:	bf00      	nop

08000568 <__aeabi_f2d>:
 8000568:	0042      	lsls	r2, r0, #1
 800056a:	ea4f 01e2 	mov.w	r1, r2, asr #3
 800056e:	ea4f 0131 	mov.w	r1, r1, rrx
 8000572:	ea4f 7002 	mov.w	r0, r2, lsl #28
 8000576:	bf1f      	itttt	ne
 8000578:	f012 437f 	andsne.w	r3, r2, #4278190080	; 0xff000000
 800057c:	f093 4f7f 	teqne	r3, #4278190080	; 0xff000000
 8000580:	f081 5160 	eorne.w	r1, r1, #939524096	; 0x38000000
 8000584:	4770      	bxne	lr
 8000586:	f032 427f 	bics.w	r2, r2, #4278190080	; 0xff000000
 800058a:	bf08      	it	eq
 800058c:	4770      	bxeq	lr
 800058e:	f093 4f7f 	teq	r3, #4278190080	; 0xff000000
 8000592:	bf04      	itt	eq
 8000594:	f441 2100 	orreq.w	r1, r1, #524288	; 0x80000
 8000598:	4770      	bxeq	lr
 800059a:	b530      	push	{r4, r5, lr}
 800059c:	f44f 7460 	mov.w	r4, #896	; 0x380
 80005a0:	f001 4500 	and.w	r5, r1, #2147483648	; 0x80000000
 80005a4:	f021 4100 	bic.w	r1, r1, #2147483648	; 0x80000000
 80005a8:	e71c      	b.n	80003e4 <__adddf3+0x138>
 80005aa:	bf00      	nop

080005ac <__aeabi_ul2d>:
 80005ac:	ea50 0201 	orrs.w	r2, r0, r1
 80005b0:	bf08      	it	eq
 80005b2:	4770      	bxeq	lr
 80005b4:	b530      	push	{r4, r5, lr}
 80005b6:	f04f 0500 	mov.w	r5, #0
 80005ba:	e00a      	b.n	80005d2 <__aeabi_l2d+0x16>

080005bc <__aeabi_l2d>:
 80005bc:	ea50 0201 	orrs.w	r2, r0, r1
 80005c0:	bf08      	it	eq
 80005c2:	4770      	bxeq	lr
 80005c4:	b530      	push	{r4, r5, lr}
 80005c6:	f011 4500 	ands.w	r5, r1, #2147483648	; 0x80000000
 80005ca:	d502      	bpl.n	80005d2 <__aeabi_l2d+0x16>
 80005cc:	4240      	negs	r0, r0
 80005ce:	eb61 0141 	sbc.w	r1, r1, r1, lsl #1
 80005d2:	f44f 6480 	mov.w	r4, #1024	; 0x400
 80005d6:	f104 0432 	add.w	r4, r4, #50	; 0x32
 80005da:	ea5f 5c91 	movs.w	ip, r1, lsr #22
 80005de:	f43f aed8 	beq.w	8000392 <__adddf3+0xe6>
 80005e2:	f04f 0203 	mov.w	r2, #3
 80005e6:	ea5f 0cdc 	movs.w	ip, ip, lsr #3
 80005ea:	bf18      	it	ne
 80005ec:	3203      	addne	r2, #3
 80005ee:	ea5f 0cdc 	movs.w	ip, ip, lsr #3
 80005f2:	bf18      	it	ne
 80005f4:	3203      	addne	r2, #3
 80005f6:	eb02 02dc 	add.w	r2, r2, ip, lsr #3
 80005fa:	f1c2 0320 	rsb	r3, r2, #32
 80005fe:	fa00 fc03 	lsl.w	ip, r0, r3
 8000602:	fa20 f002 	lsr.w	r0, r0, r2
 8000606:	fa01 fe03 	lsl.w	lr, r1, r3
 800060a:	ea40 000e 	orr.w	r0, r0, lr
 800060e:	fa21 f102 	lsr.w	r1, r1, r2
 8000612:	4414      	add	r4, r2
 8000614:	e6bd      	b.n	8000392 <__adddf3+0xe6>
 8000616:	bf00      	nop

08000618 <__aeabi_dmul>:
 8000618:	b570      	push	{r4, r5, r6, lr}
 800061a:	f04f 0cff 	mov.w	ip, #255	; 0xff
 800061e:	f44c 6ce0 	orr.w	ip, ip, #1792	; 0x700
 8000622:	ea1c 5411 	ands.w	r4, ip, r1, lsr #20
 8000626:	bf1d      	ittte	ne
 8000628:	ea1c 5513 	andsne.w	r5, ip, r3, lsr #20
 800062c:	ea94 0f0c 	teqne	r4, ip
 8000630:	ea95 0f0c 	teqne	r5, ip
 8000634:	f000 f8de 	bleq	80007f4 <__aeabi_dmul+0x1dc>
 8000638:	442c      	add	r4, r5
 800063a:	ea81 0603 	eor.w	r6, r1, r3
 800063e:	ea21 514c 	bic.w	r1, r1, ip, lsl #21
 8000642:	ea23 534c 	bic.w	r3, r3, ip, lsl #21
 8000646:	ea50 3501 	orrs.w	r5, r0, r1, lsl #12
 800064a:	bf18      	it	ne
 800064c:	ea52 3503 	orrsne.w	r5, r2, r3, lsl #12
 8000650:	f441 1180 	orr.w	r1, r1, #1048576	; 0x100000
 8000654:	f443 1380 	orr.w	r3, r3, #1048576	; 0x100000
 8000658:	d038      	beq.n	80006cc <__aeabi_dmul+0xb4>
 800065a:	fba0 ce02 	umull	ip, lr, r0, r2
 800065e:	f04f 0500 	mov.w	r5, #0
 8000662:	fbe1 e502 	umlal	lr, r5, r1, r2
 8000666:	f006 4200 	and.w	r2, r6, #2147483648	; 0x80000000
 800066a:	fbe0 e503 	umlal	lr, r5, r0, r3
 800066e:	f04f 0600 	mov.w	r6, #0
 8000672:	fbe1 5603 	umlal	r5, r6, r1, r3
 8000676:	f09c 0f00 	teq	ip, #0
 800067a:	bf18      	it	ne
 800067c:	f04e 0e01 	orrne.w	lr, lr, #1
 8000680:	f1a4 04ff 	sub.w	r4, r4, #255	; 0xff
 8000684:	f5b6 7f00 	cmp.w	r6, #512	; 0x200
 8000688:	f564 7440 	sbc.w	r4, r4, #768	; 0x300
 800068c:	d204      	bcs.n	8000698 <__aeabi_dmul+0x80>
 800068e:	ea5f 0e4e 	movs.w	lr, lr, lsl #1
 8000692:	416d      	adcs	r5, r5
 8000694:	eb46 0606 	adc.w	r6, r6, r6
 8000698:	ea42 21c6 	orr.w	r1, r2, r6, lsl #11
 800069c:	ea41 5155 	orr.w	r1, r1, r5, lsr #21
 80006a0:	ea4f 20c5 	mov.w	r0, r5, lsl #11
 80006a4:	ea40 505e 	orr.w	r0, r0, lr, lsr #21
 80006a8:	ea4f 2ece 	mov.w	lr, lr, lsl #11
 80006ac:	f1b4 0cfd 	subs.w	ip, r4, #253	; 0xfd
 80006b0:	bf88      	it	hi
 80006b2:	f5bc 6fe0 	cmphi.w	ip, #1792	; 0x700
 80006b6:	d81e      	bhi.n	80006f6 <__aeabi_dmul+0xde>
 80006b8:	f1be 4f00 	cmp.w	lr, #2147483648	; 0x80000000
 80006bc:	bf08      	it	eq
 80006be:	ea5f 0e50 	movseq.w	lr, r0, lsr #1
 80006c2:	f150 0000 	adcs.w	r0, r0, #0
 80006c6:	eb41 5104 	adc.w	r1, r1, r4, lsl #20
 80006ca:	bd70      	pop	{r4, r5, r6, pc}
 80006cc:	f006 4600 	and.w	r6, r6, #2147483648	; 0x80000000
 80006d0:	ea46 0101 	orr.w	r1, r6, r1
 80006d4:	ea40 0002 	orr.w	r0, r0, r2
 80006d8:	ea81 0103 	eor.w	r1, r1, r3
 80006dc:	ebb4 045c 	subs.w	r4, r4, ip, lsr #1
 80006e0:	bfc2      	ittt	gt
 80006e2:	ebd4 050c 	rsbsgt	r5, r4, ip
 80006e6:	ea41 5104 	orrgt.w	r1, r1, r4, lsl #20
 80006ea:	bd70      	popgt	{r4, r5, r6, pc}
 80006ec:	f441 1180 	orr.w	r1, r1, #1048576	; 0x100000
 80006f0:	f04f 0e00 	mov.w	lr, #0
 80006f4:	3c01      	subs	r4, #1
 80006f6:	f300 80ab 	bgt.w	8000850 <__aeabi_dmul+0x238>
 80006fa:	f114 0f36 	cmn.w	r4, #54	; 0x36
 80006fe:	bfde      	ittt	le
 8000700:	2000      	movle	r0, #0
 8000702:	f001 4100 	andle.w	r1, r1, #2147483648	; 0x80000000
 8000706:	bd70      	pople	{r4, r5, r6, pc}
 8000708:	f1c4 0400 	rsb	r4, r4, #0
 800070c:	3c20      	subs	r4, #32
 800070e:	da35      	bge.n	800077c <__aeabi_dmul+0x164>
 8000710:	340c      	adds	r4, #12
 8000712:	dc1b      	bgt.n	800074c <__aeabi_dmul+0x134>
 8000714:	f104 0414 	add.w	r4, r4, #20
 8000718:	f1c4 0520 	rsb	r5, r4, #32
 800071c:	fa00 f305 	lsl.w	r3, r0, r5
 8000720:	fa20 f004 	lsr.w	r0, r0, r4
 8000724:	fa01 f205 	lsl.w	r2, r1, r5
 8000728:	ea40 0002 	orr.w	r0, r0, r2
 800072c:	f001 4200 	and.w	r2, r1, #2147483648	; 0x80000000
 8000730:	f021 4100 	bic.w	r1, r1, #2147483648	; 0x80000000
 8000734:	eb10 70d3 	adds.w	r0, r0, r3, lsr #31
 8000738:	fa21 f604 	lsr.w	r6, r1, r4
 800073c:	eb42 0106 	adc.w	r1, r2, r6
 8000740:	ea5e 0e43 	orrs.w	lr, lr, r3, lsl #1
 8000744:	bf08      	it	eq
 8000746:	ea20 70d3 	biceq.w	r0, r0, r3, lsr #31
 800074a:	bd70      	pop	{r4, r5, r6, pc}
 800074c:	f1c4 040c 	rsb	r4, r4, #12
 8000750:	f1c4 0520 	rsb	r5, r4, #32
 8000754:	fa00 f304 	lsl.w	r3, r0, r4
 8000758:	fa20 f005 	lsr.w	r0, r0, r5
 800075c:	fa01 f204 	lsl.w	r2, r1, r4
 8000760:	ea40 0002 	orr.w	r0, r0, r2
 8000764:	f001 4100 	and.w	r1, r1, #2147483648	; 0x80000000
 8000768:	eb10 70d3 	adds.w	r0, r0, r3, lsr #31
 800076c:	f141 0100 	adc.w	r1, r1, #0
 8000770:	ea5e 0e43 	orrs.w	lr, lr, r3, lsl #1
 8000774:	bf08      	it	eq
 8000776:	ea20 70d3 	biceq.w	r0, r0, r3, lsr #31
 800077a:	bd70      	pop	{r4, r5, r6, pc}
 800077c:	f1c4 0520 	rsb	r5, r4, #32
 8000780:	fa00 f205 	lsl.w	r2, r0, r5
 8000784:	ea4e 0e02 	orr.w	lr, lr, r2
 8000788:	fa20 f304 	lsr.w	r3, r0, r4
 800078c:	fa01 f205 	lsl.w	r2, r1, r5
 8000790:	ea43 0302 	orr.w	r3, r3, r2
 8000794:	fa21 f004 	lsr.w	r0, r1, r4
 8000798:	f001 4100 	and.w	r1, r1, #2147483648	; 0x80000000
 800079c:	fa21 f204 	lsr.w	r2, r1, r4
 80007a0:	ea20 0002 	bic.w	r0, r0, r2
 80007a4:	eb00 70d3 	add.w	r0, r0, r3, lsr #31
 80007a8:	ea5e 0e43 	orrs.w	lr, lr, r3, lsl #1
 80007ac:	bf08      	it	eq
 80007ae:	ea20 70d3 	biceq.w	r0, r0, r3, lsr #31
 80007b2:	bd70      	pop	{r4, r5, r6, pc}
 80007b4:	f094 0f00 	teq	r4, #0
 80007b8:	d10f      	bne.n	80007da <__aeabi_dmul+0x1c2>
 80007ba:	f001 4600 	and.w	r6, r1, #2147483648	; 0x80000000
 80007be:	0040      	lsls	r0, r0, #1
 80007c0:	eb41 0101 	adc.w	r1, r1, r1
 80007c4:	f411 1f80 	tst.w	r1, #1048576	; 0x100000
 80007c8:	bf08      	it	eq
 80007ca:	3c01      	subeq	r4, #1
 80007cc:	d0f7      	beq.n	80007be <__aeabi_dmul+0x1a6>
 80007ce:	ea41 0106 	orr.w	r1, r1, r6
 80007d2:	f095 0f00 	teq	r5, #0
 80007d6:	bf18      	it	ne
 80007d8:	4770      	bxne	lr
 80007da:	f003 4600 	and.w	r6, r3, #2147483648	; 0x80000000
 80007de:	0052      	lsls	r2, r2, #1
 80007e0:	eb43 0303 	adc.w	r3, r3, r3
 80007e4:	f413 1f80 	tst.w	r3, #1048576	; 0x100000
 80007e8:	bf08      	it	eq
 80007ea:	3d01      	subeq	r5, #1
 80007ec:	d0f7      	beq.n	80007de <__aeabi_dmul+0x1c6>
 80007ee:	ea43 0306 	orr.w	r3, r3, r6
 80007f2:	4770      	bx	lr
 80007f4:	ea94 0f0c 	teq	r4, ip
 80007f8:	ea0c 5513 	and.w	r5, ip, r3, lsr #20
 80007fc:	bf18      	it	ne
 80007fe:	ea95 0f0c 	teqne	r5, ip
 8000802:	d00c      	beq.n	800081e <__aeabi_dmul+0x206>
 8000804:	ea50 0641 	orrs.w	r6, r0, r1, lsl #1
 8000808:	bf18      	it	ne
 800080a:	ea52 0643 	orrsne.w	r6, r2, r3, lsl #1
 800080e:	d1d1      	bne.n	80007b4 <__aeabi_dmul+0x19c>
 8000810:	ea81 0103 	eor.w	r1, r1, r3
 8000814:	f001 4100 	and.w	r1, r1, #2147483648	; 0x80000000
 8000818:	f04f 0000 	mov.w	r0, #0
 800081c:	bd70      	pop	{r4, r5, r6, pc}
 800081e:	ea50 0641 	orrs.w	r6, r0, r1, lsl #1
 8000822:	bf06      	itte	eq
 8000824:	4610      	moveq	r0, r2
 8000826:	4619      	moveq	r1, r3
 8000828:	ea52 0643 	orrsne.w	r6, r2, r3, lsl #1
 800082c:	d019      	beq.n	8000862 <__aeabi_dmul+0x24a>
 800082e:	ea94 0f0c 	teq	r4, ip
 8000832:	d102      	bne.n	800083a <__aeabi_dmul+0x222>
 8000834:	ea50 3601 	orrs.w	r6, r0, r1, lsl #12
 8000838:	d113      	bne.n	8000862 <__aeabi_dmul+0x24a>
 800083a:	ea95 0f0c 	teq	r5, ip
 800083e:	d105      	bne.n	800084c <__aeabi_dmul+0x234>
 8000840:	ea52 3603 	orrs.w	r6, r2, r3, lsl #12
 8000844:	bf1c      	itt	ne
 8000846:	4610      	movne	r0, r2
 8000848:	4619      	movne	r1, r3
 800084a:	d10a      	bne.n	8000862 <__aeabi_dmul+0x24a>
 800084c:	ea81 0103 	eor.w	r1, r1, r3
 8000850:	f001 4100 	and.w	r1, r1, #2147483648	; 0x80000000
 8000854:	f041 41fe 	orr.w	r1, r1, #2130706432	; 0x7f000000
 8000858:	f441 0170 	orr.w	r1, r1, #15728640	; 0xf00000
 800085c:	f04f 0000 	mov.w	r0, #0
 8000860:	bd70      	pop	{r4, r5, r6, pc}
 8000862:	f041 41fe 	orr.w	r1, r1, #2130706432	; 0x7f000000
 8000866:	f441 0178 	orr.w	r1, r1, #16252928	; 0xf80000
 800086a:	bd70      	pop	{r4, r5, r6, pc}

0800086c <__aeabi_ddiv>:
 800086c:	b570      	push	{r4, r5, r6, lr}
 800086e:	f04f 0cff 	mov.w	ip, #255	; 0xff
 8000872:	f44c 6ce0 	orr.w	ip, ip, #1792	; 0x700
 8000876:	ea1c 5411 	ands.w	r4, ip, r1, lsr #20
 800087a:	bf1d      	ittte	ne
 800087c:	ea1c 5513 	andsne.w	r5, ip, r3, lsr #20
 8000880:	ea94 0f0c 	teqne	r4, ip
 8000884:	ea95 0f0c 	teqne	r5, ip
 8000888:	f000 f8a7 	bleq	80009da <__aeabi_ddiv+0x16e>
 800088c:	eba4 0405 	sub.w	r4, r4, r5
 8000890:	ea81 0e03 	eor.w	lr, r1, r3
 8000894:	ea52 3503 	orrs.w	r5, r2, r3, lsl #12
 8000898:	ea4f 3101 	mov.w	r1, r1, lsl #12
 800089c:	f000 8088 	beq.w	80009b0 <__aeabi_ddiv+0x144>
 80008a0:	ea4f 3303 	mov.w	r3, r3, lsl #12
 80008a4:	f04f 5580 	mov.w	r5, #268435456	; 0x10000000
 80008a8:	ea45 1313 	orr.w	r3, r5, r3, lsr #4
 80008ac:	ea43 6312 	orr.w	r3, r3, r2, lsr #24
 80008b0:	ea4f 2202 	mov.w	r2, r2, lsl #8
 80008b4:	ea45 1511 	orr.w	r5, r5, r1, lsr #4
 80008b8:	ea45 6510 	orr.w	r5, r5, r0, lsr #24
 80008bc:	ea4f 2600 	mov.w	r6, r0, lsl #8
 80008c0:	f00e 4100 	and.w	r1, lr, #2147483648	; 0x80000000
 80008c4:	429d      	cmp	r5, r3
 80008c6:	bf08      	it	eq
 80008c8:	4296      	cmpeq	r6, r2
 80008ca:	f144 04fd 	adc.w	r4, r4, #253	; 0xfd
 80008ce:	f504 7440 	add.w	r4, r4, #768	; 0x300
 80008d2:	d202      	bcs.n	80008da <__aeabi_ddiv+0x6e>
 80008d4:	085b      	lsrs	r3, r3, #1
 80008d6:	ea4f 0232 	mov.w	r2, r2, rrx
 80008da:	1ab6      	subs	r6, r6, r2
 80008dc:	eb65 0503 	sbc.w	r5, r5, r3
 80008e0:	085b      	lsrs	r3, r3, #1
 80008e2:	ea4f 0232 	mov.w	r2, r2, rrx
 80008e6:	f44f 1080 	mov.w	r0, #1048576	; 0x100000
 80008ea:	f44f 2c00 	mov.w	ip, #524288	; 0x80000
 80008ee:	ebb6 0e02 	subs.w	lr, r6, r2
 80008f2:	eb75 0e03 	sbcs.w	lr, r5, r3
 80008f6:	bf22      	ittt	cs
 80008f8:	1ab6      	subcs	r6, r6, r2
 80008fa:	4675      	movcs	r5, lr
 80008fc:	ea40 000c 	orrcs.w	r0, r0, ip
 8000900:	085b      	lsrs	r3, r3, #1
 8000902:	ea4f 0232 	mov.w	r2, r2, rrx
 8000906:	ebb6 0e02 	subs.w	lr, r6, r2
 800090a:	eb75 0e03 	sbcs.w	lr, r5, r3
 800090e:	bf22      	ittt	cs
 8000910:	1ab6      	subcs	r6, r6, r2
 8000912:	4675      	movcs	r5, lr
 8000914:	ea40 005c 	orrcs.w	r0, r0, ip, lsr #1
 8000918:	085b      	lsrs	r3, r3, #1
 800091a:	ea4f 0232 	mov.w	r2, r2, rrx
 800091e:	ebb6 0e02 	subs.w	lr, r6, r2
 8000922:	eb75 0e03 	sbcs.w	lr, r5, r3
 8000926:	bf22      	ittt	cs
 8000928:	1ab6      	subcs	r6, r6, r2
 800092a:	4675      	movcs	r5, lr
 800092c:	ea40 009c 	orrcs.w	r0, r0, ip, lsr #2
 8000930:	085b      	lsrs	r3, r3, #1
 8000932:	ea4f 0232 	mov.w	r2, r2, rrx
 8000936:	ebb6 0e02 	subs.w	lr, r6, r2
 800093a:	eb75 0e03 	sbcs.w	lr, r5, r3
 800093e:	bf22      	ittt	cs
 8000940:	1ab6      	subcs	r6, r6, r2
 8000942:	4675      	movcs	r5, lr
 8000944:	ea40 00dc 	orrcs.w	r0, r0, ip, lsr #3
 8000948:	ea55 0e06 	orrs.w	lr, r5, r6
 800094c:	d018      	beq.n	8000980 <__aeabi_ddiv+0x114>
 800094e:	ea4f 1505 	mov.w	r5, r5, lsl #4
 8000952:	ea45 7516 	orr.w	r5, r5, r6, lsr #28
 8000956:	ea4f 1606 	mov.w	r6, r6, lsl #4
 800095a:	ea4f 03c3 	mov.w	r3, r3, lsl #3
 800095e:	ea43 7352 	orr.w	r3, r3, r2, lsr #29
 8000962:	ea4f 02c2 	mov.w	r2, r2, lsl #3
 8000966:	ea5f 1c1c 	movs.w	ip, ip, lsr #4
 800096a:	d1c0      	bne.n	80008ee <__aeabi_ddiv+0x82>
 800096c:	f411 1f80 	tst.w	r1, #1048576	; 0x100000
 8000970:	d10b      	bne.n	800098a <__aeabi_ddiv+0x11e>
 8000972:	ea41 0100 	orr.w	r1, r1, r0
 8000976:	f04f 0000 	mov.w	r0, #0
 800097a:	f04f 4c00 	mov.w	ip, #2147483648	; 0x80000000
 800097e:	e7b6      	b.n	80008ee <__aeabi_ddiv+0x82>
 8000980:	f411 1f80 	tst.w	r1, #1048576	; 0x100000
 8000984:	bf04      	itt	eq
 8000986:	4301      	orreq	r1, r0
 8000988:	2000      	moveq	r0, #0
 800098a:	f1b4 0cfd 	subs.w	ip, r4, #253	; 0xfd
 800098e:	bf88      	it	hi
 8000990:	f5bc 6fe0 	cmphi.w	ip, #1792	; 0x700
 8000994:	f63f aeaf 	bhi.w	80006f6 <__aeabi_dmul+0xde>
 8000998:	ebb5 0c03 	subs.w	ip, r5, r3
 800099c:	bf04      	itt	eq
 800099e:	ebb6 0c02 	subseq.w	ip, r6, r2
 80009a2:	ea5f 0c50 	movseq.w	ip, r0, lsr #1
 80009a6:	f150 0000 	adcs.w	r0, r0, #0
 80009aa:	eb41 5104 	adc.w	r1, r1, r4, lsl #20
 80009ae:	bd70      	pop	{r4, r5, r6, pc}
 80009b0:	f00e 4e00 	and.w	lr, lr, #2147483648	; 0x80000000
 80009b4:	ea4e 3111 	orr.w	r1, lr, r1, lsr #12
 80009b8:	eb14 045c 	adds.w	r4, r4, ip, lsr #1
 80009bc:	bfc2      	ittt	gt
 80009be:	ebd4 050c 	rsbsgt	r5, r4, ip
 80009c2:	ea41 5104 	orrgt.w	r1, r1, r4, lsl #20
 80009c6:	bd70      	popgt	{r4, r5, r6, pc}
 80009c8:	f441 1180 	orr.w	r1, r1, #1048576	; 0x100000
 80009cc:	f04f 0e00 	mov.w	lr, #0
 80009d0:	3c01      	subs	r4, #1
 80009d2:	e690      	b.n	80006f6 <__aeabi_dmul+0xde>
 80009d4:	ea45 0e06 	orr.w	lr, r5, r6
 80009d8:	e68d      	b.n	80006f6 <__aeabi_dmul+0xde>
 80009da:	ea0c 5513 	and.w	r5, ip, r3, lsr #20
 80009de:	ea94 0f0c 	teq	r4, ip
 80009e2:	bf08      	it	eq
 80009e4:	ea95 0f0c 	teqeq	r5, ip
 80009e8:	f43f af3b 	beq.w	8000862 <__aeabi_dmul+0x24a>
 80009ec:	ea94 0f0c 	teq	r4, ip
 80009f0:	d10a      	bne.n	8000a08 <__aeabi_ddiv+0x19c>
 80009f2:	ea50 3401 	orrs.w	r4, r0, r1, lsl #12
 80009f6:	f47f af34 	bne.w	8000862 <__aeabi_dmul+0x24a>
 80009fa:	ea95 0f0c 	teq	r5, ip
 80009fe:	f47f af25 	bne.w	800084c <__aeabi_dmul+0x234>
 8000a02:	4610      	mov	r0, r2
 8000a04:	4619      	mov	r1, r3
 8000a06:	e72c      	b.n	8000862 <__aeabi_dmul+0x24a>
 8000a08:	ea95 0f0c 	teq	r5, ip
 8000a0c:	d106      	bne.n	8000a1c <__aeabi_ddiv+0x1b0>
 8000a0e:	ea52 3503 	orrs.w	r5, r2, r3, lsl #12
 8000a12:	f43f aefd 	beq.w	8000810 <__aeabi_dmul+0x1f8>
 8000a16:	4610      	mov	r0, r2
 8000a18:	4619      	mov	r1, r3
 8000a1a:	e722      	b.n	8000862 <__aeabi_dmul+0x24a>
 8000a1c:	ea50 0641 	orrs.w	r6, r0, r1, lsl #1
 8000a20:	bf18      	it	ne
 8000a22:	ea52 0643 	orrsne.w	r6, r2, r3, lsl #1
 8000a26:	f47f aec5 	bne.w	80007b4 <__aeabi_dmul+0x19c>
 8000a2a:	ea50 0441 	orrs.w	r4, r0, r1, lsl #1
 8000a2e:	f47f af0d 	bne.w	800084c <__aeabi_dmul+0x234>
 8000a32:	ea52 0543 	orrs.w	r5, r2, r3, lsl #1
 8000a36:	f47f aeeb 	bne.w	8000810 <__aeabi_dmul+0x1f8>
 8000a3a:	e712      	b.n	8000862 <__aeabi_dmul+0x24a>

08000a3c <__gedf2>:
 8000a3c:	f04f 3cff 	mov.w	ip, #4294967295
 8000a40:	e006      	b.n	8000a50 <__cmpdf2+0x4>
 8000a42:	bf00      	nop

08000a44 <__ledf2>:
 8000a44:	f04f 0c01 	mov.w	ip, #1
 8000a48:	e002      	b.n	8000a50 <__cmpdf2+0x4>
 8000a4a:	bf00      	nop

08000a4c <__cmpdf2>:
 8000a4c:	f04f 0c01 	mov.w	ip, #1
 8000a50:	f84d cd04 	str.w	ip, [sp, #-4]!
 8000a54:	ea4f 0c41 	mov.w	ip, r1, lsl #1
 8000a58:	ea7f 5c6c 	mvns.w	ip, ip, asr #21
 8000a5c:	ea4f 0c43 	mov.w	ip, r3, lsl #1
 8000a60:	bf18      	it	ne
 8000a62:	ea7f 5c6c 	mvnsne.w	ip, ip, asr #21
 8000a66:	d01b      	beq.n	8000aa0 <__cmpdf2+0x54>
 8000a68:	b001      	add	sp, #4
 8000a6a:	ea50 0c41 	orrs.w	ip, r0, r1, lsl #1
 8000a6e:	bf0c      	ite	eq
 8000a70:	ea52 0c43 	orrseq.w	ip, r2, r3, lsl #1
 8000a74:	ea91 0f03 	teqne	r1, r3
 8000a78:	bf02      	ittt	eq
 8000a7a:	ea90 0f02 	teqeq	r0, r2
 8000a7e:	2000      	moveq	r0, #0
 8000a80:	4770      	bxeq	lr
 8000a82:	f110 0f00 	cmn.w	r0, #0
 8000a86:	ea91 0f03 	teq	r1, r3
 8000a8a:	bf58      	it	pl
 8000a8c:	4299      	cmppl	r1, r3
 8000a8e:	bf08      	it	eq
 8000a90:	4290      	cmpeq	r0, r2
 8000a92:	bf2c      	ite	cs
 8000a94:	17d8      	asrcs	r0, r3, #31
 8000a96:	ea6f 70e3 	mvncc.w	r0, r3, asr #31
 8000a9a:	f040 0001 	orr.w	r0, r0, #1
 8000a9e:	4770      	bx	lr
 8000aa0:	ea4f 0c41 	mov.w	ip, r1, lsl #1
 8000aa4:	ea7f 5c6c 	mvns.w	ip, ip, asr #21
 8000aa8:	d102      	bne.n	8000ab0 <__cmpdf2+0x64>
 8000aaa:	ea50 3c01 	orrs.w	ip, r0, r1, lsl #12
 8000aae:	d107      	bne.n	8000ac0 <__cmpdf2+0x74>
 8000ab0:	ea4f 0c43 	mov.w	ip, r3, lsl #1
 8000ab4:	ea7f 5c6c 	mvns.w	ip, ip, asr #21
 8000ab8:	d1d6      	bne.n	8000a68 <__cmpdf2+0x1c>
 8000aba:	ea52 3c03 	orrs.w	ip, r2, r3, lsl #12
 8000abe:	d0d3      	beq.n	8000a68 <__cmpdf2+0x1c>
 8000ac0:	f85d 0b04 	ldr.w	r0, [sp], #4
 8000ac4:	4770      	bx	lr
 8000ac6:	bf00      	nop

08000ac8 <__aeabi_cdrcmple>:
 8000ac8:	4684      	mov	ip, r0
 8000aca:	4610      	mov	r0, r2
 8000acc:	4662      	mov	r2, ip
 8000ace:	468c      	mov	ip, r1
 8000ad0:	4619      	mov	r1, r3
 8000ad2:	4663      	mov	r3, ip
 8000ad4:	e000      	b.n	8000ad8 <__aeabi_cdcmpeq>
 8000ad6:	bf00      	nop

08000ad8 <__aeabi_cdcmpeq>:
 8000ad8:	b501      	push	{r0, lr}
 8000ada:	f7ff ffb7 	bl	8000a4c <__cmpdf2>
 8000ade:	2800      	cmp	r0, #0
 8000ae0:	bf48      	it	mi
 8000ae2:	f110 0f00 	cmnmi.w	r0, #0
 8000ae6:	bd01      	pop	{r0, pc}

08000ae8 <__aeabi_dcmpeq>:
 8000ae8:	f84d ed08 	str.w	lr, [sp, #-8]!
 8000aec:	f7ff fff4 	bl	8000ad8 <__aeabi_cdcmpeq>
 8000af0:	bf0c      	ite	eq
 8000af2:	2001      	moveq	r0, #1
 8000af4:	2000      	movne	r0, #0
 8000af6:	f85d fb08 	ldr.w	pc, [sp], #8
 8000afa:	bf00      	nop

08000afc <__aeabi_dcmplt>:
 8000afc:	f84d ed08 	str.w	lr, [sp, #-8]!
 8000b00:	f7ff ffea 	bl	8000ad8 <__aeabi_cdcmpeq>
 8000b04:	bf34      	ite	cc
 8000b06:	2001      	movcc	r0, #1
 8000b08:	2000      	movcs	r0, #0
 8000b0a:	f85d fb08 	ldr.w	pc, [sp], #8
 8000b0e:	bf00      	nop

08000b10 <__aeabi_dcmple>:
 8000b10:	f84d ed08 	str.w	lr, [sp, #-8]!
 8000b14:	f7ff ffe0 	bl	8000ad8 <__aeabi_cdcmpeq>
 8000b18:	bf94      	ite	ls
 8000b1a:	2001      	movls	r0, #1
 8000b1c:	2000      	movhi	r0, #0
 8000b1e:	f85d fb08 	ldr.w	pc, [sp], #8
 8000b22:	bf00      	nop

08000b24 <__aeabi_dcmpge>:
 8000b24:	f84d ed08 	str.w	lr, [sp, #-8]!
 8000b28:	f7ff ffce 	bl	8000ac8 <__aeabi_cdrcmple>
 8000b2c:	bf94      	ite	ls
 8000b2e:	2001      	movls	r0, #1
 8000b30:	2000      	movhi	r0, #0
 8000b32:	f85d fb08 	ldr.w	pc, [sp], #8
 8000b36:	bf00      	nop

08000b38 <__aeabi_dcmpgt>:
 8000b38:	f84d ed08 	str.w	lr, [sp, #-8]!
 8000b3c:	f7ff ffc4 	bl	8000ac8 <__aeabi_cdrcmple>
 8000b40:	bf34      	ite	cc
 8000b42:	2001      	movcc	r0, #1
 8000b44:	2000      	movcs	r0, #0
 8000b46:	f85d fb08 	ldr.w	pc, [sp], #8
 8000b4a:	bf00      	nop

08000b4c <__aeabi_dcmpun>:
 8000b4c:	ea4f 0c41 	mov.w	ip, r1, lsl #1
 8000b50:	ea7f 5c6c 	mvns.w	ip, ip, asr #21
 8000b54:	d102      	bne.n	8000b5c <__aeabi_dcmpun+0x10>
 8000b56:	ea50 3c01 	orrs.w	ip, r0, r1, lsl #12
 8000b5a:	d10a      	bne.n	8000b72 <__aeabi_dcmpun+0x26>
 8000b5c:	ea4f 0c43 	mov.w	ip, r3, lsl #1
 8000b60:	ea7f 5c6c 	mvns.w	ip, ip, asr #21
 8000b64:	d102      	bne.n	8000b6c <__aeabi_dcmpun+0x20>
 8000b66:	ea52 3c03 	orrs.w	ip, r2, r3, lsl #12
 8000b6a:	d102      	bne.n	8000b72 <__aeabi_dcmpun+0x26>
 8000b6c:	f04f 0000 	mov.w	r0, #0
 8000b70:	4770      	bx	lr
 8000b72:	f04f 0001 	mov.w	r0, #1
 8000b76:	4770      	bx	lr

08000b78 <__aeabi_d2iz>:
 8000b78:	ea4f 0241 	mov.w	r2, r1, lsl #1
 8000b7c:	f512 1200 	adds.w	r2, r2, #2097152	; 0x200000
 8000b80:	d215      	bcs.n	8000bae <__aeabi_d2iz+0x36>
 8000b82:	d511      	bpl.n	8000ba8 <__aeabi_d2iz+0x30>
 8000b84:	f46f 7378 	mvn.w	r3, #992	; 0x3e0
 8000b88:	ebb3 5262 	subs.w	r2, r3, r2, asr #21
 8000b8c:	d912      	bls.n	8000bb4 <__aeabi_d2iz+0x3c>
 8000b8e:	ea4f 23c1 	mov.w	r3, r1, lsl #11
 8000b92:	f043 4300 	orr.w	r3, r3, #2147483648	; 0x80000000
 8000b96:	ea43 5350 	orr.w	r3, r3, r0, lsr #21
 8000b9a:	f011 4f00 	tst.w	r1, #2147483648	; 0x80000000
 8000b9e:	fa23 f002 	lsr.w	r0, r3, r2
 8000ba2:	bf18      	it	ne
 8000ba4:	4240      	negne	r0, r0
 8000ba6:	4770      	bx	lr
 8000ba8:	f04f 0000 	mov.w	r0, #0
 8000bac:	4770      	bx	lr
 8000bae:	ea50 3001 	orrs.w	r0, r0, r1, lsl #12
 8000bb2:	d105      	bne.n	8000bc0 <__aeabi_d2iz+0x48>
 8000bb4:	f011 4000 	ands.w	r0, r1, #2147483648	; 0x80000000
 8000bb8:	bf08      	it	eq
 8000bba:	f06f 4000 	mvneq.w	r0, #2147483648	; 0x80000000
 8000bbe:	4770      	bx	lr
 8000bc0:	f04f 0000 	mov.w	r0, #0
 8000bc4:	4770      	bx	lr
 8000bc6:	bf00      	nop

08000bc8 <__aeabi_d2uiz>:
 8000bc8:	004a      	lsls	r2, r1, #1
 8000bca:	d211      	bcs.n	8000bf0 <__aeabi_d2uiz+0x28>
 8000bcc:	f512 1200 	adds.w	r2, r2, #2097152	; 0x200000
 8000bd0:	d211      	bcs.n	8000bf6 <__aeabi_d2uiz+0x2e>
 8000bd2:	d50d      	bpl.n	8000bf0 <__aeabi_d2uiz+0x28>
 8000bd4:	f46f 7378 	mvn.w	r3, #992	; 0x3e0
 8000bd8:	ebb3 5262 	subs.w	r2, r3, r2, asr #21
 8000bdc:	d40e      	bmi.n	8000bfc <__aeabi_d2uiz+0x34>
 8000bde:	ea4f 23c1 	mov.w	r3, r1, lsl #11
 8000be2:	f043 4300 	orr.w	r3, r3, #2147483648	; 0x80000000
 8000be6:	ea43 5350 	orr.w	r3, r3, r0, lsr #21
 8000bea:	fa23 f002 	lsr.w	r0, r3, r2
 8000bee:	4770      	bx	lr
 8000bf0:	f04f 0000 	mov.w	r0, #0
 8000bf4:	4770      	bx	lr
 8000bf6:	ea50 3001 	orrs.w	r0, r0, r1, lsl #12
 8000bfa:	d102      	bne.n	8000c02 <__aeabi_d2uiz+0x3a>
 8000bfc:	f04f 30ff 	mov.w	r0, #4294967295
 8000c00:	4770      	bx	lr
 8000c02:	f04f 0000 	mov.w	r0, #0
 8000c06:	4770      	bx	lr

08000c08 <__aeabi_d2f>:
 8000c08:	ea4f 0241 	mov.w	r2, r1, lsl #1
 8000c0c:	f1b2 43e0 	subs.w	r3, r2, #1879048192	; 0x70000000
 8000c10:	bf24      	itt	cs
 8000c12:	f5b3 1c00 	subscs.w	ip, r3, #2097152	; 0x200000
 8000c16:	f1dc 5cfe 	rsbscs	ip, ip, #532676608	; 0x1fc00000
 8000c1a:	d90d      	bls.n	8000c38 <__aeabi_d2f+0x30>
 8000c1c:	f001 4c00 	and.w	ip, r1, #2147483648	; 0x80000000
 8000c20:	ea4f 02c0 	mov.w	r2, r0, lsl #3
 8000c24:	ea4c 7050 	orr.w	r0, ip, r0, lsr #29
 8000c28:	f1b2 4f00 	cmp.w	r2, #2147483648	; 0x80000000
 8000c2c:	eb40 0083 	adc.w	r0, r0, r3, lsl #2
 8000c30:	bf08      	it	eq
 8000c32:	f020 0001 	biceq.w	r0, r0, #1
 8000c36:	4770      	bx	lr
 8000c38:	f011 4f80 	tst.w	r1, #1073741824	; 0x40000000
 8000c3c:	d121      	bne.n	8000c82 <__aeabi_d2f+0x7a>
 8000c3e:	f113 7238 	adds.w	r2, r3, #48234496	; 0x2e00000
 8000c42:	bfbc      	itt	lt
 8000c44:	f001 4000 	andlt.w	r0, r1, #2147483648	; 0x80000000
 8000c48:	4770      	bxlt	lr
 8000c4a:	f441 1180 	orr.w	r1, r1, #1048576	; 0x100000
 8000c4e:	ea4f 5252 	mov.w	r2, r2, lsr #21
 8000c52:	f1c2 0218 	rsb	r2, r2, #24
 8000c56:	f1c2 0c20 	rsb	ip, r2, #32
 8000c5a:	fa10 f30c 	lsls.w	r3, r0, ip
 8000c5e:	fa20 f002 	lsr.w	r0, r0, r2
 8000c62:	bf18      	it	ne
 8000c64:	f040 0001 	orrne.w	r0, r0, #1
 8000c68:	ea4f 23c1 	mov.w	r3, r1, lsl #11
 8000c6c:	ea4f 23d3 	mov.w	r3, r3, lsr #11
 8000c70:	fa03 fc0c 	lsl.w	ip, r3, ip
 8000c74:	ea40 000c 	orr.w	r0, r0, ip
 8000c78:	fa23 f302 	lsr.w	r3, r3, r2
 8000c7c:	ea4f 0343 	mov.w	r3, r3, lsl #1
 8000c80:	e7cc      	b.n	8000c1c <__aeabi_d2f+0x14>
 8000c82:	ea7f 5362 	mvns.w	r3, r2, asr #21
 8000c86:	d107      	bne.n	8000c98 <__aeabi_d2f+0x90>
 8000c88:	ea50 3301 	orrs.w	r3, r0, r1, lsl #12
 8000c8c:	bf1e      	ittt	ne
 8000c8e:	f04f 40fe 	movne.w	r0, #2130706432	; 0x7f000000
 8000c92:	f440 0040 	orrne.w	r0, r0, #12582912	; 0xc00000
 8000c96:	4770      	bxne	lr
 8000c98:	f001 4000 	and.w	r0, r1, #2147483648	; 0x80000000
 8000c9c:	f040 40fe 	orr.w	r0, r0, #2130706432	; 0x7f000000
 8000ca0:	f440 0000 	orr.w	r0, r0, #8388608	; 0x800000
 8000ca4:	4770      	bx	lr
 8000ca6:	bf00      	nop

08000ca8 <__aeabi_uldivmod>:
 8000ca8:	b953      	cbnz	r3, 8000cc0 <__aeabi_uldivmod+0x18>
 8000caa:	b94a      	cbnz	r2, 8000cc0 <__aeabi_uldivmod+0x18>
 8000cac:	2900      	cmp	r1, #0
 8000cae:	bf08      	it	eq
 8000cb0:	2800      	cmpeq	r0, #0
 8000cb2:	bf1c      	itt	ne
 8000cb4:	f04f 31ff 	movne.w	r1, #4294967295
 8000cb8:	f04f 30ff 	movne.w	r0, #4294967295
 8000cbc:	f000 b9a4 	b.w	8001008 <__aeabi_idiv0>
 8000cc0:	f1ad 0c08 	sub.w	ip, sp, #8
 8000cc4:	e96d ce04 	strd	ip, lr, [sp, #-16]!
 8000cc8:	f000 f83c 	bl	8000d44 <__udivmoddi4>
 8000ccc:	f8dd e004 	ldr.w	lr, [sp, #4]
 8000cd0:	e9dd 2302 	ldrd	r2, r3, [sp, #8]
 8000cd4:	b004      	add	sp, #16
 8000cd6:	4770      	bx	lr

08000cd8 <__aeabi_d2lz>:
 8000cd8:	b538      	push	{r3, r4, r5, lr}
 8000cda:	2200      	movs	r2, #0
 8000cdc:	2300      	movs	r3, #0
 8000cde:	4604      	mov	r4, r0
 8000ce0:	460d      	mov	r5, r1
 8000ce2:	f7ff ff0b 	bl	8000afc <__aeabi_dcmplt>
 8000ce6:	b928      	cbnz	r0, 8000cf4 <__aeabi_d2lz+0x1c>
 8000ce8:	4620      	mov	r0, r4
 8000cea:	4629      	mov	r1, r5
 8000cec:	e8bd 4038 	ldmia.w	sp!, {r3, r4, r5, lr}
 8000cf0:	f000 b80a 	b.w	8000d08 <__aeabi_d2ulz>
 8000cf4:	4620      	mov	r0, r4
 8000cf6:	f105 4100 	add.w	r1, r5, #2147483648	; 0x80000000
 8000cfa:	f000 f805 	bl	8000d08 <__aeabi_d2ulz>
 8000cfe:	4240      	negs	r0, r0
 8000d00:	eb61 0141 	sbc.w	r1, r1, r1, lsl #1
 8000d04:	bd38      	pop	{r3, r4, r5, pc}
 8000d06:	bf00      	nop

08000d08 <__aeabi_d2ulz>:
 8000d08:	b5d0      	push	{r4, r6, r7, lr}
 8000d0a:	4b0c      	ldr	r3, [pc, #48]	; (8000d3c <__aeabi_d2ulz+0x34>)
 8000d0c:	2200      	movs	r2, #0
 8000d0e:	4606      	mov	r6, r0
 8000d10:	460f      	mov	r7, r1
 8000d12:	f7ff fc81 	bl	8000618 <__aeabi_dmul>
 8000d16:	f7ff ff57 	bl	8000bc8 <__aeabi_d2uiz>
 8000d1a:	4604      	mov	r4, r0
 8000d1c:	f7ff fc02 	bl	8000524 <__aeabi_ui2d>
 8000d20:	4b07      	ldr	r3, [pc, #28]	; (8000d40 <__aeabi_d2ulz+0x38>)
 8000d22:	2200      	movs	r2, #0
 8000d24:	f7ff fc78 	bl	8000618 <__aeabi_dmul>
 8000d28:	4602      	mov	r2, r0
 8000d2a:	460b      	mov	r3, r1
 8000d2c:	4630      	mov	r0, r6
 8000d2e:	4639      	mov	r1, r7
 8000d30:	f7ff faba 	bl	80002a8 <__aeabi_dsub>
 8000d34:	f7ff ff48 	bl	8000bc8 <__aeabi_d2uiz>
 8000d38:	4621      	mov	r1, r4
 8000d3a:	bdd0      	pop	{r4, r6, r7, pc}
 8000d3c:	3df00000 	.word	0x3df00000
 8000d40:	41f00000 	.word	0x41f00000

08000d44 <__udivmoddi4>:
 8000d44:	e92d 47f0 	stmdb	sp!, {r4, r5, r6, r7, r8, r9, sl, lr}
 8000d48:	9d08      	ldr	r5, [sp, #32]
 8000d4a:	4604      	mov	r4, r0
 8000d4c:	468c      	mov	ip, r1
 8000d4e:	2b00      	cmp	r3, #0
 8000d50:	f040 8083 	bne.w	8000e5a <__udivmoddi4+0x116>
 8000d54:	428a      	cmp	r2, r1
 8000d56:	4617      	mov	r7, r2
 8000d58:	d947      	bls.n	8000dea <__udivmoddi4+0xa6>
 8000d5a:	fab2 f282 	clz	r2, r2
 8000d5e:	b142      	cbz	r2, 8000d72 <__udivmoddi4+0x2e>
 8000d60:	f1c2 0020 	rsb	r0, r2, #32
 8000d64:	fa24 f000 	lsr.w	r0, r4, r0
 8000d68:	4091      	lsls	r1, r2
 8000d6a:	4097      	lsls	r7, r2
 8000d6c:	ea40 0c01 	orr.w	ip, r0, r1
 8000d70:	4094      	lsls	r4, r2
 8000d72:	ea4f 4817 	mov.w	r8, r7, lsr #16
 8000d76:	0c23      	lsrs	r3, r4, #16
 8000d78:	fbbc f6f8 	udiv	r6, ip, r8
 8000d7c:	fa1f fe87 	uxth.w	lr, r7
 8000d80:	fb08 c116 	mls	r1, r8, r6, ip
 8000d84:	ea43 4301 	orr.w	r3, r3, r1, lsl #16
 8000d88:	fb06 f10e 	mul.w	r1, r6, lr
 8000d8c:	4299      	cmp	r1, r3
 8000d8e:	d909      	bls.n	8000da4 <__udivmoddi4+0x60>
 8000d90:	18fb      	adds	r3, r7, r3
 8000d92:	f106 30ff 	add.w	r0, r6, #4294967295
 8000d96:	f080 8119 	bcs.w	8000fcc <__udivmoddi4+0x288>
 8000d9a:	4299      	cmp	r1, r3
 8000d9c:	f240 8116 	bls.w	8000fcc <__udivmoddi4+0x288>
 8000da0:	3e02      	subs	r6, #2
 8000da2:	443b      	add	r3, r7
 8000da4:	1a5b      	subs	r3, r3, r1
 8000da6:	b2a4      	uxth	r4, r4
 8000da8:	fbb3 f0f8 	udiv	r0, r3, r8
 8000dac:	fb08 3310 	mls	r3, r8, r0, r3
 8000db0:	ea44 4403 	orr.w	r4, r4, r3, lsl #16
 8000db4:	fb00 fe0e 	mul.w	lr, r0, lr
 8000db8:	45a6      	cmp	lr, r4
 8000dba:	d909      	bls.n	8000dd0 <__udivmoddi4+0x8c>
 8000dbc:	193c      	adds	r4, r7, r4
 8000dbe:	f100 33ff 	add.w	r3, r0, #4294967295
 8000dc2:	f080 8105 	bcs.w	8000fd0 <__udivmoddi4+0x28c>
 8000dc6:	45a6      	cmp	lr, r4
 8000dc8:	f240 8102 	bls.w	8000fd0 <__udivmoddi4+0x28c>
 8000dcc:	3802      	subs	r0, #2
 8000dce:	443c      	add	r4, r7
 8000dd0:	ea40 4006 	orr.w	r0, r0, r6, lsl #16
 8000dd4:	eba4 040e 	sub.w	r4, r4, lr
 8000dd8:	2600      	movs	r6, #0
 8000dda:	b11d      	cbz	r5, 8000de4 <__udivmoddi4+0xa0>
 8000ddc:	40d4      	lsrs	r4, r2
 8000dde:	2300      	movs	r3, #0
 8000de0:	e9c5 4300 	strd	r4, r3, [r5]
 8000de4:	4631      	mov	r1, r6
 8000de6:	e8bd 87f0 	ldmia.w	sp!, {r4, r5, r6, r7, r8, r9, sl, pc}
 8000dea:	b902      	cbnz	r2, 8000dee <__udivmoddi4+0xaa>
 8000dec:	deff      	udf	#255	; 0xff
 8000dee:	fab2 f282 	clz	r2, r2
 8000df2:	2a00      	cmp	r2, #0
 8000df4:	d150      	bne.n	8000e98 <__udivmoddi4+0x154>
 8000df6:	1bcb      	subs	r3, r1, r7
 8000df8:	ea4f 4e17 	mov.w	lr, r7, lsr #16
 8000dfc:	fa1f f887 	uxth.w	r8, r7
 8000e00:	2601      	movs	r6, #1
 8000e02:	fbb3 fcfe 	udiv	ip, r3, lr
 8000e06:	0c21      	lsrs	r1, r4, #16
 8000e08:	fb0e 331c 	mls	r3, lr, ip, r3
 8000e0c:	ea41 4103 	orr.w	r1, r1, r3, lsl #16
 8000e10:	fb08 f30c 	mul.w	r3, r8, ip
 8000e14:	428b      	cmp	r3, r1
 8000e16:	d907      	bls.n	8000e28 <__udivmoddi4+0xe4>
 8000e18:	1879      	adds	r1, r7, r1
 8000e1a:	f10c 30ff 	add.w	r0, ip, #4294967295
 8000e1e:	d202      	bcs.n	8000e26 <__udivmoddi4+0xe2>
 8000e20:	428b      	cmp	r3, r1
 8000e22:	f200 80e9 	bhi.w	8000ff8 <__udivmoddi4+0x2b4>
 8000e26:	4684      	mov	ip, r0
 8000e28:	1ac9      	subs	r1, r1, r3
 8000e2a:	b2a3      	uxth	r3, r4
 8000e2c:	fbb1 f0fe 	udiv	r0, r1, lr
 8000e30:	fb0e 1110 	mls	r1, lr, r0, r1
 8000e34:	ea43 4401 	orr.w	r4, r3, r1, lsl #16
 8000e38:	fb08 f800 	mul.w	r8, r8, r0
 8000e3c:	45a0      	cmp	r8, r4
 8000e3e:	d907      	bls.n	8000e50 <__udivmoddi4+0x10c>
 8000e40:	193c      	adds	r4, r7, r4
 8000e42:	f100 33ff 	add.w	r3, r0, #4294967295
 8000e46:	d202      	bcs.n	8000e4e <__udivmoddi4+0x10a>
 8000e48:	45a0      	cmp	r8, r4
 8000e4a:	f200 80d9 	bhi.w	8001000 <__udivmoddi4+0x2bc>
 8000e4e:	4618      	mov	r0, r3
 8000e50:	eba4 0408 	sub.w	r4, r4, r8
 8000e54:	ea40 400c 	orr.w	r0, r0, ip, lsl #16
 8000e58:	e7bf      	b.n	8000dda <__udivmoddi4+0x96>
 8000e5a:	428b      	cmp	r3, r1
 8000e5c:	d909      	bls.n	8000e72 <__udivmoddi4+0x12e>
 8000e5e:	2d00      	cmp	r5, #0
 8000e60:	f000 80b1 	beq.w	8000fc6 <__udivmoddi4+0x282>
 8000e64:	2600      	movs	r6, #0
 8000e66:	e9c5 0100 	strd	r0, r1, [r5]
 8000e6a:	4630      	mov	r0, r6
 8000e6c:	4631      	mov	r1, r6
 8000e6e:	e8bd 87f0 	ldmia.w	sp!, {r4, r5, r6, r7, r8, r9, sl, pc}
 8000e72:	fab3 f683 	clz	r6, r3
 8000e76:	2e00      	cmp	r6, #0
 8000e78:	d14a      	bne.n	8000f10 <__udivmoddi4+0x1cc>
 8000e7a:	428b      	cmp	r3, r1
 8000e7c:	d302      	bcc.n	8000e84 <__udivmoddi4+0x140>
 8000e7e:	4282      	cmp	r2, r0
 8000e80:	f200 80b8 	bhi.w	8000ff4 <__udivmoddi4+0x2b0>
 8000e84:	1a84      	subs	r4, r0, r2
 8000e86:	eb61 0103 	sbc.w	r1, r1, r3
 8000e8a:	2001      	movs	r0, #1
 8000e8c:	468c      	mov	ip, r1
 8000e8e:	2d00      	cmp	r5, #0
 8000e90:	d0a8      	beq.n	8000de4 <__udivmoddi4+0xa0>
 8000e92:	e9c5 4c00 	strd	r4, ip, [r5]
 8000e96:	e7a5      	b.n	8000de4 <__udivmoddi4+0xa0>
 8000e98:	f1c2 0320 	rsb	r3, r2, #32
 8000e9c:	fa20 f603 	lsr.w	r6, r0, r3
 8000ea0:	4097      	lsls	r7, r2
 8000ea2:	fa01 f002 	lsl.w	r0, r1, r2
 8000ea6:	ea4f 4e17 	mov.w	lr, r7, lsr #16
 8000eaa:	40d9      	lsrs	r1, r3
 8000eac:	4330      	orrs	r0, r6
 8000eae:	0c03      	lsrs	r3, r0, #16
 8000eb0:	fbb1 f6fe 	udiv	r6, r1, lr
 8000eb4:	fa1f f887 	uxth.w	r8, r7
 8000eb8:	fb0e 1116 	mls	r1, lr, r6, r1
 8000ebc:	ea43 4301 	orr.w	r3, r3, r1, lsl #16
 8000ec0:	fb06 f108 	mul.w	r1, r6, r8
 8000ec4:	4299      	cmp	r1, r3
 8000ec6:	fa04 f402 	lsl.w	r4, r4, r2
 8000eca:	d909      	bls.n	8000ee0 <__udivmoddi4+0x19c>
 8000ecc:	18fb      	adds	r3, r7, r3
 8000ece:	f106 3cff 	add.w	ip, r6, #4294967295
 8000ed2:	f080 808d 	bcs.w	8000ff0 <__udivmoddi4+0x2ac>
 8000ed6:	4299      	cmp	r1, r3
 8000ed8:	f240 808a 	bls.w	8000ff0 <__udivmoddi4+0x2ac>
 8000edc:	3e02      	subs	r6, #2
 8000ede:	443b      	add	r3, r7
 8000ee0:	1a5b      	subs	r3, r3, r1
 8000ee2:	b281      	uxth	r1, r0
 8000ee4:	fbb3 f0fe 	udiv	r0, r3, lr
 8000ee8:	fb0e 3310 	mls	r3, lr, r0, r3
 8000eec:	ea41 4103 	orr.w	r1, r1, r3, lsl #16
 8000ef0:	fb00 f308 	mul.w	r3, r0, r8
 8000ef4:	428b      	cmp	r3, r1
 8000ef6:	d907      	bls.n	8000f08 <__udivmoddi4+0x1c4>
 8000ef8:	1879      	adds	r1, r7, r1
 8000efa:	f100 3cff 	add.w	ip, r0, #4294967295
 8000efe:	d273      	bcs.n	8000fe8 <__udivmoddi4+0x2a4>
 8000f00:	428b      	cmp	r3, r1
 8000f02:	d971      	bls.n	8000fe8 <__udivmoddi4+0x2a4>
 8000f04:	3802      	subs	r0, #2
 8000f06:	4439      	add	r1, r7
 8000f08:	1acb      	subs	r3, r1, r3
 8000f0a:	ea40 4606 	orr.w	r6, r0, r6, lsl #16
 8000f0e:	e778      	b.n	8000e02 <__udivmoddi4+0xbe>
 8000f10:	f1c6 0c20 	rsb	ip, r6, #32
 8000f14:	fa03 f406 	lsl.w	r4, r3, r6
 8000f18:	fa22 f30c 	lsr.w	r3, r2, ip
 8000f1c:	431c      	orrs	r4, r3
 8000f1e:	fa20 f70c 	lsr.w	r7, r0, ip
 8000f22:	fa01 f306 	lsl.w	r3, r1, r6
 8000f26:	ea4f 4e14 	mov.w	lr, r4, lsr #16
 8000f2a:	fa21 f10c 	lsr.w	r1, r1, ip
 8000f2e:	431f      	orrs	r7, r3
 8000f30:	0c3b      	lsrs	r3, r7, #16
 8000f32:	fbb1 f9fe 	udiv	r9, r1, lr
 8000f36:	fa1f f884 	uxth.w	r8, r4
 8000f3a:	fb0e 1119 	mls	r1, lr, r9, r1
 8000f3e:	ea43 4101 	orr.w	r1, r3, r1, lsl #16
 8000f42:	fb09 fa08 	mul.w	sl, r9, r8
 8000f46:	458a      	cmp	sl, r1
 8000f48:	fa02 f206 	lsl.w	r2, r2, r6
 8000f4c:	fa00 f306 	lsl.w	r3, r0, r6
 8000f50:	d908      	bls.n	8000f64 <__udivmoddi4+0x220>
 8000f52:	1861      	adds	r1, r4, r1
 8000f54:	f109 30ff 	add.w	r0, r9, #4294967295
 8000f58:	d248      	bcs.n	8000fec <__udivmoddi4+0x2a8>
 8000f5a:	458a      	cmp	sl, r1
 8000f5c:	d946      	bls.n	8000fec <__udivmoddi4+0x2a8>
 8000f5e:	f1a9 0902 	sub.w	r9, r9, #2
 8000f62:	4421      	add	r1, r4
 8000f64:	eba1 010a 	sub.w	r1, r1, sl
 8000f68:	b2bf      	uxth	r7, r7
 8000f6a:	fbb1 f0fe 	udiv	r0, r1, lr
 8000f6e:	fb0e 1110 	mls	r1, lr, r0, r1
 8000f72:	ea47 4701 	orr.w	r7, r7, r1, lsl #16
 8000f76:	fb00 f808 	mul.w	r8, r0, r8
 8000f7a:	45b8      	cmp	r8, r7
 8000f7c:	d907      	bls.n	8000f8e <__udivmoddi4+0x24a>
 8000f7e:	19e7      	adds	r7, r4, r7
 8000f80:	f100 31ff 	add.w	r1, r0, #4294967295
 8000f84:	d22e      	bcs.n	8000fe4 <__udivmoddi4+0x2a0>
 8000f86:	45b8      	cmp	r8, r7
 8000f88:	d92c      	bls.n	8000fe4 <__udivmoddi4+0x2a0>
 8000f8a:	3802      	subs	r0, #2
 8000f8c:	4427      	add	r7, r4
 8000f8e:	ea40 4009 	orr.w	r0, r0, r9, lsl #16
 8000f92:	eba7 0708 	sub.w	r7, r7, r8
 8000f96:	fba0 8902 	umull	r8, r9, r0, r2
 8000f9a:	454f      	cmp	r7, r9
 8000f9c:	46c6      	mov	lr, r8
 8000f9e:	4649      	mov	r1, r9
 8000fa0:	d31a      	bcc.n	8000fd8 <__udivmoddi4+0x294>
 8000fa2:	d017      	beq.n	8000fd4 <__udivmoddi4+0x290>
 8000fa4:	b15d      	cbz	r5, 8000fbe <__udivmoddi4+0x27a>
 8000fa6:	ebb3 020e 	subs.w	r2, r3, lr
 8000faa:	eb67 0701 	sbc.w	r7, r7, r1
 8000fae:	fa07 fc0c 	lsl.w	ip, r7, ip
 8000fb2:	40f2      	lsrs	r2, r6
 8000fb4:	ea4c 0202 	orr.w	r2, ip, r2
 8000fb8:	40f7      	lsrs	r7, r6
 8000fba:	e9c5 2700 	strd	r2, r7, [r5]
 8000fbe:	2600      	movs	r6, #0
 8000fc0:	4631      	mov	r1, r6
 8000fc2:	e8bd 87f0 	ldmia.w	sp!, {r4, r5, r6, r7, r8, r9, sl, pc}
 8000fc6:	462e      	mov	r6, r5
 8000fc8:	4628      	mov	r0, r5
 8000fca:	e70b      	b.n	8000de4 <__udivmoddi4+0xa0>
 8000fcc:	4606      	mov	r6, r0
 8000fce:	e6e9      	b.n	8000da4 <__udivmoddi4+0x60>
 8000fd0:	4618      	mov	r0, r3
 8000fd2:	e6fd      	b.n	8000dd0 <__udivmoddi4+0x8c>
 8000fd4:	4543      	cmp	r3, r8
 8000fd6:	d2e5      	bcs.n	8000fa4 <__udivmoddi4+0x260>
 8000fd8:	ebb8 0e02 	subs.w	lr, r8, r2
 8000fdc:	eb69 0104 	sbc.w	r1, r9, r4
 8000fe0:	3801      	subs	r0, #1
 8000fe2:	e7df      	b.n	8000fa4 <__udivmoddi4+0x260>
 8000fe4:	4608      	mov	r0, r1
 8000fe6:	e7d2      	b.n	8000f8e <__udivmoddi4+0x24a>
 8000fe8:	4660      	mov	r0, ip
 8000fea:	e78d      	b.n	8000f08 <__udivmoddi4+0x1c4>
 8000fec:	4681      	mov	r9, r0
 8000fee:	e7b9      	b.n	8000f64 <__udivmoddi4+0x220>
 8000ff0:	4666      	mov	r6, ip
 8000ff2:	e775      	b.n	8000ee0 <__udivmoddi4+0x19c>
 8000ff4:	4630      	mov	r0, r6
 8000ff6:	e74a      	b.n	8000e8e <__udivmoddi4+0x14a>
 8000ff8:	f1ac 0c02 	sub.w	ip, ip, #2
 8000ffc:	4439      	add	r1, r7
 8000ffe:	e713      	b.n	8000e28 <__udivmoddi4+0xe4>
 8001000:	3802      	subs	r0, #2
 8001002:	443c      	add	r4, r7
 8001004:	e724      	b.n	8000e50 <__udivmoddi4+0x10c>
 8001006:	bf00      	nop

08001008 <__aeabi_idiv0>:
 8001008:	4770      	bx	lr
 800100a:	bf00      	nop
 800100c:	0000      	movs	r0, r0
	...

08001010 <ProcessIMUData>:
 8001010:	b538      	push	{r3, r4, r5, lr}
 8001012:	ed2d 8b02 	vpush	{d8}
 8001016:	4836      	ldr	r0, [pc, #216]	; (80010f0 <ProcessIMUData+0xe0>)
 8001018:	4b36      	ldr	r3, [pc, #216]	; (80010f4 <ProcessIMUData+0xe4>)
 800101a:	7802      	ldrb	r2, [r0, #0]
 800101c:	4936      	ldr	r1, [pc, #216]	; (80010f8 <ProcessIMUData+0xe8>)
 800101e:	4c37      	ldr	r4, [pc, #220]	; (80010fc <ProcessIMUData+0xec>)
 8001020:	6809      	ldr	r1, [r1, #0]
 8001022:	4d37      	ldr	r5, [pc, #220]	; (8001100 <ProcessIMUData+0xf0>)
 8001024:	eb03 0382 	add.w	r3, r3, r2, lsl #2
 8001028:	3201      	adds	r2, #1
 800102a:	6019      	str	r1, [r3, #0]
 800102c:	4935      	ldr	r1, [pc, #212]	; (8001104 <ProcessIMUData+0xf4>)
 800102e:	682d      	ldr	r5, [r5, #0]
 8001030:	780b      	ldrb	r3, [r1, #0]
 8001032:	b2d2      	uxtb	r2, r2
 8001034:	2a14      	cmp	r2, #20
 8001036:	eb04 0483 	add.w	r4, r4, r3, lsl #2
 800103a:	f103 0301 	add.w	r3, r3, #1
 800103e:	b2db      	uxtb	r3, r3
 8001040:	7002      	strb	r2, [r0, #0]
 8001042:	bf04      	itt	eq
 8001044:	2200      	moveq	r2, #0
 8001046:	7002      	strbeq	r2, [r0, #0]
 8001048:	2b14      	cmp	r3, #20
 800104a:	700b      	strb	r3, [r1, #0]
 800104c:	bf04      	itt	eq
 800104e:	2300      	moveq	r3, #0
 8001050:	700b      	strbeq	r3, [r1, #0]
 8001052:	2300      	movs	r3, #0
 8001054:	4927      	ldr	r1, [pc, #156]	; (80010f4 <ProcessIMUData+0xe4>)
 8001056:	4a29      	ldr	r2, [pc, #164]	; (80010fc <ProcessIMUData+0xec>)
 8001058:	6025      	str	r5, [r4, #0]
 800105a:	ee07 3a90 	vmov	s15, r3
 800105e:	ee07 3a10 	vmov	s14, r3
 8001062:	ecf1 6a01 	vldmia	r1!, {s13}
 8001066:	eeb8 7ac7 	vcvt.f32.s32	s14, s14
 800106a:	eef8 7ae7 	vcvt.f32.s32	s15, s15
 800106e:	ee37 7a26 	vadd.f32	s14, s14, s13
 8001072:	ecf2 6a01 	vldmia	r2!, {s13}
 8001076:	3301      	adds	r3, #1
 8001078:	ee77 7aa6 	vadd.f32	s15, s15, s13
 800107c:	2b14      	cmp	r3, #20
 800107e:	eebd 7ac7 	vcvt.s32.f32	s14, s14
 8001082:	eefd 7ae7 	vcvt.s32.f32	s15, s15
 8001086:	d1ec      	bne.n	8001062 <ProcessIMUData+0x52>
 8001088:	ee17 2a90 	vmov	r2, s15
 800108c:	fb92 f2f3 	sdiv	r2, r2, r3
 8001090:	ee07 2a90 	vmov	s15, r2
 8001094:	ee17 2a10 	vmov	r2, s14
 8001098:	4c1b      	ldr	r4, [pc, #108]	; (8001108 <ProcessIMUData+0xf8>)
 800109a:	fb92 f3f3 	sdiv	r3, r2, r3
 800109e:	ee07 3a10 	vmov	s14, r3
 80010a2:	eef8 7ae7 	vcvt.f32.s32	s15, s15
 80010a6:	eeb8 7ac7 	vcvt.f32.s32	s14, s14
 80010aa:	ed94 8a01 	vldr	s16, [r4, #4]
 80010ae:	edc4 7a02 	vstr	s15, [r4, #8]
 80010b2:	ee18 0a10 	vmov	r0, s16
 80010b6:	ed84 7a03 	vstr	s14, [r4, #12]
 80010ba:	f7ff fa55 	bl	8000568 <__aeabi_f2d>
 80010be:	a30a      	add	r3, pc, #40	; (adr r3, 80010e8 <ProcessIMUData+0xd8>)
 80010c0:	e9d3 2300 	ldrd	r2, r3, [r3]
 80010c4:	f7ff fd38 	bl	8000b38 <__aeabi_dcmpgt>
 80010c8:	b130      	cbz	r0, 80010d8 <ProcessIMUData+0xc8>
 80010ca:	2300      	movs	r3, #0
 80010cc:	6063      	str	r3, [r4, #4]
 80010ce:	6863      	ldr	r3, [r4, #4]
 80010d0:	6023      	str	r3, [r4, #0]
 80010d2:	ecbd 8b02 	vpop	{d8}
 80010d6:	bd38      	pop	{r3, r4, r5, pc}
 80010d8:	eeb5 8ac0 	vcmpe.f32	s16, #0.0
 80010dc:	eef1 fa10 	vmrs	APSR_nzcv, fpscr
 80010e0:	d5f5      	bpl.n	80010ce <ProcessIMUData+0xbe>
 80010e2:	4b0a      	ldr	r3, [pc, #40]	; (800110c <ProcessIMUData+0xfc>)
 80010e4:	e7f2      	b.n	80010cc <ProcessIMUData+0xbc>
 80010e6:	bf00      	nop
 80010e8:	66666666 	.word	0x66666666
 80010ec:	40767e66 	.word	0x40767e66
 80010f0:	2000093c 	.word	0x2000093c
 80010f4:	200008ec 	.word	0x200008ec
 80010f8:	20000b0c 	.word	0x20000b0c
 80010fc:	20000950 	.word	0x20000950
 8001100:	20002030 	.word	0x20002030
 8001104:	200009a0 	.word	0x200009a0
 8001108:	20001aa4 	.word	0x20001aa4
 800110c:	43b3f333 	.word	0x43b3f333

08001110 <cutterOFF>:
 8001110:	4a03      	ldr	r2, [pc, #12]	; (8001120 <cutterOFF+0x10>)
 8001112:	2300      	movs	r3, #0
 8001114:	7013      	strb	r3, [r2, #0]
 8001116:	4a03      	ldr	r2, [pc, #12]	; (8001124 <cutterOFF+0x14>)
 8001118:	6353      	str	r3, [r2, #52]	; 0x34
 800111a:	6393      	str	r3, [r2, #56]	; 0x38
 800111c:	4770      	bx	lr
 800111e:	bf00      	nop
 8001120:	20000838 	.word	0x20000838
 8001124:	40000400 	.word	0x40000400

08001128 <MotorBrake>:
 8001128:	4b06      	ldr	r3, [pc, #24]	; (8001144 <MotorBrake+0x1c>)
 800112a:	4a07      	ldr	r2, [pc, #28]	; (8001148 <MotorBrake+0x20>)
 800112c:	7819      	ldrb	r1, [r3, #0]
 800112e:	7011      	strb	r1, [r2, #0]
 8001130:	2207      	movs	r2, #7
 8001132:	701a      	strb	r2, [r3, #0]
 8001134:	4b05      	ldr	r3, [pc, #20]	; (800114c <MotorBrake+0x24>)
 8001136:	2200      	movs	r2, #0
 8001138:	635a      	str	r2, [r3, #52]	; 0x34
 800113a:	639a      	str	r2, [r3, #56]	; 0x38
 800113c:	63da      	str	r2, [r3, #60]	; 0x3c
 800113e:	641a      	str	r2, [r3, #64]	; 0x40
 8001140:	4770      	bx	lr
 8001142:	bf00      	nop
 8001144:	200007fe 	.word	0x200007fe
 8001148:	200003cd 	.word	0x200003cd
 800114c:	40000800 	.word	0x40000800

08001150 <MotorStop>:
 8001150:	b570      	push	{r4, r5, r6, lr}
 8001152:	4b1d      	ldr	r3, [pc, #116]	; (80011c8 <MotorStop+0x78>)
 8001154:	4a1d      	ldr	r2, [pc, #116]	; (80011cc <MotorStop+0x7c>)
 8001156:	7819      	ldrb	r1, [r3, #0]
 8001158:	7011      	strb	r1, [r2, #0]
 800115a:	4c1d      	ldr	r4, [pc, #116]	; (80011d0 <MotorStop+0x80>)
 800115c:	2200      	movs	r2, #0
 800115e:	701a      	strb	r2, [r3, #0]
 8001160:	6b60      	ldr	r0, [r4, #52]	; 0x34
 8001162:	6ba1      	ldr	r1, [r4, #56]	; 0x38
 8001164:	6be2      	ldr	r2, [r4, #60]	; 0x3c
 8001166:	6c23      	ldr	r3, [r4, #64]	; 0x40
 8001168:	4408      	add	r0, r1
 800116a:	4410      	add	r0, r2
 800116c:	4418      	add	r0, r3
 800116e:	0840      	lsrs	r0, r0, #1
 8001170:	f7ff f9e8 	bl	8000544 <__aeabi_i2d>
 8001174:	a312      	add	r3, pc, #72	; (adr r3, 80011c0 <MotorStop+0x70>)
 8001176:	e9d3 2300 	ldrd	r2, r3, [r3]
 800117a:	f7ff fa4d 	bl	8000618 <__aeabi_dmul>
 800117e:	f7ff fcfb 	bl	8000b78 <__aeabi_d2iz>
 8001182:	b150      	cbz	r0, 800119a <MotorStop+0x4a>
 8001184:	4e13      	ldr	r6, [pc, #76]	; (80011d4 <MotorStop+0x84>)
 8001186:	1f05      	subs	r5, r0, #4
 8001188:	f5a5 737a 	sub.w	r3, r5, #1000	; 0x3e8
 800118c:	42b3      	cmp	r3, r6
 800118e:	d905      	bls.n	800119c <MotorStop+0x4c>
 8001190:	2300      	movs	r3, #0
 8001192:	6363      	str	r3, [r4, #52]	; 0x34
 8001194:	63a3      	str	r3, [r4, #56]	; 0x38
 8001196:	63e3      	str	r3, [r4, #60]	; 0x3c
 8001198:	6423      	str	r3, [r4, #64]	; 0x40
 800119a:	bd70      	pop	{r4, r5, r6, pc}
 800119c:	6b63      	ldr	r3, [r4, #52]	; 0x34
 800119e:	b103      	cbz	r3, 80011a2 <MotorStop+0x52>
 80011a0:	6365      	str	r5, [r4, #52]	; 0x34
 80011a2:	6ba3      	ldr	r3, [r4, #56]	; 0x38
 80011a4:	b103      	cbz	r3, 80011a8 <MotorStop+0x58>
 80011a6:	63a5      	str	r5, [r4, #56]	; 0x38
 80011a8:	6be3      	ldr	r3, [r4, #60]	; 0x3c
 80011aa:	b103      	cbz	r3, 80011ae <MotorStop+0x5e>
 80011ac:	63e5      	str	r5, [r4, #60]	; 0x3c
 80011ae:	6c23      	ldr	r3, [r4, #64]	; 0x40
 80011b0:	b103      	cbz	r3, 80011b4 <MotorStop+0x64>
 80011b2:	6425      	str	r5, [r4, #64]	; 0x40
 80011b4:	2001      	movs	r0, #1
 80011b6:	f004 f85b 	bl	8005270 <HAL_Delay>
 80011ba:	3d05      	subs	r5, #5
 80011bc:	e7e4      	b.n	8001188 <MotorStop+0x38>
 80011be:	bf00      	nop
 80011c0:	cccccccd 	.word	0xcccccccd
 80011c4:	3feccccc 	.word	0x3feccccc
 80011c8:	200007fe 	.word	0x200007fe
 80011cc:	200003cd 	.word	0x200003cd
 80011d0:	40000800 	.word	0x40000800
 80011d4:	7ffffc13 	.word	0x7ffffc13

080011d8 <MX_I2C2_Init>:
 80011d8:	b508      	push	{r3, lr}
 80011da:	480a      	ldr	r0, [pc, #40]	; (8001204 <MX_I2C2_Init+0x2c>)
 80011dc:	4a0a      	ldr	r2, [pc, #40]	; (8001208 <MX_I2C2_Init+0x30>)
 80011de:	4b0b      	ldr	r3, [pc, #44]	; (800120c <MX_I2C2_Init+0x34>)
 80011e0:	e9c0 2300 	strd	r2, r3, [r0]
 80011e4:	2300      	movs	r3, #0
 80011e6:	f44f 4280 	mov.w	r2, #16384	; 0x4000
 80011ea:	e9c0 3302 	strd	r3, r3, [r0, #8]
 80011ee:	e9c0 2304 	strd	r2, r3, [r0, #16]
 80011f2:	e9c0 3306 	strd	r3, r3, [r0, #24]
 80011f6:	6203      	str	r3, [r0, #32]
 80011f8:	f005 f914 	bl	8006424 <HAL_I2C_Init>
 80011fc:	b108      	cbz	r0, 8001202 <MX_I2C2_Init+0x2a>
 80011fe:	b672      	cpsid	i
 8001200:	e7fe      	b.n	8001200 <MX_I2C2_Init+0x28>
 8001202:	bd08      	pop	{r3, pc}
 8001204:	20000bf8 	.word	0x20000bf8
 8001208:	40005800 	.word	0x40005800
 800120c:	000186a0 	.word	0x000186a0

08001210 <Init6050>:
 8001210:	e92d 41f0 	stmdb	sp!, {r4, r5, r6, r7, r8, lr}
 8001214:	4d21      	ldr	r5, [pc, #132]	; (800129c <Init6050+0x8c>)
 8001216:	b086      	sub	sp, #24
 8001218:	2401      	movs	r4, #1
 800121a:	2632      	movs	r6, #50	; 0x32
 800121c:	f10d 0316 	add.w	r3, sp, #22
 8001220:	9300      	str	r3, [sp, #0]
 8001222:	2275      	movs	r2, #117	; 0x75
 8001224:	4623      	mov	r3, r4
 8001226:	21d0      	movs	r1, #208	; 0xd0
 8001228:	e9cd 4601 	strd	r4, r6, [sp, #4]
 800122c:	4628      	mov	r0, r5
 800122e:	f005 fcaf 	bl	8006b90 <HAL_I2C_Mem_Read>
 8001232:	f10d 0717 	add.w	r7, sp, #23
 8001236:	2014      	movs	r0, #20
 8001238:	f004 f81a 	bl	8005270 <HAL_Delay>
 800123c:	f04f 0800 	mov.w	r8, #0
 8001240:	4623      	mov	r3, r4
 8001242:	226b      	movs	r2, #107	; 0x6b
 8001244:	21d0      	movs	r1, #208	; 0xd0
 8001246:	e9cd 4601 	strd	r4, r6, [sp, #4]
 800124a:	9700      	str	r7, [sp, #0]
 800124c:	4628      	mov	r0, r5
 800124e:	f88d 8017 	strb.w	r8, [sp, #23]
 8001252:	f005 fc09 	bl	8006a68 <HAL_I2C_Mem_Write>
 8001256:	2014      	movs	r0, #20
 8001258:	f004 f80a 	bl	8005270 <HAL_Delay>
 800125c:	2307      	movs	r3, #7
 800125e:	f88d 3017 	strb.w	r3, [sp, #23]
 8001262:	2219      	movs	r2, #25
 8001264:	4623      	mov	r3, r4
 8001266:	21d0      	movs	r1, #208	; 0xd0
 8001268:	e9cd 4601 	strd	r4, r6, [sp, #4]
 800126c:	9700      	str	r7, [sp, #0]
 800126e:	4628      	mov	r0, r5
 8001270:	f005 fbfa 	bl	8006a68 <HAL_I2C_Mem_Write>
 8001274:	2014      	movs	r0, #20
 8001276:	f003 fffb 	bl	8005270 <HAL_Delay>
 800127a:	4623      	mov	r3, r4
 800127c:	221b      	movs	r2, #27
 800127e:	21d0      	movs	r1, #208	; 0xd0
 8001280:	e9cd 4601 	strd	r4, r6, [sp, #4]
 8001284:	9700      	str	r7, [sp, #0]
 8001286:	4628      	mov	r0, r5
 8001288:	f88d 8017 	strb.w	r8, [sp, #23]
 800128c:	f005 fbec 	bl	8006a68 <HAL_I2C_Mem_Write>
 8001290:	2014      	movs	r0, #20
 8001292:	f003 ffed 	bl	8005270 <HAL_Delay>
 8001296:	b006      	add	sp, #24
 8001298:	e8bd 81f0 	ldmia.w	sp!, {r4, r5, r6, r7, r8, pc}
 800129c:	20000bf8 	.word	0x20000bf8

080012a0 <Serial_RPi>:
 80012a0:	b507      	push	{r0, r1, r2, lr}
 80012a2:	9001      	str	r0, [sp, #4]
 80012a4:	f7fe ff9e 	bl	80001e4 <strlen>
 80012a8:	9901      	ldr	r1, [sp, #4]
 80012aa:	b282      	uxth	r2, r0
 80012ac:	4803      	ldr	r0, [pc, #12]	; (80012bc <Serial_RPi+0x1c>)
 80012ae:	2364      	movs	r3, #100	; 0x64
 80012b0:	b003      	add	sp, #12
 80012b2:	f85d eb04 	ldr.w	lr, [sp], #4
 80012b6:	f007 b884 	b.w	80083c2 <HAL_UART_Transmit>
 80012ba:	bf00      	nop
 80012bc:	20001fe4 	.word	0x20001fe4

080012c0 <Serial_Console>:
 80012c0:	b507      	push	{r0, r1, r2, lr}
 80012c2:	9001      	str	r0, [sp, #4]
 80012c4:	f7fe ff8e 	bl	80001e4 <strlen>
 80012c8:	9901      	ldr	r1, [sp, #4]
 80012ca:	b282      	uxth	r2, r0
 80012cc:	4803      	ldr	r0, [pc, #12]	; (80012dc <Serial_Console+0x1c>)
 80012ce:	2364      	movs	r3, #100	; 0x64
 80012d0:	b003      	add	sp, #12
 80012d2:	f85d eb04 	ldr.w	lr, [sp], #4
 80012d6:	f007 b874 	b.w	80083c2 <HAL_UART_Transmit>
 80012da:	bf00      	nop
 80012dc:	20001a60 	.word	0x20001a60

080012e0 <reInitIMU>:
 80012e0:	b570      	push	{r4, r5, r6, lr}
 80012e2:	481c      	ldr	r0, [pc, #112]	; (8001354 <reInitIMU+0x74>)
 80012e4:	b086      	sub	sp, #24
 80012e6:	f7ff ffeb 	bl	80012c0 <Serial_Console>
 80012ea:	2214      	movs	r2, #20
 80012ec:	2100      	movs	r1, #0
 80012ee:	a801      	add	r0, sp, #4
 80012f0:	f007 fea0 	bl	8009034 <memset>
 80012f4:	4818      	ldr	r0, [pc, #96]	; (8001358 <reInitIMU+0x78>)
 80012f6:	f005 f947 	bl	8006588 <HAL_I2C_DeInit>
 80012fa:	4818      	ldr	r0, [pc, #96]	; (800135c <reInitIMU+0x7c>)
 80012fc:	2200      	movs	r2, #0
 80012fe:	f44f 6180 	mov.w	r1, #1024	; 0x400
 8001302:	f004 fead 	bl	8006060 <HAL_GPIO_WritePin>
 8001306:	2200      	movs	r2, #0
 8001308:	4814      	ldr	r0, [pc, #80]	; (800135c <reInitIMU+0x7c>)
 800130a:	f44f 6100 	mov.w	r1, #2048	; 0x800
 800130e:	f004 fea7 	bl	8006060 <HAL_GPIO_WritePin>
 8001312:	2401      	movs	r4, #1
 8001314:	f44f 6380 	mov.w	r3, #1024	; 0x400
 8001318:	2602      	movs	r6, #2
 800131a:	2500      	movs	r5, #0
 800131c:	a901      	add	r1, sp, #4
 800131e:	480f      	ldr	r0, [pc, #60]	; (800135c <reInitIMU+0x7c>)
 8001320:	e9cd 3401 	strd	r3, r4, [sp, #4]
 8001324:	e9cd 6503 	strd	r6, r5, [sp, #12]
 8001328:	f004 fd1c 	bl	8005d64 <HAL_GPIO_Init>
 800132c:	f44f 6300 	mov.w	r3, #2048	; 0x800
 8001330:	a901      	add	r1, sp, #4
 8001332:	480a      	ldr	r0, [pc, #40]	; (800135c <reInitIMU+0x7c>)
 8001334:	e9cd 3401 	strd	r3, r4, [sp, #4]
 8001338:	e9cd 6503 	strd	r6, r5, [sp, #12]
 800133c:	f004 fd12 	bl	8005d64 <HAL_GPIO_Init>
 8001340:	4620      	mov	r0, r4
 8001342:	f003 ff95 	bl	8005270 <HAL_Delay>
 8001346:	f7ff ff47 	bl	80011d8 <MX_I2C2_Init>
 800134a:	f7ff ff61 	bl	8001210 <Init6050>
 800134e:	b006      	add	sp, #24
 8001350:	bd70      	pop	{r4, r5, r6, pc}
 8001352:	bf00      	nop
 8001354:	0800e6f4 	.word	0x0800e6f4
 8001358:	20000bf8 	.word	0x20000bf8
 800135c:	40020400 	.word	0x40020400

08001360 <MPU6050_Read_Accel>:
 8001360:	e92d 41f0 	stmdb	sp!, {r4, r5, r6, r7, r8, lr}
 8001364:	ed2d 8b02 	vpush	{d8}
 8001368:	2306      	movs	r3, #6
 800136a:	b086      	sub	sp, #24
 800136c:	2232      	movs	r2, #50	; 0x32
 800136e:	e9cd 3201 	strd	r3, r2, [sp, #4]
 8001372:	ab04      	add	r3, sp, #16
 8001374:	9300      	str	r3, [sp, #0]
 8001376:	4854      	ldr	r0, [pc, #336]	; (80014c8 <MPU6050_Read_Accel+0x168>)
 8001378:	2301      	movs	r3, #1
 800137a:	223b      	movs	r2, #59	; 0x3b
 800137c:	21d0      	movs	r1, #208	; 0xd0
 800137e:	f005 fc07 	bl	8006b90 <HAL_I2C_Mem_Read>
 8001382:	b130      	cbz	r0, 8001392 <MPU6050_Read_Accel+0x32>
 8001384:	f7ff ffac 	bl	80012e0 <reInitIMU>
 8001388:	b006      	add	sp, #24
 800138a:	ecbd 8b02 	vpop	{d8}
 800138e:	e8bd 81f0 	ldmia.w	sp!, {r4, r5, r6, r7, r8, pc}
 8001392:	f89d 3010 	ldrb.w	r3, [sp, #16]
 8001396:	f89d 0011 	ldrb.w	r0, [sp, #17]
 800139a:	f89d 5013 	ldrb.w	r5, [sp, #19]
 800139e:	f89d 4015 	ldrb.w	r4, [sp, #21]
 80013a2:	4e4a      	ldr	r6, [pc, #296]	; (80014cc <MPU6050_Read_Accel+0x16c>)
 80013a4:	4f4a      	ldr	r7, [pc, #296]	; (80014d0 <MPU6050_Read_Accel+0x170>)
 80013a6:	f8df 8144 	ldr.w	r8, [pc, #324]	; 80014ec <MPU6050_Read_Accel+0x18c>
 80013aa:	ea40 2003 	orr.w	r0, r0, r3, lsl #8
 80013ae:	4b49      	ldr	r3, [pc, #292]	; (80014d4 <MPU6050_Read_Accel+0x174>)
 80013b0:	b200      	sxth	r0, r0
 80013b2:	8018      	strh	r0, [r3, #0]
 80013b4:	f89d 3012 	ldrb.w	r3, [sp, #18]
 80013b8:	ea45 2503 	orr.w	r5, r5, r3, lsl #8
 80013bc:	4b46      	ldr	r3, [pc, #280]	; (80014d8 <MPU6050_Read_Accel+0x178>)
 80013be:	b22d      	sxth	r5, r5
 80013c0:	801d      	strh	r5, [r3, #0]
 80013c2:	f89d 3014 	ldrb.w	r3, [sp, #20]
 80013c6:	ea44 2403 	orr.w	r4, r4, r3, lsl #8
 80013ca:	4b44      	ldr	r3, [pc, #272]	; (80014dc <MPU6050_Read_Accel+0x17c>)
 80013cc:	b224      	sxth	r4, r4
 80013ce:	801c      	strh	r4, [r3, #0]
 80013d0:	f7ff f8b8 	bl	8000544 <__aeabi_i2d>
 80013d4:	4b42      	ldr	r3, [pc, #264]	; (80014e0 <MPU6050_Read_Accel+0x180>)
 80013d6:	2200      	movs	r2, #0
 80013d8:	f7ff f91e 	bl	8000618 <__aeabi_dmul>
 80013dc:	f7ff fc14 	bl	8000c08 <__aeabi_d2f>
 80013e0:	6030      	str	r0, [r6, #0]
 80013e2:	4628      	mov	r0, r5
 80013e4:	f7ff f8ae 	bl	8000544 <__aeabi_i2d>
 80013e8:	4b3d      	ldr	r3, [pc, #244]	; (80014e0 <MPU6050_Read_Accel+0x180>)
 80013ea:	2200      	movs	r2, #0
 80013ec:	f7ff f914 	bl	8000618 <__aeabi_dmul>
 80013f0:	f7ff fc0a 	bl	8000c08 <__aeabi_d2f>
 80013f4:	4605      	mov	r5, r0
 80013f6:	6038      	str	r0, [r7, #0]
 80013f8:	4620      	mov	r0, r4
 80013fa:	f7ff f8a3 	bl	8000544 <__aeabi_i2d>
 80013fe:	4b38      	ldr	r3, [pc, #224]	; (80014e0 <MPU6050_Read_Accel+0x180>)
 8001400:	2200      	movs	r2, #0
 8001402:	f7ff f909 	bl	8000618 <__aeabi_dmul>
 8001406:	f7ff fbff 	bl	8000c08 <__aeabi_d2f>
 800140a:	f8c8 0000 	str.w	r0, [r8]
 800140e:	f7ff f8ab 	bl	8000568 <__aeabi_f2d>
 8001412:	ec41 0b18 	vmov	d8, r0, r1
 8001416:	4628      	mov	r0, r5
 8001418:	f7ff f8a6 	bl	8000568 <__aeabi_f2d>
 800141c:	eeb0 1a48 	vmov.f32	s2, s16
 8001420:	eef0 1a68 	vmov.f32	s3, s17
 8001424:	ec41 0b10 	vmov	d0, r0, r1
 8001428:	f00c feae 	bl	800e188 <atan2>
 800142c:	6830      	ldr	r0, [r6, #0]
 800142e:	f080 4000 	eor.w	r0, r0, #2147483648	; 0x80000000
 8001432:	ec55 4b10 	vmov	r4, r5, d0
 8001436:	f7ff f897 	bl	8000568 <__aeabi_f2d>
 800143a:	ed98 0a00 	vldr	s0, [r8]
 800143e:	edd7 7a00 	vldr	s15, [r7]
 8001442:	f8df 80ac 	ldr.w	r8, [pc, #172]	; 80014f0 <MPU6050_Read_Accel+0x190>
 8001446:	ee20 0a00 	vmul.f32	s0, s0, s0
 800144a:	ec41 0b18 	vmov	d8, r0, r1
 800144e:	eea7 0aa7 	vfma.f32	s0, s15, s15
 8001452:	f00c fe9b 	bl	800e18c <sqrtf>
 8001456:	ee10 0a10 	vmov	r0, s0
 800145a:	f7ff f885 	bl	8000568 <__aeabi_f2d>
 800145e:	eeb0 0a48 	vmov.f32	s0, s16
 8001462:	eef0 0a68 	vmov.f32	s1, s17
 8001466:	ec41 0b11 	vmov	d1, r0, r1
 800146a:	f00c fe8d 	bl	800e188 <atan2>
 800146e:	a314      	add	r3, pc, #80	; (adr r3, 80014c0 <MPU6050_Read_Accel+0x160>)
 8001470:	e9d3 2300 	ldrd	r2, r3, [r3]
 8001474:	4620      	mov	r0, r4
 8001476:	4629      	mov	r1, r5
 8001478:	ec57 6b10 	vmov	r6, r7, d0
 800147c:	f7ff f8cc 	bl	8000618 <__aeabi_dmul>
 8001480:	f7ff fbc2 	bl	8000c08 <__aeabi_d2f>
 8001484:	edd8 7a06 	vldr	s15, [r8, #24]
 8001488:	4b16      	ldr	r3, [pc, #88]	; (80014e4 <MPU6050_Read_Accel+0x184>)
 800148a:	ee07 0a10 	vmov	s14, r0
 800148e:	ee77 7a87 	vadd.f32	s15, s15, s14
 8001492:	4630      	mov	r0, r6
 8001494:	edc3 7a00 	vstr	s15, [r3]
 8001498:	4639      	mov	r1, r7
 800149a:	a309      	add	r3, pc, #36	; (adr r3, 80014c0 <MPU6050_Read_Accel+0x160>)
 800149c:	e9d3 2300 	ldrd	r2, r3, [r3]
 80014a0:	f7ff f8ba 	bl	8000618 <__aeabi_dmul>
 80014a4:	f7ff fbb0 	bl	8000c08 <__aeabi_d2f>
 80014a8:	edd8 7a07 	vldr	s15, [r8, #28]
 80014ac:	4b0e      	ldr	r3, [pc, #56]	; (80014e8 <MPU6050_Read_Accel+0x188>)
 80014ae:	ee07 0a10 	vmov	s14, r0
 80014b2:	ee77 7a87 	vadd.f32	s15, s15, s14
 80014b6:	edc3 7a00 	vstr	s15, [r3]
 80014ba:	e765      	b.n	8001388 <MPU6050_Read_Accel+0x28>
 80014bc:	f3af 8000 	nop.w
 80014c0:	66666666 	.word	0x66666666
 80014c4:	404ca666 	.word	0x404ca666
 80014c8:	20000bf8 	.word	0x20000bf8
 80014cc:	20001b44 	.word	0x20001b44
 80014d0:	200011b0 	.word	0x200011b0
 80014d4:	200003a4 	.word	0x200003a4
 80014d8:	200003a6 	.word	0x200003a6
 80014dc:	200003a8 	.word	0x200003a8
 80014e0:	3f100000 	.word	0x3f100000
 80014e4:	20002030 	.word	0x20002030
 80014e8:	20000b0c 	.word	0x20000b0c
 80014ec:	20001f98 	.word	0x20001f98
 80014f0:	20001aa4 	.word	0x20001aa4

080014f4 <CalcMagnitude>:
 80014f4:	b510      	push	{r4, lr}
 80014f6:	ed2d 8b02 	vpush	{d8}
 80014fa:	2801      	cmp	r0, #1
 80014fc:	f5ad 7d00 	sub.w	sp, sp, #512	; 0x200
 8001500:	4604      	mov	r4, r0
 8001502:	f04f 0280 	mov.w	r2, #128	; 0x80
 8001506:	bf0c      	ite	eq
 8001508:	4822      	ldreq	r0, [pc, #136]	; (8001594 <CalcMagnitude+0xa0>)
 800150a:	4823      	ldrne	r0, [pc, #140]	; (8001598 <CalcMagnitude+0xa4>)
 800150c:	4669      	mov	r1, sp
 800150e:	f007 fc71 	bl	8008df4 <arm_cmplx_mag_f32>
 8001512:	ed9f 0a22 	vldr	s0, [pc, #136]	; 800159c <CalcMagnitude+0xa8>
 8001516:	466b      	mov	r3, sp
 8001518:	2280      	movs	r2, #128	; 0x80
 800151a:	ecf3 7a01 	vldmia	r3!, {s15}
 800151e:	3a01      	subs	r2, #1
 8001520:	ee30 0a27 	vadd.f32	s0, s0, s15
 8001524:	d1f9      	bne.n	800151a <CalcMagnitude+0x26>
 8001526:	eeb5 0ac0 	vcmpe.f32	s0, #0.0
 800152a:	eef1 fa10 	vmrs	APSR_nzcv, fpscr
 800152e:	db27      	blt.n	8001580 <CalcMagnitude+0x8c>
 8001530:	f00c fe2c 	bl	800e18c <sqrtf>
 8001534:	eeb0 8a40 	vmov.f32	s16, s0
 8001538:	ee18 0a10 	vmov	r0, s16
 800153c:	f7ff f814 	bl	8000568 <__aeabi_f2d>
 8001540:	ec41 0b10 	vmov	d0, r0, r1
 8001544:	f00c fdda 	bl	800e0fc <round>
 8001548:	ec51 0b10 	vmov	r0, r1, d0
 800154c:	f7ff fb3c 	bl	8000bc8 <__aeabi_d2uiz>
 8001550:	2c01      	cmp	r4, #1
 8001552:	b283      	uxth	r3, r0
 8001554:	d11b      	bne.n	800158e <CalcMagnitude+0x9a>
 8001556:	4a12      	ldr	r2, [pc, #72]	; (80015a0 <CalcMagnitude+0xac>)
 8001558:	8013      	strh	r3, [r2, #0]
 800155a:	4b12      	ldr	r3, [pc, #72]	; (80015a4 <CalcMagnitude+0xb0>)
 800155c:	895b      	ldrh	r3, [r3, #10]
 800155e:	ee07 3a90 	vmov	s15, r3
 8001562:	eef8 7ae7 	vcvt.f32.s32	s15, s15
 8001566:	eef4 7ac8 	vcmpe.f32	s15, s16
 800156a:	eef1 fa10 	vmrs	APSR_nzcv, fpscr
 800156e:	d80a      	bhi.n	8001586 <CalcMagnitude+0x92>
 8001570:	4b0d      	ldr	r3, [pc, #52]	; (80015a8 <CalcMagnitude+0xb4>)
 8001572:	2201      	movs	r2, #1
 8001574:	701a      	strb	r2, [r3, #0]
 8001576:	f50d 7d00 	add.w	sp, sp, #512	; 0x200
 800157a:	ecbd 8b02 	vpop	{d8}
 800157e:	bd10      	pop	{r4, pc}
 8001580:	ed9f 8a06 	vldr	s16, [pc, #24]	; 800159c <CalcMagnitude+0xa8>
 8001584:	e7d8      	b.n	8001538 <CalcMagnitude+0x44>
 8001586:	ddf6      	ble.n	8001576 <CalcMagnitude+0x82>
 8001588:	4b07      	ldr	r3, [pc, #28]	; (80015a8 <CalcMagnitude+0xb4>)
 800158a:	2200      	movs	r2, #0
 800158c:	e7f2      	b.n	8001574 <CalcMagnitude+0x80>
 800158e:	4a07      	ldr	r2, [pc, #28]	; (80015ac <CalcMagnitude+0xb8>)
 8001590:	e7e2      	b.n	8001558 <CalcMagnitude+0x64>
 8001592:	bf00      	nop
 8001594:	20001b48 	.word	0x20001b48
 8001598:	20000cd0 	.word	0x20000cd0
 800159c:	00000000 	.word	0x00000000
 80015a0:	20000c4c 	.word	0x20000c4c
 80015a4:	20000b58 	.word	0x20000b58
 80015a8:	200008e8 	.word	0x200008e8
 80015ac:	20000ab4 	.word	0x20000ab4

080015b0 <rnd>:
 80015b0:	b510      	push	{r4, lr}
 80015b2:	4604      	mov	r4, r0
 80015b4:	4803      	ldr	r0, [pc, #12]	; (80015c4 <rnd+0x14>)
 80015b6:	f005 ffd5 	bl	8007564 <HAL_RNG_GetRandomNumber>
 80015ba:	fbb0 f3f4 	udiv	r3, r0, r4
 80015be:	fb03 0014 	mls	r0, r3, r4, r0
 80015c2:	bd10      	pop	{r4, pc}
 80015c4:	20001f88 	.word	0x20001f88

080015c8 <ADC_Send>:
 80015c8:	b57f      	push	{r0, r1, r2, r3, r4, r5, r6, lr}
 80015ca:	4c0e      	ldr	r4, [pc, #56]	; (8001604 <ADC_Send+0x3c>)
 80015cc:	f88d 0009 	strb.w	r0, [sp, #9]
 80015d0:	2664      	movs	r6, #100	; 0x64
 80015d2:	2383      	movs	r3, #131	; 0x83
 80015d4:	2501      	movs	r5, #1
 80015d6:	f88d 300a 	strb.w	r3, [sp, #10]
 80015da:	aa02      	add	r2, sp, #8
 80015dc:	9600      	str	r6, [sp, #0]
 80015de:	2303      	movs	r3, #3
 80015e0:	2190      	movs	r1, #144	; 0x90
 80015e2:	4620      	mov	r0, r4
 80015e4:	f88d 5008 	strb.w	r5, [sp, #8]
 80015e8:	f004 ffe8 	bl	80065bc <HAL_I2C_Master_Transmit>
 80015ec:	2300      	movs	r3, #0
 80015ee:	f88d 3008 	strb.w	r3, [sp, #8]
 80015f2:	9600      	str	r6, [sp, #0]
 80015f4:	462b      	mov	r3, r5
 80015f6:	aa02      	add	r2, sp, #8
 80015f8:	2190      	movs	r1, #144	; 0x90
 80015fa:	4620      	mov	r0, r4
 80015fc:	f004 ffde 	bl	80065bc <HAL_I2C_Master_Transmit>
 8001600:	b004      	add	sp, #16
 8001602:	bd70      	pop	{r4, r5, r6, pc}
 8001604:	20000b98 	.word	0x20000b98

08001608 <CheckSecurity>:
 8001608:	e92d 47f0 	stmdb	sp!, {r4, r5, r6, r7, r8, r9, sl, lr}
 800160c:	ed2d 8b06 	vpush	{d8-d10}
 8001610:	2100      	movs	r1, #0
 8001612:	48bb      	ldr	r0, [pc, #748]	; (8001900 <CheckSecurity+0x2f8>)
 8001614:	4cbb      	ldr	r4, [pc, #748]	; (8001904 <CheckSecurity+0x2fc>)
 8001616:	4dbc      	ldr	r5, [pc, #752]	; (8001908 <CheckSecurity+0x300>)
 8001618:	460a      	mov	r2, r1
 800161a:	f930 3b02 	ldrsh.w	r3, [r0], #2
 800161e:	f2a3 43f3 	subw	r3, r3, #1267	; 0x4f3
 8001622:	ee07 3a90 	vmov	s15, r3
 8001626:	f012 0f01 	tst.w	r2, #1
 800162a:	ea4f 0381 	mov.w	r3, r1, lsl #2
 800162e:	eef8 7ae7 	vcvt.f32.s32	s15, s15
 8001632:	bf14      	ite	ne
 8001634:	195b      	addne	r3, r3, r5
 8001636:	191b      	addeq	r3, r3, r4
 8001638:	f102 0201 	add.w	r2, r2, #1
 800163c:	bf1a      	itte	ne
 800163e:	edc3 7a00 	vstrne	s15, [r3]
 8001642:	3101      	addne	r1, #1
 8001644:	edc3 7a00 	vstreq	s15, [r3]
 8001648:	f5b2 7f00 	cmp.w	r2, #512	; 0x200
 800164c:	d1e5      	bne.n	800161a <CheckSecurity+0x12>
 800164e:	4eaf      	ldr	r6, [pc, #700]	; (800190c <CheckSecurity+0x304>)
 8001650:	2400      	movs	r4, #0
 8001652:	4dac      	ldr	r5, [pc, #688]	; (8001904 <CheckSecurity+0x2fc>)
 8001654:	4fae      	ldr	r7, [pc, #696]	; (8001910 <CheckSecurity+0x308>)
 8001656:	1961      	adds	r1, r4, r5
 8001658:	19e2      	adds	r2, r4, r7
 800165a:	2320      	movs	r3, #32
 800165c:	4630      	mov	r0, r6
 800165e:	3480      	adds	r4, #128	; 0x80
 8001660:	f007 f964 	bl	800892c <arm_fir_f32>
 8001664:	f5b4 6f80 	cmp.w	r4, #1024	; 0x400
 8001668:	d1f3      	bne.n	8001652 <CheckSecurity+0x4a>
 800166a:	462b      	mov	r3, r5
 800166c:	463a      	mov	r2, r7
 800166e:	f44f 7480 	mov.w	r4, #256	; 0x100
 8001672:	f852 1b04 	ldr.w	r1, [r2], #4
 8001676:	f843 1b04 	str.w	r1, [r3], #4
 800167a:	3c01      	subs	r4, #1
 800167c:	d1f9      	bne.n	8001672 <CheckSecurity+0x6a>
 800167e:	f8df 828c 	ldr.w	r8, [pc, #652]	; 800190c <CheckSecurity+0x304>
 8001682:	4ea1      	ldr	r6, [pc, #644]	; (8001908 <CheckSecurity+0x300>)
 8001684:	19e2      	adds	r2, r4, r7
 8001686:	19a1      	adds	r1, r4, r6
 8001688:	2320      	movs	r3, #32
 800168a:	4640      	mov	r0, r8
 800168c:	3480      	adds	r4, #128	; 0x80
 800168e:	f007 f94d 	bl	800892c <arm_fir_f32>
 8001692:	f5b4 6f80 	cmp.w	r4, #1024	; 0x400
 8001696:	d1f4      	bne.n	8001682 <CheckSecurity+0x7a>
 8001698:	4633      	mov	r3, r6
 800169a:	f44f 7480 	mov.w	r4, #256	; 0x100
 800169e:	f857 2b04 	ldr.w	r2, [r7], #4
 80016a2:	f843 2b04 	str.w	r2, [r3], #4
 80016a6:	3c01      	subs	r4, #1
 80016a8:	d1f9      	bne.n	800169e <CheckSecurity+0x96>
 80016aa:	4b9a      	ldr	r3, [pc, #616]	; (8001914 <CheckSecurity+0x30c>)
 80016ac:	781a      	ldrb	r2, [r3, #0]
 80016ae:	2a01      	cmp	r2, #1
 80016b0:	461a      	mov	r2, r3
 80016b2:	d10b      	bne.n	80016cc <CheckSecurity+0xc4>
 80016b4:	4998      	ldr	r1, [pc, #608]	; (8001918 <CheckSecurity+0x310>)
 80016b6:	4628      	mov	r0, r5
 80016b8:	2360      	movs	r3, #96	; 0x60
 80016ba:	3b01      	subs	r3, #1
 80016bc:	f850 7b04 	ldr.w	r7, [r0], #4
 80016c0:	f841 7b04 	str.w	r7, [r1], #4
 80016c4:	f013 03ff 	ands.w	r3, r3, #255	; 0xff
 80016c8:	d1f7      	bne.n	80016ba <CheckSecurity+0xb2>
 80016ca:	7013      	strb	r3, [r2, #0]
 80016cc:	f8df 8290 	ldr.w	r8, [pc, #656]	; 8001960 <CheckSecurity+0x358>
 80016d0:	f8df 9280 	ldr.w	r9, [pc, #640]	; 8001954 <CheckSecurity+0x34c>
 80016d4:	4647      	mov	r7, r8
 80016d6:	ed9f 8a91 	vldr	s16, [pc, #580]	; 800191c <CheckSecurity+0x314>
 80016da:	4b8f      	ldr	r3, [pc, #572]	; (8001918 <CheckSecurity+0x310>)
 80016dc:	4632      	mov	r2, r6
 80016de:	4629      	mov	r1, r5
 80016e0:	f04f 0a60 	mov.w	sl, #96	; 0x60
 80016e4:	eeb0 9a48 	vmov.f32	s18, s16
 80016e8:	eef0 8a48 	vmov.f32	s17, s16
 80016ec:	eeb0 0a48 	vmov.f32	s0, s16
 80016f0:	eef0 9a48 	vmov.f32	s19, s16
 80016f4:	f1ba 0a01 	subs.w	sl, sl, #1
 80016f8:	f040 8094 	bne.w	8001824 <CheckSecurity+0x21c>
 80016fc:	ee20 0a08 	vmul.f32	s0, s0, s16
 8001700:	f00c fd44 	bl	800e18c <sqrtf>
 8001704:	ee89 aa80 	vdiv.f32	s20, s19, s0
 8001708:	ee29 0a08 	vmul.f32	s0, s18, s16
 800170c:	f00c fd3e 	bl	800e18c <sqrtf>
 8001710:	edd8 7a05 	vldr	s15, [r8, #20]
 8001714:	eeb4 aae7 	vcmpe.f32	s20, s15
 8001718:	eef1 fa10 	vmrs	APSR_nzcv, fpscr
 800171c:	ee88 8a80 	vdiv.f32	s16, s17, s0
 8001720:	f2c0 8091 	blt.w	8001846 <CheckSecurity+0x23e>
 8001724:	f04f 0a01 	mov.w	sl, #1
 8001728:	f889 a000 	strb.w	sl, [r9]
 800172c:	f003 fd9a 	bl	8005264 <HAL_GetTick>
 8001730:	4b7b      	ldr	r3, [pc, #492]	; (8001920 <CheckSecurity+0x318>)
 8001732:	4a7c      	ldr	r2, [pc, #496]	; (8001924 <CheckSecurity+0x31c>)
 8001734:	6018      	str	r0, [r3, #0]
 8001736:	7813      	ldrb	r3, [r2, #0]
 8001738:	b953      	cbnz	r3, 8001750 <CheckSecurity+0x148>
 800173a:	497b      	ldr	r1, [pc, #492]	; (8001928 <CheckSecurity+0x320>)
 800173c:	880b      	ldrh	r3, [r1, #0]
 800173e:	4453      	add	r3, sl
 8001740:	b29b      	uxth	r3, r3
 8001742:	800b      	strh	r3, [r1, #0]
 8001744:	f242 710f 	movw	r1, #9999	; 0x270f
 8001748:	428b      	cmp	r3, r1
 800174a:	bf88      	it	hi
 800174c:	f882 a000 	strbhi.w	sl, [r2]
 8001750:	4a76      	ldr	r2, [pc, #472]	; (800192c <CheckSecurity+0x324>)
 8001752:	6813      	ldr	r3, [r2, #0]
 8001754:	2001      	movs	r0, #1
 8001756:	3301      	adds	r3, #1
 8001758:	6013      	str	r3, [r2, #0]
 800175a:	f7ff fecb 	bl	80014f4 <CalcMagnitude>
 800175e:	edd7 7a05 	vldr	s15, [r7, #20]
 8001762:	eeb4 8ae7 	vcmpe.f32	s16, s15
 8001766:	eef1 fa10 	vmrs	APSR_nzcv, fpscr
 800176a:	f2c0 8085 	blt.w	8001878 <CheckSecurity+0x270>
 800176e:	4b70      	ldr	r3, [pc, #448]	; (8001930 <CheckSecurity+0x328>)
 8001770:	f04f 0a01 	mov.w	sl, #1
 8001774:	f883 a000 	strb.w	sl, [r3]
 8001778:	f003 fd74 	bl	8005264 <HAL_GetTick>
 800177c:	4b68      	ldr	r3, [pc, #416]	; (8001920 <CheckSecurity+0x318>)
 800177e:	4a69      	ldr	r2, [pc, #420]	; (8001924 <CheckSecurity+0x31c>)
 8001780:	6018      	str	r0, [r3, #0]
 8001782:	7813      	ldrb	r3, [r2, #0]
 8001784:	b953      	cbnz	r3, 800179c <CheckSecurity+0x194>
 8001786:	4968      	ldr	r1, [pc, #416]	; (8001928 <CheckSecurity+0x320>)
 8001788:	880b      	ldrh	r3, [r1, #0]
 800178a:	4453      	add	r3, sl
 800178c:	b29b      	uxth	r3, r3
 800178e:	800b      	strh	r3, [r1, #0]
 8001790:	f242 710f 	movw	r1, #9999	; 0x270f
 8001794:	428b      	cmp	r3, r1
 8001796:	bf88      	it	hi
 8001798:	f882 a000 	strbhi.w	sl, [r2]
 800179c:	4a65      	ldr	r2, [pc, #404]	; (8001934 <CheckSecurity+0x32c>)
 800179e:	6813      	ldr	r3, [r2, #0]
 80017a0:	2002      	movs	r0, #2
 80017a2:	3301      	adds	r3, #1
 80017a4:	6013      	str	r3, [r2, #0]
 80017a6:	f7ff fea5 	bl	80014f4 <CalcMagnitude>
 80017aa:	2301      	movs	r3, #1
 80017ac:	2c5f      	cmp	r4, #95	; 0x5f
 80017ae:	d004      	beq.n	80017ba <CheckSecurity+0x1b2>
 80017b0:	3401      	adds	r4, #1
 80017b2:	3504      	adds	r5, #4
 80017b4:	3604      	adds	r6, #4
 80017b6:	2b00      	cmp	r3, #0
 80017b8:	d08d      	beq.n	80016d6 <CheckSecurity+0xce>
 80017ba:	495f      	ldr	r1, [pc, #380]	; (8001938 <CheckSecurity+0x330>)
 80017bc:	797a      	ldrb	r2, [r7, #5]
 80017be:	edd1 7a03 	vldr	s15, [r1, #12]
 80017c2:	eefd 7ae7 	vcvt.s32.f32	s15, s15
 80017c6:	ee17 3a90 	vmov	r3, s15
 80017ca:	2b00      	cmp	r3, #0
 80017cc:	bfb8      	it	lt
 80017ce:	425b      	neglt	r3, r3
 80017d0:	4293      	cmp	r3, r2
 80017d2:	da0a      	bge.n	80017ea <CheckSecurity+0x1e2>
 80017d4:	edd1 7a02 	vldr	s15, [r1, #8]
 80017d8:	eefd 7ae7 	vcvt.s32.f32	s15, s15
 80017dc:	ee17 3a90 	vmov	r3, s15
 80017e0:	2b00      	cmp	r3, #0
 80017e2:	bfb8      	it	lt
 80017e4:	425b      	neglt	r3, r3
 80017e6:	429a      	cmp	r2, r3
 80017e8:	dc60      	bgt.n	80018ac <CheckSecurity+0x2a4>
 80017ea:	4b54      	ldr	r3, [pc, #336]	; (800193c <CheckSecurity+0x334>)
 80017ec:	4a54      	ldr	r2, [pc, #336]	; (8001940 <CheckSecurity+0x338>)
 80017ee:	7819      	ldrb	r1, [r3, #0]
 80017f0:	7011      	strb	r1, [r2, #0]
 80017f2:	2208      	movs	r2, #8
 80017f4:	701a      	strb	r2, [r3, #0]
 80017f6:	4b53      	ldr	r3, [pc, #332]	; (8001944 <CheckSecurity+0x33c>)
 80017f8:	f640 541f 	movw	r4, #3359	; 0xd1f
 80017fc:	635c      	str	r4, [r3, #52]	; 0x34
 80017fe:	20fa      	movs	r0, #250	; 0xfa
 8001800:	639c      	str	r4, [r3, #56]	; 0x38
 8001802:	63dc      	str	r4, [r3, #60]	; 0x3c
 8001804:	641c      	str	r4, [r3, #64]	; 0x40
 8001806:	f003 fd33 	bl	8005270 <HAL_Delay>
 800180a:	f7ff fc8d 	bl	8001128 <MotorBrake>
 800180e:	4b4e      	ldr	r3, [pc, #312]	; (8001948 <CheckSecurity+0x340>)
 8001810:	f640 30b8 	movw	r0, #3000	; 0xbb8
 8001814:	635c      	str	r4, [r3, #52]	; 0x34
 8001816:	639c      	str	r4, [r3, #56]	; 0x38
 8001818:	f003 fd2a 	bl	8005270 <HAL_Delay>
 800181c:	f7ff fc78 	bl	8001110 <cutterOFF>
 8001820:	2400      	movs	r4, #0
 8001822:	e059      	b.n	80018d8 <CheckSecurity+0x2d0>
 8001824:	ecb1 7a01 	vldmia	r1!, {s14}
 8001828:	ecf3 7a01 	vldmia	r3!, {s15}
 800182c:	eea7 0a07 	vfma.f32	s0, s14, s14
 8001830:	eee7 9a27 	vfma.f32	s19, s14, s15
 8001834:	ecb2 7a01 	vldmia	r2!, {s14}
 8001838:	eea7 8aa7 	vfma.f32	s16, s15, s15
 800183c:	eee7 8a87 	vfma.f32	s17, s15, s14
 8001840:	eea7 9a07 	vfma.f32	s18, s14, s14
 8001844:	e756      	b.n	80016f4 <CheckSecurity+0xec>
 8001846:	edd8 7a06 	vldr	s15, [r8, #24]
 800184a:	eeb4 aae7 	vcmpe.f32	s20, s15
 800184e:	eef1 fa10 	vmrs	APSR_nzcv, fpscr
 8001852:	d884      	bhi.n	800175e <CheckSecurity+0x156>
 8001854:	2302      	movs	r3, #2
 8001856:	f889 3000 	strb.w	r3, [r9]
 800185a:	f003 fd03 	bl	8005264 <HAL_GetTick>
 800185e:	4b30      	ldr	r3, [pc, #192]	; (8001920 <CheckSecurity+0x318>)
 8001860:	6018      	str	r0, [r3, #0]
 8001862:	4b30      	ldr	r3, [pc, #192]	; (8001924 <CheckSecurity+0x31c>)
 8001864:	781b      	ldrb	r3, [r3, #0]
 8001866:	b913      	cbnz	r3, 800186e <CheckSecurity+0x266>
 8001868:	4b2f      	ldr	r3, [pc, #188]	; (8001928 <CheckSecurity+0x320>)
 800186a:	f8a3 a000 	strh.w	sl, [r3]
 800186e:	4a37      	ldr	r2, [pc, #220]	; (800194c <CheckSecurity+0x344>)
 8001870:	6813      	ldr	r3, [r2, #0]
 8001872:	3301      	adds	r3, #1
 8001874:	6013      	str	r3, [r2, #0]
 8001876:	e772      	b.n	800175e <CheckSecurity+0x156>
 8001878:	edd7 7a06 	vldr	s15, [r7, #24]
 800187c:	eeb4 8ae7 	vcmpe.f32	s16, s15
 8001880:	eef1 fa10 	vmrs	APSR_nzcv, fpscr
 8001884:	d810      	bhi.n	80018a8 <CheckSecurity+0x2a0>
 8001886:	4b2a      	ldr	r3, [pc, #168]	; (8001930 <CheckSecurity+0x328>)
 8001888:	2202      	movs	r2, #2
 800188a:	701a      	strb	r2, [r3, #0]
 800188c:	f003 fcea 	bl	8005264 <HAL_GetTick>
 8001890:	4b23      	ldr	r3, [pc, #140]	; (8001920 <CheckSecurity+0x318>)
 8001892:	6018      	str	r0, [r3, #0]
 8001894:	4b23      	ldr	r3, [pc, #140]	; (8001924 <CheckSecurity+0x31c>)
 8001896:	781b      	ldrb	r3, [r3, #0]
 8001898:	b90b      	cbnz	r3, 800189e <CheckSecurity+0x296>
 800189a:	4a23      	ldr	r2, [pc, #140]	; (8001928 <CheckSecurity+0x320>)
 800189c:	8013      	strh	r3, [r2, #0]
 800189e:	4a2c      	ldr	r2, [pc, #176]	; (8001950 <CheckSecurity+0x348>)
 80018a0:	6813      	ldr	r3, [r2, #0]
 80018a2:	3301      	adds	r3, #1
 80018a4:	6013      	str	r3, [r2, #0]
 80018a6:	e780      	b.n	80017aa <CheckSecurity+0x1a2>
 80018a8:	2300      	movs	r3, #0
 80018aa:	e77f      	b.n	80017ac <CheckSecurity+0x1a4>
 80018ac:	f003 fcda 	bl	8005264 <HAL_GetTick>
 80018b0:	4b1b      	ldr	r3, [pc, #108]	; (8001920 <CheckSecurity+0x318>)
 80018b2:	78ba      	ldrb	r2, [r7, #2]
 80018b4:	681b      	ldr	r3, [r3, #0]
 80018b6:	1ac0      	subs	r0, r0, r3
 80018b8:	f44f 737a 	mov.w	r3, #1000	; 0x3e8
 80018bc:	4353      	muls	r3, r2
 80018be:	4298      	cmp	r0, r3
 80018c0:	4a24      	ldr	r2, [pc, #144]	; (8001954 <CheckSecurity+0x34c>)
 80018c2:	d30e      	bcc.n	80018e2 <CheckSecurity+0x2da>
 80018c4:	2300      	movs	r3, #0
 80018c6:	7013      	strb	r3, [r2, #0]
 80018c8:	4a19      	ldr	r2, [pc, #100]	; (8001930 <CheckSecurity+0x328>)
 80018ca:	7013      	strb	r3, [r2, #0]
 80018cc:	4a1b      	ldr	r2, [pc, #108]	; (800193c <CheckSecurity+0x334>)
 80018ce:	2106      	movs	r1, #6
 80018d0:	7011      	strb	r1, [r2, #0]
 80018d2:	4a21      	ldr	r2, [pc, #132]	; (8001958 <CheckSecurity+0x350>)
 80018d4:	2402      	movs	r4, #2
 80018d6:	7013      	strb	r3, [r2, #0]
 80018d8:	ecbd 8b06 	vpop	{d8-d10}
 80018dc:	4620      	mov	r0, r4
 80018de:	e8bd 87f0 	ldmia.w	sp!, {r4, r5, r6, r7, r8, r9, sl, pc}
 80018e2:	7813      	ldrb	r3, [r2, #0]
 80018e4:	2b01      	cmp	r3, #1
 80018e6:	d13d      	bne.n	8001964 <CheckSecurity+0x35c>
 80018e8:	4b11      	ldr	r3, [pc, #68]	; (8001930 <CheckSecurity+0x328>)
 80018ea:	781c      	ldrb	r4, [r3, #0]
 80018ec:	2c01      	cmp	r4, #1
 80018ee:	d13b      	bne.n	8001968 <CheckSecurity+0x360>
 80018f0:	4b19      	ldr	r3, [pc, #100]	; (8001958 <CheckSecurity+0x350>)
 80018f2:	701c      	strb	r4, [r3, #0]
 80018f4:	f003 fcb6 	bl	8005264 <HAL_GetTick>
 80018f8:	4b18      	ldr	r3, [pc, #96]	; (800195c <CheckSecurity+0x354>)
 80018fa:	6018      	str	r0, [r3, #0]
 80018fc:	e7ec      	b.n	80018d8 <CheckSecurity+0x2d0>
 80018fe:	bf00      	nop
 8001900:	20001200 	.word	0x20001200
 8001904:	20001b48 	.word	0x20001b48
 8001908:	20000cd0 	.word	0x20000cd0
 800190c:	2000115c 	.word	0x2000115c
 8001910:	200003f8 	.word	0x200003f8
 8001914:	200007fa 	.word	0x200007fa
 8001918:	2000001c 	.word	0x2000001c
 800191c:	00000000 	.word	0x00000000
 8001920:	20001158 	.word	0x20001158
 8001924:	200003cc 	.word	0x200003cc
 8001928:	200007fc 	.word	0x200007fc
 800192c:	20000820 	.word	0x20000820
 8001930:	200003ab 	.word	0x200003ab
 8001934:	20000828 	.word	0x20000828
 8001938:	20001aa4 	.word	0x20001aa4
 800193c:	200007fe 	.word	0x200007fe
 8001940:	200003cd 	.word	0x200003cd
 8001944:	40000800 	.word	0x40000800
 8001948:	40000400 	.word	0x40000400
 800194c:	20000824 	.word	0x20000824
 8001950:	2000082c 	.word	0x2000082c
 8001954:	200003aa 	.word	0x200003aa
 8001958:	200007f8 	.word	0x200007f8
 800195c:	200003f4 	.word	0x200003f4
 8001960:	20000b58 	.word	0x20000b58
 8001964:	2b02      	cmp	r3, #2
 8001966:	d004      	beq.n	8001972 <CheckSecurity+0x36a>
 8001968:	4b04      	ldr	r3, [pc, #16]	; (800197c <CheckSecurity+0x374>)
 800196a:	781b      	ldrb	r3, [r3, #0]
 800196c:	2b02      	cmp	r3, #2
 800196e:	f47f af57 	bne.w	8001820 <CheckSecurity+0x218>
 8001972:	4b03      	ldr	r3, [pc, #12]	; (8001980 <CheckSecurity+0x378>)
 8001974:	2202      	movs	r2, #2
 8001976:	701a      	strb	r2, [r3, #0]
 8001978:	e752      	b.n	8001820 <CheckSecurity+0x218>
 800197a:	bf00      	nop
 800197c:	200003ab 	.word	0x200003ab
 8001980:	200007f8 	.word	0x200007f8

08001984 <MotorRight.constprop.0>:
 8001984:	b5f8      	push	{r3, r4, r5, r6, r7, lr}
 8001986:	4b10      	ldr	r3, [pc, #64]	; (80019c8 <MotorRight.constprop.0+0x44>)
 8001988:	4d10      	ldr	r5, [pc, #64]	; (80019cc <MotorRight.constprop.0+0x48>)
 800198a:	2204      	movs	r2, #4
 800198c:	2400      	movs	r4, #0
 800198e:	4606      	mov	r6, r0
 8001990:	701a      	strb	r2, [r3, #0]
 8001992:	4627      	mov	r7, r4
 8001994:	00a3      	lsls	r3, r4, #2
 8001996:	f203 73d3 	addw	r3, r3, #2003	; 0x7d3
 800199a:	636f      	str	r7, [r5, #52]	; 0x34
 800199c:	2001      	movs	r0, #1
 800199e:	63ab      	str	r3, [r5, #56]	; 0x38
 80019a0:	3401      	adds	r4, #1
 80019a2:	63ef      	str	r7, [r5, #60]	; 0x3c
 80019a4:	642b      	str	r3, [r5, #64]	; 0x40
 80019a6:	f003 fc63 	bl	8005270 <HAL_Delay>
 80019aa:	f7ff fe2d 	bl	8001608 <CheckSecurity>
 80019ae:	b2a3      	uxth	r3, r4
 80019b0:	429e      	cmp	r6, r3
 80019b2:	d803      	bhi.n	80019bc <MotorRight.constprop.0+0x38>
 80019b4:	e8bd 40f8 	ldmia.w	sp!, {r3, r4, r5, r6, r7, lr}
 80019b8:	f7ff bbca 	b.w	8001150 <MotorStop>
 80019bc:	f240 1353 	movw	r3, #339	; 0x153
 80019c0:	429c      	cmp	r4, r3
 80019c2:	d1e7      	bne.n	8001994 <MotorRight.constprop.0+0x10>
 80019c4:	e7f6      	b.n	80019b4 <MotorRight.constprop.0+0x30>
 80019c6:	bf00      	nop
 80019c8:	200007fe 	.word	0x200007fe
 80019cc:	40000800 	.word	0x40000800

080019d0 <MotorBackward.constprop.0>:
 80019d0:	4b0c      	ldr	r3, [pc, #48]	; (8001a04 <MotorBackward.constprop.0+0x34>)
 80019d2:	b570      	push	{r4, r5, r6, lr}
 80019d4:	2202      	movs	r2, #2
 80019d6:	4d0c      	ldr	r5, [pc, #48]	; (8001a08 <MotorBackward.constprop.0+0x38>)
 80019d8:	701a      	strb	r2, [r3, #0]
 80019da:	f240 74d3 	movw	r4, #2003	; 0x7d3
 80019de:	2600      	movs	r6, #0
 80019e0:	636c      	str	r4, [r5, #52]	; 0x34
 80019e2:	2001      	movs	r0, #1
 80019e4:	63ae      	str	r6, [r5, #56]	; 0x38
 80019e6:	63ee      	str	r6, [r5, #60]	; 0x3c
 80019e8:	642c      	str	r4, [r5, #64]	; 0x40
 80019ea:	f003 fc41 	bl	8005270 <HAL_Delay>
 80019ee:	3404      	adds	r4, #4
 80019f0:	f7ff fe0a 	bl	8001608 <CheckSecurity>
 80019f4:	f640 531f 	movw	r3, #3359	; 0xd1f
 80019f8:	429c      	cmp	r4, r3
 80019fa:	d1f1      	bne.n	80019e0 <MotorBackward.constprop.0+0x10>
 80019fc:	e8bd 4070 	ldmia.w	sp!, {r4, r5, r6, lr}
 8001a00:	f7ff bba6 	b.w	8001150 <MotorStop>
 8001a04:	200007fe 	.word	0x200007fe
 8001a08:	40000800 	.word	0x40000800

08001a0c <MotorLeft.constprop.0>:
 8001a0c:	b5f8      	push	{r3, r4, r5, r6, r7, lr}
 8001a0e:	4b10      	ldr	r3, [pc, #64]	; (8001a50 <MotorLeft.constprop.0+0x44>)
 8001a10:	4d10      	ldr	r5, [pc, #64]	; (8001a54 <MotorLeft.constprop.0+0x48>)
 8001a12:	2203      	movs	r2, #3
 8001a14:	2400      	movs	r4, #0
 8001a16:	4606      	mov	r6, r0
 8001a18:	701a      	strb	r2, [r3, #0]
 8001a1a:	4627      	mov	r7, r4
 8001a1c:	00a3      	lsls	r3, r4, #2
 8001a1e:	f203 73d3 	addw	r3, r3, #2003	; 0x7d3
 8001a22:	636b      	str	r3, [r5, #52]	; 0x34
 8001a24:	2001      	movs	r0, #1
 8001a26:	63af      	str	r7, [r5, #56]	; 0x38
 8001a28:	3401      	adds	r4, #1
 8001a2a:	63eb      	str	r3, [r5, #60]	; 0x3c
 8001a2c:	642f      	str	r7, [r5, #64]	; 0x40
 8001a2e:	f003 fc1f 	bl	8005270 <HAL_Delay>
 8001a32:	f7ff fde9 	bl	8001608 <CheckSecurity>
 8001a36:	b2a3      	uxth	r3, r4
 8001a38:	429e      	cmp	r6, r3
 8001a3a:	d803      	bhi.n	8001a44 <MotorLeft.constprop.0+0x38>
 8001a3c:	e8bd 40f8 	ldmia.w	sp!, {r3, r4, r5, r6, r7, lr}
 8001a40:	f7ff bb86 	b.w	8001150 <MotorStop>
 8001a44:	f240 1353 	movw	r3, #339	; 0x153
 8001a48:	429c      	cmp	r4, r3
 8001a4a:	d1e7      	bne.n	8001a1c <MotorLeft.constprop.0+0x10>
 8001a4c:	e7f6      	b.n	8001a3c <MotorLeft.constprop.0+0x30>
 8001a4e:	bf00      	nop
 8001a50:	200007fe 	.word	0x200007fe
 8001a54:	40000800 	.word	0x40000800

08001a58 <parseCommand_Console>:
 8001a58:	b5f0      	push	{r4, r5, r6, r7, lr}
 8001a5a:	2400      	movs	r4, #0
 8001a5c:	b0bb      	sub	sp, #236	; 0xec
 8001a5e:	223c      	movs	r2, #60	; 0x3c
 8001a60:	4621      	mov	r1, r4
 8001a62:	a82b      	add	r0, sp, #172	; 0xac
 8001a64:	942a      	str	r4, [sp, #168]	; 0xa8
 8001a66:	f007 fae5 	bl	8009034 <memset>
 8001a6a:	4b8e      	ldr	r3, [pc, #568]	; (8001ca4 <parseCommand_Console+0x24c>)
 8001a6c:	4622      	mov	r2, r4
 8001a6e:	4619      	mov	r1, r3
 8001a70:	f813 0b01 	ldrb.w	r0, [r3], #1
 8001a74:	280d      	cmp	r0, #13
 8001a76:	f040 8715 	bne.w	80028a4 <parseCommand_Console+0xe4c>
 8001a7a:	780b      	ldrb	r3, [r1, #0]
 8001a7c:	2b0d      	cmp	r3, #13
 8001a7e:	d17d      	bne.n	8001b7c <parseCommand_Console+0x124>
 8001a80:	4b89      	ldr	r3, [pc, #548]	; (8001ca8 <parseCommand_Console+0x250>)
 8001a82:	6818      	ldr	r0, [r3, #0]
 8001a84:	889a      	ldrh	r2, [r3, #4]
 8001a86:	799b      	ldrb	r3, [r3, #6]
 8001a88:	902a      	str	r0, [sp, #168]	; 0xa8
 8001a8a:	f8ad 20ac 	strh.w	r2, [sp, #172]	; 0xac
 8001a8e:	f88d 30ae 	strb.w	r3, [sp, #174]	; 0xae
 8001a92:	4986      	ldr	r1, [pc, #536]	; (8001cac <parseCommand_Console+0x254>)
 8001a94:	4886      	ldr	r0, [pc, #536]	; (8001cb0 <parseCommand_Console+0x258>)
 8001a96:	4c87      	ldr	r4, [pc, #540]	; (8001cb4 <parseCommand_Console+0x25c>)
 8001a98:	aa2a      	add	r2, sp, #168	; 0xa8
 8001a9a:	f008 f953 	bl	8009d44 <siprintf>
 8001a9e:	4884      	ldr	r0, [pc, #528]	; (8001cb0 <parseCommand_Console+0x258>)
 8001aa0:	f7ff fc0e 	bl	80012c0 <Serial_Console>
 8001aa4:	a92a      	add	r1, sp, #168	; 0xa8
 8001aa6:	2240      	movs	r2, #64	; 0x40
 8001aa8:	f811 3b01 	ldrb.w	r3, [r1], #1
 8001aac:	5ce0      	ldrb	r0, [r4, r3]
 8001aae:	f000 0003 	and.w	r0, r0, #3
 8001ab2:	2802      	cmp	r0, #2
 8001ab4:	bf08      	it	eq
 8001ab6:	3b20      	subeq	r3, #32
 8001ab8:	f801 3c01 	strb.w	r3, [r1, #-1]
 8001abc:	1e53      	subs	r3, r2, #1
 8001abe:	f013 02ff 	ands.w	r2, r3, #255	; 0xff
 8001ac2:	d1f1      	bne.n	8001aa8 <parseCommand_Console+0x50>
 8001ac4:	497c      	ldr	r1, [pc, #496]	; (8001cb8 <parseCommand_Console+0x260>)
 8001ac6:	a82a      	add	r0, sp, #168	; 0xa8
 8001ac8:	f7fe fb82 	bl	80001d0 <strcmp>
 8001acc:	b910      	cbnz	r0, 8001ad4 <parseCommand_Console+0x7c>
 8001ace:	487b      	ldr	r0, [pc, #492]	; (8001cbc <parseCommand_Console+0x264>)
 8001ad0:	f7ff fbf6 	bl	80012c0 <Serial_Console>
 8001ad4:	497a      	ldr	r1, [pc, #488]	; (8001cc0 <parseCommand_Console+0x268>)
 8001ad6:	a82a      	add	r0, sp, #168	; 0xa8
 8001ad8:	f7fe fb7a 	bl	80001d0 <strcmp>
 8001adc:	b938      	cbnz	r0, 8001aee <parseCommand_Console+0x96>
 8001ade:	4a79      	ldr	r2, [pc, #484]	; (8001cc4 <parseCommand_Console+0x26c>)
 8001ae0:	4972      	ldr	r1, [pc, #456]	; (8001cac <parseCommand_Console+0x254>)
 8001ae2:	4873      	ldr	r0, [pc, #460]	; (8001cb0 <parseCommand_Console+0x258>)
 8001ae4:	f008 f92e 	bl	8009d44 <siprintf>
 8001ae8:	4871      	ldr	r0, [pc, #452]	; (8001cb0 <parseCommand_Console+0x258>)
 8001aea:	f7ff fbe9 	bl	80012c0 <Serial_Console>
 8001aee:	4976      	ldr	r1, [pc, #472]	; (8001cc8 <parseCommand_Console+0x270>)
 8001af0:	a82a      	add	r0, sp, #168	; 0xa8
 8001af2:	f7fe fb6d 	bl	80001d0 <strcmp>
 8001af6:	b928      	cbnz	r0, 8001b04 <parseCommand_Console+0xac>
 8001af8:	4b74      	ldr	r3, [pc, #464]	; (8001ccc <parseCommand_Console+0x274>)
 8001afa:	4875      	ldr	r0, [pc, #468]	; (8001cd0 <parseCommand_Console+0x278>)
 8001afc:	2201      	movs	r2, #1
 8001afe:	701a      	strb	r2, [r3, #0]
 8001b00:	f7ff fbde 	bl	80012c0 <Serial_Console>
 8001b04:	4973      	ldr	r1, [pc, #460]	; (8001cd4 <parseCommand_Console+0x27c>)
 8001b06:	a82a      	add	r0, sp, #168	; 0xa8
 8001b08:	f7fe fb62 	bl	80001d0 <strcmp>
 8001b0c:	b920      	cbnz	r0, 8001b18 <parseCommand_Console+0xc0>
 8001b0e:	4b6f      	ldr	r3, [pc, #444]	; (8001ccc <parseCommand_Console+0x274>)
 8001b10:	7018      	strb	r0, [r3, #0]
 8001b12:	4871      	ldr	r0, [pc, #452]	; (8001cd8 <parseCommand_Console+0x280>)
 8001b14:	f7ff fbd4 	bl	80012c0 <Serial_Console>
 8001b18:	4970      	ldr	r1, [pc, #448]	; (8001cdc <parseCommand_Console+0x284>)
 8001b1a:	a82a      	add	r0, sp, #168	; 0xa8
 8001b1c:	f7fe fb58 	bl	80001d0 <strcmp>
 8001b20:	b960      	cbnz	r0, 8001b3c <parseCommand_Console+0xe4>
 8001b22:	4b6f      	ldr	r3, [pc, #444]	; (8001ce0 <parseCommand_Console+0x288>)
 8001b24:	6818      	ldr	r0, [r3, #0]
 8001b26:	f7fe fd1f 	bl	8000568 <__aeabi_f2d>
 8001b2a:	4602      	mov	r2, r0
 8001b2c:	460b      	mov	r3, r1
 8001b2e:	4860      	ldr	r0, [pc, #384]	; (8001cb0 <parseCommand_Console+0x258>)
 8001b30:	496c      	ldr	r1, [pc, #432]	; (8001ce4 <parseCommand_Console+0x28c>)
 8001b32:	f008 f907 	bl	8009d44 <siprintf>
 8001b36:	485e      	ldr	r0, [pc, #376]	; (8001cb0 <parseCommand_Console+0x258>)
 8001b38:	f7ff fbc2 	bl	80012c0 <Serial_Console>
 8001b3c:	496a      	ldr	r1, [pc, #424]	; (8001ce8 <parseCommand_Console+0x290>)
 8001b3e:	a82a      	add	r0, sp, #168	; 0xa8
 8001b40:	f7fe fb46 	bl	80001d0 <strcmp>
 8001b44:	4604      	mov	r4, r0
 8001b46:	b9f0      	cbnz	r0, 8001b86 <parseCommand_Console+0x12e>
 8001b48:	4868      	ldr	r0, [pc, #416]	; (8001cec <parseCommand_Console+0x294>)
 8001b4a:	4d69      	ldr	r5, [pc, #420]	; (8001cf0 <parseCommand_Console+0x298>)
 8001b4c:	f7ff fbb8 	bl	80012c0 <Serial_Console>
 8001b50:	f44f 70fa 	mov.w	r0, #500	; 0x1f4
 8001b54:	f003 fb8c 	bl	8005270 <HAL_Delay>
 8001b58:	4b66      	ldr	r3, [pc, #408]	; (8001cf4 <parseCommand_Console+0x29c>)
 8001b5a:	681b      	ldr	r3, [r3, #0]
 8001b5c:	602b      	str	r3, [r5, #0]
 8001b5e:	f003 fb21 	bl	80051a4 <HAL_DeInit>
 8001b62:	4b65      	ldr	r3, [pc, #404]	; (8001cf8 <parseCommand_Console+0x2a0>)
 8001b64:	601c      	str	r4, [r3, #0]
 8001b66:	605c      	str	r4, [r3, #4]
 8001b68:	609c      	str	r4, [r3, #8]
 8001b6a:	2301      	movs	r3, #1
 8001b6c:	f383 8810 	msr	PRIMASK, r3
 8001b70:	4b62      	ldr	r3, [pc, #392]	; (8001cfc <parseCommand_Console+0x2a4>)
 8001b72:	f383 8808 	msr	MSP, r3
 8001b76:	682b      	ldr	r3, [r5, #0]
 8001b78:	4798      	blx	r3
 8001b7a:	e7fe      	b.n	8001b7a <parseCommand_Console+0x122>
 8001b7c:	4949      	ldr	r1, [pc, #292]	; (8001ca4 <parseCommand_Console+0x24c>)
 8001b7e:	a82a      	add	r0, sp, #168	; 0xa8
 8001b80:	f007 fa4a 	bl	8009018 <memcpy>
 8001b84:	e785      	b.n	8001a92 <parseCommand_Console+0x3a>
 8001b86:	495e      	ldr	r1, [pc, #376]	; (8001d00 <parseCommand_Console+0x2a8>)
 8001b88:	a82a      	add	r0, sp, #168	; 0xa8
 8001b8a:	f7fe fb21 	bl	80001d0 <strcmp>
 8001b8e:	2800      	cmp	r0, #0
 8001b90:	d06c      	beq.n	8001c6c <parseCommand_Console+0x214>
 8001b92:	495c      	ldr	r1, [pc, #368]	; (8001d04 <parseCommand_Console+0x2ac>)
 8001b94:	a82a      	add	r0, sp, #168	; 0xa8
 8001b96:	f7fe fb1b 	bl	80001d0 <strcmp>
 8001b9a:	b9d8      	cbnz	r0, 8001bd4 <parseCommand_Console+0x17c>
 8001b9c:	485a      	ldr	r0, [pc, #360]	; (8001d08 <parseCommand_Console+0x2b0>)
 8001b9e:	4e5b      	ldr	r6, [pc, #364]	; (8001d0c <parseCommand_Console+0x2b4>)
 8001ba0:	4f5b      	ldr	r7, [pc, #364]	; (8001d10 <parseCommand_Console+0x2b8>)
 8001ba2:	4d43      	ldr	r5, [pc, #268]	; (8001cb0 <parseCommand_Console+0x258>)
 8001ba4:	f7ff fb8c 	bl	80012c0 <Serial_Console>
 8001ba8:	485a      	ldr	r0, [pc, #360]	; (8001d14 <parseCommand_Console+0x2bc>)
 8001baa:	f7ff fb89 	bl	80012c0 <Serial_Console>
 8001bae:	2460      	movs	r4, #96	; 0x60
 8001bb0:	f856 0b04 	ldr.w	r0, [r6], #4
 8001bb4:	f7fe fcd8 	bl	8000568 <__aeabi_f2d>
 8001bb8:	4602      	mov	r2, r0
 8001bba:	460b      	mov	r3, r1
 8001bbc:	4628      	mov	r0, r5
 8001bbe:	4639      	mov	r1, r7
 8001bc0:	f008 f8c0 	bl	8009d44 <siprintf>
 8001bc4:	4628      	mov	r0, r5
 8001bc6:	f7ff fb7b 	bl	80012c0 <Serial_Console>
 8001bca:	3c01      	subs	r4, #1
 8001bcc:	d1f0      	bne.n	8001bb0 <parseCommand_Console+0x158>
 8001bce:	4852      	ldr	r0, [pc, #328]	; (8001d18 <parseCommand_Console+0x2c0>)
 8001bd0:	f7ff fb76 	bl	80012c0 <Serial_Console>
 8001bd4:	4951      	ldr	r1, [pc, #324]	; (8001d1c <parseCommand_Console+0x2c4>)
 8001bd6:	a82a      	add	r0, sp, #168	; 0xa8
 8001bd8:	f7fe fafa 	bl	80001d0 <strcmp>
 8001bdc:	b928      	cbnz	r0, 8001bea <parseCommand_Console+0x192>
 8001bde:	4b50      	ldr	r3, [pc, #320]	; (8001d20 <parseCommand_Console+0x2c8>)
 8001be0:	4850      	ldr	r0, [pc, #320]	; (8001d24 <parseCommand_Console+0x2cc>)
 8001be2:	2201      	movs	r2, #1
 8001be4:	701a      	strb	r2, [r3, #0]
 8001be6:	f7ff fb6b 	bl	80012c0 <Serial_Console>
 8001bea:	494f      	ldr	r1, [pc, #316]	; (8001d28 <parseCommand_Console+0x2d0>)
 8001bec:	a82a      	add	r0, sp, #168	; 0xa8
 8001bee:	f7fe faef 	bl	80001d0 <strcmp>
 8001bf2:	b968      	cbnz	r0, 8001c10 <parseCommand_Console+0x1b8>
 8001bf4:	4b4d      	ldr	r3, [pc, #308]	; (8001d2c <parseCommand_Console+0x2d4>)
 8001bf6:	f44f 62fa 	mov.w	r2, #2000	; 0x7d0
 8001bfa:	6358      	str	r0, [r3, #52]	; 0x34
 8001bfc:	f640 30b8 	movw	r0, #3000	; 0xbb8
 8001c00:	639a      	str	r2, [r3, #56]	; 0x38
 8001c02:	f003 fb35 	bl	8005270 <HAL_Delay>
 8001c06:	f7ff faa3 	bl	8001150 <MotorStop>
 8001c0a:	4849      	ldr	r0, [pc, #292]	; (8001d30 <parseCommand_Console+0x2d8>)
 8001c0c:	f7ff fb58 	bl	80012c0 <Serial_Console>
 8001c10:	4948      	ldr	r1, [pc, #288]	; (8001d34 <parseCommand_Console+0x2dc>)
 8001c12:	a82a      	add	r0, sp, #168	; 0xa8
 8001c14:	f7fe fadc 	bl	80001d0 <strcmp>
 8001c18:	b968      	cbnz	r0, 8001c36 <parseCommand_Console+0x1de>
 8001c1a:	4b44      	ldr	r3, [pc, #272]	; (8001d2c <parseCommand_Console+0x2d4>)
 8001c1c:	f44f 62fa 	mov.w	r2, #2000	; 0x7d0
 8001c20:	63da      	str	r2, [r3, #60]	; 0x3c
 8001c22:	6418      	str	r0, [r3, #64]	; 0x40
 8001c24:	f640 30b8 	movw	r0, #3000	; 0xbb8
 8001c28:	f003 fb22 	bl	8005270 <HAL_Delay>
 8001c2c:	f7ff fa90 	bl	8001150 <MotorStop>
 8001c30:	483f      	ldr	r0, [pc, #252]	; (8001d30 <parseCommand_Console+0x2d8>)
 8001c32:	f7ff fb45 	bl	80012c0 <Serial_Console>
 8001c36:	4940      	ldr	r1, [pc, #256]	; (8001d38 <parseCommand_Console+0x2e0>)
 8001c38:	a82a      	add	r0, sp, #168	; 0xa8
 8001c3a:	f7fe fac9 	bl	80001d0 <strcmp>
 8001c3e:	2800      	cmp	r0, #0
 8001c40:	f040 8086 	bne.w	8001d50 <parseCommand_Console+0x2f8>
 8001c44:	483d      	ldr	r0, [pc, #244]	; (8001d3c <parseCommand_Console+0x2e4>)
 8001c46:	f7ff fb3b 	bl	80012c0 <Serial_Console>
 8001c4a:	f44f 70fa 	mov.w	r0, #500	; 0x1f4
 8001c4e:	f003 fb0f 	bl	8005270 <HAL_Delay>
 8001c52:	f3bf 8f4f 	dsb	sy
 8001c56:	493a      	ldr	r1, [pc, #232]	; (8001d40 <parseCommand_Console+0x2e8>)
 8001c58:	4b3a      	ldr	r3, [pc, #232]	; (8001d44 <parseCommand_Console+0x2ec>)
 8001c5a:	68ca      	ldr	r2, [r1, #12]
 8001c5c:	f402 62e0 	and.w	r2, r2, #1792	; 0x700
 8001c60:	4313      	orrs	r3, r2
 8001c62:	60cb      	str	r3, [r1, #12]
 8001c64:	f3bf 8f4f 	dsb	sy
 8001c68:	bf00      	nop
 8001c6a:	e7fd      	b.n	8001c68 <parseCommand_Console+0x210>
 8001c6c:	4836      	ldr	r0, [pc, #216]	; (8001d48 <parseCommand_Console+0x2f0>)
 8001c6e:	4e27      	ldr	r6, [pc, #156]	; (8001d0c <parseCommand_Console+0x2b4>)
 8001c70:	4f36      	ldr	r7, [pc, #216]	; (8001d4c <parseCommand_Console+0x2f4>)
 8001c72:	4d0f      	ldr	r5, [pc, #60]	; (8001cb0 <parseCommand_Console+0x258>)
 8001c74:	f7ff fb24 	bl	80012c0 <Serial_Console>
 8001c78:	f44f 50fa 	mov.w	r0, #8000	; 0x1f40
 8001c7c:	f003 faf8 	bl	8005270 <HAL_Delay>
 8001c80:	2460      	movs	r4, #96	; 0x60
 8001c82:	f856 0b04 	ldr.w	r0, [r6], #4
 8001c86:	f7fe fc6f 	bl	8000568 <__aeabi_f2d>
 8001c8a:	4602      	mov	r2, r0
 8001c8c:	460b      	mov	r3, r1
 8001c8e:	4628      	mov	r0, r5
 8001c90:	4639      	mov	r1, r7
 8001c92:	f008 f857 	bl	8009d44 <siprintf>
 8001c96:	4628      	mov	r0, r5
 8001c98:	f7ff fb12 	bl	80012c0 <Serial_Console>
 8001c9c:	3c01      	subs	r4, #1
 8001c9e:	d1f0      	bne.n	8001c82 <parseCommand_Console+0x22a>
 8001ca0:	e777      	b.n	8001b92 <parseCommand_Console+0x13a>
 8001ca2:	bf00      	nop
 8001ca4:	200010d0 	.word	0x200010d0
 8001ca8:	0800e701 	.word	0x0800e701
 8001cac:	0800e709 	.word	0x0800e709
 8001cb0:	20000c4e 	.word	0x20000c4e
 8001cb4:	0800fad9 	.word	0x0800fad9
 8001cb8:	0800e70e 	.word	0x0800e70e
 8001cbc:	0800e714 	.word	0x0800e714
 8001cc0:	0800e740 	.word	0x0800e740
 8001cc4:	0800faaa 	.word	0x0800faaa
 8001cc8:	0800e748 	.word	0x0800e748
 8001ccc:	200003bf 	.word	0x200003bf
 8001cd0:	0800e751 	.word	0x0800e751
 8001cd4:	0800e763 	.word	0x0800e763
 8001cd8:	0800e76d 	.word	0x0800e76d
 8001cdc:	0800e780 	.word	0x0800e780
 8001ce0:	20000004 	.word	0x20000004
 8001ce4:	0800eaf7 	.word	0x0800eaf7
 8001ce8:	0800e788 	.word	0x0800e788
 8001cec:	0800e790 	.word	0x0800e790
 8001cf0:	20000800 	.word	0x20000800
 8001cf4:	1fff0004 	.word	0x1fff0004
 8001cf8:	e000e010 	.word	0xe000e010
 8001cfc:	20001000 	.word	0x20001000
 8001d00:	0800e7a9 	.word	0x0800e7a9
 8001d04:	0800e7b2 	.word	0x0800e7b2
 8001d08:	0800e80e 	.word	0x0800e80e
 8001d0c:	2000001c 	.word	0x2000001c
 8001d10:	0800e832 	.word	0x0800e832
 8001d14:	0800e82f 	.word	0x0800e82f
 8001d18:	0800e836 	.word	0x0800e836
 8001d1c:	0800e83c 	.word	0x0800e83c
 8001d20:	200007fa 	.word	0x200007fa
 8001d24:	0800e847 	.word	0x0800e847
 8001d28:	0800e84f 	.word	0x0800e84f
 8001d2c:	40000800 	.word	0x40000800
 8001d30:	0800e85f 	.word	0x0800e85f
 8001d34:	0800e867 	.word	0x0800e867
 8001d38:	0800e878 	.word	0x0800e878
 8001d3c:	0800e87f 	.word	0x0800e87f
 8001d40:	e000ed00 	.word	0xe000ed00
 8001d44:	05fa0004 	.word	0x05fa0004
 8001d48:	0800e7bd 	.word	0x0800e7bd
 8001d4c:	0800e809 	.word	0x0800e809
 8001d50:	49af      	ldr	r1, [pc, #700]	; (8002010 <parseCommand_Console+0x5b8>)
 8001d52:	a82a      	add	r0, sp, #168	; 0xa8
 8001d54:	f7fe fa3c 	bl	80001d0 <strcmp>
 8001d58:	b988      	cbnz	r0, 8001d7e <parseCommand_Console+0x326>
 8001d5a:	a80e      	add	r0, sp, #56	; 0x38
 8001d5c:	ac0e      	add	r4, sp, #56	; 0x38
 8001d5e:	f002 fd4b 	bl	80047f8 <read_all_settings>
 8001d62:	cc0f      	ldmia	r4!, {r0, r1, r2, r3}
 8001d64:	4dab      	ldr	r5, [pc, #684]	; (8002014 <parseCommand_Console+0x5bc>)
 8001d66:	c50f      	stmia	r5!, {r0, r1, r2, r3}
 8001d68:	cc0f      	ldmia	r4!, {r0, r1, r2, r3}
 8001d6a:	c50f      	stmia	r5!, {r0, r1, r2, r3}
 8001d6c:	cc0f      	ldmia	r4!, {r0, r1, r2, r3}
 8001d6e:	c50f      	stmia	r5!, {r0, r1, r2, r3}
 8001d70:	e894 000f 	ldmia.w	r4, {r0, r1, r2, r3}
 8001d74:	e885 000f 	stmia.w	r5, {r0, r1, r2, r3}
 8001d78:	48a7      	ldr	r0, [pc, #668]	; (8002018 <parseCommand_Console+0x5c0>)
 8001d7a:	f7ff faa1 	bl	80012c0 <Serial_Console>
 8001d7e:	49a7      	ldr	r1, [pc, #668]	; (800201c <parseCommand_Console+0x5c4>)
 8001d80:	a82a      	add	r0, sp, #168	; 0xa8
 8001d82:	f7fe fa25 	bl	80001d0 <strcmp>
 8001d86:	2800      	cmp	r0, #0
 8001d88:	f040 80e6 	bne.w	8001f58 <parseCommand_Console+0x500>
 8001d8c:	4ca1      	ldr	r4, [pc, #644]	; (8002014 <parseCommand_Console+0x5bc>)
 8001d8e:	49a4      	ldr	r1, [pc, #656]	; (8002020 <parseCommand_Console+0x5c8>)
 8001d90:	7862      	ldrb	r2, [r4, #1]
 8001d92:	48a4      	ldr	r0, [pc, #656]	; (8002024 <parseCommand_Console+0x5cc>)
 8001d94:	f007 ffd6 	bl	8009d44 <siprintf>
 8001d98:	48a2      	ldr	r0, [pc, #648]	; (8002024 <parseCommand_Console+0x5cc>)
 8001d9a:	f7ff fa91 	bl	80012c0 <Serial_Console>
 8001d9e:	78a2      	ldrb	r2, [r4, #2]
 8001da0:	49a1      	ldr	r1, [pc, #644]	; (8002028 <parseCommand_Console+0x5d0>)
 8001da2:	48a0      	ldr	r0, [pc, #640]	; (8002024 <parseCommand_Console+0x5cc>)
 8001da4:	f007 ffce 	bl	8009d44 <siprintf>
 8001da8:	489e      	ldr	r0, [pc, #632]	; (8002024 <parseCommand_Console+0x5cc>)
 8001daa:	f7ff fa89 	bl	80012c0 <Serial_Console>
 8001dae:	78e2      	ldrb	r2, [r4, #3]
 8001db0:	499e      	ldr	r1, [pc, #632]	; (800202c <parseCommand_Console+0x5d4>)
 8001db2:	489c      	ldr	r0, [pc, #624]	; (8002024 <parseCommand_Console+0x5cc>)
 8001db4:	f007 ffc6 	bl	8009d44 <siprintf>
 8001db8:	489a      	ldr	r0, [pc, #616]	; (8002024 <parseCommand_Console+0x5cc>)
 8001dba:	f7ff fa81 	bl	80012c0 <Serial_Console>
 8001dbe:	7922      	ldrb	r2, [r4, #4]
 8001dc0:	499b      	ldr	r1, [pc, #620]	; (8002030 <parseCommand_Console+0x5d8>)
 8001dc2:	4898      	ldr	r0, [pc, #608]	; (8002024 <parseCommand_Console+0x5cc>)
 8001dc4:	f007 ffbe 	bl	8009d44 <siprintf>
 8001dc8:	4896      	ldr	r0, [pc, #600]	; (8002024 <parseCommand_Console+0x5cc>)
 8001dca:	f7ff fa79 	bl	80012c0 <Serial_Console>
 8001dce:	7962      	ldrb	r2, [r4, #5]
 8001dd0:	4998      	ldr	r1, [pc, #608]	; (8002034 <parseCommand_Console+0x5dc>)
 8001dd2:	4894      	ldr	r0, [pc, #592]	; (8002024 <parseCommand_Console+0x5cc>)
 8001dd4:	f007 ffb6 	bl	8009d44 <siprintf>
 8001dd8:	4892      	ldr	r0, [pc, #584]	; (8002024 <parseCommand_Console+0x5cc>)
 8001dda:	f7ff fa71 	bl	80012c0 <Serial_Console>
 8001dde:	79a2      	ldrb	r2, [r4, #6]
 8001de0:	4995      	ldr	r1, [pc, #596]	; (8002038 <parseCommand_Console+0x5e0>)
 8001de2:	4890      	ldr	r0, [pc, #576]	; (8002024 <parseCommand_Console+0x5cc>)
 8001de4:	f007 ffae 	bl	8009d44 <siprintf>
 8001de8:	488e      	ldr	r0, [pc, #568]	; (8002024 <parseCommand_Console+0x5cc>)
 8001dea:	f7ff fa69 	bl	80012c0 <Serial_Console>
 8001dee:	79e2      	ldrb	r2, [r4, #7]
 8001df0:	4992      	ldr	r1, [pc, #584]	; (800203c <parseCommand_Console+0x5e4>)
 8001df2:	488c      	ldr	r0, [pc, #560]	; (8002024 <parseCommand_Console+0x5cc>)
 8001df4:	f007 ffa6 	bl	8009d44 <siprintf>
 8001df8:	488a      	ldr	r0, [pc, #552]	; (8002024 <parseCommand_Console+0x5cc>)
 8001dfa:	f7ff fa61 	bl	80012c0 <Serial_Console>
 8001dfe:	8922      	ldrh	r2, [r4, #8]
 8001e00:	498f      	ldr	r1, [pc, #572]	; (8002040 <parseCommand_Console+0x5e8>)
 8001e02:	4888      	ldr	r0, [pc, #544]	; (8002024 <parseCommand_Console+0x5cc>)
 8001e04:	f007 ff9e 	bl	8009d44 <siprintf>
 8001e08:	4886      	ldr	r0, [pc, #536]	; (8002024 <parseCommand_Console+0x5cc>)
 8001e0a:	f7ff fa59 	bl	80012c0 <Serial_Console>
 8001e0e:	6920      	ldr	r0, [r4, #16]
 8001e10:	f7fe fbaa 	bl	8000568 <__aeabi_f2d>
 8001e14:	4602      	mov	r2, r0
 8001e16:	460b      	mov	r3, r1
 8001e18:	4882      	ldr	r0, [pc, #520]	; (8002024 <parseCommand_Console+0x5cc>)
 8001e1a:	498a      	ldr	r1, [pc, #552]	; (8002044 <parseCommand_Console+0x5ec>)
 8001e1c:	f007 ff92 	bl	8009d44 <siprintf>
 8001e20:	4880      	ldr	r0, [pc, #512]	; (8002024 <parseCommand_Console+0x5cc>)
 8001e22:	f7ff fa4d 	bl	80012c0 <Serial_Console>
 8001e26:	68e0      	ldr	r0, [r4, #12]
 8001e28:	f7fe fb9e 	bl	8000568 <__aeabi_f2d>
 8001e2c:	4602      	mov	r2, r0
 8001e2e:	460b      	mov	r3, r1
 8001e30:	487c      	ldr	r0, [pc, #496]	; (8002024 <parseCommand_Console+0x5cc>)
 8001e32:	4985      	ldr	r1, [pc, #532]	; (8002048 <parseCommand_Console+0x5f0>)
 8001e34:	f007 ff86 	bl	8009d44 <siprintf>
 8001e38:	487a      	ldr	r0, [pc, #488]	; (8002024 <parseCommand_Console+0x5cc>)
 8001e3a:	f7ff fa41 	bl	80012c0 <Serial_Console>
 8001e3e:	6960      	ldr	r0, [r4, #20]
 8001e40:	f7fe fb92 	bl	8000568 <__aeabi_f2d>
 8001e44:	4602      	mov	r2, r0
 8001e46:	460b      	mov	r3, r1
 8001e48:	4876      	ldr	r0, [pc, #472]	; (8002024 <parseCommand_Console+0x5cc>)
 8001e4a:	4980      	ldr	r1, [pc, #512]	; (800204c <parseCommand_Console+0x5f4>)
 8001e4c:	f007 ff7a 	bl	8009d44 <siprintf>
 8001e50:	4874      	ldr	r0, [pc, #464]	; (8002024 <parseCommand_Console+0x5cc>)
 8001e52:	f7ff fa35 	bl	80012c0 <Serial_Console>
 8001e56:	69a0      	ldr	r0, [r4, #24]
 8001e58:	f7fe fb86 	bl	8000568 <__aeabi_f2d>
 8001e5c:	4602      	mov	r2, r0
 8001e5e:	460b      	mov	r3, r1
 8001e60:	4870      	ldr	r0, [pc, #448]	; (8002024 <parseCommand_Console+0x5cc>)
 8001e62:	497b      	ldr	r1, [pc, #492]	; (8002050 <parseCommand_Console+0x5f8>)
 8001e64:	f007 ff6e 	bl	8009d44 <siprintf>
 8001e68:	486e      	ldr	r0, [pc, #440]	; (8002024 <parseCommand_Console+0x5cc>)
 8001e6a:	f7ff fa29 	bl	80012c0 <Serial_Console>
 8001e6e:	69e0      	ldr	r0, [r4, #28]
 8001e70:	f7fe fb7a 	bl	8000568 <__aeabi_f2d>
 8001e74:	4602      	mov	r2, r0
 8001e76:	460b      	mov	r3, r1
 8001e78:	486a      	ldr	r0, [pc, #424]	; (8002024 <parseCommand_Console+0x5cc>)
 8001e7a:	4976      	ldr	r1, [pc, #472]	; (8002054 <parseCommand_Console+0x5fc>)
 8001e7c:	f007 ff62 	bl	8009d44 <siprintf>
 8001e80:	4868      	ldr	r0, [pc, #416]	; (8002024 <parseCommand_Console+0x5cc>)
 8001e82:	f7ff fa1d 	bl	80012c0 <Serial_Console>
 8001e86:	6a60      	ldr	r0, [r4, #36]	; 0x24
 8001e88:	f7fe fb6e 	bl	8000568 <__aeabi_f2d>
 8001e8c:	4602      	mov	r2, r0
 8001e8e:	460b      	mov	r3, r1
 8001e90:	4864      	ldr	r0, [pc, #400]	; (8002024 <parseCommand_Console+0x5cc>)
 8001e92:	4971      	ldr	r1, [pc, #452]	; (8002058 <parseCommand_Console+0x600>)
 8001e94:	f007 ff56 	bl	8009d44 <siprintf>
 8001e98:	4862      	ldr	r0, [pc, #392]	; (8002024 <parseCommand_Console+0x5cc>)
 8001e9a:	f7ff fa11 	bl	80012c0 <Serial_Console>
 8001e9e:	6a20      	ldr	r0, [r4, #32]
 8001ea0:	f7fe fb62 	bl	8000568 <__aeabi_f2d>
 8001ea4:	4602      	mov	r2, r0
 8001ea6:	460b      	mov	r3, r1
 8001ea8:	485e      	ldr	r0, [pc, #376]	; (8002024 <parseCommand_Console+0x5cc>)
 8001eaa:	496c      	ldr	r1, [pc, #432]	; (800205c <parseCommand_Console+0x604>)
 8001eac:	f007 ff4a 	bl	8009d44 <siprintf>
 8001eb0:	485c      	ldr	r0, [pc, #368]	; (8002024 <parseCommand_Console+0x5cc>)
 8001eb2:	f7ff fa05 	bl	80012c0 <Serial_Console>
 8001eb6:	6aa0      	ldr	r0, [r4, #40]	; 0x28
 8001eb8:	f7fe fb56 	bl	8000568 <__aeabi_f2d>
 8001ebc:	4602      	mov	r2, r0
 8001ebe:	460b      	mov	r3, r1
 8001ec0:	4858      	ldr	r0, [pc, #352]	; (8002024 <parseCommand_Console+0x5cc>)
 8001ec2:	4967      	ldr	r1, [pc, #412]	; (8002060 <parseCommand_Console+0x608>)
 8001ec4:	f007 ff3e 	bl	8009d44 <siprintf>
 8001ec8:	4856      	ldr	r0, [pc, #344]	; (8002024 <parseCommand_Console+0x5cc>)
 8001eca:	f7ff f9f9 	bl	80012c0 <Serial_Console>
 8001ece:	6ae0      	ldr	r0, [r4, #44]	; 0x2c
 8001ed0:	f7fe fb4a 	bl	8000568 <__aeabi_f2d>
 8001ed4:	4602      	mov	r2, r0
 8001ed6:	460b      	mov	r3, r1
 8001ed8:	4852      	ldr	r0, [pc, #328]	; (8002024 <parseCommand_Console+0x5cc>)
 8001eda:	4962      	ldr	r1, [pc, #392]	; (8002064 <parseCommand_Console+0x60c>)
 8001edc:	f007 ff32 	bl	8009d44 <siprintf>
 8001ee0:	4850      	ldr	r0, [pc, #320]	; (8002024 <parseCommand_Console+0x5cc>)
 8001ee2:	f7ff f9ed 	bl	80012c0 <Serial_Console>
 8001ee6:	6b20      	ldr	r0, [r4, #48]	; 0x30
 8001ee8:	f7fe fb3e 	bl	8000568 <__aeabi_f2d>
 8001eec:	460b      	mov	r3, r1
 8001eee:	4602      	mov	r2, r0
 8001ef0:	495d      	ldr	r1, [pc, #372]	; (8002068 <parseCommand_Console+0x610>)
 8001ef2:	484c      	ldr	r0, [pc, #304]	; (8002024 <parseCommand_Console+0x5cc>)
 8001ef4:	f007 ff26 	bl	8009d44 <siprintf>
 8001ef8:	484a      	ldr	r0, [pc, #296]	; (8002024 <parseCommand_Console+0x5cc>)
 8001efa:	f7ff f9e1 	bl	80012c0 <Serial_Console>
 8001efe:	f44f 757a 	mov.w	r5, #1000	; 0x3e8
 8001f02:	495a      	ldr	r1, [pc, #360]	; (800206c <parseCommand_Console+0x614>)
 8001f04:	6b62      	ldr	r2, [r4, #52]	; 0x34
 8001f06:	4847      	ldr	r0, [pc, #284]	; (8002024 <parseCommand_Console+0x5cc>)
 8001f08:	fbb2 f2f5 	udiv	r2, r2, r5
 8001f0c:	f007 ff1a 	bl	8009d44 <siprintf>
 8001f10:	4844      	ldr	r0, [pc, #272]	; (8002024 <parseCommand_Console+0x5cc>)
 8001f12:	f7ff f9d5 	bl	80012c0 <Serial_Console>
 8001f16:	f003 f9a5 	bl	8005264 <HAL_GetTick>
 8001f1a:	6ba2      	ldr	r2, [r4, #56]	; 0x38
 8001f1c:	4954      	ldr	r1, [pc, #336]	; (8002070 <parseCommand_Console+0x618>)
 8001f1e:	1a82      	subs	r2, r0, r2
 8001f20:	4840      	ldr	r0, [pc, #256]	; (8002024 <parseCommand_Console+0x5cc>)
 8001f22:	fbb2 f2f5 	udiv	r2, r2, r5
 8001f26:	f007 ff0d 	bl	8009d44 <siprintf>
 8001f2a:	483e      	ldr	r0, [pc, #248]	; (8002024 <parseCommand_Console+0x5cc>)
 8001f2c:	f7ff f9c8 	bl	80012c0 <Serial_Console>
 8001f30:	8962      	ldrh	r2, [r4, #10]
 8001f32:	4950      	ldr	r1, [pc, #320]	; (8002074 <parseCommand_Console+0x61c>)
 8001f34:	483b      	ldr	r0, [pc, #236]	; (8002024 <parseCommand_Console+0x5cc>)
 8001f36:	f007 ff05 	bl	8009d44 <siprintf>
 8001f3a:	483a      	ldr	r0, [pc, #232]	; (8002024 <parseCommand_Console+0x5cc>)
 8001f3c:	f7ff f9c0 	bl	80012c0 <Serial_Console>
 8001f40:	6be0      	ldr	r0, [r4, #60]	; 0x3c
 8001f42:	f7fe fb11 	bl	8000568 <__aeabi_f2d>
 8001f46:	4602      	mov	r2, r0
 8001f48:	460b      	mov	r3, r1
 8001f4a:	4836      	ldr	r0, [pc, #216]	; (8002024 <parseCommand_Console+0x5cc>)
 8001f4c:	494a      	ldr	r1, [pc, #296]	; (8002078 <parseCommand_Console+0x620>)
 8001f4e:	f007 fef9 	bl	8009d44 <siprintf>
 8001f52:	4834      	ldr	r0, [pc, #208]	; (8002024 <parseCommand_Console+0x5cc>)
 8001f54:	f7ff f9b4 	bl	80012c0 <Serial_Console>
 8001f58:	4948      	ldr	r1, [pc, #288]	; (800207c <parseCommand_Console+0x624>)
 8001f5a:	a82a      	add	r0, sp, #168	; 0xa8
 8001f5c:	f7fe f938 	bl	80001d0 <strcmp>
 8001f60:	bb00      	cbnz	r0, 8001fa4 <parseCommand_Console+0x54c>
 8001f62:	4d2c      	ldr	r5, [pc, #176]	; (8002014 <parseCommand_Console+0x5bc>)
 8001f64:	f105 0610 	add.w	r6, r5, #16
 8001f68:	ce0f      	ldmia	r6!, {r0, r1, r2, r3}
 8001f6a:	466c      	mov	r4, sp
 8001f6c:	c40f      	stmia	r4!, {r0, r1, r2, r3}
 8001f6e:	ce0f      	ldmia	r6!, {r0, r1, r2, r3}
 8001f70:	c40f      	stmia	r4!, {r0, r1, r2, r3}
 8001f72:	e896 000f 	ldmia.w	r6, {r0, r1, r2, r3}
 8001f76:	e884 000f 	stmia.w	r4, {r0, r1, r2, r3}
 8001f7a:	e895 000f 	ldmia.w	r5, {r0, r1, r2, r3}
 8001f7e:	f002 fcd3 	bl	8004928 <write_all_settings>
 8001f82:	ac0e      	add	r4, sp, #56	; 0x38
 8001f84:	a80e      	add	r0, sp, #56	; 0x38
 8001f86:	f002 fc37 	bl	80047f8 <read_all_settings>
 8001f8a:	cc0f      	ldmia	r4!, {r0, r1, r2, r3}
 8001f8c:	c50f      	stmia	r5!, {r0, r1, r2, r3}
 8001f8e:	cc0f      	ldmia	r4!, {r0, r1, r2, r3}
 8001f90:	c50f      	stmia	r5!, {r0, r1, r2, r3}
 8001f92:	cc0f      	ldmia	r4!, {r0, r1, r2, r3}
 8001f94:	c50f      	stmia	r5!, {r0, r1, r2, r3}
 8001f96:	e894 000f 	ldmia.w	r4, {r0, r1, r2, r3}
 8001f9a:	e886 000f 	stmia.w	r6, {r0, r1, r2, r3}
 8001f9e:	4838      	ldr	r0, [pc, #224]	; (8002080 <parseCommand_Console+0x628>)
 8001fa0:	f7ff f98e 	bl	80012c0 <Serial_Console>
 8001fa4:	4937      	ldr	r1, [pc, #220]	; (8002084 <parseCommand_Console+0x62c>)
 8001fa6:	a82a      	add	r0, sp, #168	; 0xa8
 8001fa8:	f7fe f912 	bl	80001d0 <strcmp>
 8001fac:	b998      	cbnz	r0, 8001fd6 <parseCommand_Console+0x57e>
 8001fae:	f002 fd35 	bl	8004a1c <save_default_settings>
 8001fb2:	ac0e      	add	r4, sp, #56	; 0x38
 8001fb4:	a80e      	add	r0, sp, #56	; 0x38
 8001fb6:	f002 fc1f 	bl	80047f8 <read_all_settings>
 8001fba:	cc0f      	ldmia	r4!, {r0, r1, r2, r3}
 8001fbc:	4d15      	ldr	r5, [pc, #84]	; (8002014 <parseCommand_Console+0x5bc>)
 8001fbe:	c50f      	stmia	r5!, {r0, r1, r2, r3}
 8001fc0:	cc0f      	ldmia	r4!, {r0, r1, r2, r3}
 8001fc2:	c50f      	stmia	r5!, {r0, r1, r2, r3}
 8001fc4:	cc0f      	ldmia	r4!, {r0, r1, r2, r3}
 8001fc6:	c50f      	stmia	r5!, {r0, r1, r2, r3}
 8001fc8:	e894 000f 	ldmia.w	r4, {r0, r1, r2, r3}
 8001fcc:	e885 000f 	stmia.w	r5, {r0, r1, r2, r3}
 8001fd0:	482d      	ldr	r0, [pc, #180]	; (8002088 <parseCommand_Console+0x630>)
 8001fd2:	f7ff f975 	bl	80012c0 <Serial_Console>
 8001fd6:	492d      	ldr	r1, [pc, #180]	; (800208c <parseCommand_Console+0x634>)
 8001fd8:	a82a      	add	r0, sp, #168	; 0xa8
 8001fda:	f7fe f8f9 	bl	80001d0 <strcmp>
 8001fde:	2800      	cmp	r0, #0
 8001fe0:	d163      	bne.n	80020aa <parseCommand_Console+0x652>
 8001fe2:	4b2b      	ldr	r3, [pc, #172]	; (8002090 <parseCommand_Console+0x638>)
 8001fe4:	6818      	ldr	r0, [r3, #0]
 8001fe6:	f7fe fabf 	bl	8000568 <__aeabi_f2d>
 8001fea:	460b      	mov	r3, r1
 8001fec:	4929      	ldr	r1, [pc, #164]	; (8002094 <parseCommand_Console+0x63c>)
 8001fee:	4602      	mov	r2, r0
 8001ff0:	6808      	ldr	r0, [r1, #0]
 8001ff2:	e9cd 230c 	strd	r2, r3, [sp, #48]	; 0x30
 8001ff6:	f7fe fab7 	bl	8000568 <__aeabi_f2d>
 8001ffa:	e9cd 0102 	strd	r0, r1, [sp, #8]
 8001ffe:	4926      	ldr	r1, [pc, #152]	; (8002098 <parseCommand_Console+0x640>)
 8002000:	6808      	ldr	r0, [r1, #0]
 8002002:	f7fe fab1 	bl	8000568 <__aeabi_f2d>
 8002006:	e9dd 230c 	ldrd	r2, r3, [sp, #48]	; 0x30
 800200a:	e9cd 0100 	strd	r0, r1, [sp]
 800200e:	e045      	b.n	800209c <parseCommand_Console+0x644>
 8002010:	0800e88e 	.word	0x0800e88e
 8002014:	20000b58 	.word	0x20000b58
 8002018:	0800e89a 	.word	0x0800e89a
 800201c:	0800e8ab 	.word	0x0800e8ab
 8002020:	0800e8b7 	.word	0x0800e8b7
 8002024:	20000c4e 	.word	0x20000c4e
 8002028:	0800e8cf 	.word	0x0800e8cf
 800202c:	0800e8e6 	.word	0x0800e8e6
 8002030:	0800e8fd 	.word	0x0800e8fd
 8002034:	0800e912 	.word	0x0800e912
 8002038:	0800e927 	.word	0x0800e927
 800203c:	0800e942 	.word	0x0800e942
 8002040:	0800e95a 	.word	0x0800e95a
 8002044:	0800e974 	.word	0x0800e974
 8002048:	0800e989 	.word	0x0800e989
 800204c:	0800e99d 	.word	0x0800e99d
 8002050:	0800e9af 	.word	0x0800e9af
 8002054:	0800e9c2 	.word	0x0800e9c2
 8002058:	0800e9d6 	.word	0x0800e9d6
 800205c:	0800e9eb 	.word	0x0800e9eb
 8002060:	0800ea03 	.word	0x0800ea03
 8002064:	0800ea0e 	.word	0x0800ea0e
 8002068:	0800ea19 	.word	0x0800ea19
 800206c:	0800ea24 	.word	0x0800ea24
 8002070:	0800ea34 	.word	0x0800ea34
 8002074:	0800ea53 	.word	0x0800ea53
 8002078:	0800ea6d 	.word	0x0800ea6d
 800207c:	0800ea86 	.word	0x0800ea86
 8002080:	0800ea92 	.word	0x0800ea92
 8002084:	0800eaa4 	.word	0x0800eaa4
 8002088:	0800eab8 	.word	0x0800eab8
 800208c:	0800ead2 	.word	0x0800ead2
 8002090:	20000b08 	.word	0x20000b08
 8002094:	200003b4 	.word	0x200003b4
 8002098:	20002028 	.word	0x20002028
 800209c:	498e      	ldr	r1, [pc, #568]	; (80022d8 <parseCommand_Console+0x880>)
 800209e:	488f      	ldr	r0, [pc, #572]	; (80022dc <parseCommand_Console+0x884>)
 80020a0:	f007 fe50 	bl	8009d44 <siprintf>
 80020a4:	488d      	ldr	r0, [pc, #564]	; (80022dc <parseCommand_Console+0x884>)
 80020a6:	f7ff f90b 	bl	80012c0 <Serial_Console>
 80020aa:	498d      	ldr	r1, [pc, #564]	; (80022e0 <parseCommand_Console+0x888>)
 80020ac:	a82a      	add	r0, sp, #168	; 0xa8
 80020ae:	f7fe f88f 	bl	80001d0 <strcmp>
 80020b2:	b908      	cbnz	r0, 80020b8 <parseCommand_Console+0x660>
 80020b4:	f7ff f84c 	bl	8001150 <MotorStop>
 80020b8:	498a      	ldr	r1, [pc, #552]	; (80022e4 <parseCommand_Console+0x88c>)
 80020ba:	a82a      	add	r0, sp, #168	; 0xa8
 80020bc:	f7fe f888 	bl	80001d0 <strcmp>
 80020c0:	b930      	cbnz	r0, 80020d0 <parseCommand_Console+0x678>
 80020c2:	4b89      	ldr	r3, [pc, #548]	; (80022e8 <parseCommand_Console+0x890>)
 80020c4:	f44f 62fa 	mov.w	r2, #2000	; 0x7d0
 80020c8:	6358      	str	r0, [r3, #52]	; 0x34
 80020ca:	639a      	str	r2, [r3, #56]	; 0x38
 80020cc:	63da      	str	r2, [r3, #60]	; 0x3c
 80020ce:	6418      	str	r0, [r3, #64]	; 0x40
 80020d0:	4986      	ldr	r1, [pc, #536]	; (80022ec <parseCommand_Console+0x894>)
 80020d2:	a82a      	add	r0, sp, #168	; 0xa8
 80020d4:	f7fe f87c 	bl	80001d0 <strcmp>
 80020d8:	b930      	cbnz	r0, 80020e8 <parseCommand_Console+0x690>
 80020da:	4b83      	ldr	r3, [pc, #524]	; (80022e8 <parseCommand_Console+0x890>)
 80020dc:	f44f 62fa 	mov.w	r2, #2000	; 0x7d0
 80020e0:	635a      	str	r2, [r3, #52]	; 0x34
 80020e2:	6398      	str	r0, [r3, #56]	; 0x38
 80020e4:	63d8      	str	r0, [r3, #60]	; 0x3c
 80020e6:	641a      	str	r2, [r3, #64]	; 0x40
 80020e8:	4981      	ldr	r1, [pc, #516]	; (80022f0 <parseCommand_Console+0x898>)
 80020ea:	2214      	movs	r2, #20
 80020ec:	a82a      	add	r0, sp, #168	; 0xa8
 80020ee:	f007 fec2 	bl	8009e76 <strncmp>
 80020f2:	b960      	cbnz	r0, 800210e <parseCommand_Console+0x6b6>
 80020f4:	ab22      	add	r3, sp, #136	; 0x88
 80020f6:	9301      	str	r3, [sp, #4]
 80020f8:	ab25      	add	r3, sp, #148	; 0x94
 80020fa:	9300      	str	r3, [sp, #0]
 80020fc:	aa21      	add	r2, sp, #132	; 0x84
 80020fe:	ab23      	add	r3, sp, #140	; 0x8c
 8002100:	497c      	ldr	r1, [pc, #496]	; (80022f4 <parseCommand_Console+0x89c>)
 8002102:	a82a      	add	r0, sp, #168	; 0xa8
 8002104:	f007 fe3e 	bl	8009d84 <siscanf>
 8002108:	4b7b      	ldr	r3, [pc, #492]	; (80022f8 <parseCommand_Console+0x8a0>)
 800210a:	9a22      	ldr	r2, [sp, #136]	; 0x88
 800210c:	63da      	str	r2, [r3, #60]	; 0x3c
 800210e:	497b      	ldr	r1, [pc, #492]	; (80022fc <parseCommand_Console+0x8a4>)
 8002110:	2213      	movs	r2, #19
 8002112:	a82a      	add	r0, sp, #168	; 0xa8
 8002114:	f007 feaf 	bl	8009e76 <strncmp>
 8002118:	b970      	cbnz	r0, 8002138 <parseCommand_Console+0x6e0>
 800211a:	ab22      	add	r3, sp, #136	; 0x88
 800211c:	9302      	str	r3, [sp, #8]
 800211e:	ab25      	add	r3, sp, #148	; 0x94
 8002120:	9301      	str	r3, [sp, #4]
 8002122:	ab21      	add	r3, sp, #132	; 0x84
 8002124:	9300      	str	r3, [sp, #0]
 8002126:	aa20      	add	r2, sp, #128	; 0x80
 8002128:	ab23      	add	r3, sp, #140	; 0x8c
 800212a:	4975      	ldr	r1, [pc, #468]	; (8002300 <parseCommand_Console+0x8a8>)
 800212c:	a82a      	add	r0, sp, #168	; 0xa8
 800212e:	f007 fe29 	bl	8009d84 <siscanf>
 8002132:	4b71      	ldr	r3, [pc, #452]	; (80022f8 <parseCommand_Console+0x8a0>)
 8002134:	9a22      	ldr	r2, [sp, #136]	; 0x88
 8002136:	621a      	str	r2, [r3, #32]
 8002138:	4972      	ldr	r1, [pc, #456]	; (8002304 <parseCommand_Console+0x8ac>)
 800213a:	220c      	movs	r2, #12
 800213c:	a82a      	add	r0, sp, #168	; 0xa8
 800213e:	f007 fe9a 	bl	8009e76 <strncmp>
 8002142:	b960      	cbnz	r0, 800215e <parseCommand_Console+0x706>
 8002144:	ab23      	add	r3, sp, #140	; 0x8c
 8002146:	9301      	str	r3, [sp, #4]
 8002148:	ab25      	add	r3, sp, #148	; 0x94
 800214a:	9300      	str	r3, [sp, #0]
 800214c:	aa21      	add	r2, sp, #132	; 0x84
 800214e:	ab22      	add	r3, sp, #136	; 0x88
 8002150:	496d      	ldr	r1, [pc, #436]	; (8002308 <parseCommand_Console+0x8b0>)
 8002152:	a82a      	add	r0, sp, #168	; 0xa8
 8002154:	f007 fe16 	bl	8009d84 <siscanf>
 8002158:	4b67      	ldr	r3, [pc, #412]	; (80022f8 <parseCommand_Console+0x8a0>)
 800215a:	9a23      	ldr	r2, [sp, #140]	; 0x8c
 800215c:	635a      	str	r2, [r3, #52]	; 0x34
 800215e:	496b      	ldr	r1, [pc, #428]	; (800230c <parseCommand_Console+0x8b4>)
 8002160:	220e      	movs	r2, #14
 8002162:	a82a      	add	r0, sp, #168	; 0xa8
 8002164:	f007 fe87 	bl	8009e76 <strncmp>
 8002168:	b9a8      	cbnz	r0, 8002196 <parseCommand_Console+0x73e>
 800216a:	f003 f87b 	bl	8005264 <HAL_GetTick>
 800216e:	4e62      	ldr	r6, [pc, #392]	; (80022f8 <parseCommand_Console+0x8a0>)
 8002170:	f106 0510 	add.w	r5, r6, #16
 8002174:	63b0      	str	r0, [r6, #56]	; 0x38
 8002176:	cd0f      	ldmia	r5!, {r0, r1, r2, r3}
 8002178:	466c      	mov	r4, sp
 800217a:	c40f      	stmia	r4!, {r0, r1, r2, r3}
 800217c:	cd0f      	ldmia	r5!, {r0, r1, r2, r3}
 800217e:	c40f      	stmia	r4!, {r0, r1, r2, r3}
 8002180:	e895 000f 	ldmia.w	r5, {r0, r1, r2, r3}
 8002184:	e884 000f 	stmia.w	r4, {r0, r1, r2, r3}
 8002188:	e896 000f 	ldmia.w	r6, {r0, r1, r2, r3}
 800218c:	f002 fbcc 	bl	8004928 <write_all_settings>
 8002190:	485f      	ldr	r0, [pc, #380]	; (8002310 <parseCommand_Console+0x8b8>)
 8002192:	f7ff f895 	bl	80012c0 <Serial_Console>
 8002196:	495f      	ldr	r1, [pc, #380]	; (8002314 <parseCommand_Console+0x8bc>)
 8002198:	2214      	movs	r2, #20
 800219a:	a82a      	add	r0, sp, #168	; 0xa8
 800219c:	f007 fe6b 	bl	8009e76 <strncmp>
 80021a0:	b960      	cbnz	r0, 80021bc <parseCommand_Console+0x764>
 80021a2:	ab22      	add	r3, sp, #136	; 0x88
 80021a4:	9301      	str	r3, [sp, #4]
 80021a6:	ab23      	add	r3, sp, #140	; 0x8c
 80021a8:	9300      	str	r3, [sp, #0]
 80021aa:	aa21      	add	r2, sp, #132	; 0x84
 80021ac:	ab25      	add	r3, sp, #148	; 0x94
 80021ae:	495a      	ldr	r1, [pc, #360]	; (8002318 <parseCommand_Console+0x8c0>)
 80021b0:	a82a      	add	r0, sp, #168	; 0xa8
 80021b2:	f007 fde7 	bl	8009d84 <siscanf>
 80021b6:	4b50      	ldr	r3, [pc, #320]	; (80022f8 <parseCommand_Console+0x8a0>)
 80021b8:	9a22      	ldr	r2, [sp, #136]	; 0x88
 80021ba:	709a      	strb	r2, [r3, #2]
 80021bc:	4957      	ldr	r1, [pc, #348]	; (800231c <parseCommand_Console+0x8c4>)
 80021be:	2212      	movs	r2, #18
 80021c0:	a82a      	add	r0, sp, #168	; 0xa8
 80021c2:	f007 fe58 	bl	8009e76 <strncmp>
 80021c6:	b960      	cbnz	r0, 80021e2 <parseCommand_Console+0x78a>
 80021c8:	ab22      	add	r3, sp, #136	; 0x88
 80021ca:	9301      	str	r3, [sp, #4]
 80021cc:	ab23      	add	r3, sp, #140	; 0x8c
 80021ce:	9300      	str	r3, [sp, #0]
 80021d0:	aa21      	add	r2, sp, #132	; 0x84
 80021d2:	ab25      	add	r3, sp, #148	; 0x94
 80021d4:	4950      	ldr	r1, [pc, #320]	; (8002318 <parseCommand_Console+0x8c0>)
 80021d6:	a82a      	add	r0, sp, #168	; 0xa8
 80021d8:	f007 fdd4 	bl	8009d84 <siscanf>
 80021dc:	4b46      	ldr	r3, [pc, #280]	; (80022f8 <parseCommand_Console+0x8a0>)
 80021de:	9a22      	ldr	r2, [sp, #136]	; 0x88
 80021e0:	715a      	strb	r2, [r3, #5]
 80021e2:	494f      	ldr	r1, [pc, #316]	; (8002320 <parseCommand_Console+0x8c8>)
 80021e4:	2211      	movs	r2, #17
 80021e6:	a82a      	add	r0, sp, #168	; 0xa8
 80021e8:	f007 fe45 	bl	8009e76 <strncmp>
 80021ec:	b960      	cbnz	r0, 8002208 <parseCommand_Console+0x7b0>
 80021ee:	ab22      	add	r3, sp, #136	; 0x88
 80021f0:	9301      	str	r3, [sp, #4]
 80021f2:	ab23      	add	r3, sp, #140	; 0x8c
 80021f4:	9300      	str	r3, [sp, #0]
 80021f6:	aa21      	add	r2, sp, #132	; 0x84
 80021f8:	ab25      	add	r3, sp, #148	; 0x94
 80021fa:	4947      	ldr	r1, [pc, #284]	; (8002318 <parseCommand_Console+0x8c0>)
 80021fc:	a82a      	add	r0, sp, #168	; 0xa8
 80021fe:	f007 fdc1 	bl	8009d84 <siscanf>
 8002202:	4b3d      	ldr	r3, [pc, #244]	; (80022f8 <parseCommand_Console+0x8a0>)
 8002204:	9a22      	ldr	r2, [sp, #136]	; 0x88
 8002206:	71da      	strb	r2, [r3, #7]
 8002208:	4946      	ldr	r1, [pc, #280]	; (8002324 <parseCommand_Console+0x8cc>)
 800220a:	220c      	movs	r2, #12
 800220c:	a82a      	add	r0, sp, #168	; 0xa8
 800220e:	f007 fe32 	bl	8009e76 <strncmp>
 8002212:	b960      	cbnz	r0, 800222e <parseCommand_Console+0x7d6>
 8002214:	ab23      	add	r3, sp, #140	; 0x8c
 8002216:	9301      	str	r3, [sp, #4]
 8002218:	ab25      	add	r3, sp, #148	; 0x94
 800221a:	9300      	str	r3, [sp, #0]
 800221c:	aa21      	add	r2, sp, #132	; 0x84
 800221e:	ab22      	add	r3, sp, #136	; 0x88
 8002220:	4941      	ldr	r1, [pc, #260]	; (8002328 <parseCommand_Console+0x8d0>)
 8002222:	a82a      	add	r0, sp, #168	; 0xa8
 8002224:	f007 fdae 	bl	8009d84 <siscanf>
 8002228:	4b33      	ldr	r3, [pc, #204]	; (80022f8 <parseCommand_Console+0x8a0>)
 800222a:	9a23      	ldr	r2, [sp, #140]	; 0x8c
 800222c:	611a      	str	r2, [r3, #16]
 800222e:	493f      	ldr	r1, [pc, #252]	; (800232c <parseCommand_Console+0x8d4>)
 8002230:	220b      	movs	r2, #11
 8002232:	a82a      	add	r0, sp, #168	; 0xa8
 8002234:	f007 fe1f 	bl	8009e76 <strncmp>
 8002238:	b960      	cbnz	r0, 8002254 <parseCommand_Console+0x7fc>
 800223a:	ab25      	add	r3, sp, #148	; 0x94
 800223c:	9301      	str	r3, [sp, #4]
 800223e:	ab23      	add	r3, sp, #140	; 0x8c
 8002240:	9300      	str	r3, [sp, #0]
 8002242:	aa21      	add	r2, sp, #132	; 0x84
 8002244:	ab22      	add	r3, sp, #136	; 0x88
 8002246:	4938      	ldr	r1, [pc, #224]	; (8002328 <parseCommand_Console+0x8d0>)
 8002248:	a82a      	add	r0, sp, #168	; 0xa8
 800224a:	f007 fd9b 	bl	8009d84 <siscanf>
 800224e:	4b2a      	ldr	r3, [pc, #168]	; (80022f8 <parseCommand_Console+0x8a0>)
 8002250:	9a25      	ldr	r2, [sp, #148]	; 0x94
 8002252:	60da      	str	r2, [r3, #12]
 8002254:	4936      	ldr	r1, [pc, #216]	; (8002330 <parseCommand_Console+0x8d8>)
 8002256:	220b      	movs	r2, #11
 8002258:	a82a      	add	r0, sp, #168	; 0xa8
 800225a:	f007 fe0c 	bl	8009e76 <strncmp>
 800225e:	b960      	cbnz	r0, 800227a <parseCommand_Console+0x822>
 8002260:	ab25      	add	r3, sp, #148	; 0x94
 8002262:	9301      	str	r3, [sp, #4]
 8002264:	ab23      	add	r3, sp, #140	; 0x8c
 8002266:	9300      	str	r3, [sp, #0]
 8002268:	aa21      	add	r2, sp, #132	; 0x84
 800226a:	ab22      	add	r3, sp, #136	; 0x88
 800226c:	492e      	ldr	r1, [pc, #184]	; (8002328 <parseCommand_Console+0x8d0>)
 800226e:	a82a      	add	r0, sp, #168	; 0xa8
 8002270:	f007 fd88 	bl	8009d84 <siscanf>
 8002274:	4b20      	ldr	r3, [pc, #128]	; (80022f8 <parseCommand_Console+0x8a0>)
 8002276:	9a25      	ldr	r2, [sp, #148]	; 0x94
 8002278:	619a      	str	r2, [r3, #24]
 800227a:	492e      	ldr	r1, [pc, #184]	; (8002334 <parseCommand_Console+0x8dc>)
 800227c:	220a      	movs	r2, #10
 800227e:	a82a      	add	r0, sp, #168	; 0xa8
 8002280:	f007 fdf9 	bl	8009e76 <strncmp>
 8002284:	b960      	cbnz	r0, 80022a0 <parseCommand_Console+0x848>
 8002286:	ab25      	add	r3, sp, #148	; 0x94
 8002288:	9301      	str	r3, [sp, #4]
 800228a:	ab21      	add	r3, sp, #132	; 0x84
 800228c:	9300      	str	r3, [sp, #0]
 800228e:	aa22      	add	r2, sp, #136	; 0x88
 8002290:	ab23      	add	r3, sp, #140	; 0x8c
 8002292:	4925      	ldr	r1, [pc, #148]	; (8002328 <parseCommand_Console+0x8d0>)
 8002294:	a82a      	add	r0, sp, #168	; 0xa8
 8002296:	f007 fd75 	bl	8009d84 <siscanf>
 800229a:	4b17      	ldr	r3, [pc, #92]	; (80022f8 <parseCommand_Console+0x8a0>)
 800229c:	9a25      	ldr	r2, [sp, #148]	; 0x94
 800229e:	615a      	str	r2, [r3, #20]
 80022a0:	4925      	ldr	r1, [pc, #148]	; (8002338 <parseCommand_Console+0x8e0>)
 80022a2:	2214      	movs	r2, #20
 80022a4:	a82a      	add	r0, sp, #168	; 0xa8
 80022a6:	f007 fde6 	bl	8009e76 <strncmp>
 80022aa:	b960      	cbnz	r0, 80022c6 <parseCommand_Console+0x86e>
 80022ac:	ab22      	add	r3, sp, #136	; 0x88
 80022ae:	9301      	str	r3, [sp, #4]
 80022b0:	ab25      	add	r3, sp, #148	; 0x94
 80022b2:	9300      	str	r3, [sp, #0]
 80022b4:	aa21      	add	r2, sp, #132	; 0x84
 80022b6:	ab23      	add	r3, sp, #140	; 0x8c
 80022b8:	4920      	ldr	r1, [pc, #128]	; (800233c <parseCommand_Console+0x8e4>)
 80022ba:	a82a      	add	r0, sp, #168	; 0xa8
 80022bc:	f007 fd62 	bl	8009d84 <siscanf>
 80022c0:	4b0d      	ldr	r3, [pc, #52]	; (80022f8 <parseCommand_Console+0x8a0>)
 80022c2:	9a22      	ldr	r2, [sp, #136]	; 0x88
 80022c4:	811a      	strh	r2, [r3, #8]
 80022c6:	491e      	ldr	r1, [pc, #120]	; (8002340 <parseCommand_Console+0x8e8>)
 80022c8:	2210      	movs	r2, #16
 80022ca:	a82a      	add	r0, sp, #168	; 0xa8
 80022cc:	f007 fdd3 	bl	8009e76 <strncmp>
 80022d0:	2800      	cmp	r0, #0
 80022d2:	d144      	bne.n	800235e <parseCommand_Console+0x906>
 80022d4:	e036      	b.n	8002344 <parseCommand_Console+0x8ec>
 80022d6:	bf00      	nop
 80022d8:	0800eadf 	.word	0x0800eadf
 80022dc:	20000c4e 	.word	0x20000c4e
 80022e0:	0800eafe 	.word	0x0800eafe
 80022e4:	0800eb0a 	.word	0x0800eb0a
 80022e8:	40000800 	.word	0x40000800
 80022ec:	0800eb1d 	.word	0x0800eb1d
 80022f0:	0800eb30 	.word	0x0800eb30
 80022f4:	0800eb5c 	.word	0x0800eb5c
 80022f8:	20000b58 	.word	0x20000b58
 80022fc:	0800eb45 	.word	0x0800eb45
 8002300:	0800eb59 	.word	0x0800eb59
 8002304:	0800eb78 	.word	0x0800eb78
 8002308:	0800eb68 	.word	0x0800eb68
 800230c:	0800eb76 	.word	0x0800eb76
 8002310:	0800eb85 	.word	0x0800eb85
 8002314:	0800eb97 	.word	0x0800eb97
 8002318:	0800ebac 	.word	0x0800ebac
 800231c:	0800ebb9 	.word	0x0800ebb9
 8002320:	0800ebcc 	.word	0x0800ebcc
 8002324:	0800ebde 	.word	0x0800ebde
 8002328:	0800ebeb 	.word	0x0800ebeb
 800232c:	0800ebf8 	.word	0x0800ebf8
 8002330:	0800ec04 	.word	0x0800ec04
 8002334:	0800ec10 	.word	0x0800ec10
 8002338:	0800ec1b 	.word	0x0800ec1b
 800233c:	0800ec30 	.word	0x0800ec30
 8002340:	0800ec3c 	.word	0x0800ec3c
 8002344:	ab22      	add	r3, sp, #136	; 0x88
 8002346:	9301      	str	r3, [sp, #4]
 8002348:	ab23      	add	r3, sp, #140	; 0x8c
 800234a:	9300      	str	r3, [sp, #0]
 800234c:	aa21      	add	r2, sp, #132	; 0x84
 800234e:	ab25      	add	r3, sp, #148	; 0x94
 8002350:	49a5      	ldr	r1, [pc, #660]	; (80025e8 <parseCommand_Console+0xb90>)
 8002352:	a82a      	add	r0, sp, #168	; 0xa8
 8002354:	f007 fd16 	bl	8009d84 <siscanf>
 8002358:	4ba4      	ldr	r3, [pc, #656]	; (80025ec <parseCommand_Console+0xb94>)
 800235a:	9a22      	ldr	r2, [sp, #136]	; 0x88
 800235c:	625a      	str	r2, [r3, #36]	; 0x24
 800235e:	49a4      	ldr	r1, [pc, #656]	; (80025f0 <parseCommand_Console+0xb98>)
 8002360:	a82a      	add	r0, sp, #168	; 0xa8
 8002362:	f7fd ff35 	bl	80001d0 <strcmp>
 8002366:	b960      	cbnz	r0, 8002382 <parseCommand_Console+0x92a>
 8002368:	ab22      	add	r3, sp, #136	; 0x88
 800236a:	9301      	str	r3, [sp, #4]
 800236c:	ab25      	add	r3, sp, #148	; 0x94
 800236e:	9300      	str	r3, [sp, #0]
 8002370:	aa21      	add	r2, sp, #132	; 0x84
 8002372:	ab23      	add	r3, sp, #140	; 0x8c
 8002374:	499c      	ldr	r1, [pc, #624]	; (80025e8 <parseCommand_Console+0xb90>)
 8002376:	a82a      	add	r0, sp, #168	; 0xa8
 8002378:	f007 fd04 	bl	8009d84 <siscanf>
 800237c:	4b9b      	ldr	r3, [pc, #620]	; (80025ec <parseCommand_Console+0xb94>)
 800237e:	9a22      	ldr	r2, [sp, #136]	; 0x88
 8002380:	61da      	str	r2, [r3, #28]
 8002382:	499c      	ldr	r1, [pc, #624]	; (80025f4 <parseCommand_Console+0xb9c>)
 8002384:	2208      	movs	r2, #8
 8002386:	a82a      	add	r0, sp, #168	; 0xa8
 8002388:	f007 fd75 	bl	8009e76 <strncmp>
 800238c:	4604      	mov	r4, r0
 800238e:	2800      	cmp	r0, #0
 8002390:	d132      	bne.n	80023f8 <parseCommand_Console+0x9a0>
 8002392:	ab22      	add	r3, sp, #136	; 0x88
 8002394:	9303      	str	r3, [sp, #12]
 8002396:	ab21      	add	r3, sp, #132	; 0x84
 8002398:	9302      	str	r3, [sp, #8]
 800239a:	ab20      	add	r3, sp, #128	; 0x80
 800239c:	9301      	str	r3, [sp, #4]
 800239e:	ab1f      	add	r3, sp, #124	; 0x7c
 80023a0:	4995      	ldr	r1, [pc, #596]	; (80025f8 <parseCommand_Console+0xba0>)
 80023a2:	9300      	str	r3, [sp, #0]
 80023a4:	aa1e      	add	r2, sp, #120	; 0x78
 80023a6:	ab23      	add	r3, sp, #140	; 0x8c
 80023a8:	e9cd 001f 	strd	r0, r0, [sp, #124]	; 0x7c
 80023ac:	e9cd 0021 	strd	r0, r0, [sp, #132]	; 0x84
 80023b0:	a82a      	add	r0, sp, #168	; 0xa8
 80023b2:	f007 fce7 	bl	8009d84 <siscanf>
 80023b6:	f89d 0088 	ldrb.w	r0, [sp, #136]	; 0x88
 80023ba:	f89d 507c 	ldrb.w	r5, [sp, #124]	; 0x7c
 80023be:	f89d 7080 	ldrb.w	r7, [sp, #128]	; 0x80
 80023c2:	f89d 6084 	ldrb.w	r6, [sp, #132]	; 0x84
 80023c6:	9425      	str	r4, [sp, #148]	; 0x94
 80023c8:	f005 f98f 	bl	80076ea <RTC_ByteToBcd2>
 80023cc:	f88d 0094 	strb.w	r0, [sp, #148]	; 0x94
 80023d0:	4638      	mov	r0, r7
 80023d2:	f005 f98a 	bl	80076ea <RTC_ByteToBcd2>
 80023d6:	f88d 0095 	strb.w	r0, [sp, #149]	; 0x95
 80023da:	4630      	mov	r0, r6
 80023dc:	f005 f985 	bl	80076ea <RTC_ByteToBcd2>
 80023e0:	f88d 0096 	strb.w	r0, [sp, #150]	; 0x96
 80023e4:	4628      	mov	r0, r5
 80023e6:	f005 f980 	bl	80076ea <RTC_ByteToBcd2>
 80023ea:	2201      	movs	r2, #1
 80023ec:	f88d 0097 	strb.w	r0, [sp, #151]	; 0x97
 80023f0:	a925      	add	r1, sp, #148	; 0x94
 80023f2:	4882      	ldr	r0, [pc, #520]	; (80025fc <parseCommand_Console+0xba4>)
 80023f4:	f005 f9fb 	bl	80077ee <HAL_RTC_SetDate>
 80023f8:	4981      	ldr	r1, [pc, #516]	; (8002600 <parseCommand_Console+0xba8>)
 80023fa:	2208      	movs	r2, #8
 80023fc:	a82a      	add	r0, sp, #168	; 0xa8
 80023fe:	f007 fd3a 	bl	8009e76 <strncmp>
 8002402:	4604      	mov	r4, r0
 8002404:	2800      	cmp	r0, #0
 8002406:	d131      	bne.n	800246c <parseCommand_Console+0xa14>
 8002408:	ab22      	add	r3, sp, #136	; 0x88
 800240a:	9302      	str	r3, [sp, #8]
 800240c:	ab21      	add	r3, sp, #132	; 0x84
 800240e:	9301      	str	r3, [sp, #4]
 8002410:	ab20      	add	r3, sp, #128	; 0x80
 8002412:	e9cd 0020 	strd	r0, r0, [sp, #128]	; 0x80
 8002416:	497b      	ldr	r1, [pc, #492]	; (8002604 <parseCommand_Console+0xbac>)
 8002418:	9022      	str	r0, [sp, #136]	; 0x88
 800241a:	9300      	str	r3, [sp, #0]
 800241c:	aa1f      	add	r2, sp, #124	; 0x7c
 800241e:	ab23      	add	r3, sp, #140	; 0x8c
 8002420:	a82a      	add	r0, sp, #168	; 0xa8
 8002422:	f007 fcaf 	bl	8009d84 <siscanf>
 8002426:	f89d 7080 	ldrb.w	r7, [sp, #128]	; 0x80
 800242a:	f89d 6084 	ldrb.w	r6, [sp, #132]	; 0x84
 800242e:	f89d 5088 	ldrb.w	r5, [sp, #136]	; 0x88
 8002432:	2214      	movs	r2, #20
 8002434:	4621      	mov	r1, r4
 8002436:	a825      	add	r0, sp, #148	; 0x94
 8002438:	f006 fdfc 	bl	8009034 <memset>
 800243c:	4638      	mov	r0, r7
 800243e:	f005 f954 	bl	80076ea <RTC_ByteToBcd2>
 8002442:	f88d 0094 	strb.w	r0, [sp, #148]	; 0x94
 8002446:	4630      	mov	r0, r6
 8002448:	f005 f94f 	bl	80076ea <RTC_ByteToBcd2>
 800244c:	f88d 0095 	strb.w	r0, [sp, #149]	; 0x95
 8002450:	4628      	mov	r0, r5
 8002452:	f005 f94a 	bl	80076ea <RTC_ByteToBcd2>
 8002456:	f44f 2380 	mov.w	r3, #262144	; 0x40000
 800245a:	f88d 0096 	strb.w	r0, [sp, #150]	; 0x96
 800245e:	2201      	movs	r2, #1
 8002460:	4866      	ldr	r0, [pc, #408]	; (80025fc <parseCommand_Console+0xba4>)
 8002462:	9428      	str	r4, [sp, #160]	; 0xa0
 8002464:	a925      	add	r1, sp, #148	; 0x94
 8002466:	9329      	str	r3, [sp, #164]	; 0xa4
 8002468:	f005 f94a 	bl	8007700 <HAL_RTC_SetTime>
 800246c:	4966      	ldr	r1, [pc, #408]	; (8002608 <parseCommand_Console+0xbb0>)
 800246e:	2206      	movs	r2, #6
 8002470:	a82a      	add	r0, sp, #168	; 0xa8
 8002472:	f007 fd00 	bl	8009e76 <strncmp>
 8002476:	b950      	cbnz	r0, 800248e <parseCommand_Console+0xa36>
 8002478:	ab25      	add	r3, sp, #148	; 0x94
 800247a:	9300      	str	r3, [sp, #0]
 800247c:	aa23      	add	r2, sp, #140	; 0x8c
 800247e:	ab22      	add	r3, sp, #136	; 0x88
 8002480:	4962      	ldr	r1, [pc, #392]	; (800260c <parseCommand_Console+0xbb4>)
 8002482:	a82a      	add	r0, sp, #168	; 0xa8
 8002484:	f007 fc7e 	bl	8009d84 <siscanf>
 8002488:	4b58      	ldr	r3, [pc, #352]	; (80025ec <parseCommand_Console+0xb94>)
 800248a:	9a25      	ldr	r2, [sp, #148]	; 0x94
 800248c:	629a      	str	r2, [r3, #40]	; 0x28
 800248e:	4960      	ldr	r1, [pc, #384]	; (8002610 <parseCommand_Console+0xbb8>)
 8002490:	2206      	movs	r2, #6
 8002492:	a82a      	add	r0, sp, #168	; 0xa8
 8002494:	f007 fcef 	bl	8009e76 <strncmp>
 8002498:	b950      	cbnz	r0, 80024b0 <parseCommand_Console+0xa58>
 800249a:	ab25      	add	r3, sp, #148	; 0x94
 800249c:	9300      	str	r3, [sp, #0]
 800249e:	aa23      	add	r2, sp, #140	; 0x8c
 80024a0:	ab22      	add	r3, sp, #136	; 0x88
 80024a2:	495a      	ldr	r1, [pc, #360]	; (800260c <parseCommand_Console+0xbb4>)
 80024a4:	a82a      	add	r0, sp, #168	; 0xa8
 80024a6:	f007 fc6d 	bl	8009d84 <siscanf>
 80024aa:	4b50      	ldr	r3, [pc, #320]	; (80025ec <parseCommand_Console+0xb94>)
 80024ac:	9a25      	ldr	r2, [sp, #148]	; 0x94
 80024ae:	62da      	str	r2, [r3, #44]	; 0x2c
 80024b0:	4958      	ldr	r1, [pc, #352]	; (8002614 <parseCommand_Console+0xbbc>)
 80024b2:	2206      	movs	r2, #6
 80024b4:	a82a      	add	r0, sp, #168	; 0xa8
 80024b6:	f007 fcde 	bl	8009e76 <strncmp>
 80024ba:	b950      	cbnz	r0, 80024d2 <parseCommand_Console+0xa7a>
 80024bc:	ab25      	add	r3, sp, #148	; 0x94
 80024be:	9300      	str	r3, [sp, #0]
 80024c0:	aa23      	add	r2, sp, #140	; 0x8c
 80024c2:	ab22      	add	r3, sp, #136	; 0x88
 80024c4:	4951      	ldr	r1, [pc, #324]	; (800260c <parseCommand_Console+0xbb4>)
 80024c6:	a82a      	add	r0, sp, #168	; 0xa8
 80024c8:	f007 fc5c 	bl	8009d84 <siscanf>
 80024cc:	4b47      	ldr	r3, [pc, #284]	; (80025ec <parseCommand_Console+0xb94>)
 80024ce:	9a25      	ldr	r2, [sp, #148]	; 0x94
 80024d0:	631a      	str	r2, [r3, #48]	; 0x30
 80024d2:	4951      	ldr	r1, [pc, #324]	; (8002618 <parseCommand_Console+0xbc0>)
 80024d4:	220d      	movs	r2, #13
 80024d6:	a82a      	add	r0, sp, #168	; 0xa8
 80024d8:	f007 fccd 	bl	8009e76 <strncmp>
 80024dc:	b960      	cbnz	r0, 80024f8 <parseCommand_Console+0xaa0>
 80024de:	ab23      	add	r3, sp, #140	; 0x8c
 80024e0:	9301      	str	r3, [sp, #4]
 80024e2:	ab25      	add	r3, sp, #148	; 0x94
 80024e4:	9300      	str	r3, [sp, #0]
 80024e6:	aa21      	add	r2, sp, #132	; 0x84
 80024e8:	ab22      	add	r3, sp, #136	; 0x88
 80024ea:	494c      	ldr	r1, [pc, #304]	; (800261c <parseCommand_Console+0xbc4>)
 80024ec:	a82a      	add	r0, sp, #168	; 0xa8
 80024ee:	f007 fc49 	bl	8009d84 <siscanf>
 80024f2:	4b3e      	ldr	r3, [pc, #248]	; (80025ec <parseCommand_Console+0xb94>)
 80024f4:	9a23      	ldr	r2, [sp, #140]	; 0x8c
 80024f6:	815a      	strh	r2, [r3, #10]
 80024f8:	4949      	ldr	r1, [pc, #292]	; (8002620 <parseCommand_Console+0xbc8>)
 80024fa:	a82a      	add	r0, sp, #168	; 0xa8
 80024fc:	f7fd fe68 	bl	80001d0 <strcmp>
 8002500:	b938      	cbnz	r0, 8002512 <parseCommand_Console+0xaba>
 8002502:	4b48      	ldr	r3, [pc, #288]	; (8002624 <parseCommand_Console+0xbcc>)
 8002504:	7018      	strb	r0, [r3, #0]
 8002506:	4848      	ldr	r0, [pc, #288]	; (8002628 <parseCommand_Console+0xbd0>)
 8002508:	f7fe feda 	bl	80012c0 <Serial_Console>
 800250c:	4847      	ldr	r0, [pc, #284]	; (800262c <parseCommand_Console+0xbd4>)
 800250e:	f7fe fed7 	bl	80012c0 <Serial_Console>
 8002512:	4947      	ldr	r1, [pc, #284]	; (8002630 <parseCommand_Console+0xbd8>)
 8002514:	a82a      	add	r0, sp, #168	; 0xa8
 8002516:	f7fd fe5b 	bl	80001d0 <strcmp>
 800251a:	4604      	mov	r4, r0
 800251c:	b938      	cbnz	r0, 800252e <parseCommand_Console+0xad6>
 800251e:	4b41      	ldr	r3, [pc, #260]	; (8002624 <parseCommand_Console+0xbcc>)
 8002520:	4844      	ldr	r0, [pc, #272]	; (8002634 <parseCommand_Console+0xbdc>)
 8002522:	2201      	movs	r2, #1
 8002524:	701a      	strb	r2, [r3, #0]
 8002526:	f7fe fecb 	bl	80012c0 <Serial_Console>
 800252a:	4b43      	ldr	r3, [pc, #268]	; (8002638 <parseCommand_Console+0xbe0>)
 800252c:	701c      	strb	r4, [r3, #0]
 800252e:	4943      	ldr	r1, [pc, #268]	; (800263c <parseCommand_Console+0xbe4>)
 8002530:	a82a      	add	r0, sp, #168	; 0xa8
 8002532:	f7fd fe4d 	bl	80001d0 <strcmp>
 8002536:	b938      	cbnz	r0, 8002548 <parseCommand_Console+0xaf0>
 8002538:	4b41      	ldr	r3, [pc, #260]	; (8002640 <parseCommand_Console+0xbe8>)
 800253a:	2201      	movs	r2, #1
 800253c:	701a      	strb	r2, [r3, #0]
 800253e:	f7fe fde7 	bl	8001110 <cutterOFF>
 8002542:	4840      	ldr	r0, [pc, #256]	; (8002644 <parseCommand_Console+0xbec>)
 8002544:	f7fe febc 	bl	80012c0 <Serial_Console>
 8002548:	493f      	ldr	r1, [pc, #252]	; (8002648 <parseCommand_Console+0xbf0>)
 800254a:	a82a      	add	r0, sp, #168	; 0xa8
 800254c:	f7fd fe40 	bl	80001d0 <strcmp>
 8002550:	2800      	cmp	r0, #0
 8002552:	f040 819f 	bne.w	8002894 <parseCommand_Console+0xe3c>
 8002556:	493d      	ldr	r1, [pc, #244]	; (800264c <parseCommand_Console+0xbf4>)
 8002558:	483d      	ldr	r0, [pc, #244]	; (8002650 <parseCommand_Console+0xbf8>)
 800255a:	f007 fc84 	bl	8009e66 <strcpy>
 800255e:	483c      	ldr	r0, [pc, #240]	; (8002650 <parseCommand_Console+0xbf8>)
 8002560:	f7fe feae 	bl	80012c0 <Serial_Console>
 8002564:	493b      	ldr	r1, [pc, #236]	; (8002654 <parseCommand_Console+0xbfc>)
 8002566:	483a      	ldr	r0, [pc, #232]	; (8002650 <parseCommand_Console+0xbf8>)
 8002568:	f007 fc7d 	bl	8009e66 <strcpy>
 800256c:	4838      	ldr	r0, [pc, #224]	; (8002650 <parseCommand_Console+0xbf8>)
 800256e:	f7fe fea7 	bl	80012c0 <Serial_Console>
 8002572:	4939      	ldr	r1, [pc, #228]	; (8002658 <parseCommand_Console+0xc00>)
 8002574:	4836      	ldr	r0, [pc, #216]	; (8002650 <parseCommand_Console+0xbf8>)
 8002576:	f007 fc76 	bl	8009e66 <strcpy>
 800257a:	4835      	ldr	r0, [pc, #212]	; (8002650 <parseCommand_Console+0xbf8>)
 800257c:	f7fe fea0 	bl	80012c0 <Serial_Console>
 8002580:	4936      	ldr	r1, [pc, #216]	; (800265c <parseCommand_Console+0xc04>)
 8002582:	4833      	ldr	r0, [pc, #204]	; (8002650 <parseCommand_Console+0xbf8>)
 8002584:	f007 fc6f 	bl	8009e66 <strcpy>
 8002588:	4831      	ldr	r0, [pc, #196]	; (8002650 <parseCommand_Console+0xbf8>)
 800258a:	f7fe fe99 	bl	80012c0 <Serial_Console>
 800258e:	4934      	ldr	r1, [pc, #208]	; (8002660 <parseCommand_Console+0xc08>)
 8002590:	482f      	ldr	r0, [pc, #188]	; (8002650 <parseCommand_Console+0xbf8>)
 8002592:	f007 fc68 	bl	8009e66 <strcpy>
 8002596:	482e      	ldr	r0, [pc, #184]	; (8002650 <parseCommand_Console+0xbf8>)
 8002598:	f7fe fe92 	bl	80012c0 <Serial_Console>
 800259c:	4931      	ldr	r1, [pc, #196]	; (8002664 <parseCommand_Console+0xc0c>)
 800259e:	482c      	ldr	r0, [pc, #176]	; (8002650 <parseCommand_Console+0xbf8>)
 80025a0:	f007 fc61 	bl	8009e66 <strcpy>
 80025a4:	482a      	ldr	r0, [pc, #168]	; (8002650 <parseCommand_Console+0xbf8>)
 80025a6:	f7fe fe8b 	bl	80012c0 <Serial_Console>
 80025aa:	492f      	ldr	r1, [pc, #188]	; (8002668 <parseCommand_Console+0xc10>)
 80025ac:	4828      	ldr	r0, [pc, #160]	; (8002650 <parseCommand_Console+0xbf8>)
 80025ae:	f007 fc5a 	bl	8009e66 <strcpy>
 80025b2:	4827      	ldr	r0, [pc, #156]	; (8002650 <parseCommand_Console+0xbf8>)
 80025b4:	f7fe fe84 	bl	80012c0 <Serial_Console>
 80025b8:	492c      	ldr	r1, [pc, #176]	; (800266c <parseCommand_Console+0xc14>)
 80025ba:	4825      	ldr	r0, [pc, #148]	; (8002650 <parseCommand_Console+0xbf8>)
 80025bc:	f007 fc53 	bl	8009e66 <strcpy>
 80025c0:	4823      	ldr	r0, [pc, #140]	; (8002650 <parseCommand_Console+0xbf8>)
 80025c2:	f7fe fe7d 	bl	80012c0 <Serial_Console>
 80025c6:	492a      	ldr	r1, [pc, #168]	; (8002670 <parseCommand_Console+0xc18>)
 80025c8:	4821      	ldr	r0, [pc, #132]	; (8002650 <parseCommand_Console+0xbf8>)
 80025ca:	f007 fc4c 	bl	8009e66 <strcpy>
 80025ce:	4820      	ldr	r0, [pc, #128]	; (8002650 <parseCommand_Console+0xbf8>)
 80025d0:	f7fe fe76 	bl	80012c0 <Serial_Console>
 80025d4:	4927      	ldr	r1, [pc, #156]	; (8002674 <parseCommand_Console+0xc1c>)
 80025d6:	481e      	ldr	r0, [pc, #120]	; (8002650 <parseCommand_Console+0xbf8>)
 80025d8:	f007 fc45 	bl	8009e66 <strcpy>
 80025dc:	481c      	ldr	r0, [pc, #112]	; (8002650 <parseCommand_Console+0xbf8>)
 80025de:	f7fe fe6f 	bl	80012c0 <Serial_Console>
 80025e2:	4925      	ldr	r1, [pc, #148]	; (8002678 <parseCommand_Console+0xc20>)
 80025e4:	e04a      	b.n	800267c <parseCommand_Console+0xc24>
 80025e6:	bf00      	nop
 80025e8:	0800ebeb 	.word	0x0800ebeb
 80025ec:	20000b58 	.word	0x20000b58
 80025f0:	0800ec4d 	.word	0x0800ec4d
 80025f4:	0800ec5d 	.word	0x0800ec5d
 80025f8:	0800ec66 	.word	0x0800ec66
 80025fc:	20001b24 	.word	0x20001b24
 8002600:	0800ec78 	.word	0x0800ec78
 8002604:	0800ec81 	.word	0x0800ec81
 8002608:	0800ec90 	.word	0x0800ec90
 800260c:	0800eb5f 	.word	0x0800eb5f
 8002610:	0800ec97 	.word	0x0800ec97
 8002614:	0800ec9e 	.word	0x0800ec9e
 8002618:	0800eca5 	.word	0x0800eca5
 800261c:	0800ec30 	.word	0x0800ec30
 8002620:	0800e701 	.word	0x0800e701
 8002624:	20000001 	.word	0x20000001
 8002628:	0800ecb3 	.word	0x0800ecb3
 800262c:	0800ecca 	.word	0x0800ecca
 8002630:	0800ecf9 	.word	0x0800ecf9
 8002634:	0800ed00 	.word	0x0800ed00
 8002638:	200003cc 	.word	0x200003cc
 800263c:	0800ed32 	.word	0x0800ed32
 8002640:	200008e9 	.word	0x200008e9
 8002644:	0800ed42 	.word	0x0800ed42
 8002648:	0800ed5f 	.word	0x0800ed5f
 800264c:	0800ed64 	.word	0x0800ed64
 8002650:	20000c4e 	.word	0x20000c4e
 8002654:	0800ed7c 	.word	0x0800ed7c
 8002658:	0800eda3 	.word	0x0800eda3
 800265c:	0800edd1 	.word	0x0800edd1
 8002660:	0800ee00 	.word	0x0800ee00
 8002664:	0800ee2e 	.word	0x0800ee2e
 8002668:	0800ee5b 	.word	0x0800ee5b
 800266c:	0800ee88 	.word	0x0800ee88
 8002670:	0800eeb6 	.word	0x0800eeb6
 8002674:	0800eee2 	.word	0x0800eee2
 8002678:	0800ef0a 	.word	0x0800ef0a
 800267c:	488c      	ldr	r0, [pc, #560]	; (80028b0 <parseCommand_Console+0xe58>)
 800267e:	f007 fbf2 	bl	8009e66 <strcpy>
 8002682:	488b      	ldr	r0, [pc, #556]	; (80028b0 <parseCommand_Console+0xe58>)
 8002684:	f7fe fe1c 	bl	80012c0 <Serial_Console>
 8002688:	498a      	ldr	r1, [pc, #552]	; (80028b4 <parseCommand_Console+0xe5c>)
 800268a:	4889      	ldr	r0, [pc, #548]	; (80028b0 <parseCommand_Console+0xe58>)
 800268c:	f007 fbeb 	bl	8009e66 <strcpy>
 8002690:	4887      	ldr	r0, [pc, #540]	; (80028b0 <parseCommand_Console+0xe58>)
 8002692:	f7fe fe15 	bl	80012c0 <Serial_Console>
 8002696:	4988      	ldr	r1, [pc, #544]	; (80028b8 <parseCommand_Console+0xe60>)
 8002698:	4885      	ldr	r0, [pc, #532]	; (80028b0 <parseCommand_Console+0xe58>)
 800269a:	f007 fbe4 	bl	8009e66 <strcpy>
 800269e:	4884      	ldr	r0, [pc, #528]	; (80028b0 <parseCommand_Console+0xe58>)
 80026a0:	f7fe fe0e 	bl	80012c0 <Serial_Console>
 80026a4:	4985      	ldr	r1, [pc, #532]	; (80028bc <parseCommand_Console+0xe64>)
 80026a6:	4882      	ldr	r0, [pc, #520]	; (80028b0 <parseCommand_Console+0xe58>)
 80026a8:	f007 fbdd 	bl	8009e66 <strcpy>
 80026ac:	4880      	ldr	r0, [pc, #512]	; (80028b0 <parseCommand_Console+0xe58>)
 80026ae:	f7fe fe07 	bl	80012c0 <Serial_Console>
 80026b2:	4983      	ldr	r1, [pc, #524]	; (80028c0 <parseCommand_Console+0xe68>)
 80026b4:	487e      	ldr	r0, [pc, #504]	; (80028b0 <parseCommand_Console+0xe58>)
 80026b6:	f007 fbd6 	bl	8009e66 <strcpy>
 80026ba:	487d      	ldr	r0, [pc, #500]	; (80028b0 <parseCommand_Console+0xe58>)
 80026bc:	f7fe fe00 	bl	80012c0 <Serial_Console>
 80026c0:	4980      	ldr	r1, [pc, #512]	; (80028c4 <parseCommand_Console+0xe6c>)
 80026c2:	487b      	ldr	r0, [pc, #492]	; (80028b0 <parseCommand_Console+0xe58>)
 80026c4:	f007 fbcf 	bl	8009e66 <strcpy>
 80026c8:	4879      	ldr	r0, [pc, #484]	; (80028b0 <parseCommand_Console+0xe58>)
 80026ca:	f7fe fdf9 	bl	80012c0 <Serial_Console>
 80026ce:	497e      	ldr	r1, [pc, #504]	; (80028c8 <parseCommand_Console+0xe70>)
 80026d0:	4877      	ldr	r0, [pc, #476]	; (80028b0 <parseCommand_Console+0xe58>)
 80026d2:	f007 fbc8 	bl	8009e66 <strcpy>
 80026d6:	4876      	ldr	r0, [pc, #472]	; (80028b0 <parseCommand_Console+0xe58>)
 80026d8:	f7fe fdf2 	bl	80012c0 <Serial_Console>
 80026dc:	497b      	ldr	r1, [pc, #492]	; (80028cc <parseCommand_Console+0xe74>)
 80026de:	4874      	ldr	r0, [pc, #464]	; (80028b0 <parseCommand_Console+0xe58>)
 80026e0:	f007 fbc1 	bl	8009e66 <strcpy>
 80026e4:	4872      	ldr	r0, [pc, #456]	; (80028b0 <parseCommand_Console+0xe58>)
 80026e6:	f7fe fdeb 	bl	80012c0 <Serial_Console>
 80026ea:	4979      	ldr	r1, [pc, #484]	; (80028d0 <parseCommand_Console+0xe78>)
 80026ec:	4870      	ldr	r0, [pc, #448]	; (80028b0 <parseCommand_Console+0xe58>)
 80026ee:	f007 fbba 	bl	8009e66 <strcpy>
 80026f2:	486f      	ldr	r0, [pc, #444]	; (80028b0 <parseCommand_Console+0xe58>)
 80026f4:	f7fe fde4 	bl	80012c0 <Serial_Console>
 80026f8:	4976      	ldr	r1, [pc, #472]	; (80028d4 <parseCommand_Console+0xe7c>)
 80026fa:	486d      	ldr	r0, [pc, #436]	; (80028b0 <parseCommand_Console+0xe58>)
 80026fc:	f007 fbb3 	bl	8009e66 <strcpy>
 8002700:	486b      	ldr	r0, [pc, #428]	; (80028b0 <parseCommand_Console+0xe58>)
 8002702:	f7fe fddd 	bl	80012c0 <Serial_Console>
 8002706:	4974      	ldr	r1, [pc, #464]	; (80028d8 <parseCommand_Console+0xe80>)
 8002708:	4869      	ldr	r0, [pc, #420]	; (80028b0 <parseCommand_Console+0xe58>)
 800270a:	f007 fbac 	bl	8009e66 <strcpy>
 800270e:	4868      	ldr	r0, [pc, #416]	; (80028b0 <parseCommand_Console+0xe58>)
 8002710:	f7fe fdd6 	bl	80012c0 <Serial_Console>
 8002714:	4971      	ldr	r1, [pc, #452]	; (80028dc <parseCommand_Console+0xe84>)
 8002716:	4866      	ldr	r0, [pc, #408]	; (80028b0 <parseCommand_Console+0xe58>)
 8002718:	f007 fba5 	bl	8009e66 <strcpy>
 800271c:	4864      	ldr	r0, [pc, #400]	; (80028b0 <parseCommand_Console+0xe58>)
 800271e:	f7fe fdcf 	bl	80012c0 <Serial_Console>
 8002722:	496f      	ldr	r1, [pc, #444]	; (80028e0 <parseCommand_Console+0xe88>)
 8002724:	4862      	ldr	r0, [pc, #392]	; (80028b0 <parseCommand_Console+0xe58>)
 8002726:	f007 fb9e 	bl	8009e66 <strcpy>
 800272a:	4861      	ldr	r0, [pc, #388]	; (80028b0 <parseCommand_Console+0xe58>)
 800272c:	f7fe fdc8 	bl	80012c0 <Serial_Console>
 8002730:	496c      	ldr	r1, [pc, #432]	; (80028e4 <parseCommand_Console+0xe8c>)
 8002732:	485f      	ldr	r0, [pc, #380]	; (80028b0 <parseCommand_Console+0xe58>)
 8002734:	f007 fb97 	bl	8009e66 <strcpy>
 8002738:	485d      	ldr	r0, [pc, #372]	; (80028b0 <parseCommand_Console+0xe58>)
 800273a:	f7fe fdc1 	bl	80012c0 <Serial_Console>
 800273e:	496a      	ldr	r1, [pc, #424]	; (80028e8 <parseCommand_Console+0xe90>)
 8002740:	485b      	ldr	r0, [pc, #364]	; (80028b0 <parseCommand_Console+0xe58>)
 8002742:	f007 fb90 	bl	8009e66 <strcpy>
 8002746:	485a      	ldr	r0, [pc, #360]	; (80028b0 <parseCommand_Console+0xe58>)
 8002748:	f7fe fdba 	bl	80012c0 <Serial_Console>
 800274c:	4967      	ldr	r1, [pc, #412]	; (80028ec <parseCommand_Console+0xe94>)
 800274e:	4858      	ldr	r0, [pc, #352]	; (80028b0 <parseCommand_Console+0xe58>)
 8002750:	f007 fb89 	bl	8009e66 <strcpy>
 8002754:	4856      	ldr	r0, [pc, #344]	; (80028b0 <parseCommand_Console+0xe58>)
 8002756:	f7fe fdb3 	bl	80012c0 <Serial_Console>
 800275a:	4965      	ldr	r1, [pc, #404]	; (80028f0 <parseCommand_Console+0xe98>)
 800275c:	4854      	ldr	r0, [pc, #336]	; (80028b0 <parseCommand_Console+0xe58>)
 800275e:	f007 fb82 	bl	8009e66 <strcpy>
 8002762:	4853      	ldr	r0, [pc, #332]	; (80028b0 <parseCommand_Console+0xe58>)
 8002764:	f7fe fdac 	bl	80012c0 <Serial_Console>
 8002768:	4962      	ldr	r1, [pc, #392]	; (80028f4 <parseCommand_Console+0xe9c>)
 800276a:	4851      	ldr	r0, [pc, #324]	; (80028b0 <parseCommand_Console+0xe58>)
 800276c:	f007 fb7b 	bl	8009e66 <strcpy>
 8002770:	484f      	ldr	r0, [pc, #316]	; (80028b0 <parseCommand_Console+0xe58>)
 8002772:	f7fe fda5 	bl	80012c0 <Serial_Console>
 8002776:	4960      	ldr	r1, [pc, #384]	; (80028f8 <parseCommand_Console+0xea0>)
 8002778:	484d      	ldr	r0, [pc, #308]	; (80028b0 <parseCommand_Console+0xe58>)
 800277a:	f007 fb74 	bl	8009e66 <strcpy>
 800277e:	484c      	ldr	r0, [pc, #304]	; (80028b0 <parseCommand_Console+0xe58>)
 8002780:	f7fe fd9e 	bl	80012c0 <Serial_Console>
 8002784:	495d      	ldr	r1, [pc, #372]	; (80028fc <parseCommand_Console+0xea4>)
 8002786:	484a      	ldr	r0, [pc, #296]	; (80028b0 <parseCommand_Console+0xe58>)
 8002788:	f007 fb6d 	bl	8009e66 <strcpy>
 800278c:	4848      	ldr	r0, [pc, #288]	; (80028b0 <parseCommand_Console+0xe58>)
 800278e:	f7fe fd97 	bl	80012c0 <Serial_Console>
 8002792:	495b      	ldr	r1, [pc, #364]	; (8002900 <parseCommand_Console+0xea8>)
 8002794:	4846      	ldr	r0, [pc, #280]	; (80028b0 <parseCommand_Console+0xe58>)
 8002796:	f007 fb66 	bl	8009e66 <strcpy>
 800279a:	4845      	ldr	r0, [pc, #276]	; (80028b0 <parseCommand_Console+0xe58>)
 800279c:	f7fe fd90 	bl	80012c0 <Serial_Console>
 80027a0:	4958      	ldr	r1, [pc, #352]	; (8002904 <parseCommand_Console+0xeac>)
 80027a2:	4843      	ldr	r0, [pc, #268]	; (80028b0 <parseCommand_Console+0xe58>)
 80027a4:	f007 fb5f 	bl	8009e66 <strcpy>
 80027a8:	4841      	ldr	r0, [pc, #260]	; (80028b0 <parseCommand_Console+0xe58>)
 80027aa:	f7fe fd89 	bl	80012c0 <Serial_Console>
 80027ae:	4956      	ldr	r1, [pc, #344]	; (8002908 <parseCommand_Console+0xeb0>)
 80027b0:	483f      	ldr	r0, [pc, #252]	; (80028b0 <parseCommand_Console+0xe58>)
 80027b2:	f007 fb58 	bl	8009e66 <strcpy>
 80027b6:	483e      	ldr	r0, [pc, #248]	; (80028b0 <parseCommand_Console+0xe58>)
 80027b8:	f7fe fd82 	bl	80012c0 <Serial_Console>
 80027bc:	4953      	ldr	r1, [pc, #332]	; (800290c <parseCommand_Console+0xeb4>)
 80027be:	483c      	ldr	r0, [pc, #240]	; (80028b0 <parseCommand_Console+0xe58>)
 80027c0:	f007 fb51 	bl	8009e66 <strcpy>
 80027c4:	483a      	ldr	r0, [pc, #232]	; (80028b0 <parseCommand_Console+0xe58>)
 80027c6:	f7fe fd7b 	bl	80012c0 <Serial_Console>
 80027ca:	4951      	ldr	r1, [pc, #324]	; (8002910 <parseCommand_Console+0xeb8>)
 80027cc:	4838      	ldr	r0, [pc, #224]	; (80028b0 <parseCommand_Console+0xe58>)
 80027ce:	f007 fb4a 	bl	8009e66 <strcpy>
 80027d2:	4837      	ldr	r0, [pc, #220]	; (80028b0 <parseCommand_Console+0xe58>)
 80027d4:	f7fe fd74 	bl	80012c0 <Serial_Console>
 80027d8:	494e      	ldr	r1, [pc, #312]	; (8002914 <parseCommand_Console+0xebc>)
 80027da:	4835      	ldr	r0, [pc, #212]	; (80028b0 <parseCommand_Console+0xe58>)
 80027dc:	f007 fb43 	bl	8009e66 <strcpy>
 80027e0:	4833      	ldr	r0, [pc, #204]	; (80028b0 <parseCommand_Console+0xe58>)
 80027e2:	f7fe fd6d 	bl	80012c0 <Serial_Console>
 80027e6:	494c      	ldr	r1, [pc, #304]	; (8002918 <parseCommand_Console+0xec0>)
 80027e8:	4831      	ldr	r0, [pc, #196]	; (80028b0 <parseCommand_Console+0xe58>)
 80027ea:	f007 fb3c 	bl	8009e66 <strcpy>
 80027ee:	4830      	ldr	r0, [pc, #192]	; (80028b0 <parseCommand_Console+0xe58>)
 80027f0:	f7fe fd66 	bl	80012c0 <Serial_Console>
 80027f4:	4949      	ldr	r1, [pc, #292]	; (800291c <parseCommand_Console+0xec4>)
 80027f6:	482e      	ldr	r0, [pc, #184]	; (80028b0 <parseCommand_Console+0xe58>)
 80027f8:	f007 fb35 	bl	8009e66 <strcpy>
 80027fc:	482c      	ldr	r0, [pc, #176]	; (80028b0 <parseCommand_Console+0xe58>)
 80027fe:	f7fe fd5f 	bl	80012c0 <Serial_Console>
 8002802:	4947      	ldr	r1, [pc, #284]	; (8002920 <parseCommand_Console+0xec8>)
 8002804:	482a      	ldr	r0, [pc, #168]	; (80028b0 <parseCommand_Console+0xe58>)
 8002806:	f007 fb2e 	bl	8009e66 <strcpy>
 800280a:	4829      	ldr	r0, [pc, #164]	; (80028b0 <parseCommand_Console+0xe58>)
 800280c:	f7fe fd58 	bl	80012c0 <Serial_Console>
 8002810:	4944      	ldr	r1, [pc, #272]	; (8002924 <parseCommand_Console+0xecc>)
 8002812:	4827      	ldr	r0, [pc, #156]	; (80028b0 <parseCommand_Console+0xe58>)
 8002814:	f007 fb27 	bl	8009e66 <strcpy>
 8002818:	4825      	ldr	r0, [pc, #148]	; (80028b0 <parseCommand_Console+0xe58>)
 800281a:	f7fe fd51 	bl	80012c0 <Serial_Console>
 800281e:	4942      	ldr	r1, [pc, #264]	; (8002928 <parseCommand_Console+0xed0>)
 8002820:	4823      	ldr	r0, [pc, #140]	; (80028b0 <parseCommand_Console+0xe58>)
 8002822:	f007 fb20 	bl	8009e66 <strcpy>
 8002826:	4822      	ldr	r0, [pc, #136]	; (80028b0 <parseCommand_Console+0xe58>)
 8002828:	f7fe fd4a 	bl	80012c0 <Serial_Console>
 800282c:	493f      	ldr	r1, [pc, #252]	; (800292c <parseCommand_Console+0xed4>)
 800282e:	4820      	ldr	r0, [pc, #128]	; (80028b0 <parseCommand_Console+0xe58>)
 8002830:	f007 fb19 	bl	8009e66 <strcpy>
 8002834:	481e      	ldr	r0, [pc, #120]	; (80028b0 <parseCommand_Console+0xe58>)
 8002836:	f7fe fd43 	bl	80012c0 <Serial_Console>
 800283a:	493d      	ldr	r1, [pc, #244]	; (8002930 <parseCommand_Console+0xed8>)
 800283c:	481c      	ldr	r0, [pc, #112]	; (80028b0 <parseCommand_Console+0xe58>)
 800283e:	f007 fb12 	bl	8009e66 <strcpy>
 8002842:	481b      	ldr	r0, [pc, #108]	; (80028b0 <parseCommand_Console+0xe58>)
 8002844:	f7fe fd3c 	bl	80012c0 <Serial_Console>
 8002848:	493a      	ldr	r1, [pc, #232]	; (8002934 <parseCommand_Console+0xedc>)
 800284a:	4819      	ldr	r0, [pc, #100]	; (80028b0 <parseCommand_Console+0xe58>)
 800284c:	f007 fb0b 	bl	8009e66 <strcpy>
 8002850:	4817      	ldr	r0, [pc, #92]	; (80028b0 <parseCommand_Console+0xe58>)
 8002852:	f7fe fd35 	bl	80012c0 <Serial_Console>
 8002856:	4838      	ldr	r0, [pc, #224]	; (8002938 <parseCommand_Console+0xee0>)
 8002858:	f7fe fd32 	bl	80012c0 <Serial_Console>
 800285c:	4937      	ldr	r1, [pc, #220]	; (800293c <parseCommand_Console+0xee4>)
 800285e:	4814      	ldr	r0, [pc, #80]	; (80028b0 <parseCommand_Console+0xe58>)
 8002860:	f007 fb01 	bl	8009e66 <strcpy>
 8002864:	4812      	ldr	r0, [pc, #72]	; (80028b0 <parseCommand_Console+0xe58>)
 8002866:	f7fe fd2b 	bl	80012c0 <Serial_Console>
 800286a:	4935      	ldr	r1, [pc, #212]	; (8002940 <parseCommand_Console+0xee8>)
 800286c:	4810      	ldr	r0, [pc, #64]	; (80028b0 <parseCommand_Console+0xe58>)
 800286e:	f007 fafa 	bl	8009e66 <strcpy>
 8002872:	480f      	ldr	r0, [pc, #60]	; (80028b0 <parseCommand_Console+0xe58>)
 8002874:	f7fe fd24 	bl	80012c0 <Serial_Console>
 8002878:	4932      	ldr	r1, [pc, #200]	; (8002944 <parseCommand_Console+0xeec>)
 800287a:	480d      	ldr	r0, [pc, #52]	; (80028b0 <parseCommand_Console+0xe58>)
 800287c:	f007 faf3 	bl	8009e66 <strcpy>
 8002880:	480b      	ldr	r0, [pc, #44]	; (80028b0 <parseCommand_Console+0xe58>)
 8002882:	f7fe fd1d 	bl	80012c0 <Serial_Console>
 8002886:	4930      	ldr	r1, [pc, #192]	; (8002948 <parseCommand_Console+0xef0>)
 8002888:	4809      	ldr	r0, [pc, #36]	; (80028b0 <parseCommand_Console+0xe58>)
 800288a:	f007 faec 	bl	8009e66 <strcpy>
 800288e:	4808      	ldr	r0, [pc, #32]	; (80028b0 <parseCommand_Console+0xe58>)
 8002890:	f7fe fd16 	bl	80012c0 <Serial_Console>
 8002894:	4b2d      	ldr	r3, [pc, #180]	; (800294c <parseCommand_Console+0xef4>)
 8002896:	2200      	movs	r2, #0
 8002898:	601a      	str	r2, [r3, #0]
 800289a:	4b2d      	ldr	r3, [pc, #180]	; (8002950 <parseCommand_Console+0xef8>)
 800289c:	2200      	movs	r2, #0
 800289e:	701a      	strb	r2, [r3, #0]
 80028a0:	b03b      	add	sp, #236	; 0xec
 80028a2:	bdf0      	pop	{r4, r5, r6, r7, pc}
 80028a4:	3201      	adds	r2, #1
 80028a6:	2a40      	cmp	r2, #64	; 0x40
 80028a8:	f47f a8e2 	bne.w	8001a70 <parseCommand_Console+0x18>
 80028ac:	e7f5      	b.n	800289a <parseCommand_Console+0xe42>
 80028ae:	bf00      	nop
 80028b0:	20000c4e 	.word	0x20000c4e
 80028b4:	0800ef3e 	.word	0x0800ef3e
 80028b8:	0800ef82 	.word	0x0800ef82
 80028bc:	0800efb5 	.word	0x0800efb5
 80028c0:	0800efe1 	.word	0x0800efe1
 80028c4:	0800f00e 	.word	0x0800f00e
 80028c8:	0800f045 	.word	0x0800f045
 80028cc:	0800f068 	.word	0x0800f068
 80028d0:	0800f092 	.word	0x0800f092
 80028d4:	0800f0bd 	.word	0x0800f0bd
 80028d8:	0800f101 	.word	0x0800f101
 80028dc:	0800f138 	.word	0x0800f138
 80028e0:	0800f186 	.word	0x0800f186
 80028e4:	0800f1b1 	.word	0x0800f1b1
 80028e8:	0800f1f9 	.word	0x0800f1f9
 80028ec:	0800f23e 	.word	0x0800f23e
 80028f0:	0800f27f 	.word	0x0800f27f
 80028f4:	0800f2c7 	.word	0x0800f2c7
 80028f8:	0800f308 	.word	0x0800f308
 80028fc:	0800f348 	.word	0x0800f348
 8002900:	0800f382 	.word	0x0800f382
 8002904:	0800f3bb 	.word	0x0800f3bb
 8002908:	0800f3f5 	.word	0x0800f3f5
 800290c:	0800f43d 	.word	0x0800f43d
 8002910:	0800f464 	.word	0x0800f464
 8002914:	0800f48b 	.word	0x0800f48b
 8002918:	0800f4b5 	.word	0x0800f4b5
 800291c:	0800f4ee 	.word	0x0800f4ee
 8002920:	0800f528 	.word	0x0800f528
 8002924:	0800f55e 	.word	0x0800f55e
 8002928:	0800f594 	.word	0x0800f594
 800292c:	0800f5ca 	.word	0x0800f5ca
 8002930:	0800f606 	.word	0x0800f606
 8002934:	0800f633 	.word	0x0800f633
 8002938:	0800ed79 	.word	0x0800ed79
 800293c:	0800f65c 	.word	0x0800f65c
 8002940:	0800f689 	.word	0x0800f689
 8002944:	0800f6b4 	.word	0x0800f6b4
 8002948:	0800f6ec 	.word	0x0800f6ec
 800294c:	200010d0 	.word	0x200010d0
 8002950:	20000818 	.word	0x20000818

08002954 <SystemClock_Config>:
 8002954:	b510      	push	{r4, lr}
 8002956:	2230      	movs	r2, #48	; 0x30
 8002958:	b098      	sub	sp, #96	; 0x60
 800295a:	2100      	movs	r1, #0
 800295c:	eb0d 0002 	add.w	r0, sp, r2
 8002960:	f006 fb68 	bl	8009034 <memset>
 8002964:	2214      	movs	r2, #20
 8002966:	2100      	movs	r1, #0
 8002968:	a807      	add	r0, sp, #28
 800296a:	f006 fb63 	bl	8009034 <memset>
 800296e:	2210      	movs	r2, #16
 8002970:	2100      	movs	r1, #0
 8002972:	a803      	add	r0, sp, #12
 8002974:	f006 fb5e 	bl	8009034 <memset>
 8002978:	4b26      	ldr	r3, [pc, #152]	; (8002a14 <SystemClock_Config+0xc0>)
 800297a:	2100      	movs	r1, #0
 800297c:	9101      	str	r1, [sp, #4]
 800297e:	6c1a      	ldr	r2, [r3, #64]	; 0x40
 8002980:	f042 5280 	orr.w	r2, r2, #268435456	; 0x10000000
 8002984:	641a      	str	r2, [r3, #64]	; 0x40
 8002986:	6c1b      	ldr	r3, [r3, #64]	; 0x40
 8002988:	f003 5380 	and.w	r3, r3, #268435456	; 0x10000000
 800298c:	9301      	str	r3, [sp, #4]
 800298e:	9b01      	ldr	r3, [sp, #4]
 8002990:	4b21      	ldr	r3, [pc, #132]	; (8002a18 <SystemClock_Config+0xc4>)
 8002992:	9102      	str	r1, [sp, #8]
 8002994:	681a      	ldr	r2, [r3, #0]
 8002996:	f442 4280 	orr.w	r2, r2, #16384	; 0x4000
 800299a:	601a      	str	r2, [r3, #0]
 800299c:	681b      	ldr	r3, [r3, #0]
 800299e:	f403 4380 	and.w	r3, r3, #16384	; 0x4000
 80029a2:	9302      	str	r3, [sp, #8]
 80029a4:	9b02      	ldr	r3, [sp, #8]
 80029a6:	210d      	movs	r1, #13
 80029a8:	f44f 3380 	mov.w	r3, #65536	; 0x10000
 80029ac:	e9cd 130c 	strd	r1, r3, [sp, #48]	; 0x30
 80029b0:	2301      	movs	r3, #1
 80029b2:	2402      	movs	r4, #2
 80029b4:	930e      	str	r3, [sp, #56]	; 0x38
 80029b6:	9311      	str	r3, [sp, #68]	; 0x44
 80029b8:	f44f 0380 	mov.w	r3, #4194304	; 0x400000
 80029bc:	2008      	movs	r0, #8
 80029be:	e9cd 4312 	strd	r4, r3, [sp, #72]	; 0x48
 80029c2:	23a8      	movs	r3, #168	; 0xa8
 80029c4:	e9cd 0314 	strd	r0, r3, [sp, #80]	; 0x50
 80029c8:	2307      	movs	r3, #7
 80029ca:	a80c      	add	r0, sp, #48	; 0x30
 80029cc:	9416      	str	r4, [sp, #88]	; 0x58
 80029ce:	9317      	str	r3, [sp, #92]	; 0x5c
 80029d0:	f004 fa56 	bl	8006e80 <HAL_RCC_OscConfig>
 80029d4:	b108      	cbz	r0, 80029da <SystemClock_Config+0x86>
 80029d6:	b672      	cpsid	i
 80029d8:	e7fe      	b.n	80029d8 <SystemClock_Config+0x84>
 80029da:	230f      	movs	r3, #15
 80029dc:	e9cd 3407 	strd	r3, r4, [sp, #28]
 80029e0:	9009      	str	r0, [sp, #36]	; 0x24
 80029e2:	f44f 52a0 	mov.w	r2, #5120	; 0x1400
 80029e6:	f44f 5380 	mov.w	r3, #4096	; 0x1000
 80029ea:	2105      	movs	r1, #5
 80029ec:	a807      	add	r0, sp, #28
 80029ee:	e9cd 230a 	strd	r2, r3, [sp, #40]	; 0x28
 80029f2:	f004 fc15 	bl	8007220 <HAL_RCC_ClockConfig>
 80029f6:	b108      	cbz	r0, 80029fc <SystemClock_Config+0xa8>
 80029f8:	b672      	cpsid	i
 80029fa:	e7fe      	b.n	80029fa <SystemClock_Config+0xa6>
 80029fc:	f44f 7380 	mov.w	r3, #256	; 0x100
 8002a00:	a803      	add	r0, sp, #12
 8002a02:	9403      	str	r4, [sp, #12]
 8002a04:	9306      	str	r3, [sp, #24]
 8002a06:	f004 fcc9 	bl	800739c <HAL_RCCEx_PeriphCLKConfig>
 8002a0a:	b108      	cbz	r0, 8002a10 <SystemClock_Config+0xbc>
 8002a0c:	b672      	cpsid	i
 8002a0e:	e7fe      	b.n	8002a0e <SystemClock_Config+0xba>
 8002a10:	b018      	add	sp, #96	; 0x60
 8002a12:	bd10      	pop	{r4, pc}
 8002a14:	40023800 	.word	0x40023800
 8002a18:	40007000 	.word	0x40007000
 8002a1c:	00000000 	.word	0x00000000

08002a20 <main>:
 8002a20:	e92d 4880 	stmdb	sp!, {r7, fp, lr}
 8002a24:	b0cd      	sub	sp, #308	; 0x134
 8002a26:	2400      	movs	r4, #0
 8002a28:	4da7      	ldr	r5, [pc, #668]	; (8002cc8 <main+0x2a8>)
 8002a2a:	f002 fbf5 	bl	8005218 <HAL_Init>
 8002a2e:	f7ff ff91 	bl	8002954 <SystemClock_Config>
 8002a32:	2214      	movs	r2, #20
 8002a34:	2100      	movs	r1, #0
 8002a36:	a82c      	add	r0, sp, #176	; 0xb0
 8002a38:	f006 fafc 	bl	8009034 <memset>
 8002a3c:	9420      	str	r4, [sp, #128]	; 0x80
 8002a3e:	6b2b      	ldr	r3, [r5, #48]	; 0x30
 8002a40:	48a2      	ldr	r0, [pc, #648]	; (8002ccc <main+0x2ac>)
 8002a42:	f043 0304 	orr.w	r3, r3, #4
 8002a46:	632b      	str	r3, [r5, #48]	; 0x30
 8002a48:	6b2b      	ldr	r3, [r5, #48]	; 0x30
 8002a4a:	f003 0304 	and.w	r3, r3, #4
 8002a4e:	9320      	str	r3, [sp, #128]	; 0x80
 8002a50:	9b20      	ldr	r3, [sp, #128]	; 0x80
 8002a52:	9421      	str	r4, [sp, #132]	; 0x84
 8002a54:	6b2b      	ldr	r3, [r5, #48]	; 0x30
 8002a56:	f043 0380 	orr.w	r3, r3, #128	; 0x80
 8002a5a:	632b      	str	r3, [r5, #48]	; 0x30
 8002a5c:	6b2b      	ldr	r3, [r5, #48]	; 0x30
 8002a5e:	f003 0380 	and.w	r3, r3, #128	; 0x80
 8002a62:	9321      	str	r3, [sp, #132]	; 0x84
 8002a64:	9b21      	ldr	r3, [sp, #132]	; 0x84
 8002a66:	9422      	str	r4, [sp, #136]	; 0x88
 8002a68:	6b2b      	ldr	r3, [r5, #48]	; 0x30
 8002a6a:	f043 0301 	orr.w	r3, r3, #1
 8002a6e:	632b      	str	r3, [r5, #48]	; 0x30
 8002a70:	6b2b      	ldr	r3, [r5, #48]	; 0x30
 8002a72:	f003 0301 	and.w	r3, r3, #1
 8002a76:	9322      	str	r3, [sp, #136]	; 0x88
 8002a78:	9b22      	ldr	r3, [sp, #136]	; 0x88
 8002a7a:	9423      	str	r4, [sp, #140]	; 0x8c
 8002a7c:	6b2b      	ldr	r3, [r5, #48]	; 0x30
 8002a7e:	f043 0302 	orr.w	r3, r3, #2
 8002a82:	632b      	str	r3, [r5, #48]	; 0x30
 8002a84:	6b2b      	ldr	r3, [r5, #48]	; 0x30
 8002a86:	f003 0302 	and.w	r3, r3, #2
 8002a8a:	9323      	str	r3, [sp, #140]	; 0x8c
 8002a8c:	9b23      	ldr	r3, [sp, #140]	; 0x8c
 8002a8e:	9424      	str	r4, [sp, #144]	; 0x90
 8002a90:	6b2b      	ldr	r3, [r5, #48]	; 0x30
 8002a92:	f043 0308 	orr.w	r3, r3, #8
 8002a96:	632b      	str	r3, [r5, #48]	; 0x30
 8002a98:	6b2b      	ldr	r3, [r5, #48]	; 0x30
 8002a9a:	f003 0308 	and.w	r3, r3, #8
 8002a9e:	9324      	str	r3, [sp, #144]	; 0x90
 8002aa0:	4622      	mov	r2, r4
 8002aa2:	f44f 6180 	mov.w	r1, #1024	; 0x400
 8002aa6:	9b24      	ldr	r3, [sp, #144]	; 0x90
 8002aa8:	f003 fada 	bl	8006060 <HAL_GPIO_WritePin>
 8002aac:	4622      	mov	r2, r4
 8002aae:	4888      	ldr	r0, [pc, #544]	; (8002cd0 <main+0x2b0>)
 8002ab0:	2101      	movs	r1, #1
 8002ab2:	f003 fad5 	bl	8006060 <HAL_GPIO_WritePin>
 8002ab6:	f44f 7380 	mov.w	r3, #256	; 0x100
 8002aba:	4886      	ldr	r0, [pc, #536]	; (8002cd4 <main+0x2b4>)
 8002abc:	942e      	str	r4, [sp, #184]	; 0xb8
 8002abe:	a92c      	add	r1, sp, #176	; 0xb0
 8002ac0:	2601      	movs	r6, #1
 8002ac2:	e9cd 342c 	strd	r3, r4, [sp, #176]	; 0xb0
 8002ac6:	f003 f94d 	bl	8005d64 <HAL_GPIO_Init>
 8002aca:	f44f 6380 	mov.w	r3, #1024	; 0x400
 8002ace:	487f      	ldr	r0, [pc, #508]	; (8002ccc <main+0x2ac>)
 8002ad0:	a92c      	add	r1, sp, #176	; 0xb0
 8002ad2:	e9cd 362c 	strd	r3, r6, [sp, #176]	; 0xb0
 8002ad6:	e9cd 442e 	strd	r4, r4, [sp, #184]	; 0xb8
 8002ada:	f003 f943 	bl	8005d64 <HAL_GPIO_Init>
 8002ade:	487c      	ldr	r0, [pc, #496]	; (8002cd0 <main+0x2b0>)
 8002ae0:	a92c      	add	r1, sp, #176	; 0xb0
 8002ae2:	e9cd 662c 	strd	r6, r6, [sp, #176]	; 0xb0
 8002ae6:	e9cd 442e 	strd	r4, r4, [sp, #184]	; 0xb8
 8002aea:	f003 f93b 	bl	8005d64 <HAL_GPIO_Init>
 8002aee:	941e      	str	r4, [sp, #120]	; 0x78
 8002af0:	6b2b      	ldr	r3, [r5, #48]	; 0x30
 8002af2:	f443 0380 	orr.w	r3, r3, #4194304	; 0x400000
 8002af6:	632b      	str	r3, [r5, #48]	; 0x30
 8002af8:	6b2b      	ldr	r3, [r5, #48]	; 0x30
 8002afa:	f403 0380 	and.w	r3, r3, #4194304	; 0x400000
 8002afe:	931e      	str	r3, [sp, #120]	; 0x78
 8002b00:	9b1e      	ldr	r3, [sp, #120]	; 0x78
 8002b02:	941f      	str	r4, [sp, #124]	; 0x7c
 8002b04:	6b2b      	ldr	r3, [r5, #48]	; 0x30
 8002b06:	f443 1300 	orr.w	r3, r3, #2097152	; 0x200000
 8002b0a:	632b      	str	r3, [r5, #48]	; 0x30
 8002b0c:	6b2b      	ldr	r3, [r5, #48]	; 0x30
 8002b0e:	4d72      	ldr	r5, [pc, #456]	; (8002cd8 <main+0x2b8>)
 8002b10:	f403 1300 	and.w	r3, r3, #2097152	; 0x200000
 8002b14:	4622      	mov	r2, r4
 8002b16:	4621      	mov	r1, r4
 8002b18:	931f      	str	r3, [sp, #124]	; 0x7c
 8002b1a:	2010      	movs	r0, #16
 8002b1c:	9b1f      	ldr	r3, [sp, #124]	; 0x7c
 8002b1e:	f002 fecf 	bl	80058c0 <HAL_NVIC_SetPriority>
 8002b22:	2010      	movs	r0, #16
 8002b24:	f002 fefe 	bl	8005924 <HAL_NVIC_EnableIRQ>
 8002b28:	4622      	mov	r2, r4
 8002b2a:	4621      	mov	r1, r4
 8002b2c:	2038      	movs	r0, #56	; 0x38
 8002b2e:	f002 fec7 	bl	80058c0 <HAL_NVIC_SetPriority>
 8002b32:	2038      	movs	r0, #56	; 0x38
 8002b34:	f002 fef6 	bl	8005924 <HAL_NVIC_EnableIRQ>
 8002b38:	4622      	mov	r2, r4
 8002b3a:	4621      	mov	r1, r4
 8002b3c:	203a      	movs	r0, #58	; 0x3a
 8002b3e:	f002 febf 	bl	80058c0 <HAL_NVIC_SetPriority>
 8002b42:	203a      	movs	r0, #58	; 0x3a
 8002b44:	f002 feee 	bl	8005924 <HAL_NVIC_EnableIRQ>
 8002b48:	4621      	mov	r1, r4
 8002b4a:	2210      	movs	r2, #16
 8002b4c:	a82c      	add	r0, sp, #176	; 0xb0
 8002b4e:	f006 fa71 	bl	8009034 <memset>
 8002b52:	4962      	ldr	r1, [pc, #392]	; (8002cdc <main+0x2bc>)
 8002b54:	60ac      	str	r4, [r5, #8]
 8002b56:	f44f 3380 	mov.w	r3, #65536	; 0x10000
 8002b5a:	e9c5 1300 	strd	r1, r3, [r5]
 8002b5e:	f04f 0802 	mov.w	r8, #2
 8002b62:	4b5f      	ldr	r3, [pc, #380]	; (8002ce0 <main+0x2c0>)
 8002b64:	612e      	str	r6, [r5, #16]
 8002b66:	4628      	mov	r0, r5
 8002b68:	762e      	strb	r6, [r5, #24]
 8002b6a:	f885 4020 	strb.w	r4, [r5, #32]
 8002b6e:	62ec      	str	r4, [r5, #44]	; 0x2c
 8002b70:	62ab      	str	r3, [r5, #40]	; 0x28
 8002b72:	60ec      	str	r4, [r5, #12]
 8002b74:	f8c5 801c 	str.w	r8, [r5, #28]
 8002b78:	f885 6030 	strb.w	r6, [r5, #48]	; 0x30
 8002b7c:	616c      	str	r4, [r5, #20]
 8002b7e:	f002 fb8b 	bl	8005298 <HAL_ADC_Init>
 8002b82:	b108      	cbz	r0, 8002b88 <main+0x168>
 8002b84:	b672      	cpsid	i
 8002b86:	e7fe      	b.n	8002b86 <main+0x166>
 8002b88:	230d      	movs	r3, #13
 8002b8a:	e9cd 362c 	strd	r3, r6, [sp, #176]	; 0xb0
 8002b8e:	a92c      	add	r1, sp, #176	; 0xb0
 8002b90:	2306      	movs	r3, #6
 8002b92:	4628      	mov	r0, r5
 8002b94:	932e      	str	r3, [sp, #184]	; 0xb8
 8002b96:	f002 fdc9 	bl	800572c <HAL_ADC_ConfigChannel>
 8002b9a:	b108      	cbz	r0, 8002ba0 <main+0x180>
 8002b9c:	b672      	cpsid	i
 8002b9e:	e7fe      	b.n	8002b9e <main+0x17e>
 8002ba0:	260c      	movs	r6, #12
 8002ba2:	a92c      	add	r1, sp, #176	; 0xb0
 8002ba4:	4628      	mov	r0, r5
 8002ba6:	e9cd 682c 	strd	r6, r8, [sp, #176]	; 0xb0
 8002baa:	f002 fdbf 	bl	800572c <HAL_ADC_ConfigChannel>
 8002bae:	b108      	cbz	r0, 8002bb4 <main+0x194>
 8002bb0:	b672      	cpsid	i
 8002bb2:	e7fe      	b.n	8002bb2 <main+0x192>
 8002bb4:	4f4b      	ldr	r7, [pc, #300]	; (8002ce4 <main+0x2c4>)
 8002bb6:	4b4c      	ldr	r3, [pc, #304]	; (8002ce8 <main+0x2c8>)
 8002bb8:	4638      	mov	r0, r7
 8002bba:	e9c7 3800 	strd	r3, r8, [r7]
 8002bbe:	f640 73ff 	movw	r3, #4095	; 0xfff
 8002bc2:	60bb      	str	r3, [r7, #8]
 8002bc4:	f004 f8f2 	bl	8006dac <HAL_IWDG_Init>
 8002bc8:	b108      	cbz	r0, 8002bce <main+0x1ae>
 8002bca:	b672      	cpsid	i
 8002bcc:	e7fe      	b.n	8002bcc <main+0x1ac>
 8002bce:	4847      	ldr	r0, [pc, #284]	; (8002cec <main+0x2cc>)
 8002bd0:	4b47      	ldr	r3, [pc, #284]	; (8002cf0 <main+0x2d0>)
 8002bd2:	6003      	str	r3, [r0, #0]
 8002bd4:	f004 fc7a 	bl	80074cc <HAL_RNG_Init>
 8002bd8:	b108      	cbz	r0, 8002bde <main+0x1be>
 8002bda:	b672      	cpsid	i
 8002bdc:	e7fe      	b.n	8002bdc <main+0x1bc>
 8002bde:	4d45      	ldr	r5, [pc, #276]	; (8002cf4 <main+0x2d4>)
 8002be0:	4a45      	ldr	r2, [pc, #276]	; (8002cf8 <main+0x2d8>)
 8002be2:	e9c5 0002 	strd	r0, r0, [r5, #8]
 8002be6:	e9c5 0604 	strd	r0, r6, [r5, #16]
 8002bea:	e9c5 0006 	strd	r0, r0, [r5, #24]
 8002bee:	f44f 33e1 	mov.w	r3, #115200	; 0x1c200
 8002bf2:	4628      	mov	r0, r5
 8002bf4:	e9c5 2300 	strd	r2, r3, [r5]
 8002bf8:	f005 fbb3 	bl	8008362 <HAL_UART_Init>
 8002bfc:	b108      	cbz	r0, 8002c02 <main+0x1e2>
 8002bfe:	b672      	cpsid	i
 8002c00:	e7fe      	b.n	8002c00 <main+0x1e0>
 8002c02:	4c3e      	ldr	r4, [pc, #248]	; (8002cfc <main+0x2dc>)
 8002c04:	4b3e      	ldr	r3, [pc, #248]	; (8002d00 <main+0x2e0>)
 8002c06:	f8df b104 	ldr.w	fp, [pc, #260]	; 8002d0c <main+0x2ec>
 8002c0a:	e9c4 0604 	strd	r0, r6, [r4, #16]
 8002c0e:	e9c4 0002 	strd	r0, r0, [r4, #8]
 8002c12:	e9c4 0006 	strd	r0, r0, [r4, #24]
 8002c16:	4620      	mov	r0, r4
 8002c18:	e9c4 b300 	strd	fp, r3, [r4]
 8002c1c:	f005 fba1 	bl	8008362 <HAL_UART_Init>
 8002c20:	4606      	mov	r6, r0
 8002c22:	b108      	cbz	r0, 8002c28 <main+0x208>
 8002c24:	b672      	cpsid	i
 8002c26:	e7fe      	b.n	8002c26 <main+0x206>
 8002c28:	4601      	mov	r1, r0
 8002c2a:	2210      	movs	r2, #16
 8002c2c:	a827      	add	r0, sp, #156	; 0x9c
 8002c2e:	f006 fa01 	bl	8009034 <memset>
 8002c32:	221c      	movs	r2, #28
 8002c34:	4631      	mov	r1, r6
 8002c36:	a82c      	add	r0, sp, #176	; 0xb0
 8002c38:	f8df 80cc 	ldr.w	r8, [pc, #204]	; 8002d08 <main+0x2e8>
 8002c3c:	e9cd 6625 	strd	r6, r6, [sp, #148]	; 0x94
 8002c40:	f006 f9f8 	bl	8009034 <memset>
 8002c44:	4b2f      	ldr	r3, [pc, #188]	; (8002d04 <main+0x2e4>)
 8002c46:	f8c8 6008 	str.w	r6, [r8, #8]
 8002c4a:	e9c8 3600 	strd	r3, r6, [r8]
 8002c4e:	4640      	mov	r0, r8
 8002c50:	f640 531f 	movw	r3, #3359	; 0xd1f
 8002c54:	e9c8 3603 	strd	r3, r6, [r8, #12]
 8002c58:	f8c8 6018 	str.w	r6, [r8, #24]
 8002c5c:	f005 f88c 	bl	8007d78 <HAL_TIM_Base_Init>
 8002c60:	b108      	cbz	r0, 8002c66 <main+0x246>
 8002c62:	b672      	cpsid	i
 8002c64:	e7fe      	b.n	8002c64 <main+0x244>
 8002c66:	f44f 5380 	mov.w	r3, #4096	; 0x1000
 8002c6a:	a927      	add	r1, sp, #156	; 0x9c
 8002c6c:	4640      	mov	r0, r8
 8002c6e:	9327      	str	r3, [sp, #156]	; 0x9c
 8002c70:	f005 f97d 	bl	8007f6e <HAL_TIM_ConfigClockSource>
 8002c74:	b108      	cbz	r0, 8002c7a <main+0x25a>
 8002c76:	b672      	cpsid	i
 8002c78:	e7fe      	b.n	8002c78 <main+0x258>
 8002c7a:	4640      	mov	r0, r8
 8002c7c:	f005 f8a8 	bl	8007dd0 <HAL_TIM_PWM_Init>
 8002c80:	b108      	cbz	r0, 8002c86 <main+0x266>
 8002c82:	b672      	cpsid	i
 8002c84:	e7fe      	b.n	8002c84 <main+0x264>
 8002c86:	2300      	movs	r3, #0
 8002c88:	481f      	ldr	r0, [pc, #124]	; (8002d08 <main+0x2e8>)
 8002c8a:	a925      	add	r1, sp, #148	; 0x94
 8002c8c:	e9cd 3325 	strd	r3, r3, [sp, #148]	; 0x94
 8002c90:	f005 fa80 	bl	8008194 <HAL_TIMEx_MasterConfigSynchronization>
 8002c94:	4602      	mov	r2, r0
 8002c96:	b108      	cbz	r0, 8002c9c <main+0x27c>
 8002c98:	b672      	cpsid	i
 8002c9a:	e7fe      	b.n	8002c9a <main+0x27a>
 8002c9c:	f04f 0860 	mov.w	r8, #96	; 0x60
 8002ca0:	e9cd 802c 	strd	r8, r0, [sp, #176]	; 0xb0
 8002ca4:	902e      	str	r0, [sp, #184]	; 0xb8
 8002ca6:	9030      	str	r0, [sp, #192]	; 0xc0
 8002ca8:	a92c      	add	r1, sp, #176	; 0xb0
 8002caa:	4817      	ldr	r0, [pc, #92]	; (8002d08 <main+0x2e8>)
 8002cac:	f005 f8f2 	bl	8007e94 <HAL_TIM_PWM_ConfigChannel>
 8002cb0:	b108      	cbz	r0, 8002cb6 <main+0x296>
 8002cb2:	b672      	cpsid	i
 8002cb4:	e7fe      	b.n	8002cb4 <main+0x294>
 8002cb6:	4814      	ldr	r0, [pc, #80]	; (8002d08 <main+0x2e8>)
 8002cb8:	2204      	movs	r2, #4
 8002cba:	a92c      	add	r1, sp, #176	; 0xb0
 8002cbc:	f005 f8ea 	bl	8007e94 <HAL_TIM_PWM_ConfigChannel>
 8002cc0:	4606      	mov	r6, r0
 8002cc2:	b328      	cbz	r0, 8002d10 <main+0x2f0>
 8002cc4:	b672      	cpsid	i
 8002cc6:	e7fe      	b.n	8002cc6 <main+0x2a6>
 8002cc8:	40023800 	.word	0x40023800
 8002ccc:	40020800 	.word	0x40020800
 8002cd0:	40020c00 	.word	0x40020c00
 8002cd4:	40020000 	.word	0x40020000
 8002cd8:	200011b8 	.word	0x200011b8
 8002cdc:	40012000 	.word	0x40012000
 8002ce0:	0f000001 	.word	0x0f000001
 8002ce4:	20000bec 	.word	0x20000bec
 8002ce8:	40003000 	.word	0x40003000
 8002cec:	20001f88 	.word	0x20001f88
 8002cf0:	50060800 	.word	0x50060800
 8002cf4:	20001a60 	.word	0x20001a60
 8002cf8:	40011000 	.word	0x40011000
 8002cfc:	20001fe4 	.word	0x20001fe4
 8002d00:	000f4240 	.word	0x000f4240
 8002d04:	40000400 	.word	0x40000400
 8002d08:	20001168 	.word	0x20001168
 8002d0c:	40004400 	.word	0x40004400
 8002d10:	4874      	ldr	r0, [pc, #464]	; (8002ee4 <main+0x4c4>)
 8002d12:	f8df 91d8 	ldr.w	r9, [pc, #472]	; 8002eec <main+0x4cc>
 8002d16:	f002 f86b 	bl	8004df0 <HAL_TIM_MspPostInit>
 8002d1a:	2210      	movs	r2, #16
 8002d1c:	4631      	mov	r1, r6
 8002d1e:	a827      	add	r0, sp, #156	; 0x9c
 8002d20:	f006 f988 	bl	8009034 <memset>
 8002d24:	221c      	movs	r2, #28
 8002d26:	4631      	mov	r1, r6
 8002d28:	a82c      	add	r0, sp, #176	; 0xb0
 8002d2a:	e9cd 6625 	strd	r6, r6, [sp, #148]	; 0x94
 8002d2e:	f006 f981 	bl	8009034 <memset>
 8002d32:	4b6d      	ldr	r3, [pc, #436]	; (8002ee8 <main+0x4c8>)
 8002d34:	f8c9 6008 	str.w	r6, [r9, #8]
 8002d38:	e9c9 3600 	strd	r3, r6, [r9]
 8002d3c:	4648      	mov	r0, r9
 8002d3e:	f640 531f 	movw	r3, #3359	; 0xd1f
 8002d42:	e9c9 3603 	strd	r3, r6, [r9, #12]
 8002d46:	f8c9 6018 	str.w	r6, [r9, #24]
 8002d4a:	f005 f815 	bl	8007d78 <HAL_TIM_Base_Init>
 8002d4e:	b108      	cbz	r0, 8002d54 <main+0x334>
 8002d50:	b672      	cpsid	i
 8002d52:	e7fe      	b.n	8002d52 <main+0x332>
 8002d54:	f44f 5380 	mov.w	r3, #4096	; 0x1000
 8002d58:	a927      	add	r1, sp, #156	; 0x9c
 8002d5a:	4648      	mov	r0, r9
 8002d5c:	9327      	str	r3, [sp, #156]	; 0x9c
 8002d5e:	f005 f906 	bl	8007f6e <HAL_TIM_ConfigClockSource>
 8002d62:	b108      	cbz	r0, 8002d68 <main+0x348>
 8002d64:	b672      	cpsid	i
 8002d66:	e7fe      	b.n	8002d66 <main+0x346>
 8002d68:	4648      	mov	r0, r9
 8002d6a:	f005 f831 	bl	8007dd0 <HAL_TIM_PWM_Init>
 8002d6e:	b108      	cbz	r0, 8002d74 <main+0x354>
 8002d70:	b672      	cpsid	i
 8002d72:	e7fe      	b.n	8002d72 <main+0x352>
 8002d74:	e9cd 0025 	strd	r0, r0, [sp, #148]	; 0x94
 8002d78:	a925      	add	r1, sp, #148	; 0x94
 8002d7a:	4648      	mov	r0, r9
 8002d7c:	f005 fa0a 	bl	8008194 <HAL_TIMEx_MasterConfigSynchronization>
 8002d80:	4602      	mov	r2, r0
 8002d82:	b108      	cbz	r0, 8002d88 <main+0x368>
 8002d84:	b672      	cpsid	i
 8002d86:	e7fe      	b.n	8002d86 <main+0x366>
 8002d88:	e9cd 802c 	strd	r8, r0, [sp, #176]	; 0xb0
 8002d8c:	902e      	str	r0, [sp, #184]	; 0xb8
 8002d8e:	9030      	str	r0, [sp, #192]	; 0xc0
 8002d90:	a92c      	add	r1, sp, #176	; 0xb0
 8002d92:	4648      	mov	r0, r9
 8002d94:	f005 f87e 	bl	8007e94 <HAL_TIM_PWM_ConfigChannel>
 8002d98:	b108      	cbz	r0, 8002d9e <main+0x37e>
 8002d9a:	b672      	cpsid	i
 8002d9c:	e7fe      	b.n	8002d9c <main+0x37c>
 8002d9e:	2204      	movs	r2, #4
 8002da0:	a92c      	add	r1, sp, #176	; 0xb0
 8002da2:	4648      	mov	r0, r9
 8002da4:	f005 f876 	bl	8007e94 <HAL_TIM_PWM_ConfigChannel>
 8002da8:	b108      	cbz	r0, 8002dae <main+0x38e>
 8002daa:	b672      	cpsid	i
 8002dac:	e7fe      	b.n	8002dac <main+0x38c>
 8002dae:	2208      	movs	r2, #8
 8002db0:	a92c      	add	r1, sp, #176	; 0xb0
 8002db2:	4648      	mov	r0, r9
 8002db4:	f005 f86e 	bl	8007e94 <HAL_TIM_PWM_ConfigChannel>
 8002db8:	b108      	cbz	r0, 8002dbe <main+0x39e>
 8002dba:	b672      	cpsid	i
 8002dbc:	e7fe      	b.n	8002dbc <main+0x39c>
 8002dbe:	484b      	ldr	r0, [pc, #300]	; (8002eec <main+0x4cc>)
 8002dc0:	220c      	movs	r2, #12
 8002dc2:	a92c      	add	r1, sp, #176	; 0xb0
 8002dc4:	f005 f866 	bl	8007e94 <HAL_TIM_PWM_ConfigChannel>
 8002dc8:	4606      	mov	r6, r0
 8002dca:	b108      	cbz	r0, 8002dd0 <main+0x3b0>
 8002dcc:	b672      	cpsid	i
 8002dce:	e7fe      	b.n	8002dce <main+0x3ae>
 8002dd0:	4846      	ldr	r0, [pc, #280]	; (8002eec <main+0x4cc>)
 8002dd2:	f002 f80d 	bl	8004df0 <HAL_TIM_MspPostInit>
 8002dd6:	4846      	ldr	r0, [pc, #280]	; (8002ef0 <main+0x4d0>)
 8002dd8:	4b46      	ldr	r3, [pc, #280]	; (8002ef4 <main+0x4d4>)
 8002dda:	6186      	str	r6, [r0, #24]
 8002ddc:	e9c0 3600 	strd	r3, r6, [r0]
 8002de0:	f04f 0a7f 	mov.w	sl, #127	; 0x7f
 8002de4:	23ff      	movs	r3, #255	; 0xff
 8002de6:	e9c0 6604 	strd	r6, r6, [r0, #16]
 8002dea:	e9c0 a302 	strd	sl, r3, [r0, #8]
 8002dee:	f004 fc24 	bl	800763a <HAL_RTC_Init>
 8002df2:	4606      	mov	r6, r0
 8002df4:	b108      	cbz	r0, 8002dfa <main+0x3da>
 8002df6:	b672      	cpsid	i
 8002df8:	e7fe      	b.n	8002df8 <main+0x3d8>
 8002dfa:	f8df 8108 	ldr.w	r8, [pc, #264]	; 8002f04 <main+0x4e4>
 8002dfe:	4601      	mov	r1, r0
 8002e00:	2210      	movs	r2, #16
 8002e02:	a82c      	add	r0, sp, #176	; 0xb0
 8002e04:	f006 f916 	bl	8009034 <memset>
 8002e08:	f04f 4980 	mov.w	r9, #1073741824	; 0x40000000
 8002e0c:	f242 730f 	movw	r3, #9999	; 0x270f
 8002e10:	e9c8 9300 	strd	r9, r3, [r8]
 8002e14:	4640      	mov	r0, r8
 8002e16:	f242 03cf 	movw	r3, #8399	; 0x20cf
 8002e1a:	e9cd 6627 	strd	r6, r6, [sp, #156]	; 0x9c
 8002e1e:	e9c8 3603 	strd	r3, r6, [r8, #12]
 8002e22:	f8c8 6008 	str.w	r6, [r8, #8]
 8002e26:	f8c8 6018 	str.w	r6, [r8, #24]
 8002e2a:	f004 ffa5 	bl	8007d78 <HAL_TIM_Base_Init>
 8002e2e:	b108      	cbz	r0, 8002e34 <main+0x414>
 8002e30:	b672      	cpsid	i
 8002e32:	e7fe      	b.n	8002e32 <main+0x412>
 8002e34:	f44f 5a80 	mov.w	sl, #4096	; 0x1000
 8002e38:	a92c      	add	r1, sp, #176	; 0xb0
 8002e3a:	4640      	mov	r0, r8
 8002e3c:	f8cd a0b0 	str.w	sl, [sp, #176]	; 0xb0
 8002e40:	f005 f895 	bl	8007f6e <HAL_TIM_ConfigClockSource>
 8002e44:	b108      	cbz	r0, 8002e4a <main+0x42a>
 8002e46:	b672      	cpsid	i
 8002e48:	e7fe      	b.n	8002e48 <main+0x428>
 8002e4a:	e9cd 0027 	strd	r0, r0, [sp, #156]	; 0x9c
 8002e4e:	a927      	add	r1, sp, #156	; 0x9c
 8002e50:	4640      	mov	r0, r8
 8002e52:	f005 f99f 	bl	8008194 <HAL_TIMEx_MasterConfigSynchronization>
 8002e56:	4681      	mov	r9, r0
 8002e58:	b108      	cbz	r0, 8002e5e <main+0x43e>
 8002e5a:	b672      	cpsid	i
 8002e5c:	e7fe      	b.n	8002e5c <main+0x43c>
 8002e5e:	4601      	mov	r1, r0
 8002e60:	2210      	movs	r2, #16
 8002e62:	a82c      	add	r0, sp, #176	; 0xb0
 8002e64:	f006 f8e6 	bl	8009034 <memset>
 8002e68:	4e23      	ldr	r6, [pc, #140]	; (8002ef8 <main+0x4d8>)
 8002e6a:	f8df e09c 	ldr.w	lr, [pc, #156]	; 8002f08 <main+0x4e8>
 8002e6e:	f8c6 9008 	str.w	r9, [r6, #8]
 8002e72:	2353      	movs	r3, #83	; 0x53
 8002e74:	e9c6 e300 	strd	lr, r3, [r6]
 8002e78:	4630      	mov	r0, r6
 8002e7a:	f64f 73ff 	movw	r3, #65535	; 0xffff
 8002e7e:	e9cd 9927 	strd	r9, r9, [sp, #156]	; 0x9c
 8002e82:	e9c6 3903 	strd	r3, r9, [r6, #12]
 8002e86:	f8c6 9018 	str.w	r9, [r6, #24]
 8002e8a:	f004 ff75 	bl	8007d78 <HAL_TIM_Base_Init>
 8002e8e:	b108      	cbz	r0, 8002e94 <main+0x474>
 8002e90:	b672      	cpsid	i
 8002e92:	e7fe      	b.n	8002e92 <main+0x472>
 8002e94:	a92c      	add	r1, sp, #176	; 0xb0
 8002e96:	4630      	mov	r0, r6
 8002e98:	f8cd a0b0 	str.w	sl, [sp, #176]	; 0xb0
 8002e9c:	f005 f867 	bl	8007f6e <HAL_TIM_ConfigClockSource>
 8002ea0:	b108      	cbz	r0, 8002ea6 <main+0x486>
 8002ea2:	b672      	cpsid	i
 8002ea4:	e7fe      	b.n	8002ea4 <main+0x484>
 8002ea6:	e9cd 0027 	strd	r0, r0, [sp, #156]	; 0x9c
 8002eaa:	a927      	add	r1, sp, #156	; 0x9c
 8002eac:	4630      	mov	r0, r6
 8002eae:	f005 f971 	bl	8008194 <HAL_TIMEx_MasterConfigSynchronization>
 8002eb2:	4603      	mov	r3, r0
 8002eb4:	b108      	cbz	r0, 8002eba <main+0x49a>
 8002eb6:	b672      	cpsid	i
 8002eb8:	e7fe      	b.n	8002eb8 <main+0x498>
 8002eba:	4810      	ldr	r0, [pc, #64]	; (8002efc <main+0x4dc>)
 8002ebc:	f8df c04c 	ldr.w	ip, [pc, #76]	; 8002f0c <main+0x4ec>
 8002ec0:	4a0f      	ldr	r2, [pc, #60]	; (8002f00 <main+0x4e0>)
 8002ec2:	6203      	str	r3, [r0, #32]
 8002ec4:	e9c0 c200 	strd	ip, r2, [r0]
 8002ec8:	f44f 4280 	mov.w	r2, #16384	; 0x4000
 8002ecc:	e9c0 3302 	strd	r3, r3, [r0, #8]
 8002ed0:	e9c0 2304 	strd	r2, r3, [r0, #16]
 8002ed4:	e9c0 3306 	strd	r3, r3, [r0, #24]
 8002ed8:	f003 faa4 	bl	8006424 <HAL_I2C_Init>
 8002edc:	4681      	mov	r9, r0
 8002ede:	b1b8      	cbz	r0, 8002f10 <main+0x4f0>
 8002ee0:	b672      	cpsid	i
 8002ee2:	e7fe      	b.n	8002ee2 <main+0x4c2>
 8002ee4:	20001168 	.word	0x20001168
 8002ee8:	40000800 	.word	0x40000800
 8002eec:	20000b10 	.word	0x20000b10
 8002ef0:	20001b24 	.word	0x20001b24
 8002ef4:	40002800 	.word	0x40002800
 8002ef8:	20001110 	.word	0x20001110
 8002efc:	20000b98 	.word	0x20000b98
 8002f00:	000186a0 	.word	0x000186a0
 8002f04:	20001f9c 	.word	0x20001f9c
 8002f08:	40000c00 	.word	0x40000c00
 8002f0c:	40005400 	.word	0x40005400
 8002f10:	f7fe f962 	bl	80011d8 <MX_I2C2_Init>
 8002f14:	48ba      	ldr	r0, [pc, #744]	; (8003200 <main+0x7e0>)
 8002f16:	f004 fdad 	bl	8007a74 <HAL_TIM_Base_Start>
 8002f1a:	48ba      	ldr	r0, [pc, #744]	; (8003204 <main+0x7e4>)
 8002f1c:	f004 fdaa 	bl	8007a74 <HAL_TIM_Base_Start>
 8002f20:	4649      	mov	r1, r9
 8002f22:	48b7      	ldr	r0, [pc, #732]	; (8003200 <main+0x7e0>)
 8002f24:	f005 f934 	bl	8008190 <HAL_TIM_PWM_Start>
 8002f28:	2104      	movs	r1, #4
 8002f2a:	48b5      	ldr	r0, [pc, #724]	; (8003200 <main+0x7e0>)
 8002f2c:	f005 f930 	bl	8008190 <HAL_TIM_PWM_Start>
 8002f30:	2108      	movs	r1, #8
 8002f32:	48b3      	ldr	r0, [pc, #716]	; (8003200 <main+0x7e0>)
 8002f34:	f005 f92c 	bl	8008190 <HAL_TIM_PWM_Start>
 8002f38:	210c      	movs	r1, #12
 8002f3a:	48b1      	ldr	r0, [pc, #708]	; (8003200 <main+0x7e0>)
 8002f3c:	f005 f928 	bl	8008190 <HAL_TIM_PWM_Start>
 8002f40:	4649      	mov	r1, r9
 8002f42:	48b0      	ldr	r0, [pc, #704]	; (8003204 <main+0x7e4>)
 8002f44:	f005 f924 	bl	8008190 <HAL_TIM_PWM_Start>
 8002f48:	2104      	movs	r1, #4
 8002f4a:	48ae      	ldr	r0, [pc, #696]	; (8003204 <main+0x7e4>)
 8002f4c:	f005 f920 	bl	8008190 <HAL_TIM_PWM_Start>
 8002f50:	4630      	mov	r0, r6
 8002f52:	f004 fd8f 	bl	8007a74 <HAL_TIM_Base_Start>
 8002f56:	4bac      	ldr	r3, [pc, #688]	; (8003208 <main+0x7e8>)
 8002f58:	48ac      	ldr	r0, [pc, #688]	; (800320c <main+0x7ec>)
 8002f5a:	f8c3 9034 	str.w	r9, [r3, #52]	; 0x34
 8002f5e:	f8c3 9038 	str.w	r9, [r3, #56]	; 0x38
 8002f62:	f8c3 903c 	str.w	r9, [r3, #60]	; 0x3c
 8002f66:	f8c3 9040 	str.w	r9, [r3, #64]	; 0x40
 8002f6a:	f5a3 6380 	sub.w	r3, r3, #1024	; 0x400
 8002f6e:	2102      	movs	r1, #2
 8002f70:	f8c3 9034 	str.w	r9, [r3, #52]	; 0x34
 8002f74:	f8c3 9038 	str.w	r9, [r3, #56]	; 0x38
 8002f78:	f503 5330 	add.w	r3, r3, #11264	; 0x2c00
 8002f7c:	603b      	str	r3, [r7, #0]
 8002f7e:	f640 73ff 	movw	r3, #4095	; 0xfff
 8002f82:	e9c7 1301 	strd	r1, r3, [r7, #4]
 8002f86:	f003 ff11 	bl	8006dac <HAL_IWDG_Init>
 8002f8a:	4640      	mov	r0, r8
 8002f8c:	f004 fda8 	bl	8007ae0 <HAL_TIM_Base_Start_IT>
 8002f90:	489f      	ldr	r0, [pc, #636]	; (8003210 <main+0x7f0>)
 8002f92:	f7fe f985 	bl	80012a0 <Serial_RPi>
 8002f96:	489e      	ldr	r0, [pc, #632]	; (8003210 <main+0x7f0>)
 8002f98:	f7fe f992 	bl	80012c0 <Serial_Console>
 8002f9c:	499d      	ldr	r1, [pc, #628]	; (8003214 <main+0x7f4>)
 8002f9e:	489e      	ldr	r0, [pc, #632]	; (8003218 <main+0x7f8>)
 8002fa0:	f44f 7200 	mov.w	r2, #512	; 0x200
 8002fa4:	f002 fa30 	bl	8005408 <HAL_ADC_Start_DMA>
 8002fa8:	2320      	movs	r3, #32
 8002faa:	2105      	movs	r1, #5
 8002fac:	4a9b      	ldr	r2, [pc, #620]	; (800321c <main+0x7fc>)
 8002fae:	489c      	ldr	r0, [pc, #624]	; (8003220 <main+0x800>)
 8002fb0:	9300      	str	r3, [sp, #0]
 8002fb2:	4b9c      	ldr	r3, [pc, #624]	; (8003224 <main+0x804>)
 8002fb4:	f005 fca8 	bl	8008908 <arm_fir_init_f32>
 8002fb8:	489b      	ldr	r0, [pc, #620]	; (8003228 <main+0x808>)
 8002fba:	f004 fa87 	bl	80074cc <HAL_RNG_Init>
 8002fbe:	682a      	ldr	r2, [r5, #0]
 8002fc0:	68d3      	ldr	r3, [r2, #12]
 8002fc2:	f043 0310 	orr.w	r3, r3, #16
 8002fc6:	60d3      	str	r3, [r2, #12]
 8002fc8:	6822      	ldr	r2, [r4, #0]
 8002fca:	68d3      	ldr	r3, [r2, #12]
 8002fcc:	f043 0310 	orr.w	r3, r3, #16
 8002fd0:	60d3      	str	r3, [r2, #12]
 8002fd2:	f002 f947 	bl	8005264 <HAL_GetTick>
 8002fd6:	4b95      	ldr	r3, [pc, #596]	; (800322c <main+0x80c>)
 8002fd8:	6018      	str	r0, [r3, #0]
 8002fda:	f002 f943 	bl	8005264 <HAL_GetTick>
 8002fde:	4b94      	ldr	r3, [pc, #592]	; (8003230 <main+0x810>)
 8002fe0:	6018      	str	r0, [r3, #0]
 8002fe2:	f002 f93f 	bl	8005264 <HAL_GetTick>
 8002fe6:	4b93      	ldr	r3, [pc, #588]	; (8003234 <main+0x814>)
 8002fe8:	6018      	str	r0, [r3, #0]
 8002fea:	f241 3088 	movw	r0, #5000	; 0x1388
 8002fee:	f002 f93f 	bl	8005270 <HAL_Delay>
 8002ff2:	f7fe f90d 	bl	8001210 <Init6050>
 8002ff6:	f002 f935 	bl	8005264 <HAL_GetTick>
 8002ffa:	4b8f      	ldr	r3, [pc, #572]	; (8003238 <main+0x818>)
 8002ffc:	6018      	str	r0, [r3, #0]
 8002ffe:	f001 fbe5 	bl	80047cc <enable_backup_sram>
 8003002:	6833      	ldr	r3, [r6, #0]
 8003004:	f8c3 9024 	str.w	r9, [r3, #36]	; 0x24
 8003008:	6a5a      	ldr	r2, [r3, #36]	; 0x24
 800300a:	2a63      	cmp	r2, #99	; 0x63
 800300c:	d9fc      	bls.n	8003008 <main+0x5e8>
 800300e:	a80e      	add	r0, sp, #56	; 0x38
 8003010:	ac0e      	add	r4, sp, #56	; 0x38
 8003012:	f001 fbf1 	bl	80047f8 <read_all_settings>
 8003016:	cc0f      	ldmia	r4!, {r0, r1, r2, r3}
 8003018:	4f88      	ldr	r7, [pc, #544]	; (800323c <main+0x81c>)
 800301a:	463d      	mov	r5, r7
 800301c:	c50f      	stmia	r5!, {r0, r1, r2, r3}
 800301e:	cc0f      	ldmia	r4!, {r0, r1, r2, r3}
 8003020:	c50f      	stmia	r5!, {r0, r1, r2, r3}
 8003022:	cc0f      	ldmia	r4!, {r0, r1, r2, r3}
 8003024:	c50f      	stmia	r5!, {r0, r1, r2, r3}
 8003026:	e894 000f 	ldmia.w	r4, {r0, r1, r2, r3}
 800302a:	e885 000f 	stmia.w	r5, {r0, r1, r2, r3}
 800302e:	783b      	ldrb	r3, [r7, #0]
 8003030:	2b2a      	cmp	r3, #42	; 0x2a
 8003032:	d013      	beq.n	800305c <main+0x63c>
 8003034:	f001 fcf2 	bl	8004a1c <save_default_settings>
 8003038:	4881      	ldr	r0, [pc, #516]	; (8003240 <main+0x820>)
 800303a:	f7fe f941 	bl	80012c0 <Serial_Console>
 800303e:	ac0e      	add	r4, sp, #56	; 0x38
 8003040:	a80e      	add	r0, sp, #56	; 0x38
 8003042:	f001 fbd9 	bl	80047f8 <read_all_settings>
 8003046:	cc0f      	ldmia	r4!, {r0, r1, r2, r3}
 8003048:	463e      	mov	r6, r7
 800304a:	c60f      	stmia	r6!, {r0, r1, r2, r3}
 800304c:	cc0f      	ldmia	r4!, {r0, r1, r2, r3}
 800304e:	c60f      	stmia	r6!, {r0, r1, r2, r3}
 8003050:	cc0f      	ldmia	r4!, {r0, r1, r2, r3}
 8003052:	c60f      	stmia	r6!, {r0, r1, r2, r3}
 8003054:	e894 000f 	ldmia.w	r4, {r0, r1, r2, r3}
 8003058:	e885 000f 	stmia.w	r5, {r0, r1, r2, r3}
 800305c:	4879      	ldr	r0, [pc, #484]	; (8003244 <main+0x824>)
 800305e:	f7fe f92f 	bl	80012c0 <Serial_Console>
 8003062:	4879      	ldr	r0, [pc, #484]	; (8003248 <main+0x828>)
 8003064:	f7fe f91c 	bl	80012a0 <Serial_RPi>
 8003068:	4877      	ldr	r0, [pc, #476]	; (8003248 <main+0x828>)
 800306a:	f7fe f929 	bl	80012c0 <Serial_Console>
 800306e:	f002 f8f9 	bl	8005264 <HAL_GetTick>
 8003072:	63b8      	str	r0, [r7, #56]	; 0x38
 8003074:	4e6e      	ldr	r6, [pc, #440]	; (8003230 <main+0x810>)
 8003076:	f002 f8f5 	bl	8005264 <HAL_GetTick>
 800307a:	6833      	ldr	r3, [r6, #0]
 800307c:	1ac0      	subs	r0, r0, r3
 800307e:	2813      	cmp	r0, #19
 8003080:	d915      	bls.n	80030ae <main+0x68e>
 8003082:	f7fe f96d 	bl	8001360 <MPU6050_Read_Accel>
 8003086:	2306      	movs	r3, #6
 8003088:	2232      	movs	r2, #50	; 0x32
 800308a:	e9cd 3201 	strd	r3, r2, [sp, #4]
 800308e:	ab2c      	add	r3, sp, #176	; 0xb0
 8003090:	9300      	str	r3, [sp, #0]
 8003092:	486e      	ldr	r0, [pc, #440]	; (800324c <main+0x82c>)
 8003094:	2301      	movs	r3, #1
 8003096:	2243      	movs	r2, #67	; 0x43
 8003098:	21d0      	movs	r1, #208	; 0xd0
 800309a:	f003 fd79 	bl	8006b90 <HAL_I2C_Mem_Read>
 800309e:	b1f0      	cbz	r0, 80030de <main+0x6be>
 80030a0:	f7fe f91e 	bl	80012e0 <reInitIMU>
 80030a4:	f7fd ffb4 	bl	8001010 <ProcessIMUData>
 80030a8:	f002 f8dc 	bl	8005264 <HAL_GetTick>
 80030ac:	6030      	str	r0, [r6, #0]
 80030ae:	f8df 91cc 	ldr.w	r9, [pc, #460]	; 800327c <main+0x85c>
 80030b2:	f899 3000 	ldrb.w	r3, [r9]
 80030b6:	2b00      	cmp	r3, #0
 80030b8:	f040 87ce 	bne.w	8004058 <main+0x1638>
 80030bc:	f7fe faa4 	bl	8001608 <CheckSecurity>
 80030c0:	4b63      	ldr	r3, [pc, #396]	; (8003250 <main+0x830>)
 80030c2:	4d64      	ldr	r5, [pc, #400]	; (8003254 <main+0x834>)
 80030c4:	781b      	ldrb	r3, [r3, #0]
 80030c6:	2b00      	cmp	r3, #0
 80030c8:	f000 808b 	beq.w	80031e2 <main+0x7c2>
 80030cc:	4b62      	ldr	r3, [pc, #392]	; (8003258 <main+0x838>)
 80030ce:	781b      	ldrb	r3, [r3, #0]
 80030d0:	2b00      	cmp	r3, #0
 80030d2:	d17e      	bne.n	80031d2 <main+0x7b2>
 80030d4:	f7fe f81c 	bl	8001110 <cutterOFF>
 80030d8:	f7fe f83a 	bl	8001150 <MotorStop>
 80030dc:	e081      	b.n	80031e2 <main+0x7c2>
 80030de:	f89d 30b0 	ldrb.w	r3, [sp, #176]	; 0xb0
 80030e2:	f89d 00b1 	ldrb.w	r0, [sp, #177]	; 0xb1
 80030e6:	f89d 50b3 	ldrb.w	r5, [sp, #179]	; 0xb3
 80030ea:	f89d 40b5 	ldrb.w	r4, [sp, #181]	; 0xb5
 80030ee:	4f5b      	ldr	r7, [pc, #364]	; (800325c <main+0x83c>)
 80030f0:	ea40 2003 	orr.w	r0, r0, r3, lsl #8
 80030f4:	4b5a      	ldr	r3, [pc, #360]	; (8003260 <main+0x840>)
 80030f6:	b200      	sxth	r0, r0
 80030f8:	8018      	strh	r0, [r3, #0]
 80030fa:	f89d 30b2 	ldrb.w	r3, [sp, #178]	; 0xb2
 80030fe:	ea45 2503 	orr.w	r5, r5, r3, lsl #8
 8003102:	4b58      	ldr	r3, [pc, #352]	; (8003264 <main+0x844>)
 8003104:	b22d      	sxth	r5, r5
 8003106:	801d      	strh	r5, [r3, #0]
 8003108:	f89d 30b4 	ldrb.w	r3, [sp, #180]	; 0xb4
 800310c:	ea44 2403 	orr.w	r4, r4, r3, lsl #8
 8003110:	4b55      	ldr	r3, [pc, #340]	; (8003268 <main+0x848>)
 8003112:	b224      	sxth	r4, r4
 8003114:	801c      	strh	r4, [r3, #0]
 8003116:	f7fd fa15 	bl	8000544 <__aeabi_i2d>
 800311a:	a335      	add	r3, pc, #212	; (adr r3, 80031f0 <main+0x7d0>)
 800311c:	e9d3 2300 	ldrd	r2, r3, [r3]
 8003120:	f7fd fba4 	bl	800086c <__aeabi_ddiv>
 8003124:	f7fd fd70 	bl	8000c08 <__aeabi_d2f>
 8003128:	4b50      	ldr	r3, [pc, #320]	; (800326c <main+0x84c>)
 800312a:	6018      	str	r0, [r3, #0]
 800312c:	4628      	mov	r0, r5
 800312e:	f7fd fa09 	bl	8000544 <__aeabi_i2d>
 8003132:	a32f      	add	r3, pc, #188	; (adr r3, 80031f0 <main+0x7d0>)
 8003134:	e9d3 2300 	ldrd	r2, r3, [r3]
 8003138:	f7fd fb98 	bl	800086c <__aeabi_ddiv>
 800313c:	f7fd fd64 	bl	8000c08 <__aeabi_d2f>
 8003140:	4b4b      	ldr	r3, [pc, #300]	; (8003270 <main+0x850>)
 8003142:	6018      	str	r0, [r3, #0]
 8003144:	4620      	mov	r0, r4
 8003146:	f7fd f9fd 	bl	8000544 <__aeabi_i2d>
 800314a:	a329      	add	r3, pc, #164	; (adr r3, 80031f0 <main+0x7d0>)
 800314c:	e9d3 2300 	ldrd	r2, r3, [r3]
 8003150:	f7fd fb8c 	bl	800086c <__aeabi_ddiv>
 8003154:	f7fd fd58 	bl	8000c08 <__aeabi_d2f>
 8003158:	4b3d      	ldr	r3, [pc, #244]	; (8003250 <main+0x830>)
 800315a:	781b      	ldrb	r3, [r3, #0]
 800315c:	ee08 0a10 	vmov	s16, r0
 8003160:	b953      	cbnz	r3, 8003178 <main+0x758>
 8003162:	eef0 7ac8 	vabs.f32	s15, s16
 8003166:	eeb7 7a00 	vmov.f32	s14, #112	; 0x3f800000  1.0
 800316a:	eef4 7ac7 	vcmpe.f32	s15, s14
 800316e:	eef1 fa10 	vmrs	APSR_nzcv, fpscr
 8003172:	bf48      	it	mi
 8003174:	edc7 7a05 	vstrmi	s15, [r7, #20]
 8003178:	edd7 7a05 	vldr	s15, [r7, #20]
 800317c:	4b3d      	ldr	r3, [pc, #244]	; (8003274 <main+0x854>)
 800317e:	ee38 8a27 	vadd.f32	s16, s16, s15
 8003182:	eeff 7a00 	vmov.f32	s15, #240	; 0xbf800000 -1.0
 8003186:	eeb4 8ae7 	vcmpe.f32	s16, s15
 800318a:	eef1 fa10 	vmrs	APSR_nzcv, fpscr
 800318e:	ed83 8a00 	vstr	s16, [r3]
 8003192:	d406      	bmi.n	80031a2 <main+0x782>
 8003194:	eef7 7a00 	vmov.f32	s15, #112	; 0x3f800000  1.0
 8003198:	eeb4 8ae7 	vcmpe.f32	s16, s15
 800319c:	eef1 fa10 	vmrs	APSR_nzcv, fpscr
 80031a0:	dd80      	ble.n	80030a4 <main+0x684>
 80031a2:	6878      	ldr	r0, [r7, #4]
 80031a4:	f7fd f9e0 	bl	8000568 <__aeabi_f2d>
 80031a8:	4604      	mov	r4, r0
 80031aa:	ee18 0a10 	vmov	r0, s16
 80031ae:	460d      	mov	r5, r1
 80031b0:	f7fd f9da 	bl	8000568 <__aeabi_f2d>
 80031b4:	a310      	add	r3, pc, #64	; (adr r3, 80031f8 <main+0x7d8>)
 80031b6:	e9d3 2300 	ldrd	r2, r3, [r3]
 80031ba:	f7fd fa2d 	bl	8000618 <__aeabi_dmul>
 80031be:	4602      	mov	r2, r0
 80031c0:	460b      	mov	r3, r1
 80031c2:	4620      	mov	r0, r4
 80031c4:	4629      	mov	r1, r5
 80031c6:	f7fd f86f 	bl	80002a8 <__aeabi_dsub>
 80031ca:	f7fd fd1d 	bl	8000c08 <__aeabi_d2f>
 80031ce:	6078      	str	r0, [r7, #4]
 80031d0:	e768      	b.n	80030a4 <main+0x684>
 80031d2:	4b29      	ldr	r3, [pc, #164]	; (8003278 <main+0x858>)
 80031d4:	781b      	ldrb	r3, [r3, #0]
 80031d6:	2b00      	cmp	r3, #0
 80031d8:	d152      	bne.n	8003280 <main+0x860>
 80031da:	f7fd ffb9 	bl	8001150 <MotorStop>
 80031de:	f7fd ff97 	bl	8001110 <cutterOFF>
 80031e2:	782b      	ldrb	r3, [r5, #0]
 80031e4:	2b01      	cmp	r3, #1
 80031e6:	f040 80ed 	bne.w	80033c4 <main+0x9a4>
 80031ea:	e265      	b.n	80036b8 <main+0xc98>
 80031ec:	f3af 8000 	nop.w
 80031f0:	00000000 	.word	0x00000000
 80031f4:	40606000 	.word	0x40606000
 80031f8:	47ae147b 	.word	0x47ae147b
 80031fc:	3f947ae1 	.word	0x3f947ae1
 8003200:	20000b10 	.word	0x20000b10
 8003204:	20001168 	.word	0x20001168
 8003208:	40000800 	.word	0x40000800
 800320c:	20000bec 	.word	0x20000bec
 8003210:	0800f719 	.word	0x0800f719
 8003214:	20001200 	.word	0x20001200
 8003218:	200011b8 	.word	0x200011b8
 800321c:	20000008 	.word	0x20000008
 8003220:	2000115c 	.word	0x2000115c
 8003224:	20000850 	.word	0x20000850
 8003228:	20001f88 	.word	0x20001f88
 800322c:	2000039c 	.word	0x2000039c
 8003230:	200003c8 	.word	0x200003c8
 8003234:	200003f0 	.word	0x200003f0
 8003238:	20001158 	.word	0x20001158
 800323c:	20000b58 	.word	0x20000b58
 8003240:	0800f73d 	.word	0x0800f73d
 8003244:	0800f761 	.word	0x0800f761
 8003248:	0800f77b 	.word	0x0800f77b
 800324c:	20000bf8 	.word	0x20000bf8
 8003250:	200003cc 	.word	0x200003cc
 8003254:	200007fe 	.word	0x200007fe
 8003258:	20000001 	.word	0x20000001
 800325c:	20001aa4 	.word	0x20001aa4
 8003260:	200003c2 	.word	0x200003c2
 8003264:	200003c4 	.word	0x200003c4
 8003268:	200003c6 	.word	0x200003c6
 800326c:	20000a00 	.word	0x20000a00
 8003270:	200011b4 	.word	0x200011b4
 8003274:	2000202c 	.word	0x2000202c
 8003278:	200007f8 	.word	0x200007f8
 800327c:	200008ea 	.word	0x200008ea
 8003280:	f001 fff0 	bl	8005264 <HAL_GetTick>
 8003284:	4bc6      	ldr	r3, [pc, #792]	; (80035a0 <main+0xb80>)
 8003286:	4ec7      	ldr	r6, [pc, #796]	; (80035a4 <main+0xb84>)
 8003288:	681b      	ldr	r3, [r3, #0]
 800328a:	79f2      	ldrb	r2, [r6, #7]
 800328c:	f8df 8368 	ldr.w	r8, [pc, #872]	; 80035f8 <main+0xbd8>
 8003290:	1ac0      	subs	r0, r0, r3
 8003292:	f44f 737a 	mov.w	r3, #1000	; 0x3e8
 8003296:	4353      	muls	r3, r2
 8003298:	4298      	cmp	r0, r3
 800329a:	4637      	mov	r7, r6
 800329c:	d306      	bcc.n	80032ac <main+0x88c>
 800329e:	f898 3000 	ldrb.w	r3, [r8]
 80032a2:	b91b      	cbnz	r3, 80032ac <main+0x88c>
 80032a4:	48c0      	ldr	r0, [pc, #768]	; (80035a8 <main+0xb88>)
 80032a6:	f7fe f80b 	bl	80012c0 <Serial_Console>
 80032aa:	e796      	b.n	80031da <main+0x7ba>
 80032ac:	f898 3000 	ldrb.w	r3, [r8]
 80032b0:	2b01      	cmp	r3, #1
 80032b2:	d177      	bne.n	80033a4 <main+0x984>
 80032b4:	2400      	movs	r4, #0
 80032b6:	2214      	movs	r2, #20
 80032b8:	2100      	movs	r1, #0
 80032ba:	a82c      	add	r0, sp, #176	; 0xb0
 80032bc:	f005 feba 	bl	8009034 <memset>
 80032c0:	4622      	mov	r2, r4
 80032c2:	a92c      	add	r1, sp, #176	; 0xb0
 80032c4:	48b9      	ldr	r0, [pc, #740]	; (80035ac <main+0xb8c>)
 80032c6:	9427      	str	r4, [sp, #156]	; 0x9c
 80032c8:	f004 fb01 	bl	80078ce <HAL_RTC_GetTime>
 80032cc:	4622      	mov	r2, r4
 80032ce:	48b7      	ldr	r0, [pc, #732]	; (80035ac <main+0xb8c>)
 80032d0:	a927      	add	r1, sp, #156	; 0x9c
 80032d2:	f004 fb23 	bl	800791c <HAL_RTC_GetDate>
 80032d6:	f89d 30b0 	ldrb.w	r3, [sp, #176]	; 0xb0
 80032da:	78f2      	ldrb	r2, [r6, #3]
 80032dc:	429a      	cmp	r2, r3
 80032de:	d880      	bhi.n	80031e2 <main+0x7c2>
 80032e0:	7932      	ldrb	r2, [r6, #4]
 80032e2:	429a      	cmp	r2, r3
 80032e4:	f67f af7d 	bls.w	80031e2 <main+0x7c2>
 80032e8:	f8df a310 	ldr.w	sl, [pc, #784]	; 80035fc <main+0xbdc>
 80032ec:	f89a 3000 	ldrb.w	r3, [sl]
 80032f0:	2b01      	cmp	r3, #1
 80032f2:	f47f af76 	bne.w	80031e2 <main+0x7c2>
 80032f6:	f898 b000 	ldrb.w	fp, [r8]
 80032fa:	f1bb 0f01 	cmp.w	fp, #1
 80032fe:	f47f af70 	bne.w	80031e2 <main+0x7c2>
 8003302:	48ab      	ldr	r0, [pc, #684]	; (80035b0 <main+0xb90>)
 8003304:	f7fd ffdc 	bl	80012c0 <Serial_Console>
 8003308:	4622      	mov	r2, r4
 800330a:	4659      	mov	r1, fp
 800330c:	48a9      	ldr	r0, [pc, #676]	; (80035b4 <main+0xb94>)
 800330e:	f002 fea7 	bl	8006060 <HAL_GPIO_WritePin>
 8003312:	f241 3088 	movw	r0, #5000	; 0x1388
 8003316:	f001 ffab 	bl	8005270 <HAL_Delay>
 800331a:	2302      	movs	r3, #2
 800331c:	702b      	strb	r3, [r5, #0]
 800331e:	4ba6      	ldr	r3, [pc, #664]	; (80035b8 <main+0xb98>)
 8003320:	f240 7bd1 	movw	fp, #2001	; 0x7d1
 8003324:	4622      	mov	r2, r4
 8003326:	f8c3 b034 	str.w	fp, [r3, #52]	; 0x34
 800332a:	2001      	movs	r0, #1
 800332c:	639a      	str	r2, [r3, #56]	; 0x38
 800332e:	63da      	str	r2, [r3, #60]	; 0x3c
 8003330:	f8c3 b040 	str.w	fp, [r3, #64]	; 0x40
 8003334:	f001 ff9c 	bl	8005270 <HAL_Delay>
 8003338:	f10b 0b02 	add.w	fp, fp, #2
 800333c:	f640 511f 	movw	r1, #3359	; 0xd1f
 8003340:	458b      	cmp	fp, r1
 8003342:	4b9d      	ldr	r3, [pc, #628]	; (80035b8 <main+0xb98>)
 8003344:	f04f 0200 	mov.w	r2, #0
 8003348:	d1ed      	bne.n	8003326 <main+0x906>
 800334a:	f44f 60fa 	mov.w	r0, #2000	; 0x7d0
 800334e:	f001 ff8f 	bl	8005270 <HAL_Delay>
 8003352:	f7fd fefd 	bl	8001150 <MotorStop>
 8003356:	f44f 70fa 	mov.w	r0, #500	; 0x1f4
 800335a:	f7fe fb57 	bl	8001a0c <MotorLeft.constprop.0>
 800335e:	4b97      	ldr	r3, [pc, #604]	; (80035bc <main+0xb9c>)
 8003360:	f888 4000 	strb.w	r4, [r8]
 8003364:	701c      	strb	r4, [r3, #0]
 8003366:	4b96      	ldr	r3, [pc, #600]	; (80035c0 <main+0xba0>)
 8003368:	f88a 4000 	strb.w	r4, [sl]
 800336c:	801c      	strh	r4, [r3, #0]
 800336e:	4b95      	ldr	r3, [pc, #596]	; (80035c4 <main+0xba4>)
 8003370:	f889 4000 	strb.w	r4, [r9]
 8003374:	2100      	movs	r1, #0
 8003376:	2000      	movs	r0, #0
 8003378:	e9c3 0100 	strd	r0, r1, [r3]
 800337c:	4b92      	ldr	r3, [pc, #584]	; (80035c8 <main+0xba8>)
 800337e:	701c      	strb	r4, [r3, #0]
 8003380:	f001 ff70 	bl	8005264 <HAL_GetTick>
 8003384:	63b0      	str	r0, [r6, #56]	; 0x38
 8003386:	4e91      	ldr	r6, [pc, #580]	; (80035cc <main+0xbac>)
 8003388:	ce0f      	ldmia	r6!, {r0, r1, r2, r3}
 800338a:	466c      	mov	r4, sp
 800338c:	c40f      	stmia	r4!, {r0, r1, r2, r3}
 800338e:	ce0f      	ldmia	r6!, {r0, r1, r2, r3}
 8003390:	c40f      	stmia	r4!, {r0, r1, r2, r3}
 8003392:	e896 000f 	ldmia.w	r6, {r0, r1, r2, r3}
 8003396:	e884 000f 	stmia.w	r4, {r0, r1, r2, r3}
 800339a:	e897 000f 	ldmia.w	r7, {r0, r1, r2, r3}
 800339e:	f001 fac3 	bl	8004928 <write_all_settings>
 80033a2:	e71e      	b.n	80031e2 <main+0x7c2>
 80033a4:	f895 a000 	ldrb.w	sl, [r5]
 80033a8:	f1ba 0f06 	cmp.w	sl, #6
 80033ac:	d121      	bne.n	80033f2 <main+0x9d2>
 80033ae:	f7fd fecf 	bl	8001150 <MotorStop>
 80033b2:	f7fd fead 	bl	8001110 <cutterOFF>
 80033b6:	4c86      	ldr	r4, [pc, #536]	; (80035d0 <main+0xbb0>)
 80033b8:	f7fe f926 	bl	8001608 <CheckSecurity>
 80033bc:	2801      	cmp	r0, #1
 80033be:	d114      	bne.n	80033ea <main+0x9ca>
 80033c0:	2300      	movs	r3, #0
 80033c2:	702b      	strb	r3, [r5, #0]
 80033c4:	4f83      	ldr	r7, [pc, #524]	; (80035d4 <main+0xbb4>)
 80033c6:	4c84      	ldr	r4, [pc, #528]	; (80035d8 <main+0xbb8>)
 80033c8:	7838      	ldrb	r0, [r7, #0]
 80033ca:	28c1      	cmp	r0, #193	; 0xc1
 80033cc:	f040 82ff 	bne.w	80039ce <main+0xfae>
 80033d0:	4e82      	ldr	r6, [pc, #520]	; (80035dc <main+0xbbc>)
 80033d2:	7833      	ldrb	r3, [r6, #0]
 80033d4:	2b00      	cmp	r3, #0
 80033d6:	f040 8303 	bne.w	80039e0 <main+0xfc0>
 80033da:	f7fe f8f5 	bl	80015c8 <ADC_Send>
 80033de:	2301      	movs	r3, #1
 80033e0:	7033      	strb	r3, [r6, #0]
 80033e2:	f001 ff3f 	bl	8005264 <HAL_GetTick>
 80033e6:	6020      	str	r0, [r4, #0]
 80033e8:	e2fa      	b.n	80039e0 <main+0xfc0>
 80033ea:	4620      	mov	r0, r4
 80033ec:	f7fd ff68 	bl	80012c0 <Serial_Console>
 80033f0:	e7e2      	b.n	80033b8 <main+0x998>
 80033f2:	f8df 820c 	ldr.w	r8, [pc, #524]	; 8003600 <main+0xbe0>
 80033f6:	4f7a      	ldr	r7, [pc, #488]	; (80035e0 <main+0xbc0>)
 80033f8:	f898 3000 	ldrb.w	r3, [r8]
 80033fc:	4c79      	ldr	r4, [pc, #484]	; (80035e4 <main+0xbc4>)
 80033fe:	2b01      	cmp	r3, #1
 8003400:	d005      	beq.n	800340e <main+0x9ee>
 8003402:	783b      	ldrb	r3, [r7, #0]
 8003404:	2b01      	cmp	r3, #1
 8003406:	d002      	beq.n	800340e <main+0x9ee>
 8003408:	7823      	ldrb	r3, [r4, #0]
 800340a:	2b01      	cmp	r3, #1
 800340c:	d124      	bne.n	8003458 <main+0xa38>
 800340e:	f7fd fe9f 	bl	8001150 <MotorStop>
 8003412:	4875      	ldr	r0, [pc, #468]	; (80035e8 <main+0xbc8>)
 8003414:	f7fd ff54 	bl	80012c0 <Serial_Console>
 8003418:	f44f 70fa 	mov.w	r0, #500	; 0x1f4
 800341c:	f001 ff28 	bl	8005270 <HAL_Delay>
 8003420:	f898 3000 	ldrb.w	r3, [r8]
 8003424:	2b01      	cmp	r3, #1
 8003426:	d103      	bne.n	8003430 <main+0xa10>
 8003428:	f44f 707a 	mov.w	r0, #1000	; 0x3e8
 800342c:	f7fe faaa 	bl	8001984 <MotorRight.constprop.0>
 8003430:	783b      	ldrb	r3, [r7, #0]
 8003432:	2b01      	cmp	r3, #1
 8003434:	d103      	bne.n	800343e <main+0xa1e>
 8003436:	f44f 707a 	mov.w	r0, #1000	; 0x3e8
 800343a:	f7fe fae7 	bl	8001a0c <MotorLeft.constprop.0>
 800343e:	7823      	ldrb	r3, [r4, #0]
 8003440:	2b01      	cmp	r3, #1
 8003442:	d103      	bne.n	800344c <main+0xa2c>
 8003444:	f44f 707a 	mov.w	r0, #1000	; 0x3e8
 8003448:	f7fe fa9c 	bl	8001984 <MotorRight.constprop.0>
 800344c:	2300      	movs	r3, #0
 800344e:	f888 3000 	strb.w	r3, [r8]
 8003452:	703b      	strb	r3, [r7, #0]
 8003454:	7023      	strb	r3, [r4, #0]
 8003456:	e6c4      	b.n	80031e2 <main+0x7c2>
 8003458:	f1ba 0f01 	cmp.w	sl, #1
 800345c:	f040 8125 	bne.w	80036aa <main+0xc8a>
 8003460:	f7fe f8d2 	bl	8001608 <CheckSecurity>
 8003464:	4604      	mov	r4, r0
 8003466:	2800      	cmp	r0, #0
 8003468:	f040 811f 	bne.w	80036aa <main+0xc8a>
 800346c:	f7fd fe70 	bl	8001150 <MotorStop>
 8003470:	4621      	mov	r1, r4
 8003472:	2214      	movs	r2, #20
 8003474:	a82c      	add	r0, sp, #176	; 0xb0
 8003476:	f005 fddd 	bl	8009034 <memset>
 800347a:	4622      	mov	r2, r4
 800347c:	a92c      	add	r1, sp, #176	; 0xb0
 800347e:	484b      	ldr	r0, [pc, #300]	; (80035ac <main+0xb8c>)
 8003480:	9427      	str	r4, [sp, #156]	; 0x9c
 8003482:	f004 fa24 	bl	80078ce <HAL_RTC_GetTime>
 8003486:	4622      	mov	r2, r4
 8003488:	a927      	add	r1, sp, #156	; 0x9c
 800348a:	4848      	ldr	r0, [pc, #288]	; (80035ac <main+0xb8c>)
 800348c:	4c4e      	ldr	r4, [pc, #312]	; (80035c8 <main+0xba8>)
 800348e:	f004 fa45 	bl	800791c <HAL_RTC_GetDate>
 8003492:	7933      	ldrb	r3, [r6, #4]
 8003494:	f89d 20b0 	ldrb.w	r2, [sp, #176]	; 0xb0
 8003498:	429a      	cmp	r2, r3
 800349a:	bf28      	it	cs
 800349c:	f884 a000 	strbcs.w	sl, [r4]
 80034a0:	f001 fee0 	bl	8005264 <HAL_GetTick>
 80034a4:	6bb3      	ldr	r3, [r6, #56]	; 0x38
 80034a6:	1ac0      	subs	r0, r0, r3
 80034a8:	6b73      	ldr	r3, [r6, #52]	; 0x34
 80034aa:	4298      	cmp	r0, r3
 80034ac:	bf24      	itt	cs
 80034ae:	2301      	movcs	r3, #1
 80034b0:	7023      	strbcs	r3, [r4, #0]
 80034b2:	7821      	ldrb	r1, [r4, #0]
 80034b4:	2901      	cmp	r1, #1
 80034b6:	f040 80a5 	bne.w	8003604 <main+0xbe4>
 80034ba:	f7fd fe29 	bl	8001110 <cutterOFF>
 80034be:	f44f 70fa 	mov.w	r0, #500	; 0x1f4
 80034c2:	f889 1000 	strb.w	r1, [r9]
 80034c6:	4f49      	ldr	r7, [pc, #292]	; (80035ec <main+0xbcc>)
 80034c8:	f001 fed2 	bl	8005270 <HAL_Delay>
 80034cc:	f20f 09c8 	addw	r9, pc, #200	; 0xc8
 80034d0:	e9d9 8900 	ldrd	r8, r9, [r9]
 80034d4:	46bb      	mov	fp, r7
 80034d6:	783b      	ldrb	r3, [r7, #0]
 80034d8:	2b02      	cmp	r3, #2
 80034da:	d10c      	bne.n	80034f6 <main+0xad6>
 80034dc:	f7fd fe38 	bl	8001150 <MotorStop>
 80034e0:	f89b 3000 	ldrb.w	r3, [fp]
 80034e4:	2b01      	cmp	r3, #1
 80034e6:	f43f ae7c 	beq.w	80031e2 <main+0x7c2>
 80034ea:	20c8      	movs	r0, #200	; 0xc8
 80034ec:	f7fe fa8e 	bl	8001a0c <MotorLeft.constprop.0>
 80034f0:	f7fe f88a 	bl	8001608 <CheckSecurity>
 80034f4:	e7f4      	b.n	80034e0 <main+0xac0>
 80034f6:	f7fd ff33 	bl	8001360 <MPU6050_Read_Accel>
 80034fa:	f7fd fd89 	bl	8001010 <ProcessIMUData>
 80034fe:	4b3c      	ldr	r3, [pc, #240]	; (80035f0 <main+0xbd0>)
 8003500:	4e2d      	ldr	r6, [pc, #180]	; (80035b8 <main+0xb98>)
 8003502:	ed93 7a02 	vldr	s14, [r3, #8]
 8003506:	eeb5 7ac0 	vcmpe.f32	s14, #0.0
 800350a:	eef1 fa10 	vmrs	APSR_nzcv, fpscr
 800350e:	bfc4      	itt	gt
 8003510:	eddf 7a38 	vldrgt	s15, [pc, #224]	; 80035f4 <main+0xbd4>
 8003514:	ee67 7a27 	vmulgt.f32	s15, s14, s15
 8003518:	eeb5 7ac0 	vcmpe.f32	s14, #0.0
 800351c:	bfc5      	ittet	gt
 800351e:	eef0 7ae7 	vabsgt.f32	s15, s15
 8003522:	eefc 7ae7 	vcvtgt.u32.f32	s15, s15
 8003526:	2000      	movle	r0, #0
 8003528:	ee17 3a90 	vmovgt	r3, s15
 800352c:	bfc8      	it	gt
 800352e:	b298      	uxthgt	r0, r3
 8003530:	eef1 fa10 	vmrs	APSR_nzcv, fpscr
 8003534:	bf44      	itt	mi
 8003536:	eddf 7a2f 	vldrmi	s15, [pc, #188]	; 80035f4 <main+0xbd4>
 800353a:	ee27 7a27 	vmulmi.f32	s14, s14, s15
 800353e:	f04f 0a00 	mov.w	sl, #0
 8003542:	bf44      	itt	mi
 8003544:	eeb0 7ac7 	vabsmi.f32	s14, s14
 8003548:	eebc 7ac7 	vcvtmi.u32.f32	s14, s14
 800354c:	f8c6 a034 	str.w	sl, [r6, #52]	; 0x34
 8003550:	bf4a      	itet	mi
 8003552:	ee17 3a10 	vmovmi	r3, s14
 8003556:	2400      	movpl	r4, #0
 8003558:	b29c      	uxthmi	r4, r3
 800355a:	f7fc ffe3 	bl	8000524 <__aeabi_ui2d>
 800355e:	4602      	mov	r2, r0
 8003560:	460b      	mov	r3, r1
 8003562:	4640      	mov	r0, r8
 8003564:	4649      	mov	r1, r9
 8003566:	f7fc fe9f 	bl	80002a8 <__aeabi_dsub>
 800356a:	f7fd fb2d 	bl	8000bc8 <__aeabi_d2uiz>
 800356e:	63b0      	str	r0, [r6, #56]	; 0x38
 8003570:	4620      	mov	r0, r4
 8003572:	f7fc ffd7 	bl	8000524 <__aeabi_ui2d>
 8003576:	4602      	mov	r2, r0
 8003578:	460b      	mov	r3, r1
 800357a:	4640      	mov	r0, r8
 800357c:	4649      	mov	r1, r9
 800357e:	f7fc fe93 	bl	80002a8 <__aeabi_dsub>
 8003582:	f7fd fb21 	bl	8000bc8 <__aeabi_d2uiz>
 8003586:	63f0      	str	r0, [r6, #60]	; 0x3c
 8003588:	f8c6 a040 	str.w	sl, [r6, #64]	; 0x40
 800358c:	f7fe f83c 	bl	8001608 <CheckSecurity>
 8003590:	e7a1      	b.n	80034d6 <main+0xab6>
 8003592:	bf00      	nop
 8003594:	f3af 8000 	nop.w
 8003598:	00000000 	.word	0x00000000
 800359c:	40a51800 	.word	0x40a51800
 80035a0:	200003f4 	.word	0x200003f4
 80035a4:	20000b58 	.word	0x20000b58
 80035a8:	0800f78b 	.word	0x0800f78b
 80035ac:	20001b24 	.word	0x20001b24
 80035b0:	0800f7a5 	.word	0x0800f7a5
 80035b4:	40020c00 	.word	0x40020c00
 80035b8:	40000800 	.word	0x40000800
 80035bc:	200003cc 	.word	0x200003cc
 80035c0:	200007fc 	.word	0x200007fc
 80035c4:	200008e0 	.word	0x200008e0
 80035c8:	200008e9 	.word	0x200008e9
 80035cc:	20000b68 	.word	0x20000b68
 80035d0:	0800f7c1 	.word	0x0800f7c1
 80035d4:	20000000 	.word	0x20000000
 80035d8:	2000039c 	.word	0x2000039c
 80035dc:	200003bd 	.word	0x200003bd
 80035e0:	200003a2 	.word	0x200003a2
 80035e4:	200003a0 	.word	0x200003a0
 80035e8:	0800f7da 	.word	0x0800f7da
 80035ec:	200003ab 	.word	0x200003ab
 80035f0:	20001aa4 	.word	0x20001aa4
 80035f4:	42480000 	.word	0x42480000
 80035f8:	200003c0 	.word	0x200003c0
 80035fc:	200003ac 	.word	0x200003ac
 8003600:	200003a1 	.word	0x200003a1
 8003604:	f44f 70fa 	mov.w	r0, #500	; 0x1f4
 8003608:	f001 fe32 	bl	8005270 <HAL_Delay>
 800360c:	f7fd fffc 	bl	8001608 <CheckSecurity>
 8003610:	4bc5      	ldr	r3, [pc, #788]	; (8003928 <main+0xf08>)
 8003612:	781b      	ldrb	r3, [r3, #0]
 8003614:	2b02      	cmp	r3, #2
 8003616:	d115      	bne.n	8003644 <main+0xc24>
 8003618:	4bc4      	ldr	r3, [pc, #784]	; (800392c <main+0xf0c>)
 800361a:	781b      	ldrb	r3, [r3, #0]
 800361c:	2b01      	cmp	r3, #1
 800361e:	d12d      	bne.n	800367c <main+0xc5c>
 8003620:	f44f 70c8 	mov.w	r0, #400	; 0x190
 8003624:	f7fe f9d4 	bl	80019d0 <MotorBackward.constprop.0>
 8003628:	f44f 70fa 	mov.w	r0, #500	; 0x1f4
 800362c:	f001 fe20 	bl	8005270 <HAL_Delay>
 8003630:	f44f 7048 	mov.w	r0, #800	; 0x320
 8003634:	f7fd ffbc 	bl	80015b0 <rnd>
 8003638:	f500 7096 	add.w	r0, r0, #300	; 0x12c
 800363c:	b280      	uxth	r0, r0
 800363e:	f7fe f9a1 	bl	8001984 <MotorRight.constprop.0>
 8003642:	e016      	b.n	8003672 <main+0xc52>
 8003644:	2b01      	cmp	r3, #1
 8003646:	d114      	bne.n	8003672 <main+0xc52>
 8003648:	4bb8      	ldr	r3, [pc, #736]	; (800392c <main+0xf0c>)
 800364a:	781b      	ldrb	r3, [r3, #0]
 800364c:	2b02      	cmp	r3, #2
 800364e:	d110      	bne.n	8003672 <main+0xc52>
 8003650:	f44f 70c8 	mov.w	r0, #400	; 0x190
 8003654:	f7fe f9bc 	bl	80019d0 <MotorBackward.constprop.0>
 8003658:	f44f 70fa 	mov.w	r0, #500	; 0x1f4
 800365c:	f001 fe08 	bl	8005270 <HAL_Delay>
 8003660:	f44f 7048 	mov.w	r0, #800	; 0x320
 8003664:	f7fd ffa4 	bl	80015b0 <rnd>
 8003668:	f500 7096 	add.w	r0, r0, #300	; 0x12c
 800366c:	b280      	uxth	r0, r0
 800366e:	f7fe f9cd 	bl	8001a0c <MotorLeft.constprop.0>
 8003672:	f44f 70fa 	mov.w	r0, #500	; 0x1f4
 8003676:	f001 fdfb 	bl	8005270 <HAL_Delay>
 800367a:	e5b2      	b.n	80031e2 <main+0x7c2>
 800367c:	2b02      	cmp	r3, #2
 800367e:	d1f8      	bne.n	8003672 <main+0xc52>
 8003680:	48ab      	ldr	r0, [pc, #684]	; (8003930 <main+0xf10>)
 8003682:	f7fd fe1d 	bl	80012c0 <Serial_Console>
 8003686:	f640 30b8 	movw	r0, #3000	; 0xbb8
 800368a:	f7fe f9a1 	bl	80019d0 <MotorBackward.constprop.0>
 800368e:	f44f 70fa 	mov.w	r0, #500	; 0x1f4
 8003692:	f001 fded 	bl	8005270 <HAL_Delay>
 8003696:	f44f 707a 	mov.w	r0, #1000	; 0x3e8
 800369a:	f7fd ff89 	bl	80015b0 <rnd>
 800369e:	f5b0 7ffa 	cmp.w	r0, #500	; 0x1f4
 80036a2:	f44f 7048 	mov.w	r0, #800	; 0x320
 80036a6:	d2c5      	bcs.n	8003634 <main+0xc14>
 80036a8:	e7dc      	b.n	8003664 <main+0xc44>
 80036aa:	782b      	ldrb	r3, [r5, #0]
 80036ac:	2b01      	cmp	r3, #1
 80036ae:	d161      	bne.n	8003774 <main+0xd54>
 80036b0:	4ba0      	ldr	r3, [pc, #640]	; (8003934 <main+0xf14>)
 80036b2:	6b9a      	ldr	r2, [r3, #56]	; 0x38
 80036b4:	2a00      	cmp	r2, #0
 80036b6:	d058      	beq.n	800376a <main+0xd4a>
 80036b8:	4b9f      	ldr	r3, [pc, #636]	; (8003938 <main+0xf18>)
 80036ba:	781b      	ldrb	r3, [r3, #0]
 80036bc:	2b01      	cmp	r3, #1
 80036be:	f47f ae81 	bne.w	80033c4 <main+0x9a4>
 80036c2:	4c9e      	ldr	r4, [pc, #632]	; (800393c <main+0xf1c>)
 80036c4:	f001 fdce 	bl	8005264 <HAL_GetTick>
 80036c8:	6823      	ldr	r3, [r4, #0]
 80036ca:	1ac0      	subs	r0, r0, r3
 80036cc:	4b9c      	ldr	r3, [pc, #624]	; (8003940 <main+0xf20>)
 80036ce:	781b      	ldrb	r3, [r3, #0]
 80036d0:	4298      	cmp	r0, r3
 80036d2:	f4ff ae77 	bcc.w	80033c4 <main+0x9a4>
 80036d6:	4b9b      	ldr	r3, [pc, #620]	; (8003944 <main+0xf24>)
 80036d8:	edd3 7a00 	vldr	s15, [r3]
 80036dc:	eefd 7ae7 	vcvt.s32.f32	s15, s15
 80036e0:	f44f 72b4 	mov.w	r2, #360	; 0x168
 80036e4:	ee17 0a90 	vmov	r0, s15
 80036e8:	edd3 7a04 	vldr	s15, [r3, #16]
 80036ec:	eefd 7ae7 	vcvt.s32.f32	s15, s15
 80036f0:	ee17 3a90 	vmov	r3, s15
 80036f4:	1ac3      	subs	r3, r0, r3
 80036f6:	fb93 f0f2 	sdiv	r0, r3, r2
 80036fa:	fb02 3010 	mls	r0, r2, r0, r3
 80036fe:	f500 7007 	add.w	r0, r0, #540	; 0x21c
 8003702:	fbb0 f3f2 	udiv	r3, r0, r2
 8003706:	fb02 0013 	mls	r0, r2, r3, r0
 800370a:	38b4      	subs	r0, #180	; 0xb4
 800370c:	b200      	sxth	r0, r0
 800370e:	f7fc ff19 	bl	8000544 <__aeabi_i2d>
 8003712:	4b8d      	ldr	r3, [pc, #564]	; (8003948 <main+0xf28>)
 8003714:	2200      	movs	r2, #0
 8003716:	f7fc ff7f 	bl	8000618 <__aeabi_dmul>
 800371a:	f7fd fa2d 	bl	8000b78 <__aeabi_d2iz>
 800371e:	b200      	sxth	r0, r0
 8003720:	2800      	cmp	r0, #0
 8003722:	f2c0 8143 	blt.w	80039ac <main+0xf8c>
 8003726:	bf14      	ite	ne
 8003728:	2301      	movne	r3, #1
 800372a:	2300      	moveq	r3, #0
 800372c:	4a87      	ldr	r2, [pc, #540]	; (800394c <main+0xf2c>)
 800372e:	4290      	cmp	r0, r2
 8003730:	bfb8      	it	lt
 8003732:	4610      	movlt	r0, r2
 8003734:	4a86      	ldr	r2, [pc, #536]	; (8003950 <main+0xf30>)
 8003736:	7816      	ldrb	r6, [r2, #0]
 8003738:	f5b0 7f7a 	cmp.w	r0, #1000	; 0x3e8
 800373c:	f640 521f 	movw	r2, #3359	; 0xd1f
 8003740:	f640 217f 	movw	r1, #2687	; 0xa7f
 8003744:	bfa8      	it	ge
 8003746:	f44f 707a 	movge.w	r0, #1000	; 0x3e8
 800374a:	2e01      	cmp	r6, #1
 800374c:	bf18      	it	ne
 800374e:	4611      	movne	r1, r2
 8003750:	2b01      	cmp	r3, #1
 8003752:	4a78      	ldr	r2, [pc, #480]	; (8003934 <main+0xf14>)
 8003754:	f040 812d 	bne.w	80039b2 <main+0xf92>
 8003758:	ea80 73e0 	eor.w	r3, r0, r0, asr #31
 800375c:	eba3 73e0 	sub.w	r3, r3, r0, asr #31
 8003760:	b29b      	uxth	r3, r3
 8003762:	1acb      	subs	r3, r1, r3
 8003764:	6393      	str	r3, [r2, #56]	; 0x38
 8003766:	63d1      	str	r1, [r2, #60]	; 0x3c
 8003768:	e12d      	b.n	80039c6 <main+0xfa6>
 800376a:	6bdb      	ldr	r3, [r3, #60]	; 0x3c
 800376c:	2b00      	cmp	r3, #0
 800376e:	f43f ae27 	beq.w	80033c0 <main+0x9a0>
 8003772:	e7a1      	b.n	80036b8 <main+0xc98>
 8003774:	2b00      	cmp	r3, #0
 8003776:	f47f ae25 	bne.w	80033c4 <main+0x9a4>
 800377a:	f7fd ff45 	bl	8001608 <CheckSecurity>
 800377e:	2801      	cmp	r0, #1
 8003780:	4607      	mov	r7, r0
 8003782:	f040 80ac 	bne.w	80038de <main+0xebe>
 8003786:	4e6f      	ldr	r6, [pc, #444]	; (8003944 <main+0xf24>)
 8003788:	f44f 70fa 	mov.w	r0, #500	; 0x1f4
 800378c:	f001 fd70 	bl	8005270 <HAL_Delay>
 8003790:	6833      	ldr	r3, [r6, #0]
 8003792:	4a70      	ldr	r2, [pc, #448]	; (8003954 <main+0xf34>)
 8003794:	6133      	str	r3, [r6, #16]
 8003796:	4b70      	ldr	r3, [pc, #448]	; (8003958 <main+0xf38>)
 8003798:	7812      	ldrb	r2, [r2, #0]
 800379a:	781c      	ldrb	r4, [r3, #0]
 800379c:	4314      	orrs	r4, r2
 800379e:	d06c      	beq.n	800387a <main+0xe5a>
 80037a0:	486e      	ldr	r0, [pc, #440]	; (800395c <main+0xf3c>)
 80037a2:	f8df b190 	ldr.w	fp, [pc, #400]	; 8003934 <main+0xf14>
 80037a6:	f7fd fd8b 	bl	80012c0 <Serial_Console>
 80037aa:	4b69      	ldr	r3, [pc, #420]	; (8003950 <main+0xf30>)
 80037ac:	2700      	movs	r7, #0
 80037ae:	701f      	strb	r7, [r3, #0]
 80037b0:	2301      	movs	r3, #1
 80037b2:	702b      	strb	r3, [r5, #0]
 80037b4:	f7fd fdd4 	bl	8001360 <MPU6050_Read_Accel>
 80037b8:	f7fd fc2a 	bl	8001010 <ProcessIMUData>
 80037bc:	f240 7ad3 	movw	sl, #2003	; 0x7d3
 80037c0:	edd6 7a02 	vldr	s15, [r6, #8]
 80037c4:	eef5 7ac0 	vcmpe.f32	s15, #0.0
 80037c8:	eef1 fa10 	vmrs	APSR_nzcv, fpscr
 80037cc:	bfc4      	itt	gt
 80037ce:	ed9f 7a64 	vldrgt	s14, [pc, #400]	; 8003960 <main+0xf40>
 80037d2:	ee27 7a87 	vmulgt.f32	s14, s15, s14
 80037d6:	eef5 7ac0 	vcmpe.f32	s15, #0.0
 80037da:	bfc5      	ittet	gt
 80037dc:	eeb0 7ac7 	vabsgt.f32	s14, s14
 80037e0:	eebc 7ac7 	vcvtgt.u32.f32	s14, s14
 80037e4:	2300      	movle	r3, #0
 80037e6:	ee17 3a10 	vmovgt	r3, s14
 80037ea:	bfc8      	it	gt
 80037ec:	b29b      	uxthgt	r3, r3
 80037ee:	eef1 fa10 	vmrs	APSR_nzcv, fpscr
 80037f2:	bf48      	it	mi
 80037f4:	ed9f 7a5a 	vldrmi	s14, [pc, #360]	; 8003960 <main+0xf40>
 80037f8:	930c      	str	r3, [sp, #48]	; 0x30
 80037fa:	bf48      	it	mi
 80037fc:	ee67 7a87 	vmulmi.f32	s15, s15, s14
 8003800:	4650      	mov	r0, sl
 8003802:	bf44      	itt	mi
 8003804:	eef0 7ae7 	vabsmi.f32	s15, s15
 8003808:	eefc 7ae7 	vcvtmi.u32.f32	s15, s15
 800380c:	f8cb 7034 	str.w	r7, [fp, #52]	; 0x34
 8003810:	bf4a      	itet	mi
 8003812:	ee17 2a90 	vmovmi	r2, s15
 8003816:	2400      	movpl	r4, #0
 8003818:	b294      	uxthmi	r4, r2
 800381a:	f7fc fe93 	bl	8000544 <__aeabi_i2d>
 800381e:	9b0c      	ldr	r3, [sp, #48]	; 0x30
 8003820:	4680      	mov	r8, r0
 8003822:	4618      	mov	r0, r3
 8003824:	4689      	mov	r9, r1
 8003826:	f7fc fe7d 	bl	8000524 <__aeabi_ui2d>
 800382a:	4602      	mov	r2, r0
 800382c:	460b      	mov	r3, r1
 800382e:	4640      	mov	r0, r8
 8003830:	4649      	mov	r1, r9
 8003832:	f7fc fd39 	bl	80002a8 <__aeabi_dsub>
 8003836:	f7fd f9c7 	bl	8000bc8 <__aeabi_d2uiz>
 800383a:	f8cb 0038 	str.w	r0, [fp, #56]	; 0x38
 800383e:	4620      	mov	r0, r4
 8003840:	f7fc fe70 	bl	8000524 <__aeabi_ui2d>
 8003844:	4602      	mov	r2, r0
 8003846:	460b      	mov	r3, r1
 8003848:	4640      	mov	r0, r8
 800384a:	4649      	mov	r1, r9
 800384c:	f7fc fd2c 	bl	80002a8 <__aeabi_dsub>
 8003850:	f7fd f9ba 	bl	8000bc8 <__aeabi_d2uiz>
 8003854:	f8cb 003c 	str.w	r0, [fp, #60]	; 0x3c
 8003858:	2001      	movs	r0, #1
 800385a:	f8cb 7040 	str.w	r7, [fp, #64]	; 0x40
 800385e:	f001 fd07 	bl	8005270 <HAL_Delay>
 8003862:	f7fd fed1 	bl	8001608 <CheckSecurity>
 8003866:	f10a 0a04 	add.w	sl, sl, #4
 800386a:	2800      	cmp	r0, #0
 800386c:	f43f ac34 	beq.w	80030d8 <main+0x6b8>
 8003870:	f640 531f 	movw	r3, #3359	; 0xd1f
 8003874:	459a      	cmp	sl, r3
 8003876:	d1a3      	bne.n	80037c0 <main+0xda0>
 8003878:	e4b3      	b.n	80031e2 <main+0x7c2>
 800387a:	483a      	ldr	r0, [pc, #232]	; (8003964 <main+0xf44>)
 800387c:	701f      	strb	r7, [r3, #0]
 800387e:	f7fd fd1f 	bl	80012c0 <Serial_Console>
 8003882:	f44f 707a 	mov.w	r0, #1000	; 0x3e8
 8003886:	f7fd fe93 	bl	80015b0 <rnd>
 800388a:	f5b0 7ffa 	cmp.w	r0, #500	; 0x1f4
 800388e:	f8df 80e0 	ldr.w	r8, [pc, #224]	; 8003970 <main+0xf50>
 8003892:	4f35      	ldr	r7, [pc, #212]	; (8003968 <main+0xf48>)
 8003894:	f44f 797a 	mov.w	r9, #1000	; 0x3e8
 8003898:	d210      	bcs.n	80038bc <main+0xe9c>
 800389a:	f001 fce3 	bl	8005264 <HAL_GetTick>
 800389e:	6038      	str	r0, [r7, #0]
 80038a0:	f8c8 9034 	str.w	r9, [r8, #52]	; 0x34
 80038a4:	2002      	movs	r0, #2
 80038a6:	f8c8 4038 	str.w	r4, [r8, #56]	; 0x38
 80038aa:	f001 fce1 	bl	8005270 <HAL_Delay>
 80038ae:	f109 0901 	add.w	r9, r9, #1
 80038b2:	f640 23be 	movw	r3, #2750	; 0xabe
 80038b6:	4599      	cmp	r9, r3
 80038b8:	d1ef      	bne.n	800389a <main+0xe7a>
 80038ba:	e771      	b.n	80037a0 <main+0xd80>
 80038bc:	f001 fcd2 	bl	8005264 <HAL_GetTick>
 80038c0:	6038      	str	r0, [r7, #0]
 80038c2:	f8c8 4034 	str.w	r4, [r8, #52]	; 0x34
 80038c6:	2002      	movs	r0, #2
 80038c8:	f8c8 9038 	str.w	r9, [r8, #56]	; 0x38
 80038cc:	f001 fcd0 	bl	8005270 <HAL_Delay>
 80038d0:	f109 0901 	add.w	r9, r9, #1
 80038d4:	f640 23be 	movw	r3, #2750	; 0xabe
 80038d8:	4599      	cmp	r9, r3
 80038da:	d1ef      	bne.n	80038bc <main+0xe9c>
 80038dc:	e760      	b.n	80037a0 <main+0xd80>
 80038de:	782b      	ldrb	r3, [r5, #0]
 80038e0:	2b00      	cmp	r3, #0
 80038e2:	f47f ac7e 	bne.w	80031e2 <main+0x7c2>
 80038e6:	f7fd fe8f 	bl	8001608 <CheckSecurity>
 80038ea:	2800      	cmp	r0, #0
 80038ec:	f47f ac79 	bne.w	80031e2 <main+0x7c2>
 80038f0:	f44f 70fa 	mov.w	r0, #500	; 0x1f4
 80038f4:	f001 fcbc 	bl	8005270 <HAL_Delay>
 80038f8:	481c      	ldr	r0, [pc, #112]	; (800396c <main+0xf4c>)
 80038fa:	f7fd fce1 	bl	80012c0 <Serial_Console>
 80038fe:	f7fd fe83 	bl	8001608 <CheckSecurity>
 8003902:	4b09      	ldr	r3, [pc, #36]	; (8003928 <main+0xf08>)
 8003904:	4a09      	ldr	r2, [pc, #36]	; (800392c <main+0xf0c>)
 8003906:	781b      	ldrb	r3, [r3, #0]
 8003908:	2b01      	cmp	r3, #1
 800390a:	d133      	bne.n	8003974 <main+0xf54>
 800390c:	7811      	ldrb	r1, [r2, #0]
 800390e:	f011 0ffd 	tst.w	r1, #253	; 0xfd
 8003912:	d12f      	bne.n	8003974 <main+0xf54>
 8003914:	f44f 7048 	mov.w	r0, #800	; 0x320
 8003918:	f7fd fe4a 	bl	80015b0 <rnd>
 800391c:	f500 7096 	add.w	r0, r0, #300	; 0x12c
 8003920:	b280      	uxth	r0, r0
 8003922:	f7fe f873 	bl	8001a0c <MotorLeft.constprop.0>
 8003926:	e45c      	b.n	80031e2 <main+0x7c2>
 8003928:	200003aa 	.word	0x200003aa
 800392c:	200003ab 	.word	0x200003ab
 8003930:	0800f7e5 	.word	0x0800f7e5
 8003934:	40000800 	.word	0x40000800
 8003938:	200003c1 	.word	0x200003c1
 800393c:	200003f0 	.word	0x200003f0
 8003940:	20000002 	.word	0x20000002
 8003944:	20001aa4 	.word	0x20001aa4
 8003948:	405e0000 	.word	0x405e0000
 800394c:	fffffc18 	.word	0xfffffc18
 8003950:	200008e8 	.word	0x200008e8
 8003954:	200008e9 	.word	0x200008e9
 8003958:	20000838 	.word	0x20000838
 800395c:	0800f7f6 	.word	0x0800f7f6
 8003960:	42480000 	.word	0x42480000
 8003964:	0800f806 	.word	0x0800f806
 8003968:	20001158 	.word	0x20001158
 800396c:	0800f818 	.word	0x0800f818
 8003970:	40000400 	.word	0x40000400
 8003974:	7812      	ldrb	r2, [r2, #0]
 8003976:	2a01      	cmp	r2, #1
 8003978:	d10d      	bne.n	8003996 <main+0xf76>
 800397a:	f013 0ffd 	tst.w	r3, #253	; 0xfd
 800397e:	f47f ac30 	bne.w	80031e2 <main+0x7c2>
 8003982:	f44f 7048 	mov.w	r0, #800	; 0x320
 8003986:	f7fd fe13 	bl	80015b0 <rnd>
 800398a:	f500 7096 	add.w	r0, r0, #300	; 0x12c
 800398e:	b280      	uxth	r0, r0
 8003990:	f7fd fff8 	bl	8001984 <MotorRight.constprop.0>
 8003994:	e425      	b.n	80031e2 <main+0x7c2>
 8003996:	2b02      	cmp	r3, #2
 8003998:	f47f ac23 	bne.w	80031e2 <main+0x7c2>
 800399c:	2a02      	cmp	r2, #2
 800399e:	f47f ac20 	bne.w	80031e2 <main+0x7c2>
 80039a2:	f640 30b8 	movw	r0, #3000	; 0xbb8
 80039a6:	f7fe f813 	bl	80019d0 <MotorBackward.constprop.0>
 80039aa:	e7ea      	b.n	8003982 <main+0xf62>
 80039ac:	f04f 33ff 	mov.w	r3, #4294967295
 80039b0:	e6bc      	b.n	800372c <main+0xd0c>
 80039b2:	3301      	adds	r3, #1
 80039b4:	6391      	str	r1, [r2, #56]	; 0x38
 80039b6:	f47f aed6 	bne.w	8003766 <main+0xd46>
 80039ba:	2800      	cmp	r0, #0
 80039bc:	bfb8      	it	lt
 80039be:	4240      	neglt	r0, r0
 80039c0:	b280      	uxth	r0, r0
 80039c2:	1a08      	subs	r0, r1, r0
 80039c4:	63d0      	str	r0, [r2, #60]	; 0x3c
 80039c6:	f001 fc4d 	bl	8005264 <HAL_GetTick>
 80039ca:	6020      	str	r0, [r4, #0]
 80039cc:	e4fa      	b.n	80033c4 <main+0x9a4>
 80039ce:	28e1      	cmp	r0, #225	; 0xe1
 80039d0:	f43f acfe 	beq.w	80033d0 <main+0x9b0>
 80039d4:	28f1      	cmp	r0, #241	; 0xf1
 80039d6:	f43f acfb 	beq.w	80033d0 <main+0x9b0>
 80039da:	28d1      	cmp	r0, #209	; 0xd1
 80039dc:	f43f acf8 	beq.w	80033d0 <main+0x9b0>
 80039e0:	f001 fc40 	bl	8005264 <HAL_GetTick>
 80039e4:	6823      	ldr	r3, [r4, #0]
 80039e6:	1ac0      	subs	r0, r0, r3
 80039e8:	2813      	cmp	r0, #19
 80039ea:	f240 80f8 	bls.w	8003bde <main+0x11be>
 80039ee:	f8df 83b8 	ldr.w	r8, [pc, #952]	; 8003da8 <main+0x1388>
 80039f2:	f898 3000 	ldrb.w	r3, [r8]
 80039f6:	2b01      	cmp	r3, #1
 80039f8:	f040 80f1 	bne.w	8003bde <main+0x11be>
 80039fc:	2364      	movs	r3, #100	; 0x64
 80039fe:	9300      	str	r3, [sp, #0]
 8003a00:	48bd      	ldr	r0, [pc, #756]	; (8003cf8 <main+0x12d8>)
 8003a02:	f8df 93a8 	ldr.w	r9, [pc, #936]	; 8003dac <main+0x138c>
 8003a06:	2302      	movs	r3, #2
 8003a08:	aa2c      	add	r2, sp, #176	; 0xb0
 8003a0a:	2190      	movs	r1, #144	; 0x90
 8003a0c:	f002 feb2 	bl	8006774 <HAL_I2C_Master_Receive>
 8003a10:	f8bd 40b0 	ldrh.w	r4, [sp, #176]	; 0xb0
 8003a14:	f899 6000 	ldrb.w	r6, [r9]
 8003a18:	ba64      	rev16	r4, r4
 8003a1a:	b2a4      	uxth	r4, r4
 8003a1c:	f5b4 4f00 	cmp.w	r4, #32768	; 0x8000
 8003a20:	bf88      	it	hi
 8003a22:	2400      	movhi	r4, #0
 8003a24:	2e0a      	cmp	r6, #10
 8003a26:	d007      	beq.n	8003a38 <main+0x1018>
 8003a28:	4bb4      	ldr	r3, [pc, #720]	; (8003cfc <main+0x12dc>)
 8003a2a:	781b      	ldrb	r3, [r3, #0]
 8003a2c:	2b0a      	cmp	r3, #10
 8003a2e:	d003      	beq.n	8003a38 <main+0x1018>
 8003a30:	4bb3      	ldr	r3, [pc, #716]	; (8003d00 <main+0x12e0>)
 8003a32:	781b      	ldrb	r3, [r3, #0]
 8003a34:	2b0a      	cmp	r3, #10
 8003a36:	d102      	bne.n	8003a3e <main+0x101e>
 8003a38:	4bb2      	ldr	r3, [pc, #712]	; (8003d04 <main+0x12e4>)
 8003a3a:	2201      	movs	r2, #1
 8003a3c:	701a      	strb	r2, [r3, #0]
 8003a3e:	783b      	ldrb	r3, [r7, #0]
 8003a40:	2bc1      	cmp	r3, #193	; 0xc1
 8003a42:	f040 81fc 	bne.w	8003e3e <main+0x141e>
 8003a46:	4bb0      	ldr	r3, [pc, #704]	; (8003d08 <main+0x12e8>)
 8003a48:	4620      	mov	r0, r4
 8003a4a:	601c      	str	r4, [r3, #0]
 8003a4c:	f7fc fd7a 	bl	8000544 <__aeabi_i2d>
 8003a50:	4bae      	ldr	r3, [pc, #696]	; (8003d0c <main+0x12ec>)
 8003a52:	2200      	movs	r2, #0
 8003a54:	f7fc fde0 	bl	8000618 <__aeabi_dmul>
 8003a58:	a3a3      	add	r3, pc, #652	; (adr r3, 8003ce8 <main+0x12c8>)
 8003a5a:	e9d3 2300 	ldrd	r2, r3, [r3]
 8003a5e:	f7fc fc23 	bl	80002a8 <__aeabi_dsub>
 8003a62:	4bab      	ldr	r3, [pc, #684]	; (8003d10 <main+0x12f0>)
 8003a64:	2200      	movs	r2, #0
 8003a66:	f7fc ff01 	bl	800086c <__aeabi_ddiv>
 8003a6a:	f7fd f8cd 	bl	8000c08 <__aeabi_d2f>
 8003a6e:	4ba9      	ldr	r3, [pc, #676]	; (8003d14 <main+0x12f4>)
 8003a70:	ee07 0a90 	vmov	s15, r0
 8003a74:	781a      	ldrb	r2, [r3, #0]
 8003a76:	4ba8      	ldr	r3, [pc, #672]	; (8003d18 <main+0x12f8>)
 8003a78:	eeb0 8ae7 	vabs.f32	s16, s15
 8003a7c:	b90a      	cbnz	r2, 8003a82 <main+0x1062>
 8003a7e:	ed83 8a00 	vstr	s16, [r3]
 8003a82:	edd3 7a00 	vldr	s15, [r3]
 8003a86:	4ba5      	ldr	r3, [pc, #660]	; (8003d1c <main+0x12fc>)
 8003a88:	4aa5      	ldr	r2, [pc, #660]	; (8003d20 <main+0x1300>)
 8003a8a:	ee38 8a67 	vsub.f32	s16, s16, s15
 8003a8e:	eddf 7aa5 	vldr	s15, [pc, #660]	; 8003d24 <main+0x1304>
 8003a92:	eeb0 8ac8 	vabs.f32	s16, s16
 8003a96:	ed83 8a00 	vstr	s16, [r3]
 8003a9a:	4ba1      	ldr	r3, [pc, #644]	; (8003d20 <main+0x1300>)
 8003a9c:	eb03 0386 	add.w	r3, r3, r6, lsl #2
 8003aa0:	3601      	adds	r6, #1
 8003aa2:	b2f6      	uxtb	r6, r6
 8003aa4:	2e14      	cmp	r6, #20
 8003aa6:	ed83 8a00 	vstr	s16, [r3]
 8003aaa:	bf08      	it	eq
 8003aac:	2300      	moveq	r3, #0
 8003aae:	f889 6000 	strb.w	r6, [r9]
 8003ab2:	bf08      	it	eq
 8003ab4:	f889 3000 	strbeq.w	r3, [r9]
 8003ab8:	2314      	movs	r3, #20
 8003aba:	ecb2 7a01 	vldmia	r2!, {s14}
 8003abe:	3b01      	subs	r3, #1
 8003ac0:	ee77 7a87 	vadd.f32	s15, s15, s14
 8003ac4:	d1f9      	bne.n	8003aba <main+0x109a>
 8003ac6:	eef3 6a04 	vmov.f32	s13, #52	; 0x41a00000  20.0
 8003aca:	ee87 7aa6 	vdiv.f32	s14, s15, s13
 8003ace:	4e96      	ldr	r6, [pc, #600]	; (8003d28 <main+0x1308>)
 8003ad0:	ee17 0a10 	vmov	r0, s14
 8003ad4:	ed86 7a00 	vstr	s14, [r6]
 8003ad8:	f7fc fd46 	bl	8000568 <__aeabi_f2d>
 8003adc:	a384      	add	r3, pc, #528	; (adr r3, 8003cf0 <main+0x12d0>)
 8003ade:	e9d3 2300 	ldrd	r2, r3, [r3]
 8003ae2:	f7fd f80b 	bl	8000afc <__aeabi_dcmplt>
 8003ae6:	b108      	cbz	r0, 8003aec <main+0x10cc>
 8003ae8:	4b90      	ldr	r3, [pc, #576]	; (8003d2c <main+0x130c>)
 8003aea:	6033      	str	r3, [r6, #0]
 8003aec:	4b90      	ldr	r3, [pc, #576]	; (8003d30 <main+0x1310>)
 8003aee:	edd3 7a08 	vldr	s15, [r3, #32]
 8003af2:	eeb4 8ae7 	vcmpe.f32	s16, s15
 8003af6:	eef1 fa10 	vmrs	APSR_nzcv, fpscr
 8003afa:	da0a      	bge.n	8003b12 <main+0x10f2>
 8003afc:	edd3 7a07 	vldr	s15, [r3, #28]
 8003b00:	ed96 7a00 	vldr	s14, [r6]
 8003b04:	ee67 7a87 	vmul.f32	s15, s15, s14
 8003b08:	eeb4 8ae7 	vcmpe.f32	s16, s15
 8003b0c:	eef1 fa10 	vmrs	APSR_nzcv, fpscr
 8003b10:	db2e      	blt.n	8003b70 <main+0x1150>
 8003b12:	782b      	ldrb	r3, [r5, #0]
 8003b14:	2b01      	cmp	r3, #1
 8003b16:	d12b      	bne.n	8003b70 <main+0x1150>
 8003b18:	4d7a      	ldr	r5, [pc, #488]	; (8003d04 <main+0x12e4>)
 8003b1a:	782b      	ldrb	r3, [r5, #0]
 8003b1c:	2b01      	cmp	r3, #1
 8003b1e:	d127      	bne.n	8003b70 <main+0x1150>
 8003b20:	ee18 0a10 	vmov	r0, s16
 8003b24:	f7fc fd20 	bl	8000568 <__aeabi_f2d>
 8003b28:	4602      	mov	r2, r0
 8003b2a:	460b      	mov	r3, r1
 8003b2c:	4881      	ldr	r0, [pc, #516]	; (8003d34 <main+0x1314>)
 8003b2e:	4982      	ldr	r1, [pc, #520]	; (8003d38 <main+0x1318>)
 8003b30:	f006 f908 	bl	8009d44 <siprintf>
 8003b34:	487f      	ldr	r0, [pc, #508]	; (8003d34 <main+0x1314>)
 8003b36:	f7fd fbc3 	bl	80012c0 <Serial_Console>
 8003b3a:	4880      	ldr	r0, [pc, #512]	; (8003d3c <main+0x131c>)
 8003b3c:	f44f 7180 	mov.w	r1, #256	; 0x100
 8003b40:	f002 fa88 	bl	8006054 <HAL_GPIO_ReadPin>
 8003b44:	2801      	cmp	r0, #1
 8003b46:	d013      	beq.n	8003b70 <main+0x1150>
 8003b48:	f7fd faee 	bl	8001128 <MotorBrake>
 8003b4c:	f44f 70fa 	mov.w	r0, #500	; 0x1f4
 8003b50:	f001 fb8e 	bl	8005270 <HAL_Delay>
 8003b54:	f44f 70c8 	mov.w	r0, #400	; 0x190
 8003b58:	f7fd ff3a 	bl	80019d0 <MotorBackward.constprop.0>
 8003b5c:	f44f 70fa 	mov.w	r0, #500	; 0x1f4
 8003b60:	f001 fb86 	bl	8005270 <HAL_Delay>
 8003b64:	f44f 7096 	mov.w	r0, #300	; 0x12c
 8003b68:	f7fd ff0c 	bl	8001984 <MotorRight.constprop.0>
 8003b6c:	2300      	movs	r3, #0
 8003b6e:	702b      	strb	r3, [r5, #0]
 8003b70:	783b      	ldrb	r3, [r7, #0]
 8003b72:	2bf1      	cmp	r3, #241	; 0xf1
 8003b74:	f040 81fe 	bne.w	8003f74 <main+0x1554>
 8003b78:	4b71      	ldr	r3, [pc, #452]	; (8003d40 <main+0x1320>)
 8003b7a:	4620      	mov	r0, r4
 8003b7c:	601c      	str	r4, [r3, #0]
 8003b7e:	f7fc fce1 	bl	8000544 <__aeabi_i2d>
 8003b82:	4b62      	ldr	r3, [pc, #392]	; (8003d0c <main+0x12ec>)
 8003b84:	2200      	movs	r2, #0
 8003b86:	f7fc fd47 	bl	8000618 <__aeabi_dmul>
 8003b8a:	a357      	add	r3, pc, #348	; (adr r3, 8003ce8 <main+0x12c8>)
 8003b8c:	e9d3 2300 	ldrd	r2, r3, [r3]
 8003b90:	f7fc fb8a 	bl	80002a8 <__aeabi_dsub>
 8003b94:	4b5e      	ldr	r3, [pc, #376]	; (8003d10 <main+0x12f0>)
 8003b96:	2200      	movs	r2, #0
 8003b98:	f7fc fe68 	bl	800086c <__aeabi_ddiv>
 8003b9c:	f7fd f834 	bl	8000c08 <__aeabi_d2f>
 8003ba0:	4b5c      	ldr	r3, [pc, #368]	; (8003d14 <main+0x12f4>)
 8003ba2:	ee07 0a90 	vmov	s15, r0
 8003ba6:	781a      	ldrb	r2, [r3, #0]
 8003ba8:	4b66      	ldr	r3, [pc, #408]	; (8003d44 <main+0x1324>)
 8003baa:	eef0 7ae7 	vabs.f32	s15, s15
 8003bae:	b90a      	cbnz	r2, 8003bb4 <main+0x1194>
 8003bb0:	edc3 7a00 	vstr	s15, [r3]
 8003bb4:	ed93 7a00 	vldr	s14, [r3]
 8003bb8:	4b63      	ldr	r3, [pc, #396]	; (8003d48 <main+0x1328>)
 8003bba:	ee77 7ac7 	vsub.f32	s15, s15, s14
 8003bbe:	eef0 7ae7 	vabs.f32	s15, s15
 8003bc2:	edc3 7a00 	vstr	s15, [r3]
 8003bc6:	4b5a      	ldr	r3, [pc, #360]	; (8003d30 <main+0x1310>)
 8003bc8:	ed93 7a09 	vldr	s14, [r3, #36]	; 0x24
 8003bcc:	eef4 7ac7 	vcmpe.f32	s15, s14
 8003bd0:	eef1 fa10 	vmrs	APSR_nzcv, fpscr
 8003bd4:	f2c0 8485 	blt.w	80044e2 <main+0x1ac2>
 8003bd8:	4b5c      	ldr	r3, [pc, #368]	; (8003d4c <main+0x132c>)
 8003bda:	2200      	movs	r2, #0
 8003bdc:	701a      	strb	r2, [r3, #0]
 8003bde:	4b54      	ldr	r3, [pc, #336]	; (8003d30 <main+0x1310>)
 8003be0:	ed93 7a03 	vldr	s14, [r3, #12]
 8003be4:	4b5a      	ldr	r3, [pc, #360]	; (8003d50 <main+0x1330>)
 8003be6:	edd3 7a00 	vldr	s15, [r3]
 8003bea:	eeb4 7ae7 	vcmpe.f32	s14, s15
 8003bee:	eef1 fa10 	vmrs	APSR_nzcv, fpscr
 8003bf2:	dd11      	ble.n	8003c18 <main+0x11f8>
 8003bf4:	4c57      	ldr	r4, [pc, #348]	; (8003d54 <main+0x1334>)
 8003bf6:	7823      	ldrb	r3, [r4, #0]
 8003bf8:	2b01      	cmp	r3, #1
 8003bfa:	d00d      	beq.n	8003c18 <main+0x11f8>
 8003bfc:	4956      	ldr	r1, [pc, #344]	; (8003d58 <main+0x1338>)
 8003bfe:	484d      	ldr	r0, [pc, #308]	; (8003d34 <main+0x1314>)
 8003c00:	f006 f931 	bl	8009e66 <strcpy>
 8003c04:	484b      	ldr	r0, [pc, #300]	; (8003d34 <main+0x1314>)
 8003c06:	f7fd fb4b 	bl	80012a0 <Serial_RPi>
 8003c0a:	484a      	ldr	r0, [pc, #296]	; (8003d34 <main+0x1314>)
 8003c0c:	f7fd fb58 	bl	80012c0 <Serial_Console>
 8003c10:	2301      	movs	r3, #1
 8003c12:	7023      	strb	r3, [r4, #0]
 8003c14:	f7fd fa7c 	bl	8001110 <cutterOFF>
 8003c18:	4b50      	ldr	r3, [pc, #320]	; (8003d5c <main+0x133c>)
 8003c1a:	781a      	ldrb	r2, [r3, #0]
 8003c1c:	2a01      	cmp	r2, #1
 8003c1e:	d10e      	bne.n	8003c3e <main+0x121e>
 8003c20:	2400      	movs	r4, #0
 8003c22:	701c      	strb	r4, [r3, #0]
 8003c24:	4b4e      	ldr	r3, [pc, #312]	; (8003d60 <main+0x1340>)
 8003c26:	781b      	ldrb	r3, [r3, #0]
 8003c28:	2b00      	cmp	r3, #0
 8003c2a:	f040 8329 	bne.w	8004280 <main+0x1860>
 8003c2e:	4a4d      	ldr	r2, [pc, #308]	; (8003d64 <main+0x1344>)
 8003c30:	6013      	str	r3, [r2, #0]
 8003c32:	4a4d      	ldr	r2, [pc, #308]	; (8003d68 <main+0x1348>)
 8003c34:	6013      	str	r3, [r2, #0]
 8003c36:	4a4d      	ldr	r2, [pc, #308]	; (8003d6c <main+0x134c>)
 8003c38:	6013      	str	r3, [r2, #0]
 8003c3a:	4a4d      	ldr	r2, [pc, #308]	; (8003d70 <main+0x1350>)
 8003c3c:	6013      	str	r3, [r2, #0]
 8003c3e:	4b4d      	ldr	r3, [pc, #308]	; (8003d74 <main+0x1354>)
 8003c40:	781b      	ldrb	r3, [r3, #0]
 8003c42:	2b01      	cmp	r3, #1
 8003c44:	d004      	beq.n	8003c50 <main+0x1230>
 8003c46:	4c4c      	ldr	r4, [pc, #304]	; (8003d78 <main+0x1358>)
 8003c48:	7823      	ldrb	r3, [r4, #0]
 8003c4a:	2b01      	cmp	r3, #1
 8003c4c:	f040 8401 	bne.w	8004452 <main+0x1a32>
 8003c50:	4b37      	ldr	r3, [pc, #220]	; (8003d30 <main+0x1310>)
 8003c52:	ed93 7a04 	vldr	s14, [r3, #16]
 8003c56:	4b3e      	ldr	r3, [pc, #248]	; (8003d50 <main+0x1330>)
 8003c58:	edd3 7a00 	vldr	s15, [r3]
 8003c5c:	eeb4 7ae7 	vcmpe.f32	s14, s15
 8003c60:	eef1 fa10 	vmrs	APSR_nzcv, fpscr
 8003c64:	d80f      	bhi.n	8003c86 <main+0x1266>
 8003c66:	4b45      	ldr	r3, [pc, #276]	; (8003d7c <main+0x135c>)
 8003c68:	781c      	ldrb	r4, [r3, #0]
 8003c6a:	b964      	cbnz	r4, 8003c86 <main+0x1266>
 8003c6c:	2201      	movs	r2, #1
 8003c6e:	701a      	strb	r2, [r3, #0]
 8003c70:	4843      	ldr	r0, [pc, #268]	; (8003d80 <main+0x1360>)
 8003c72:	4622      	mov	r2, r4
 8003c74:	f44f 6180 	mov.w	r1, #1024	; 0x400
 8003c78:	f002 f9f2 	bl	8006060 <HAL_GPIO_WritePin>
 8003c7c:	4841      	ldr	r0, [pc, #260]	; (8003d84 <main+0x1364>)
 8003c7e:	f7fd fb1f 	bl	80012c0 <Serial_Console>
 8003c82:	4b3c      	ldr	r3, [pc, #240]	; (8003d74 <main+0x1354>)
 8003c84:	701c      	strb	r4, [r3, #0]
 8003c86:	4940      	ldr	r1, [pc, #256]	; (8003d88 <main+0x1368>)
 8003c88:	4840      	ldr	r0, [pc, #256]	; (8003d8c <main+0x136c>)
 8003c8a:	2240      	movs	r2, #64	; 0x40
 8003c8c:	f004 fe24 	bl	80088d8 <HAL_UART_Receive_DMA>
 8003c90:	493f      	ldr	r1, [pc, #252]	; (8003d90 <main+0x1370>)
 8003c92:	4840      	ldr	r0, [pc, #256]	; (8003d94 <main+0x1374>)
 8003c94:	2240      	movs	r2, #64	; 0x40
 8003c96:	f004 fe1f 	bl	80088d8 <HAL_UART_Receive_DMA>
 8003c9a:	4b3f      	ldr	r3, [pc, #252]	; (8003d98 <main+0x1378>)
 8003c9c:	781b      	ldrb	r3, [r3, #0]
 8003c9e:	2b01      	cmp	r3, #1
 8003ca0:	d101      	bne.n	8003ca6 <main+0x1286>
 8003ca2:	f7fd fed9 	bl	8001a58 <parseCommand_Console>
 8003ca6:	4c3d      	ldr	r4, [pc, #244]	; (8003d9c <main+0x137c>)
 8003ca8:	7823      	ldrb	r3, [r4, #0]
 8003caa:	2b01      	cmp	r3, #1
 8003cac:	f47f a9e2 	bne.w	8003074 <main+0x654>
 8003cb0:	2500      	movs	r5, #0
 8003cb2:	223c      	movs	r2, #60	; 0x3c
 8003cb4:	4629      	mov	r1, r5
 8003cb6:	a82d      	add	r0, sp, #180	; 0xb4
 8003cb8:	952c      	str	r5, [sp, #176]	; 0xb0
 8003cba:	f005 f9bb 	bl	8009034 <memset>
 8003cbe:	4b34      	ldr	r3, [pc, #208]	; (8003d90 <main+0x1370>)
 8003cc0:	462a      	mov	r2, r5
 8003cc2:	f813 1b01 	ldrb.w	r1, [r3], #1
 8003cc6:	290d      	cmp	r1, #13
 8003cc8:	f040 8405 	bne.w	80044d6 <main+0x1ab6>
 8003ccc:	4930      	ldr	r1, [pc, #192]	; (8003d90 <main+0x1370>)
 8003cce:	a82c      	add	r0, sp, #176	; 0xb0
 8003cd0:	f005 f9a2 	bl	8009018 <memcpy>
 8003cd4:	4932      	ldr	r1, [pc, #200]	; (8003da0 <main+0x1380>)
 8003cd6:	4817      	ldr	r0, [pc, #92]	; (8003d34 <main+0x1314>)
 8003cd8:	aa2c      	add	r2, sp, #176	; 0xb0
 8003cda:	f006 f833 	bl	8009d44 <siprintf>
 8003cde:	4931      	ldr	r1, [pc, #196]	; (8003da4 <main+0x1384>)
 8003ce0:	a82c      	add	r0, sp, #176	; 0xb0
 8003ce2:	f7fc fa75 	bl	80001d0 <strcmp>
 8003ce6:	e063      	b.n	8003db0 <main+0x1390>
 8003ce8:	00000000 	.word	0x00000000
 8003cec:	40a38800 	.word	0x40a38800
 8003cf0:	9999999a 	.word	0x9999999a
 8003cf4:	3fb99999 	.word	0x3fb99999
 8003cf8:	20000b98 	.word	0x20000b98
 8003cfc:	200003ec 	.word	0x200003ec
 8003d00:	200003bc 	.word	0x200003bc
 8003d04:	200003c1 	.word	0x200003c1
 8003d08:	200003d4 	.word	0x200003d4
 8003d0c:	3fc80000 	.word	0x3fc80000
 8003d10:	40590000 	.word	0x40590000
 8003d14:	200003cc 	.word	0x200003cc
 8003d18:	200003d8 	.word	0x200003d8
 8003d1c:	20000b08 	.word	0x20000b08
 8003d20:	20000ab8 	.word	0x20000ab8
 8003d24:	00000000 	.word	0x00000000
 8003d28:	200003d0 	.word	0x200003d0
 8003d2c:	3dcccccd 	.word	0x3dcccccd
 8003d30:	20000b58 	.word	0x20000b58
 8003d34:	20000c4e 	.word	0x20000c4e
 8003d38:	0800f82f 	.word	0x0800f82f
 8003d3c:	40020000 	.word	0x40020000
 8003d40:	200003b0 	.word	0x200003b0
 8003d44:	200003b8 	.word	0x200003b8
 8003d48:	200003b4 	.word	0x200003b4
 8003d4c:	20000001 	.word	0x20000001
 8003d50:	20000004 	.word	0x20000004
 8003d54:	200008e9 	.word	0x200008e9
 8003d58:	0800f87d 	.word	0x0800f87d
 8003d5c:	200007f9 	.word	0x200007f9
 8003d60:	200003bf 	.word	0x200003bf
 8003d64:	20000820 	.word	0x20000820
 8003d68:	20000824 	.word	0x20000824
 8003d6c:	20000828 	.word	0x20000828
 8003d70:	2000082c 	.word	0x2000082c
 8003d74:	200003be 	.word	0x200003be
 8003d78:	200003c0 	.word	0x200003c0
 8003d7c:	200003ac 	.word	0x200003ac
 8003d80:	40020800 	.word	0x40020800
 8003d84:	0800fa03 	.word	0x0800fa03
 8003d88:	200010d0 	.word	0x200010d0
 8003d8c:	20001a60 	.word	0x20001a60
 8003d90:	20001f48 	.word	0x20001f48
 8003d94:	20001fe4 	.word	0x20001fe4
 8003d98:	20000818 	.word	0x20000818
 8003d9c:	20000819 	.word	0x20000819
 8003da0:	0800e709 	.word	0x0800e709
 8003da4:	0800fa5a 	.word	0x0800fa5a
 8003da8:	200003bd 	.word	0x200003bd
 8003dac:	200003dc 	.word	0x200003dc
 8003db0:	b940      	cbnz	r0, 8003dc4 <main+0x13a4>
 8003db2:	4b89      	ldr	r3, [pc, #548]	; (8003fd8 <main+0x15b8>)
 8003db4:	4889      	ldr	r0, [pc, #548]	; (8003fdc <main+0x15bc>)
 8003db6:	2201      	movs	r2, #1
 8003db8:	701a      	strb	r2, [r3, #0]
 8003dba:	f7fd fa71 	bl	80012a0 <Serial_RPi>
 8003dbe:	4887      	ldr	r0, [pc, #540]	; (8003fdc <main+0x15bc>)
 8003dc0:	f7fd fa7e 	bl	80012c0 <Serial_Console>
 8003dc4:	4986      	ldr	r1, [pc, #536]	; (8003fe0 <main+0x15c0>)
 8003dc6:	a82c      	add	r0, sp, #176	; 0xb0
 8003dc8:	f7fc fa02 	bl	80001d0 <strcmp>
 8003dcc:	b928      	cbnz	r0, 8003dda <main+0x13ba>
 8003dce:	4b85      	ldr	r3, [pc, #532]	; (8003fe4 <main+0x15c4>)
 8003dd0:	781b      	ldrb	r3, [r3, #0]
 8003dd2:	2b01      	cmp	r3, #1
 8003dd4:	bf04      	itt	eq
 8003dd6:	4a84      	ldreq	r2, [pc, #528]	; (8003fe8 <main+0x15c8>)
 8003dd8:	7013      	strbeq	r3, [r2, #0]
 8003dda:	4984      	ldr	r1, [pc, #528]	; (8003fec <main+0x15cc>)
 8003ddc:	a82c      	add	r0, sp, #176	; 0xb0
 8003dde:	f7fc f9f7 	bl	80001d0 <strcmp>
 8003de2:	b928      	cbnz	r0, 8003df0 <main+0x13d0>
 8003de4:	4b7f      	ldr	r3, [pc, #508]	; (8003fe4 <main+0x15c4>)
 8003de6:	781b      	ldrb	r3, [r3, #0]
 8003de8:	2b01      	cmp	r3, #1
 8003dea:	bf04      	itt	eq
 8003dec:	4a80      	ldreq	r2, [pc, #512]	; (8003ff0 <main+0x15d0>)
 8003dee:	7013      	strbeq	r3, [r2, #0]
 8003df0:	4980      	ldr	r1, [pc, #512]	; (8003ff4 <main+0x15d4>)
 8003df2:	a82c      	add	r0, sp, #176	; 0xb0
 8003df4:	f7fc f9ec 	bl	80001d0 <strcmp>
 8003df8:	b928      	cbnz	r0, 8003e06 <main+0x13e6>
 8003dfa:	4b7a      	ldr	r3, [pc, #488]	; (8003fe4 <main+0x15c4>)
 8003dfc:	781b      	ldrb	r3, [r3, #0]
 8003dfe:	2b01      	cmp	r3, #1
 8003e00:	bf04      	itt	eq
 8003e02:	4a7d      	ldreq	r2, [pc, #500]	; (8003ff8 <main+0x15d8>)
 8003e04:	7013      	strbeq	r3, [r2, #0]
 8003e06:	497d      	ldr	r1, [pc, #500]	; (8003ffc <main+0x15dc>)
 8003e08:	a82c      	add	r0, sp, #176	; 0xb0
 8003e0a:	f7fc f9e1 	bl	80001d0 <strcmp>
 8003e0e:	b910      	cbnz	r0, 8003e16 <main+0x13f6>
 8003e10:	4b7b      	ldr	r3, [pc, #492]	; (8004000 <main+0x15e0>)
 8003e12:	2201      	movs	r2, #1
 8003e14:	701a      	strb	r2, [r3, #0]
 8003e16:	497b      	ldr	r1, [pc, #492]	; (8004004 <main+0x15e4>)
 8003e18:	a82c      	add	r0, sp, #176	; 0xb0
 8003e1a:	f7fc f9d9 	bl	80001d0 <strcmp>
 8003e1e:	b938      	cbnz	r0, 8003e30 <main+0x1410>
 8003e20:	4b6d      	ldr	r3, [pc, #436]	; (8003fd8 <main+0x15b8>)
 8003e22:	7018      	strb	r0, [r3, #0]
 8003e24:	4878      	ldr	r0, [pc, #480]	; (8004008 <main+0x15e8>)
 8003e26:	f7fd fa3b 	bl	80012a0 <Serial_RPi>
 8003e2a:	4877      	ldr	r0, [pc, #476]	; (8004008 <main+0x15e8>)
 8003e2c:	f7fd fa48 	bl	80012c0 <Serial_Console>
 8003e30:	4876      	ldr	r0, [pc, #472]	; (800400c <main+0x15ec>)
 8003e32:	f7fd fa45 	bl	80012c0 <Serial_Console>
 8003e36:	2300      	movs	r3, #0
 8003e38:	7023      	strb	r3, [r4, #0]
 8003e3a:	f7ff b91b 	b.w	8003074 <main+0x654>
 8003e3e:	2be1      	cmp	r3, #225	; 0xe1
 8003e40:	f47f ae96 	bne.w	8003b70 <main+0x1150>
 8003e44:	4b72      	ldr	r3, [pc, #456]	; (8004010 <main+0x15f0>)
 8003e46:	4620      	mov	r0, r4
 8003e48:	601c      	str	r4, [r3, #0]
 8003e4a:	f7fc fb7b 	bl	8000544 <__aeabi_i2d>
 8003e4e:	4b71      	ldr	r3, [pc, #452]	; (8004014 <main+0x15f4>)
 8003e50:	2200      	movs	r2, #0
 8003e52:	f7fc fbe1 	bl	8000618 <__aeabi_dmul>
 8003e56:	a35c      	add	r3, pc, #368	; (adr r3, 8003fc8 <main+0x15a8>)
 8003e58:	e9d3 2300 	ldrd	r2, r3, [r3]
 8003e5c:	f7fc fa24 	bl	80002a8 <__aeabi_dsub>
 8003e60:	4b6d      	ldr	r3, [pc, #436]	; (8004018 <main+0x15f8>)
 8003e62:	2200      	movs	r2, #0
 8003e64:	f7fc fd02 	bl	800086c <__aeabi_ddiv>
 8003e68:	f7fc fece 	bl	8000c08 <__aeabi_d2f>
 8003e6c:	4b6b      	ldr	r3, [pc, #428]	; (800401c <main+0x15fc>)
 8003e6e:	ee07 0a90 	vmov	s15, r0
 8003e72:	781a      	ldrb	r2, [r3, #0]
 8003e74:	4b6a      	ldr	r3, [pc, #424]	; (8004020 <main+0x1600>)
 8003e76:	eeb0 8ae7 	vabs.f32	s16, s15
 8003e7a:	b90a      	cbnz	r2, 8003e80 <main+0x1460>
 8003e7c:	ed83 8a00 	vstr	s16, [r3]
 8003e80:	edd3 7a00 	vldr	s15, [r3]
 8003e84:	4967      	ldr	r1, [pc, #412]	; (8004024 <main+0x1604>)
 8003e86:	4b68      	ldr	r3, [pc, #416]	; (8004028 <main+0x1608>)
 8003e88:	4a68      	ldr	r2, [pc, #416]	; (800402c <main+0x160c>)
 8003e8a:	ee38 8a67 	vsub.f32	s16, s16, s15
 8003e8e:	eddf 7a68 	vldr	s15, [pc, #416]	; 8004030 <main+0x1610>
 8003e92:	eeb0 8ac8 	vabs.f32	s16, s16
 8003e96:	ed83 8a00 	vstr	s16, [r3]
 8003e9a:	780b      	ldrb	r3, [r1, #0]
 8003e9c:	eb02 0283 	add.w	r2, r2, r3, lsl #2
 8003ea0:	3301      	adds	r3, #1
 8003ea2:	b2db      	uxtb	r3, r3
 8003ea4:	2b14      	cmp	r3, #20
 8003ea6:	700b      	strb	r3, [r1, #0]
 8003ea8:	ed82 8a00 	vstr	s16, [r2]
 8003eac:	bf08      	it	eq
 8003eae:	2300      	moveq	r3, #0
 8003eb0:	4a5e      	ldr	r2, [pc, #376]	; (800402c <main+0x160c>)
 8003eb2:	bf08      	it	eq
 8003eb4:	700b      	strbeq	r3, [r1, #0]
 8003eb6:	2314      	movs	r3, #20
 8003eb8:	ecb2 7a01 	vldmia	r2!, {s14}
 8003ebc:	3b01      	subs	r3, #1
 8003ebe:	ee77 7a87 	vadd.f32	s15, s15, s14
 8003ec2:	d1f9      	bne.n	8003eb8 <main+0x1498>
 8003ec4:	eef3 6a04 	vmov.f32	s13, #52	; 0x41a00000  20.0
 8003ec8:	ee87 7aa6 	vdiv.f32	s14, s15, s13
 8003ecc:	4e59      	ldr	r6, [pc, #356]	; (8004034 <main+0x1614>)
 8003ece:	ee17 0a10 	vmov	r0, s14
 8003ed2:	ed86 7a00 	vstr	s14, [r6]
 8003ed6:	f7fc fb47 	bl	8000568 <__aeabi_f2d>
 8003eda:	a33d      	add	r3, pc, #244	; (adr r3, 8003fd0 <main+0x15b0>)
 8003edc:	e9d3 2300 	ldrd	r2, r3, [r3]
 8003ee0:	f7fc fe0c 	bl	8000afc <__aeabi_dcmplt>
 8003ee4:	b108      	cbz	r0, 8003eea <main+0x14ca>
 8003ee6:	4b54      	ldr	r3, [pc, #336]	; (8004038 <main+0x1618>)
 8003ee8:	6033      	str	r3, [r6, #0]
 8003eea:	4b54      	ldr	r3, [pc, #336]	; (800403c <main+0x161c>)
 8003eec:	edd3 7a08 	vldr	s15, [r3, #32]
 8003ef0:	eeb4 8ae7 	vcmpe.f32	s16, s15
 8003ef4:	eef1 fa10 	vmrs	APSR_nzcv, fpscr
 8003ef8:	da0b      	bge.n	8003f12 <main+0x14f2>
 8003efa:	edd3 7a07 	vldr	s15, [r3, #28]
 8003efe:	ed96 7a00 	vldr	s14, [r6]
 8003f02:	ee67 7a87 	vmul.f32	s15, s15, s14
 8003f06:	eeb4 8ae7 	vcmpe.f32	s16, s15
 8003f0a:	eef1 fa10 	vmrs	APSR_nzcv, fpscr
 8003f0e:	f6ff ae2f 	blt.w	8003b70 <main+0x1150>
 8003f12:	782b      	ldrb	r3, [r5, #0]
 8003f14:	2b01      	cmp	r3, #1
 8003f16:	f47f ae2b 	bne.w	8003b70 <main+0x1150>
 8003f1a:	4d49      	ldr	r5, [pc, #292]	; (8004040 <main+0x1620>)
 8003f1c:	782b      	ldrb	r3, [r5, #0]
 8003f1e:	2b01      	cmp	r3, #1
 8003f20:	f47f ae26 	bne.w	8003b70 <main+0x1150>
 8003f24:	ee18 0a10 	vmov	r0, s16
 8003f28:	f7fc fb1e 	bl	8000568 <__aeabi_f2d>
 8003f2c:	4602      	mov	r2, r0
 8003f2e:	460b      	mov	r3, r1
 8003f30:	4836      	ldr	r0, [pc, #216]	; (800400c <main+0x15ec>)
 8003f32:	4944      	ldr	r1, [pc, #272]	; (8004044 <main+0x1624>)
 8003f34:	f005 ff06 	bl	8009d44 <siprintf>
 8003f38:	4834      	ldr	r0, [pc, #208]	; (800400c <main+0x15ec>)
 8003f3a:	f7fd f9c1 	bl	80012c0 <Serial_Console>
 8003f3e:	4842      	ldr	r0, [pc, #264]	; (8004048 <main+0x1628>)
 8003f40:	f44f 7180 	mov.w	r1, #256	; 0x100
 8003f44:	f002 f886 	bl	8006054 <HAL_GPIO_ReadPin>
 8003f48:	2801      	cmp	r0, #1
 8003f4a:	f43f ae11 	beq.w	8003b70 <main+0x1150>
 8003f4e:	f7fd f8eb 	bl	8001128 <MotorBrake>
 8003f52:	f44f 70fa 	mov.w	r0, #500	; 0x1f4
 8003f56:	f001 f98b 	bl	8005270 <HAL_Delay>
 8003f5a:	f44f 70c8 	mov.w	r0, #400	; 0x190
 8003f5e:	f7fd fd37 	bl	80019d0 <MotorBackward.constprop.0>
 8003f62:	f44f 70fa 	mov.w	r0, #500	; 0x1f4
 8003f66:	f001 f983 	bl	8005270 <HAL_Delay>
 8003f6a:	f44f 7096 	mov.w	r0, #300	; 0x12c
 8003f6e:	f7fd fd4d 	bl	8001a0c <MotorLeft.constprop.0>
 8003f72:	e5fb      	b.n	8003b6c <main+0x114c>
 8003f74:	2bd1      	cmp	r3, #209	; 0xd1
 8003f76:	d122      	bne.n	8003fbe <main+0x159e>
 8003f78:	4b34      	ldr	r3, [pc, #208]	; (800404c <main+0x162c>)
 8003f7a:	4620      	mov	r0, r4
 8003f7c:	601c      	str	r4, [r3, #0]
 8003f7e:	f7fc fae1 	bl	8000544 <__aeabi_i2d>
 8003f82:	2200      	movs	r2, #0
 8003f84:	4b23      	ldr	r3, [pc, #140]	; (8004014 <main+0x15f4>)
 8003f86:	f7fc fb47 	bl	8000618 <__aeabi_dmul>
 8003f8a:	4b2c      	ldr	r3, [pc, #176]	; (800403c <main+0x161c>)
 8003f8c:	4604      	mov	r4, r0
 8003f8e:	6bd8      	ldr	r0, [r3, #60]	; 0x3c
 8003f90:	460d      	mov	r5, r1
 8003f92:	f7fc fae9 	bl	8000568 <__aeabi_f2d>
 8003f96:	4602      	mov	r2, r0
 8003f98:	460b      	mov	r3, r1
 8003f9a:	4620      	mov	r0, r4
 8003f9c:	4629      	mov	r1, r5
 8003f9e:	f7fc fb3b 	bl	8000618 <__aeabi_dmul>
 8003fa2:	4b2b      	ldr	r3, [pc, #172]	; (8004050 <main+0x1630>)
 8003fa4:	2200      	movs	r2, #0
 8003fa6:	f7fc fc61 	bl	800086c <__aeabi_ddiv>
 8003faa:	f7fc fe2d 	bl	8000c08 <__aeabi_d2f>
 8003fae:	4b29      	ldr	r3, [pc, #164]	; (8004054 <main+0x1634>)
 8003fb0:	6018      	str	r0, [r3, #0]
 8003fb2:	23c1      	movs	r3, #193	; 0xc1
 8003fb4:	703b      	strb	r3, [r7, #0]
 8003fb6:	2300      	movs	r3, #0
 8003fb8:	f888 3000 	strb.w	r3, [r8]
 8003fbc:	e60f      	b.n	8003bde <main+0x11be>
 8003fbe:	2bc1      	cmp	r3, #193	; 0xc1
 8003fc0:	f040 8291 	bne.w	80044e6 <main+0x1ac6>
 8003fc4:	23e1      	movs	r3, #225	; 0xe1
 8003fc6:	e7f5      	b.n	8003fb4 <main+0x1594>
 8003fc8:	00000000 	.word	0x00000000
 8003fcc:	40a38800 	.word	0x40a38800
 8003fd0:	9999999a 	.word	0x9999999a
 8003fd4:	3fb99999 	.word	0x3fb99999
 8003fd8:	20000001 	.word	0x20000001
 8003fdc:	0800fa5e 	.word	0x0800fa5e
 8003fe0:	0800fa6c 	.word	0x0800fa6c
 8003fe4:	200007fe 	.word	0x200007fe
 8003fe8:	200003a1 	.word	0x200003a1
 8003fec:	0800fa77 	.word	0x0800fa77
 8003ff0:	200003a2 	.word	0x200003a2
 8003ff4:	0800fa83 	.word	0x0800fa83
 8003ff8:	200003a0 	.word	0x200003a0
 8003ffc:	0800fa8f 	.word	0x0800fa8f
 8004000:	200008e9 	.word	0x200008e9
 8004004:	0800fa96 	.word	0x0800fa96
 8004008:	0800fa9b 	.word	0x0800fa9b
 800400c:	20000c4e 	.word	0x20000c4e
 8004010:	200003e4 	.word	0x200003e4
 8004014:	3fc80000 	.word	0x3fc80000
 8004018:	40590000 	.word	0x40590000
 800401c:	200003cc 	.word	0x200003cc
 8004020:	200003e8 	.word	0x200003e8
 8004024:	200003ec 	.word	0x200003ec
 8004028:	20002028 	.word	0x20002028
 800402c:	20000a64 	.word	0x20000a64
 8004030:	00000000 	.word	0x00000000
 8004034:	200003e0 	.word	0x200003e0
 8004038:	3dcccccd 	.word	0x3dcccccd
 800403c:	20000b58 	.word	0x20000b58
 8004040:	200003c1 	.word	0x200003c1
 8004044:	0800f856 	.word	0x0800f856
 8004048:	40020000 	.word	0x40020000
 800404c:	2000081c 	.word	0x2000081c
 8004050:	408f4000 	.word	0x408f4000
 8004054:	20000004 	.word	0x20000004
 8004058:	f7fd fad6 	bl	8001608 <CheckSecurity>
 800405c:	f001 f902 	bl	8005264 <HAL_GetTick>
 8004060:	f7fc fa60 	bl	8000524 <__aeabi_ui2d>
 8004064:	4b7a      	ldr	r3, [pc, #488]	; (8004250 <main+0x1830>)
 8004066:	4c7b      	ldr	r4, [pc, #492]	; (8004254 <main+0x1834>)
 8004068:	4d7b      	ldr	r5, [pc, #492]	; (8004258 <main+0x1838>)
 800406a:	e9d3 2300 	ldrd	r2, r3, [r3]
 800406e:	f7fc f91b 	bl	80002a8 <__aeabi_dsub>
 8004072:	4b7a      	ldr	r3, [pc, #488]	; (800425c <main+0x183c>)
 8004074:	4680      	mov	r8, r0
 8004076:	4689      	mov	r9, r1
 8004078:	e9c3 8900 	strd	r8, r9, [r3]
 800407c:	4b78      	ldr	r3, [pc, #480]	; (8004260 <main+0x1840>)
 800407e:	781b      	ldrb	r3, [r3, #0]
 8004080:	2b02      	cmp	r3, #2
 8004082:	f040 80af 	bne.w	80041e4 <main+0x17c4>
 8004086:	4602      	mov	r2, r0
 8004088:	460b      	mov	r3, r1
 800408a:	e9d4 0100 	ldrd	r0, r1, [r4]
 800408e:	f7fc f90b 	bl	80002a8 <__aeabi_dsub>
 8004092:	2200      	movs	r2, #0
 8004094:	2300      	movs	r3, #0
 8004096:	e9c4 0100 	strd	r0, r1, [r4]
 800409a:	e9c5 2300 	strd	r2, r3, [r5]
 800409e:	e9d5 2300 	ldrd	r2, r3, [r5]
 80040a2:	e9d4 0100 	ldrd	r0, r1, [r4]
 80040a6:	f7fc f901 	bl	80002ac <__adddf3>
 80040aa:	4602      	mov	r2, r0
 80040ac:	460b      	mov	r3, r1
 80040ae:	a164      	add	r1, pc, #400	; (adr r1, 8004240 <main+0x1820>)
 80040b0:	e9d1 0100 	ldrd	r0, r1, [r1]
 80040b4:	f7fc f8f8 	bl	80002a8 <__aeabi_dsub>
 80040b8:	4b6a      	ldr	r3, [pc, #424]	; (8004264 <main+0x1844>)
 80040ba:	4e6b      	ldr	r6, [pc, #428]	; (8004268 <main+0x1848>)
 80040bc:	4f6b      	ldr	r7, [pc, #428]	; (800426c <main+0x184c>)
 80040be:	4682      	mov	sl, r0
 80040c0:	468b      	mov	fp, r1
 80040c2:	4602      	mov	r2, r0
 80040c4:	e9c3 ab00 	strd	sl, fp, [r3]
 80040c8:	4640      	mov	r0, r8
 80040ca:	460b      	mov	r3, r1
 80040cc:	4649      	mov	r1, r9
 80040ce:	f7fc faa3 	bl	8000618 <__aeabi_dmul>
 80040d2:	e9d6 2300 	ldrd	r2, r3, [r6]
 80040d6:	f7fc f8e9 	bl	80002ac <__adddf3>
 80040da:	4604      	mov	r4, r0
 80040dc:	460d      	mov	r5, r1
 80040de:	e9d7 2300 	ldrd	r2, r3, [r7]
 80040e2:	e9c6 4500 	strd	r4, r5, [r6]
 80040e6:	4650      	mov	r0, sl
 80040e8:	4659      	mov	r1, fp
 80040ea:	f7fc f8dd 	bl	80002a8 <__aeabi_dsub>
 80040ee:	4642      	mov	r2, r8
 80040f0:	464b      	mov	r3, r9
 80040f2:	f7fc fbbb 	bl	800086c <__aeabi_ddiv>
 80040f6:	4e5e      	ldr	r6, [pc, #376]	; (8004270 <main+0x1850>)
 80040f8:	4b5e      	ldr	r3, [pc, #376]	; (8004274 <main+0x1854>)
 80040fa:	4680      	mov	r8, r0
 80040fc:	4689      	mov	r9, r1
 80040fe:	6ab0      	ldr	r0, [r6, #40]	; 0x28
 8004100:	e9c3 8900 	strd	r8, r9, [r3]
 8004104:	f7fc fa30 	bl	8000568 <__aeabi_f2d>
 8004108:	4652      	mov	r2, sl
 800410a:	465b      	mov	r3, fp
 800410c:	f7fc fa84 	bl	8000618 <__aeabi_dmul>
 8004110:	ec41 0b18 	vmov	d8, r0, r1
 8004114:	6af0      	ldr	r0, [r6, #44]	; 0x2c
 8004116:	f7fc fa27 	bl	8000568 <__aeabi_f2d>
 800411a:	4622      	mov	r2, r4
 800411c:	462b      	mov	r3, r5
 800411e:	f7fc fa7b 	bl	8000618 <__aeabi_dmul>
 8004122:	4602      	mov	r2, r0
 8004124:	460b      	mov	r3, r1
 8004126:	ec51 0b18 	vmov	r0, r1, d8
 800412a:	f7fc f8bf 	bl	80002ac <__adddf3>
 800412e:	4604      	mov	r4, r0
 8004130:	6b30      	ldr	r0, [r6, #48]	; 0x30
 8004132:	460d      	mov	r5, r1
 8004134:	f7fc fa18 	bl	8000568 <__aeabi_f2d>
 8004138:	4642      	mov	r2, r8
 800413a:	464b      	mov	r3, r9
 800413c:	f7fc fa6c 	bl	8000618 <__aeabi_dmul>
 8004140:	4602      	mov	r2, r0
 8004142:	460b      	mov	r3, r1
 8004144:	4620      	mov	r0, r4
 8004146:	4629      	mov	r1, r5
 8004148:	f7fc f8b0 	bl	80002ac <__adddf3>
 800414c:	e9c7 ab00 	strd	sl, fp, [r7]
 8004150:	ec41 0b18 	vmov	d8, r0, r1
 8004154:	f001 f886 	bl	8005264 <HAL_GetTick>
 8004158:	f7fc f9e4 	bl	8000524 <__aeabi_ui2d>
 800415c:	eeb0 0a48 	vmov.f32	s0, s16
 8004160:	eef0 0a68 	vmov.f32	s1, s17
 8004164:	4b3a      	ldr	r3, [pc, #232]	; (8004250 <main+0x1830>)
 8004166:	e9c3 0100 	strd	r0, r1, [r3]
 800416a:	f009 ffc7 	bl	800e0fc <round>
 800416e:	ec55 4b10 	vmov	r4, r5, d0
 8004172:	a333      	add	r3, pc, #204	; (adr r3, 8004240 <main+0x1820>)
 8004174:	e9d3 2300 	ldrd	r2, r3, [r3]
 8004178:	ee10 0a10 	vmov	r0, s0
 800417c:	4629      	mov	r1, r5
 800417e:	f7fc f895 	bl	80002ac <__adddf3>
 8004182:	f7fc fcf9 	bl	8000b78 <__aeabi_d2iz>
 8004186:	462b      	mov	r3, r5
 8004188:	4606      	mov	r6, r0
 800418a:	4622      	mov	r2, r4
 800418c:	a12c      	add	r1, pc, #176	; (adr r1, 8004240 <main+0x1820>)
 800418e:	e9d1 0100 	ldrd	r0, r1, [r1]
 8004192:	f7fc f889 	bl	80002a8 <__aeabi_dsub>
 8004196:	f7fc fcef 	bl	8000b78 <__aeabi_d2iz>
 800419a:	f5b6 6f48 	cmp.w	r6, #3200	; 0xc80
 800419e:	f240 53dc 	movw	r3, #1500	; 0x5dc
 80041a2:	bfa8      	it	ge
 80041a4:	f44f 6648 	movge.w	r6, #3200	; 0xc80
 80041a8:	f5b0 6f48 	cmp.w	r0, #3200	; 0xc80
 80041ac:	bfa8      	it	ge
 80041ae:	f44f 6048 	movge.w	r0, #3200	; 0xc80
 80041b2:	429e      	cmp	r6, r3
 80041b4:	bfb8      	it	lt
 80041b6:	461e      	movlt	r6, r3
 80041b8:	4298      	cmp	r0, r3
 80041ba:	bfb8      	it	lt
 80041bc:	4618      	movlt	r0, r3
 80041be:	4b28      	ldr	r3, [pc, #160]	; (8004260 <main+0x1840>)
 80041c0:	781b      	ldrb	r3, [r3, #0]
 80041c2:	2b02      	cmp	r3, #2
 80041c4:	d123      	bne.n	800420e <main+0x17ee>
 80041c6:	4b2c      	ldr	r3, [pc, #176]	; (8004278 <main+0x1858>)
 80041c8:	7819      	ldrb	r1, [r3, #0]
 80041ca:	4b2c      	ldr	r3, [pc, #176]	; (800427c <main+0x185c>)
 80041cc:	2902      	cmp	r1, #2
 80041ce:	f04f 0200 	mov.w	r2, #0
 80041d2:	d117      	bne.n	8004204 <main+0x17e4>
 80041d4:	f640 01fc 	movw	r1, #2300	; 0x8fc
 80041d8:	6359      	str	r1, [r3, #52]	; 0x34
 80041da:	639a      	str	r2, [r3, #56]	; 0x38
 80041dc:	2200      	movs	r2, #0
 80041de:	63de      	str	r6, [r3, #60]	; 0x3c
 80041e0:	641a      	str	r2, [r3, #64]	; 0x40
 80041e2:	e519      	b.n	8003c18 <main+0x11f8>
 80041e4:	2b01      	cmp	r3, #1
 80041e6:	e9d5 0100 	ldrd	r0, r1, [r5]
 80041ea:	f47f af58 	bne.w	800409e <main+0x167e>
 80041ee:	4642      	mov	r2, r8
 80041f0:	464b      	mov	r3, r9
 80041f2:	f7fc f859 	bl	80002a8 <__aeabi_dsub>
 80041f6:	2200      	movs	r2, #0
 80041f8:	2300      	movs	r3, #0
 80041fa:	e9c5 0100 	strd	r0, r1, [r5]
 80041fe:	e9c4 2300 	strd	r2, r3, [r4]
 8004202:	e74c      	b.n	800409e <main+0x167e>
 8004204:	2901      	cmp	r1, #1
 8004206:	bf04      	itt	eq
 8004208:	635a      	streq	r2, [r3, #52]	; 0x34
 800420a:	6398      	streq	r0, [r3, #56]	; 0x38
 800420c:	e7e6      	b.n	80041dc <main+0x17bc>
 800420e:	2b01      	cmp	r3, #1
 8004210:	f47f ad02 	bne.w	8003c18 <main+0x11f8>
 8004214:	4c19      	ldr	r4, [pc, #100]	; (800427c <main+0x185c>)
 8004216:	2500      	movs	r5, #0
 8004218:	6365      	str	r5, [r4, #52]	; 0x34
 800421a:	63a6      	str	r6, [r4, #56]	; 0x38
 800421c:	f7fc f992 	bl	8000544 <__aeabi_i2d>
 8004220:	a309      	add	r3, pc, #36	; (adr r3, 8004248 <main+0x1828>)
 8004222:	e9d3 2300 	ldrd	r2, r3, [r3]
 8004226:	f7fc f9f7 	bl	8000618 <__aeabi_dmul>
 800422a:	ec41 0b10 	vmov	d0, r0, r1
 800422e:	f009 ff65 	bl	800e0fc <round>
 8004232:	ec51 0b10 	vmov	r0, r1, d0
 8004236:	f7fc fcc7 	bl	8000bc8 <__aeabi_d2uiz>
 800423a:	63e0      	str	r0, [r4, #60]	; 0x3c
 800423c:	6425      	str	r5, [r4, #64]	; 0x40
 800423e:	e4eb      	b.n	8003c18 <main+0x11f8>
 8004240:	00000000 	.word	0x00000000
 8004244:	40a5e000 	.word	0x40a5e000
 8004248:	66666666 	.word	0x66666666
 800424c:	3fee6666 	.word	0x3fee6666
 8004250:	20000940 	.word	0x20000940
 8004254:	20000808 	.word	0x20000808
 8004258:	20000810 	.word	0x20000810
 800425c:	20000840 	.word	0x20000840
 8004260:	200003ab 	.word	0x200003ab
 8004264:	20000848 	.word	0x20000848
 8004268:	20000830 	.word	0x20000830
 800426c:	200008e0 	.word	0x200008e0
 8004270:	20000b58 	.word	0x20000b58
 8004274:	20000948 	.word	0x20000948
 8004278:	200003aa 	.word	0x200003aa
 800427c:	40000800 	.word	0x40000800
 8004280:	4621      	mov	r1, r4
 8004282:	2214      	movs	r2, #20
 8004284:	a827      	add	r0, sp, #156	; 0x9c
 8004286:	f004 fed5 	bl	8009034 <memset>
 800428a:	4622      	mov	r2, r4
 800428c:	a927      	add	r1, sp, #156	; 0x9c
 800428e:	4898      	ldr	r0, [pc, #608]	; (80044f0 <main+0x1ad0>)
 8004290:	9425      	str	r4, [sp, #148]	; 0x94
 8004292:	f003 fb1c 	bl	80078ce <HAL_RTC_GetTime>
 8004296:	4622      	mov	r2, r4
 8004298:	a925      	add	r1, sp, #148	; 0x94
 800429a:	4895      	ldr	r0, [pc, #596]	; (80044f0 <main+0x1ad0>)
 800429c:	f8df 92e4 	ldr.w	r9, [pc, #740]	; 8004584 <main+0x1b64>
 80042a0:	f8df a2e4 	ldr.w	sl, [pc, #740]	; 8004588 <main+0x1b68>
 80042a4:	4d93      	ldr	r5, [pc, #588]	; (80044f4 <main+0x1ad4>)
 80042a6:	4f94      	ldr	r7, [pc, #592]	; (80044f8 <main+0x1ad8>)
 80042a8:	4e94      	ldr	r6, [pc, #592]	; (80044fc <main+0x1adc>)
 80042aa:	f8df 82e0 	ldr.w	r8, [pc, #736]	; 800458c <main+0x1b6c>
 80042ae:	f8df b2e0 	ldr.w	fp, [pc, #736]	; 8004590 <main+0x1b70>
 80042b2:	f003 fb33 	bl	800791c <HAL_RTC_GetDate>
 80042b6:	4b92      	ldr	r3, [pc, #584]	; (8004500 <main+0x1ae0>)
 80042b8:	6818      	ldr	r0, [r3, #0]
 80042ba:	f7fc f955 	bl	8000568 <__aeabi_f2d>
 80042be:	460b      	mov	r3, r1
 80042c0:	4602      	mov	r2, r0
 80042c2:	4990      	ldr	r1, [pc, #576]	; (8004504 <main+0x1ae4>)
 80042c4:	4890      	ldr	r0, [pc, #576]	; (8004508 <main+0x1ae8>)
 80042c6:	f005 fd3d 	bl	8009d44 <siprintf>
 80042ca:	488f      	ldr	r0, [pc, #572]	; (8004508 <main+0x1ae8>)
 80042cc:	f7fc fff8 	bl	80012c0 <Serial_Console>
 80042d0:	4a8e      	ldr	r2, [pc, #568]	; (800450c <main+0x1aec>)
 80042d2:	6810      	ldr	r0, [r2, #0]
 80042d4:	f7fc f948 	bl	8000568 <__aeabi_f2d>
 80042d8:	4602      	mov	r2, r0
 80042da:	460b      	mov	r3, r1
 80042dc:	488a      	ldr	r0, [pc, #552]	; (8004508 <main+0x1ae8>)
 80042de:	498c      	ldr	r1, [pc, #560]	; (8004510 <main+0x1af0>)
 80042e0:	f005 fd30 	bl	8009d44 <siprintf>
 80042e4:	4888      	ldr	r0, [pc, #544]	; (8004508 <main+0x1ae8>)
 80042e6:	f7fc ffeb 	bl	80012c0 <Serial_Console>
 80042ea:	f8d9 0000 	ldr.w	r0, [r9]
 80042ee:	f7fc f93b 	bl	8000568 <__aeabi_f2d>
 80042f2:	4602      	mov	r2, r0
 80042f4:	460b      	mov	r3, r1
 80042f6:	4884      	ldr	r0, [pc, #528]	; (8004508 <main+0x1ae8>)
 80042f8:	4986      	ldr	r1, [pc, #536]	; (8004514 <main+0x1af4>)
 80042fa:	f005 fd23 	bl	8009d44 <siprintf>
 80042fe:	4882      	ldr	r0, [pc, #520]	; (8004508 <main+0x1ae8>)
 8004300:	f7fc ffde 	bl	80012c0 <Serial_Console>
 8004304:	f8da 0000 	ldr.w	r0, [sl]
 8004308:	f7fc f92e 	bl	8000568 <__aeabi_f2d>
 800430c:	460b      	mov	r3, r1
 800430e:	4602      	mov	r2, r0
 8004310:	4981      	ldr	r1, [pc, #516]	; (8004518 <main+0x1af8>)
 8004312:	487d      	ldr	r0, [pc, #500]	; (8004508 <main+0x1ae8>)
 8004314:	f005 fd16 	bl	8009d44 <siprintf>
 8004318:	487b      	ldr	r0, [pc, #492]	; (8004508 <main+0x1ae8>)
 800431a:	f7fc ffd1 	bl	80012c0 <Serial_Console>
 800431e:	497f      	ldr	r1, [pc, #508]	; (800451c <main+0x1afc>)
 8004320:	4879      	ldr	r0, [pc, #484]	; (8004508 <main+0x1ae8>)
 8004322:	780a      	ldrb	r2, [r1, #0]
 8004324:	497e      	ldr	r1, [pc, #504]	; (8004520 <main+0x1b00>)
 8004326:	f005 fd0d 	bl	8009d44 <siprintf>
 800432a:	4877      	ldr	r0, [pc, #476]	; (8004508 <main+0x1ae8>)
 800432c:	f7fc ffc8 	bl	80012c0 <Serial_Console>
 8004330:	682b      	ldr	r3, [r5, #0]
 8004332:	9301      	str	r3, [sp, #4]
 8004334:	683b      	ldr	r3, [r7, #0]
 8004336:	9300      	str	r3, [sp, #0]
 8004338:	6833      	ldr	r3, [r6, #0]
 800433a:	f8d8 2000 	ldr.w	r2, [r8]
 800433e:	4979      	ldr	r1, [pc, #484]	; (8004524 <main+0x1b04>)
 8004340:	4871      	ldr	r0, [pc, #452]	; (8004508 <main+0x1ae8>)
 8004342:	f005 fcff 	bl	8009d44 <siprintf>
 8004346:	4870      	ldr	r0, [pc, #448]	; (8004508 <main+0x1ae8>)
 8004348:	f7fc ffba 	bl	80012c0 <Serial_Console>
 800434c:	4b76      	ldr	r3, [pc, #472]	; (8004528 <main+0x1b08>)
 800434e:	4a77      	ldr	r2, [pc, #476]	; (800452c <main+0x1b0c>)
 8004350:	881b      	ldrh	r3, [r3, #0]
 8004352:	8812      	ldrh	r2, [r2, #0]
 8004354:	4976      	ldr	r1, [pc, #472]	; (8004530 <main+0x1b10>)
 8004356:	486c      	ldr	r0, [pc, #432]	; (8004508 <main+0x1ae8>)
 8004358:	f005 fcf4 	bl	8009d44 <siprintf>
 800435c:	486a      	ldr	r0, [pc, #424]	; (8004508 <main+0x1ae8>)
 800435e:	f7fc ffaf 	bl	80012c0 <Serial_Console>
 8004362:	4b74      	ldr	r3, [pc, #464]	; (8004534 <main+0x1b14>)
 8004364:	4974      	ldr	r1, [pc, #464]	; (8004538 <main+0x1b18>)
 8004366:	781a      	ldrb	r2, [r3, #0]
 8004368:	4867      	ldr	r0, [pc, #412]	; (8004508 <main+0x1ae8>)
 800436a:	f005 fceb 	bl	8009d44 <siprintf>
 800436e:	4866      	ldr	r0, [pc, #408]	; (8004508 <main+0x1ae8>)
 8004370:	f7fc ffa6 	bl	80012c0 <Serial_Console>
 8004374:	f8db 0008 	ldr.w	r0, [fp, #8]
 8004378:	f7fc f8f6 	bl	8000568 <__aeabi_f2d>
 800437c:	4602      	mov	r2, r0
 800437e:	460b      	mov	r3, r1
 8004380:	f8db 0004 	ldr.w	r0, [fp, #4]
 8004384:	e9cd 230c 	strd	r2, r3, [sp, #48]	; 0x30
 8004388:	f7fc f8ee 	bl	8000568 <__aeabi_f2d>
 800438c:	e9cd 0102 	strd	r0, r1, [sp, #8]
 8004390:	f8db 000c 	ldr.w	r0, [fp, #12]
 8004394:	f7fc f8e8 	bl	8000568 <__aeabi_f2d>
 8004398:	e9dd 230c 	ldrd	r2, r3, [sp, #48]	; 0x30
 800439c:	e9cd 0100 	strd	r0, r1, [sp]
 80043a0:	4966      	ldr	r1, [pc, #408]	; (800453c <main+0x1b1c>)
 80043a2:	4859      	ldr	r0, [pc, #356]	; (8004508 <main+0x1ae8>)
 80043a4:	f005 fcce 	bl	8009d44 <siprintf>
 80043a8:	4857      	ldr	r0, [pc, #348]	; (8004508 <main+0x1ae8>)
 80043aa:	f7fc ff89 	bl	80012c0 <Serial_Console>
 80043ae:	f89d 309e 	ldrb.w	r3, [sp, #158]	; 0x9e
 80043b2:	f89d 209c 	ldrb.w	r2, [sp, #156]	; 0x9c
 80043b6:	4962      	ldr	r1, [pc, #392]	; (8004540 <main+0x1b20>)
 80043b8:	9300      	str	r3, [sp, #0]
 80043ba:	4853      	ldr	r0, [pc, #332]	; (8004508 <main+0x1ae8>)
 80043bc:	f89d 309d 	ldrb.w	r3, [sp, #157]	; 0x9d
 80043c0:	f005 fcc0 	bl	8009d44 <siprintf>
 80043c4:	4850      	ldr	r0, [pc, #320]	; (8004508 <main+0x1ae8>)
 80043c6:	f7fc ff7b 	bl	80012c0 <Serial_Console>
 80043ca:	f89d 3096 	ldrb.w	r3, [sp, #150]	; 0x96
 80043ce:	f89d 2097 	ldrb.w	r2, [sp, #151]	; 0x97
 80043d2:	495c      	ldr	r1, [pc, #368]	; (8004544 <main+0x1b24>)
 80043d4:	9300      	str	r3, [sp, #0]
 80043d6:	484c      	ldr	r0, [pc, #304]	; (8004508 <main+0x1ae8>)
 80043d8:	f89d 3095 	ldrb.w	r3, [sp, #149]	; 0x95
 80043dc:	f005 fcb2 	bl	8009d44 <siprintf>
 80043e0:	4849      	ldr	r0, [pc, #292]	; (8004508 <main+0x1ae8>)
 80043e2:	f7fc ff6d 	bl	80012c0 <Serial_Console>
 80043e6:	f8da 0000 	ldr.w	r0, [sl]
 80043ea:	f7fc f8bd 	bl	8000568 <__aeabi_f2d>
 80043ee:	460b      	mov	r3, r1
 80043f0:	4955      	ldr	r1, [pc, #340]	; (8004548 <main+0x1b28>)
 80043f2:	7809      	ldrb	r1, [r1, #0]
 80043f4:	9107      	str	r1, [sp, #28]
 80043f6:	4955      	ldr	r1, [pc, #340]	; (800454c <main+0x1b2c>)
 80043f8:	7809      	ldrb	r1, [r1, #0]
 80043fa:	9106      	str	r1, [sp, #24]
 80043fc:	4602      	mov	r2, r0
 80043fe:	f8d9 0000 	ldr.w	r0, [r9]
 8004402:	e9cd 230c 	strd	r2, r3, [sp, #48]	; 0x30
 8004406:	f7fc f8af 	bl	8000568 <__aeabi_f2d>
 800440a:	e9cd 0104 	strd	r0, r1, [sp, #16]
 800440e:	4a3f      	ldr	r2, [pc, #252]	; (800450c <main+0x1aec>)
 8004410:	6810      	ldr	r0, [r2, #0]
 8004412:	f7fc f8a9 	bl	8000568 <__aeabi_f2d>
 8004416:	e9cd 0102 	strd	r0, r1, [sp, #8]
 800441a:	4b39      	ldr	r3, [pc, #228]	; (8004500 <main+0x1ae0>)
 800441c:	6818      	ldr	r0, [r3, #0]
 800441e:	f7fc f8a3 	bl	8000568 <__aeabi_f2d>
 8004422:	e9dd 230c 	ldrd	r2, r3, [sp, #48]	; 0x30
 8004426:	e9cd 0100 	strd	r0, r1, [sp]
 800442a:	4949      	ldr	r1, [pc, #292]	; (8004550 <main+0x1b30>)
 800442c:	a82c      	add	r0, sp, #176	; 0xb0
 800442e:	f005 fc89 	bl	8009d44 <siprintf>
 8004432:	a82c      	add	r0, sp, #176	; 0xb0
 8004434:	f8c8 4000 	str.w	r4, [r8]
 8004438:	603c      	str	r4, [r7, #0]
 800443a:	6034      	str	r4, [r6, #0]
 800443c:	602c      	str	r4, [r5, #0]
 800443e:	f7fb fed1 	bl	80001e4 <strlen>
 8004442:	2364      	movs	r3, #100	; 0x64
 8004444:	b282      	uxth	r2, r0
 8004446:	a92c      	add	r1, sp, #176	; 0xb0
 8004448:	4842      	ldr	r0, [pc, #264]	; (8004554 <main+0x1b34>)
 800444a:	f003 ffba 	bl	80083c2 <HAL_UART_Transmit>
 800444e:	f7ff bbf6 	b.w	8003c3e <main+0x121e>
 8004452:	4841      	ldr	r0, [pc, #260]	; (8004558 <main+0x1b38>)
 8004454:	f44f 7180 	mov.w	r1, #256	; 0x100
 8004458:	f001 fdfc 	bl	8006054 <HAL_GPIO_ReadPin>
 800445c:	2801      	cmp	r0, #1
 800445e:	4606      	mov	r6, r0
 8004460:	f47f ac11 	bne.w	8003c86 <main+0x1266>
 8004464:	4b3d      	ldr	r3, [pc, #244]	; (800455c <main+0x1b3c>)
 8004466:	8918      	ldrh	r0, [r3, #8]
 8004468:	f000 ff02 	bl	8005270 <HAL_Delay>
 800446c:	4b3c      	ldr	r3, [pc, #240]	; (8004560 <main+0x1b40>)
 800446e:	2500      	movs	r5, #0
 8004470:	701d      	strb	r5, [r3, #0]
 8004472:	f7fc fe59 	bl	8001128 <MotorBrake>
 8004476:	4b3b      	ldr	r3, [pc, #236]	; (8004564 <main+0x1b44>)
 8004478:	f640 521f 	movw	r2, #3359	; 0xd1f
 800447c:	635a      	str	r2, [r3, #52]	; 0x34
 800447e:	f640 30b8 	movw	r0, #3000	; 0xbb8
 8004482:	639a      	str	r2, [r3, #56]	; 0x38
 8004484:	f000 fef4 	bl	8005270 <HAL_Delay>
 8004488:	f7fc fe42 	bl	8001110 <cutterOFF>
 800448c:	4836      	ldr	r0, [pc, #216]	; (8004568 <main+0x1b48>)
 800448e:	f7fc ff17 	bl	80012c0 <Serial_Console>
 8004492:	f242 7010 	movw	r0, #10000	; 0x2710
 8004496:	f000 feeb 	bl	8005270 <HAL_Delay>
 800449a:	4632      	mov	r2, r6
 800449c:	4631      	mov	r1, r6
 800449e:	4833      	ldr	r0, [pc, #204]	; (800456c <main+0x1b4c>)
 80044a0:	f001 fdde 	bl	8006060 <HAL_GPIO_WritePin>
 80044a4:	4832      	ldr	r0, [pc, #200]	; (8004570 <main+0x1b50>)
 80044a6:	f7fc ff0b 	bl	80012c0 <Serial_Console>
 80044aa:	4b1c      	ldr	r3, [pc, #112]	; (800451c <main+0x1afc>)
 80044ac:	7026      	strb	r6, [r4, #0]
 80044ae:	f241 3088 	movw	r0, #5000	; 0x1388
 80044b2:	701e      	strb	r6, [r3, #0]
 80044b4:	f000 fedc 	bl	8005270 <HAL_Delay>
 80044b8:	482e      	ldr	r0, [pc, #184]	; (8004574 <main+0x1b54>)
 80044ba:	4632      	mov	r2, r6
 80044bc:	f44f 6180 	mov.w	r1, #1024	; 0x400
 80044c0:	f001 fdce 	bl	8006060 <HAL_GPIO_WritePin>
 80044c4:	482c      	ldr	r0, [pc, #176]	; (8004578 <main+0x1b58>)
 80044c6:	f7fc fefb 	bl	80012c0 <Serial_Console>
 80044ca:	4b2c      	ldr	r3, [pc, #176]	; (800457c <main+0x1b5c>)
 80044cc:	701d      	strb	r5, [r3, #0]
 80044ce:	4b2c      	ldr	r3, [pc, #176]	; (8004580 <main+0x1b60>)
 80044d0:	701d      	strb	r5, [r3, #0]
 80044d2:	f7ff bbd8 	b.w	8003c86 <main+0x1266>
 80044d6:	3201      	adds	r2, #1
 80044d8:	2a40      	cmp	r2, #64	; 0x40
 80044da:	f47f abf2 	bne.w	8003cc2 <main+0x12a2>
 80044de:	f7fe bdc9 	b.w	8003074 <main+0x654>
 80044e2:	23d1      	movs	r3, #209	; 0xd1
 80044e4:	e566      	b.n	8003fb4 <main+0x1594>
 80044e6:	2be1      	cmp	r3, #225	; 0xe1
 80044e8:	f47f ad65 	bne.w	8003fb6 <main+0x1596>
 80044ec:	23f1      	movs	r3, #241	; 0xf1
 80044ee:	e561      	b.n	8003fb4 <main+0x1594>
 80044f0:	20001b24 	.word	0x20001b24
 80044f4:	2000082c 	.word	0x2000082c
 80044f8:	20000824 	.word	0x20000824
 80044fc:	20000828 	.word	0x20000828
 8004500:	20000b08 	.word	0x20000b08
 8004504:	0800f8ad 	.word	0x0800f8ad
 8004508:	20000c4e 	.word	0x20000c4e
 800450c:	20002028 	.word	0x20002028
 8004510:	0800f8b8 	.word	0x0800f8b8
 8004514:	0800eaf3 	.word	0x0800eaf3
 8004518:	0800f8c3 	.word	0x0800f8c3
 800451c:	200003be 	.word	0x200003be
 8004520:	0800f8ce 	.word	0x0800f8ce
 8004524:	0800f8e6 	.word	0x0800f8e6
 8004528:	20000ab4 	.word	0x20000ab4
 800452c:	20000c4c 	.word	0x20000c4c
 8004530:	0800f918 	.word	0x0800f918
 8004534:	200003ac 	.word	0x200003ac
 8004538:	0800f939 	.word	0x0800f939
 800453c:	0800f955 	.word	0x0800f955
 8004540:	0800f978 	.word	0x0800f978
 8004544:	0800f989 	.word	0x0800f989
 8004548:	200007fe 	.word	0x200007fe
 800454c:	200007f8 	.word	0x200007f8
 8004550:	0800f99c 	.word	0x0800f99c
 8004554:	20001fe4 	.word	0x20001fe4
 8004558:	40020000 	.word	0x40020000
 800455c:	20000b58 	.word	0x20000b58
 8004560:	200003c1 	.word	0x200003c1
 8004564:	40000400 	.word	0x40000400
 8004568:	0800fa1b 	.word	0x0800fa1b
 800456c:	40020c00 	.word	0x40020c00
 8004570:	0800fa2f 	.word	0x0800fa2f
 8004574:	40020800 	.word	0x40020800
 8004578:	0800fa45 	.word	0x0800fa45
 800457c:	200008e9 	.word	0x200008e9
 8004580:	200008ea 	.word	0x200008ea
 8004584:	200003b4 	.word	0x200003b4
 8004588:	20000004 	.word	0x20000004
 800458c:	20000820 	.word	0x20000820
 8004590:	20001aa4 	.word	0x20001aa4

08004594 <HAL_TIM_PeriodElapsedCallback>:
 8004594:	b508      	push	{r3, lr}
 8004596:	4803      	ldr	r0, [pc, #12]	; (80045a4 <HAL_TIM_PeriodElapsedCallback+0x10>)
 8004598:	f002 fc33 	bl	8006e02 <HAL_IWDG_Refresh>
 800459c:	4b02      	ldr	r3, [pc, #8]	; (80045a8 <HAL_TIM_PeriodElapsedCallback+0x14>)
 800459e:	2201      	movs	r2, #1
 80045a0:	701a      	strb	r2, [r3, #0]
 80045a2:	bd08      	pop	{r3, pc}
 80045a4:	20000bec 	.word	0x20000bec
 80045a8:	200007f9 	.word	0x200007f9

080045ac <HAL_ADC_ConvCpltCallback>:
 80045ac:	4770      	bx	lr
	...

080045b0 <HAL_UART_RxCpltCallback_UART1>:
 80045b0:	b507      	push	{r0, r1, r2, lr}
 80045b2:	6803      	ldr	r3, [r0, #0]
 80045b4:	681b      	ldr	r3, [r3, #0]
 80045b6:	06db      	lsls	r3, r3, #27
 80045b8:	d50d      	bpl.n	80045d6 <HAL_UART_RxCpltCallback_UART1+0x26>
 80045ba:	4808      	ldr	r0, [pc, #32]	; (80045dc <HAL_UART_RxCpltCallback_UART1+0x2c>)
 80045bc:	2300      	movs	r3, #0
 80045be:	9301      	str	r3, [sp, #4]
 80045c0:	6803      	ldr	r3, [r0, #0]
 80045c2:	681a      	ldr	r2, [r3, #0]
 80045c4:	9201      	str	r2, [sp, #4]
 80045c6:	685b      	ldr	r3, [r3, #4]
 80045c8:	9301      	str	r3, [sp, #4]
 80045ca:	9b01      	ldr	r3, [sp, #4]
 80045cc:	f003 ff4e 	bl	800846c <HAL_UART_DMAStop>
 80045d0:	4b03      	ldr	r3, [pc, #12]	; (80045e0 <HAL_UART_RxCpltCallback_UART1+0x30>)
 80045d2:	2201      	movs	r2, #1
 80045d4:	701a      	strb	r2, [r3, #0]
 80045d6:	b003      	add	sp, #12
 80045d8:	f85d fb04 	ldr.w	pc, [sp], #4
 80045dc:	20001a60 	.word	0x20001a60
 80045e0:	20000818 	.word	0x20000818

080045e4 <HAL_UART_RxCpltCallback_UART2>:
 80045e4:	b507      	push	{r0, r1, r2, lr}
 80045e6:	6803      	ldr	r3, [r0, #0]
 80045e8:	681b      	ldr	r3, [r3, #0]
 80045ea:	06db      	lsls	r3, r3, #27
 80045ec:	d50d      	bpl.n	800460a <HAL_UART_RxCpltCallback_UART2+0x26>
 80045ee:	4808      	ldr	r0, [pc, #32]	; (8004610 <HAL_UART_RxCpltCallback_UART2+0x2c>)
 80045f0:	2300      	movs	r3, #0
 80045f2:	9301      	str	r3, [sp, #4]
 80045f4:	6803      	ldr	r3, [r0, #0]
 80045f6:	681a      	ldr	r2, [r3, #0]
 80045f8:	9201      	str	r2, [sp, #4]
 80045fa:	685b      	ldr	r3, [r3, #4]
 80045fc:	9301      	str	r3, [sp, #4]
 80045fe:	9b01      	ldr	r3, [sp, #4]
 8004600:	f003 ff34 	bl	800846c <HAL_UART_DMAStop>
 8004604:	4b03      	ldr	r3, [pc, #12]	; (8004614 <HAL_UART_RxCpltCallback_UART2+0x30>)
 8004606:	2201      	movs	r2, #1
 8004608:	701a      	strb	r2, [r3, #0]
 800460a:	b003      	add	sp, #12
 800460c:	f85d fb04 	ldr.w	pc, [sp], #4
 8004610:	20001fe4 	.word	0x20001fe4
 8004614:	20000819 	.word	0x20000819

08004618 <HAL_UART_TxCpltCallback>:
 8004618:	4770      	bx	lr

0800461a <Error_Handler>:
 800461a:	b672      	cpsid	i
 800461c:	e7fe      	b.n	800461c <Error_Handler+0x2>
	...

08004620 <read_sram_uint8>:
 8004620:	b082      	sub	sp, #8
 8004622:	2300      	movs	r3, #0
 8004624:	9301      	str	r3, [sp, #4]
 8004626:	4b0a      	ldr	r3, [pc, #40]	; (8004650 <read_sram_uint8+0x30>)
 8004628:	6b1a      	ldr	r2, [r3, #48]	; 0x30
 800462a:	f442 2280 	orr.w	r2, r2, #262144	; 0x40000
 800462e:	631a      	str	r2, [r3, #48]	; 0x30
 8004630:	6b1a      	ldr	r2, [r3, #48]	; 0x30
 8004632:	f100 2040 	add.w	r0, r0, #1073758208	; 0x40004000
 8004636:	f402 2280 	and.w	r2, r2, #262144	; 0x40000
 800463a:	9201      	str	r2, [sp, #4]
 800463c:	f500 3000 	add.w	r0, r0, #131072	; 0x20000
 8004640:	9a01      	ldr	r2, [sp, #4]
 8004642:	6b1a      	ldr	r2, [r3, #48]	; 0x30
 8004644:	7800      	ldrb	r0, [r0, #0]
 8004646:	f422 2280 	bic.w	r2, r2, #262144	; 0x40000
 800464a:	631a      	str	r2, [r3, #48]	; 0x30
 800464c:	b002      	add	sp, #8
 800464e:	4770      	bx	lr
 8004650:	40023800 	.word	0x40023800

08004654 <write_sram_uint8>:
 8004654:	b082      	sub	sp, #8
 8004656:	2300      	movs	r3, #0
 8004658:	9301      	str	r3, [sp, #4]
 800465a:	4b0a      	ldr	r3, [pc, #40]	; (8004684 <write_sram_uint8+0x30>)
 800465c:	6b1a      	ldr	r2, [r3, #48]	; 0x30
 800465e:	f442 2280 	orr.w	r2, r2, #262144	; 0x40000
 8004662:	631a      	str	r2, [r3, #48]	; 0x30
 8004664:	6b1a      	ldr	r2, [r3, #48]	; 0x30
 8004666:	f101 2140 	add.w	r1, r1, #1073758208	; 0x40004000
 800466a:	f501 3100 	add.w	r1, r1, #131072	; 0x20000
 800466e:	f402 2280 	and.w	r2, r2, #262144	; 0x40000
 8004672:	9201      	str	r2, [sp, #4]
 8004674:	7008      	strb	r0, [r1, #0]
 8004676:	9a01      	ldr	r2, [sp, #4]
 8004678:	6b1a      	ldr	r2, [r3, #48]	; 0x30
 800467a:	f422 2280 	bic.w	r2, r2, #262144	; 0x40000
 800467e:	631a      	str	r2, [r3, #48]	; 0x30
 8004680:	b002      	add	sp, #8
 8004682:	4770      	bx	lr
 8004684:	40023800 	.word	0x40023800

08004688 <read_sram_uint16>:
 8004688:	b082      	sub	sp, #8
 800468a:	2300      	movs	r3, #0
 800468c:	9301      	str	r3, [sp, #4]
 800468e:	4b0a      	ldr	r3, [pc, #40]	; (80046b8 <read_sram_uint16+0x30>)
 8004690:	6b1a      	ldr	r2, [r3, #48]	; 0x30
 8004692:	f442 2280 	orr.w	r2, r2, #262144	; 0x40000
 8004696:	631a      	str	r2, [r3, #48]	; 0x30
 8004698:	6b1a      	ldr	r2, [r3, #48]	; 0x30
 800469a:	f100 2040 	add.w	r0, r0, #1073758208	; 0x40004000
 800469e:	f402 2280 	and.w	r2, r2, #262144	; 0x40000
 80046a2:	9201      	str	r2, [sp, #4]
 80046a4:	f500 3000 	add.w	r0, r0, #131072	; 0x20000
 80046a8:	9a01      	ldr	r2, [sp, #4]
 80046aa:	6b1a      	ldr	r2, [r3, #48]	; 0x30
 80046ac:	8800      	ldrh	r0, [r0, #0]
 80046ae:	f422 2280 	bic.w	r2, r2, #262144	; 0x40000
 80046b2:	631a      	str	r2, [r3, #48]	; 0x30
 80046b4:	b002      	add	sp, #8
 80046b6:	4770      	bx	lr
 80046b8:	40023800 	.word	0x40023800

080046bc <write_sram_uint16>:
 80046bc:	b082      	sub	sp, #8
 80046be:	2300      	movs	r3, #0
 80046c0:	9301      	str	r3, [sp, #4]
 80046c2:	4b0a      	ldr	r3, [pc, #40]	; (80046ec <write_sram_uint16+0x30>)
 80046c4:	6b1a      	ldr	r2, [r3, #48]	; 0x30
 80046c6:	f442 2280 	orr.w	r2, r2, #262144	; 0x40000
 80046ca:	631a      	str	r2, [r3, #48]	; 0x30
 80046cc:	6b1a      	ldr	r2, [r3, #48]	; 0x30
 80046ce:	f101 2140 	add.w	r1, r1, #1073758208	; 0x40004000
 80046d2:	f501 3100 	add.w	r1, r1, #131072	; 0x20000
 80046d6:	f402 2280 	and.w	r2, r2, #262144	; 0x40000
 80046da:	9201      	str	r2, [sp, #4]
 80046dc:	8008      	strh	r0, [r1, #0]
 80046de:	9a01      	ldr	r2, [sp, #4]
 80046e0:	6b1a      	ldr	r2, [r3, #48]	; 0x30
 80046e2:	f422 2280 	bic.w	r2, r2, #262144	; 0x40000
 80046e6:	631a      	str	r2, [r3, #48]	; 0x30
 80046e8:	b002      	add	sp, #8
 80046ea:	4770      	bx	lr
 80046ec:	40023800 	.word	0x40023800

080046f0 <read_sram_uint32>:
 80046f0:	b082      	sub	sp, #8
 80046f2:	2300      	movs	r3, #0
 80046f4:	9301      	str	r3, [sp, #4]
 80046f6:	4b0a      	ldr	r3, [pc, #40]	; (8004720 <read_sram_uint32+0x30>)
 80046f8:	6b1a      	ldr	r2, [r3, #48]	; 0x30
 80046fa:	f442 2280 	orr.w	r2, r2, #262144	; 0x40000
 80046fe:	631a      	str	r2, [r3, #48]	; 0x30
 8004700:	6b1a      	ldr	r2, [r3, #48]	; 0x30
 8004702:	f100 2040 	add.w	r0, r0, #1073758208	; 0x40004000
 8004706:	f402 2280 	and.w	r2, r2, #262144	; 0x40000
 800470a:	9201      	str	r2, [sp, #4]
 800470c:	f500 3000 	add.w	r0, r0, #131072	; 0x20000
 8004710:	9a01      	ldr	r2, [sp, #4]
 8004712:	6b1a      	ldr	r2, [r3, #48]	; 0x30
 8004714:	6800      	ldr	r0, [r0, #0]
 8004716:	f422 2280 	bic.w	r2, r2, #262144	; 0x40000
 800471a:	631a      	str	r2, [r3, #48]	; 0x30
 800471c:	b002      	add	sp, #8
 800471e:	4770      	bx	lr
 8004720:	40023800 	.word	0x40023800

08004724 <write_sram_uint32>:
 8004724:	b082      	sub	sp, #8
 8004726:	2300      	movs	r3, #0
 8004728:	9301      	str	r3, [sp, #4]
 800472a:	4b0a      	ldr	r3, [pc, #40]	; (8004754 <write_sram_uint32+0x30>)
 800472c:	6b1a      	ldr	r2, [r3, #48]	; 0x30
 800472e:	f442 2280 	orr.w	r2, r2, #262144	; 0x40000
 8004732:	631a      	str	r2, [r3, #48]	; 0x30
 8004734:	6b1a      	ldr	r2, [r3, #48]	; 0x30
 8004736:	f101 2140 	add.w	r1, r1, #1073758208	; 0x40004000
 800473a:	f501 3100 	add.w	r1, r1, #131072	; 0x20000
 800473e:	f402 2280 	and.w	r2, r2, #262144	; 0x40000
 8004742:	9201      	str	r2, [sp, #4]
 8004744:	6008      	str	r0, [r1, #0]
 8004746:	9a01      	ldr	r2, [sp, #4]
 8004748:	6b1a      	ldr	r2, [r3, #48]	; 0x30
 800474a:	f422 2280 	bic.w	r2, r2, #262144	; 0x40000
 800474e:	631a      	str	r2, [r3, #48]	; 0x30
 8004750:	b002      	add	sp, #8
 8004752:	4770      	bx	lr
 8004754:	40023800 	.word	0x40023800

08004758 <read_sram_float>:
 8004758:	b082      	sub	sp, #8
 800475a:	2300      	movs	r3, #0
 800475c:	9301      	str	r3, [sp, #4]
 800475e:	4b0b      	ldr	r3, [pc, #44]	; (800478c <read_sram_float+0x34>)
 8004760:	6b1a      	ldr	r2, [r3, #48]	; 0x30
 8004762:	f442 2280 	orr.w	r2, r2, #262144	; 0x40000
 8004766:	631a      	str	r2, [r3, #48]	; 0x30
 8004768:	6b1a      	ldr	r2, [r3, #48]	; 0x30
 800476a:	f100 2040 	add.w	r0, r0, #1073758208	; 0x40004000
 800476e:	f402 2280 	and.w	r2, r2, #262144	; 0x40000
 8004772:	f500 3000 	add.w	r0, r0, #131072	; 0x20000
 8004776:	9201      	str	r2, [sp, #4]
 8004778:	9a01      	ldr	r2, [sp, #4]
 800477a:	6802      	ldr	r2, [r0, #0]
 800477c:	6b19      	ldr	r1, [r3, #48]	; 0x30
 800477e:	ee00 2a10 	vmov	s0, r2
 8004782:	f421 2180 	bic.w	r1, r1, #262144	; 0x40000
 8004786:	6319      	str	r1, [r3, #48]	; 0x30
 8004788:	b002      	add	sp, #8
 800478a:	4770      	bx	lr
 800478c:	40023800 	.word	0x40023800

08004790 <write_sram_float>:
 8004790:	b084      	sub	sp, #16
 8004792:	2300      	movs	r3, #0
 8004794:	9303      	str	r3, [sp, #12]
 8004796:	4b0c      	ldr	r3, [pc, #48]	; (80047c8 <write_sram_float+0x38>)
 8004798:	ed8d 0a01 	vstr	s0, [sp, #4]
 800479c:	6b1a      	ldr	r2, [r3, #48]	; 0x30
 800479e:	f442 2280 	orr.w	r2, r2, #262144	; 0x40000
 80047a2:	631a      	str	r2, [r3, #48]	; 0x30
 80047a4:	6b1a      	ldr	r2, [r3, #48]	; 0x30
 80047a6:	f100 2040 	add.w	r0, r0, #1073758208	; 0x40004000
 80047aa:	f402 2280 	and.w	r2, r2, #262144	; 0x40000
 80047ae:	9203      	str	r2, [sp, #12]
 80047b0:	f500 3000 	add.w	r0, r0, #131072	; 0x20000
 80047b4:	9a03      	ldr	r2, [sp, #12]
 80047b6:	9a01      	ldr	r2, [sp, #4]
 80047b8:	6002      	str	r2, [r0, #0]
 80047ba:	6b1a      	ldr	r2, [r3, #48]	; 0x30
 80047bc:	f422 2280 	bic.w	r2, r2, #262144	; 0x40000
 80047c0:	631a      	str	r2, [r3, #48]	; 0x30
 80047c2:	b004      	add	sp, #16
 80047c4:	4770      	bx	lr
 80047c6:	bf00      	nop
 80047c8:	40023800 	.word	0x40023800

080047cc <enable_backup_sram>:
 80047cc:	b507      	push	{r0, r1, r2, lr}
 80047ce:	f002 fb1f 	bl	8006e10 <HAL_PWR_EnableBkUpAccess>
 80047d2:	2300      	movs	r3, #0
 80047d4:	9301      	str	r3, [sp, #4]
 80047d6:	4b07      	ldr	r3, [pc, #28]	; (80047f4 <enable_backup_sram+0x28>)
 80047d8:	6c1a      	ldr	r2, [r3, #64]	; 0x40
 80047da:	f042 5280 	orr.w	r2, r2, #268435456	; 0x10000000
 80047de:	641a      	str	r2, [r3, #64]	; 0x40
 80047e0:	6c1b      	ldr	r3, [r3, #64]	; 0x40
 80047e2:	f003 5380 	and.w	r3, r3, #268435456	; 0x10000000
 80047e6:	9301      	str	r3, [sp, #4]
 80047e8:	9b01      	ldr	r3, [sp, #4]
 80047ea:	b003      	add	sp, #12
 80047ec:	f85d eb04 	ldr.w	lr, [sp], #4
 80047f0:	f002 bb2c 	b.w	8006e4c <HAL_PWREx_EnableBkUpReg>
 80047f4:	40023800 	.word	0x40023800

080047f8 <read_all_settings>:
 80047f8:	e92d 4ff0 	stmdb	sp!, {r4, r5, r6, r7, r8, r9, sl, fp, lr}
 80047fc:	4604      	mov	r4, r0
 80047fe:	b087      	sub	sp, #28
 8004800:	2001      	movs	r0, #1
 8004802:	f7ff ff0d 	bl	8004620 <read_sram_uint8>
 8004806:	9005      	str	r0, [sp, #20]
 8004808:	2002      	movs	r0, #2
 800480a:	f7ff ff09 	bl	8004620 <read_sram_uint8>
 800480e:	9004      	str	r0, [sp, #16]
 8004810:	2003      	movs	r0, #3
 8004812:	f7ff ff6d 	bl	80046f0 <read_sram_uint32>
 8004816:	9003      	str	r0, [sp, #12]
 8004818:	2004      	movs	r0, #4
 800481a:	f7ff ff01 	bl	8004620 <read_sram_uint8>
 800481e:	4683      	mov	fp, r0
 8004820:	2005      	movs	r0, #5
 8004822:	f7ff ff65 	bl	80046f0 <read_sram_uint32>
 8004826:	4682      	mov	sl, r0
 8004828:	2006      	movs	r0, #6
 800482a:	f7ff fef9 	bl	8004620 <read_sram_uint8>
 800482e:	4681      	mov	r9, r0
 8004830:	2007      	movs	r0, #7
 8004832:	f7ff fef5 	bl	8004620 <read_sram_uint8>
 8004836:	4680      	mov	r8, r0
 8004838:	2008      	movs	r0, #8
 800483a:	f7ff fef1 	bl	8004620 <read_sram_uint8>
 800483e:	4607      	mov	r7, r0
 8004840:	2032      	movs	r0, #50	; 0x32
 8004842:	f7ff ff21 	bl	8004688 <read_sram_uint16>
 8004846:	4606      	mov	r6, r0
 8004848:	2034      	movs	r0, #52	; 0x34
 800484a:	f7ff ff1d 	bl	8004688 <read_sram_uint16>
 800484e:	9002      	str	r0, [sp, #8]
 8004850:	2068      	movs	r0, #104	; 0x68
 8004852:	f7ff ff81 	bl	8004758 <read_sram_float>
 8004856:	2064      	movs	r0, #100	; 0x64
 8004858:	eef0 3a40 	vmov.f32	s7, s0
 800485c:	f7ff ff7c 	bl	8004758 <read_sram_float>
 8004860:	206c      	movs	r0, #108	; 0x6c
 8004862:	eeb0 3a40 	vmov.f32	s6, s0
 8004866:	f7ff ff77 	bl	8004758 <read_sram_float>
 800486a:	2070      	movs	r0, #112	; 0x70
 800486c:	eeb0 4a40 	vmov.f32	s8, s0
 8004870:	f7ff ff72 	bl	8004758 <read_sram_float>
 8004874:	2074      	movs	r0, #116	; 0x74
 8004876:	eef0 4a40 	vmov.f32	s9, s0
 800487a:	f7ff ff6d 	bl	8004758 <read_sram_float>
 800487e:	2078      	movs	r0, #120	; 0x78
 8004880:	eeb0 5a40 	vmov.f32	s10, s0
 8004884:	f7ff ff68 	bl	8004758 <read_sram_float>
 8004888:	207c      	movs	r0, #124	; 0x7c
 800488a:	eeb0 6a40 	vmov.f32	s12, s0
 800488e:	f7ff ff63 	bl	8004758 <read_sram_float>
 8004892:	2080      	movs	r0, #128	; 0x80
 8004894:	eef0 6a40 	vmov.f32	s13, s0
 8004898:	f7ff ff5e 	bl	8004758 <read_sram_float>
 800489c:	2084      	movs	r0, #132	; 0x84
 800489e:	eeb0 7a40 	vmov.f32	s14, s0
 80048a2:	f7ff ff59 	bl	8004758 <read_sram_float>
 80048a6:	2088      	movs	r0, #136	; 0x88
 80048a8:	eef0 7a40 	vmov.f32	s15, s0
 80048ac:	f7ff ff20 	bl	80046f0 <read_sram_uint32>
 80048b0:	9001      	str	r0, [sp, #4]
 80048b2:	208c      	movs	r0, #140	; 0x8c
 80048b4:	f7ff ff1c 	bl	80046f0 <read_sram_uint32>
 80048b8:	4605      	mov	r5, r0
 80048ba:	2090      	movs	r0, #144	; 0x90
 80048bc:	f7ff ff4c 	bl	8004758 <read_sram_float>
 80048c0:	2094      	movs	r0, #148	; 0x94
 80048c2:	eef0 5a40 	vmov.f32	s11, s0
 80048c6:	f7ff ff47 	bl	8004758 <read_sram_float>
 80048ca:	9b03      	ldr	r3, [sp, #12]
 80048cc:	70a3      	strb	r3, [r4, #2]
 80048ce:	9b02      	ldr	r3, [sp, #8]
 80048d0:	9905      	ldr	r1, [sp, #20]
 80048d2:	9a04      	ldr	r2, [sp, #16]
 80048d4:	8163      	strh	r3, [r4, #10]
 80048d6:	9b01      	ldr	r3, [sp, #4]
 80048d8:	7021      	strb	r1, [r4, #0]
 80048da:	4620      	mov	r0, r4
 80048dc:	e9c4 350d 	strd	r3, r5, [r4, #52]	; 0x34
 80048e0:	7062      	strb	r2, [r4, #1]
 80048e2:	f884 b003 	strb.w	fp, [r4, #3]
 80048e6:	f884 a004 	strb.w	sl, [r4, #4]
 80048ea:	f884 9005 	strb.w	r9, [r4, #5]
 80048ee:	f884 8006 	strb.w	r8, [r4, #6]
 80048f2:	71e7      	strb	r7, [r4, #7]
 80048f4:	8126      	strh	r6, [r4, #8]
 80048f6:	ed84 3a03 	vstr	s6, [r4, #12]
 80048fa:	edc4 3a04 	vstr	s7, [r4, #16]
 80048fe:	ed84 4a05 	vstr	s8, [r4, #20]
 8004902:	edc4 4a06 	vstr	s9, [r4, #24]
 8004906:	ed84 5a07 	vstr	s10, [r4, #28]
 800490a:	edc4 5a08 	vstr	s11, [r4, #32]
 800490e:	ed84 6a09 	vstr	s12, [r4, #36]	; 0x24
 8004912:	edc4 6a0a 	vstr	s13, [r4, #40]	; 0x28
 8004916:	ed84 7a0b 	vstr	s14, [r4, #44]	; 0x2c
 800491a:	edc4 7a0c 	vstr	s15, [r4, #48]	; 0x30
 800491e:	ed84 0a0f 	vstr	s0, [r4, #60]	; 0x3c
 8004922:	b007      	add	sp, #28
 8004924:	e8bd 8ff0 	ldmia.w	sp!, {r4, r5, r6, r7, r8, r9, sl, fp, pc}

08004928 <write_all_settings>:
 8004928:	b084      	sub	sp, #16
 800492a:	b508      	push	{r3, lr}
 800492c:	f10d 0c08 	add.w	ip, sp, #8
 8004930:	e88c 000f 	stmia.w	ip, {r0, r1, r2, r3}
 8004934:	2101      	movs	r1, #1
 8004936:	202a      	movs	r0, #42	; 0x2a
 8004938:	f7ff fe8c 	bl	8004654 <write_sram_uint8>
 800493c:	f89d 0009 	ldrb.w	r0, [sp, #9]
 8004940:	2102      	movs	r1, #2
 8004942:	f7ff fe87 	bl	8004654 <write_sram_uint8>
 8004946:	f89d 000a 	ldrb.w	r0, [sp, #10]
 800494a:	2103      	movs	r1, #3
 800494c:	f7ff fe82 	bl	8004654 <write_sram_uint8>
 8004950:	f89d 000b 	ldrb.w	r0, [sp, #11]
 8004954:	2104      	movs	r1, #4
 8004956:	f7ff fe7d 	bl	8004654 <write_sram_uint8>
 800495a:	f89d 000c 	ldrb.w	r0, [sp, #12]
 800495e:	2105      	movs	r1, #5
 8004960:	f7ff fe78 	bl	8004654 <write_sram_uint8>
 8004964:	f89d 000d 	ldrb.w	r0, [sp, #13]
 8004968:	2106      	movs	r1, #6
 800496a:	f7ff fe73 	bl	8004654 <write_sram_uint8>
 800496e:	f89d 000e 	ldrb.w	r0, [sp, #14]
 8004972:	2107      	movs	r1, #7
 8004974:	f7ff fe6e 	bl	8004654 <write_sram_uint8>
 8004978:	f89d 000f 	ldrb.w	r0, [sp, #15]
 800497c:	2108      	movs	r1, #8
 800497e:	f7ff fe69 	bl	8004654 <write_sram_uint8>
 8004982:	f8bd 0010 	ldrh.w	r0, [sp, #16]
 8004986:	2132      	movs	r1, #50	; 0x32
 8004988:	f7ff fe98 	bl	80046bc <write_sram_uint16>
 800498c:	2134      	movs	r1, #52	; 0x34
 800498e:	f8bd 0012 	ldrh.w	r0, [sp, #18]
 8004992:	f7ff fe93 	bl	80046bc <write_sram_uint16>
 8004996:	ed9d 0a06 	vldr	s0, [sp, #24]
 800499a:	2068      	movs	r0, #104	; 0x68
 800499c:	f7ff fef8 	bl	8004790 <write_sram_float>
 80049a0:	ed9d 0a05 	vldr	s0, [sp, #20]
 80049a4:	2064      	movs	r0, #100	; 0x64
 80049a6:	f7ff fef3 	bl	8004790 <write_sram_float>
 80049aa:	ed9d 0a07 	vldr	s0, [sp, #28]
 80049ae:	206c      	movs	r0, #108	; 0x6c
 80049b0:	f7ff feee 	bl	8004790 <write_sram_float>
 80049b4:	ed9d 0a08 	vldr	s0, [sp, #32]
 80049b8:	2070      	movs	r0, #112	; 0x70
 80049ba:	f7ff fee9 	bl	8004790 <write_sram_float>
 80049be:	ed9d 0a09 	vldr	s0, [sp, #36]	; 0x24
 80049c2:	2074      	movs	r0, #116	; 0x74
 80049c4:	f7ff fee4 	bl	8004790 <write_sram_float>
 80049c8:	ed9d 0a0b 	vldr	s0, [sp, #44]	; 0x2c
 80049cc:	2078      	movs	r0, #120	; 0x78
 80049ce:	f7ff fedf 	bl	8004790 <write_sram_float>
 80049d2:	ed9d 0a0c 	vldr	s0, [sp, #48]	; 0x30
 80049d6:	207c      	movs	r0, #124	; 0x7c
 80049d8:	f7ff feda 	bl	8004790 <write_sram_float>
 80049dc:	ed9d 0a0d 	vldr	s0, [sp, #52]	; 0x34
 80049e0:	2080      	movs	r0, #128	; 0x80
 80049e2:	f7ff fed5 	bl	8004790 <write_sram_float>
 80049e6:	ed9d 0a0e 	vldr	s0, [sp, #56]	; 0x38
 80049ea:	2084      	movs	r0, #132	; 0x84
 80049ec:	f7ff fed0 	bl	8004790 <write_sram_float>
 80049f0:	980f      	ldr	r0, [sp, #60]	; 0x3c
 80049f2:	2188      	movs	r1, #136	; 0x88
 80049f4:	f7ff fe96 	bl	8004724 <write_sram_uint32>
 80049f8:	9810      	ldr	r0, [sp, #64]	; 0x40
 80049fa:	218c      	movs	r1, #140	; 0x8c
 80049fc:	f7ff fe92 	bl	8004724 <write_sram_uint32>
 8004a00:	ed9d 0a0a 	vldr	s0, [sp, #40]	; 0x28
 8004a04:	2090      	movs	r0, #144	; 0x90
 8004a06:	f7ff fec3 	bl	8004790 <write_sram_float>
 8004a0a:	ed9d 0a11 	vldr	s0, [sp, #68]	; 0x44
 8004a0e:	e8bd 4008 	ldmia.w	sp!, {r3, lr}
 8004a12:	2094      	movs	r0, #148	; 0x94
 8004a14:	b004      	add	sp, #16
 8004a16:	f7ff bebb 	b.w	8004790 <write_sram_float>
	...

08004a1c <save_default_settings>:
 8004a1c:	b530      	push	{r4, r5, lr}
 8004a1e:	b09d      	sub	sp, #116	; 0x74
 8004a20:	f000 fc20 	bl	8005264 <HAL_GetTick>
 8004a24:	4a17      	ldr	r2, [pc, #92]	; (8004a84 <save_default_settings+0x68>)
 8004a26:	4b18      	ldr	r3, [pc, #96]	; (8004a88 <save_default_settings+0x6c>)
 8004a28:	901a      	str	r0, [sp, #104]	; 0x68
 8004a2a:	e9cd 230c 	strd	r2, r3, [sp, #48]	; 0x30
 8004a2e:	4b17      	ldr	r3, [pc, #92]	; (8004a8c <save_default_settings+0x70>)
 8004a30:	930e      	str	r3, [sp, #56]	; 0x38
 8004a32:	4b17      	ldr	r3, [pc, #92]	; (8004a90 <save_default_settings+0x74>)
 8004a34:	930f      	str	r3, [sp, #60]	; 0x3c
 8004a36:	4b17      	ldr	r3, [pc, #92]	; (8004a94 <save_default_settings+0x78>)
 8004a38:	9310      	str	r3, [sp, #64]	; 0x40
 8004a3a:	4b17      	ldr	r3, [pc, #92]	; (8004a98 <save_default_settings+0x7c>)
 8004a3c:	9311      	str	r3, [sp, #68]	; 0x44
 8004a3e:	4b17      	ldr	r3, [pc, #92]	; (8004a9c <save_default_settings+0x80>)
 8004a40:	9312      	str	r3, [sp, #72]	; 0x48
 8004a42:	4b17      	ldr	r3, [pc, #92]	; (8004aa0 <save_default_settings+0x84>)
 8004a44:	9313      	str	r3, [sp, #76]	; 0x4c
 8004a46:	4b17      	ldr	r3, [pc, #92]	; (8004aa4 <save_default_settings+0x88>)
 8004a48:	9314      	str	r3, [sp, #80]	; 0x50
 8004a4a:	f04f 4380 	mov.w	r3, #1073741824	; 0x40000000
 8004a4e:	9315      	str	r3, [sp, #84]	; 0x54
 8004a50:	4b15      	ldr	r3, [pc, #84]	; (8004aa8 <save_default_settings+0x8c>)
 8004a52:	9316      	str	r3, [sp, #88]	; 0x58
 8004a54:	2300      	movs	r3, #0
 8004a56:	9317      	str	r3, [sp, #92]	; 0x5c
 8004a58:	4b14      	ldr	r3, [pc, #80]	; (8004aac <save_default_settings+0x90>)
 8004a5a:	9318      	str	r3, [sp, #96]	; 0x60
 8004a5c:	4b14      	ldr	r3, [pc, #80]	; (8004ab0 <save_default_settings+0x94>)
 8004a5e:	9319      	str	r3, [sp, #100]	; 0x64
 8004a60:	ad10      	add	r5, sp, #64	; 0x40
 8004a62:	4b14      	ldr	r3, [pc, #80]	; (8004ab4 <save_default_settings+0x98>)
 8004a64:	931b      	str	r3, [sp, #108]	; 0x6c
 8004a66:	cd0f      	ldmia	r5!, {r0, r1, r2, r3}
 8004a68:	466c      	mov	r4, sp
 8004a6a:	c40f      	stmia	r4!, {r0, r1, r2, r3}
 8004a6c:	cd0f      	ldmia	r5!, {r0, r1, r2, r3}
 8004a6e:	c40f      	stmia	r4!, {r0, r1, r2, r3}
 8004a70:	e895 000f 	ldmia.w	r5, {r0, r1, r2, r3}
 8004a74:	e884 000f 	stmia.w	r4, {r0, r1, r2, r3}
 8004a78:	ab0c      	add	r3, sp, #48	; 0x30
 8004a7a:	cb0f      	ldmia	r3, {r0, r1, r2, r3}
 8004a7c:	f7ff ff54 	bl	8004928 <write_all_settings>
 8004a80:	b01d      	add	sp, #116	; 0x74
 8004a82:	bd30      	pop	{r4, r5, pc}
 8004a84:	0a06002a 	.word	0x0a06002a
 8004a88:	08642314 	.word	0x08642314
 8004a8c:	017c012c 	.word	0x017c012c
 8004a90:	41b00000 	.word	0x41b00000
 8004a94:	41c80000 	.word	0x41c80000
 8004a98:	3f4ccccd 	.word	0x3f4ccccd
 8004a9c:	bf4ccccd 	.word	0xbf4ccccd
 8004aa0:	40400000 	.word	0x40400000
 8004aa4:	3e99999a 	.word	0x3e99999a
 8004aa8:	3df5c28f 	.word	0x3df5c28f
 8004aac:	3ca3d70a 	.word	0x3ca3d70a
 8004ab0:	005265c0 	.word	0x005265c0
 8004ab4:	40a00000 	.word	0x40a00000

08004ab8 <HAL_MspInit>:
 8004ab8:	b507      	push	{r0, r1, r2, lr}
 8004aba:	4b10      	ldr	r3, [pc, #64]	; (8004afc <HAL_MspInit+0x44>)
 8004abc:	2200      	movs	r2, #0
 8004abe:	9200      	str	r2, [sp, #0]
 8004ac0:	6c59      	ldr	r1, [r3, #68]	; 0x44
 8004ac2:	f441 4180 	orr.w	r1, r1, #16384	; 0x4000
 8004ac6:	6459      	str	r1, [r3, #68]	; 0x44
 8004ac8:	6c59      	ldr	r1, [r3, #68]	; 0x44
 8004aca:	f401 4180 	and.w	r1, r1, #16384	; 0x4000
 8004ace:	9100      	str	r1, [sp, #0]
 8004ad0:	9900      	ldr	r1, [sp, #0]
 8004ad2:	9201      	str	r2, [sp, #4]
 8004ad4:	6c19      	ldr	r1, [r3, #64]	; 0x40
 8004ad6:	f041 5180 	orr.w	r1, r1, #268435456	; 0x10000000
 8004ada:	6419      	str	r1, [r3, #64]	; 0x40
 8004adc:	6c1b      	ldr	r3, [r3, #64]	; 0x40
 8004ade:	f003 5380 	and.w	r3, r3, #268435456	; 0x10000000
 8004ae2:	9301      	str	r3, [sp, #4]
 8004ae4:	4611      	mov	r1, r2
 8004ae6:	2001      	movs	r0, #1
 8004ae8:	9b01      	ldr	r3, [sp, #4]
 8004aea:	f000 fee9 	bl	80058c0 <HAL_NVIC_SetPriority>
 8004aee:	2001      	movs	r0, #1
 8004af0:	b003      	add	sp, #12
 8004af2:	f85d eb04 	ldr.w	lr, [sp], #4
 8004af6:	f000 bf15 	b.w	8005924 <HAL_NVIC_EnableIRQ>
 8004afa:	bf00      	nop
 8004afc:	40023800 	.word	0x40023800

08004b00 <HAL_ADC_MspInit>:
 8004b00:	b570      	push	{r4, r5, r6, lr}
 8004b02:	4606      	mov	r6, r0
 8004b04:	b088      	sub	sp, #32
 8004b06:	2214      	movs	r2, #20
 8004b08:	2100      	movs	r1, #0
 8004b0a:	a803      	add	r0, sp, #12
 8004b0c:	f004 fa92 	bl	8009034 <memset>
 8004b10:	6832      	ldr	r2, [r6, #0]
 8004b12:	4b24      	ldr	r3, [pc, #144]	; (8004ba4 <HAL_ADC_MspInit+0xa4>)
 8004b14:	429a      	cmp	r2, r3
 8004b16:	d143      	bne.n	8004ba0 <HAL_ADC_MspInit+0xa0>
 8004b18:	2500      	movs	r5, #0
 8004b1a:	f503 338c 	add.w	r3, r3, #71680	; 0x11800
 8004b1e:	9501      	str	r5, [sp, #4]
 8004b20:	6c5a      	ldr	r2, [r3, #68]	; 0x44
 8004b22:	4821      	ldr	r0, [pc, #132]	; (8004ba8 <HAL_ADC_MspInit+0xa8>)
 8004b24:	4c21      	ldr	r4, [pc, #132]	; (8004bac <HAL_ADC_MspInit+0xac>)
 8004b26:	f442 7280 	orr.w	r2, r2, #256	; 0x100
 8004b2a:	645a      	str	r2, [r3, #68]	; 0x44
 8004b2c:	6c5a      	ldr	r2, [r3, #68]	; 0x44
 8004b2e:	f402 7280 	and.w	r2, r2, #256	; 0x100
 8004b32:	9201      	str	r2, [sp, #4]
 8004b34:	9a01      	ldr	r2, [sp, #4]
 8004b36:	9502      	str	r5, [sp, #8]
 8004b38:	6b1a      	ldr	r2, [r3, #48]	; 0x30
 8004b3a:	f042 0204 	orr.w	r2, r2, #4
 8004b3e:	631a      	str	r2, [r3, #48]	; 0x30
 8004b40:	6b1b      	ldr	r3, [r3, #48]	; 0x30
 8004b42:	9505      	str	r5, [sp, #20]
 8004b44:	f003 0304 	and.w	r3, r3, #4
 8004b48:	9302      	str	r3, [sp, #8]
 8004b4a:	9b02      	ldr	r3, [sp, #8]
 8004b4c:	220c      	movs	r2, #12
 8004b4e:	2303      	movs	r3, #3
 8004b50:	a903      	add	r1, sp, #12
 8004b52:	e9cd 2303 	strd	r2, r3, [sp, #12]
 8004b56:	f001 f905 	bl	8005d64 <HAL_GPIO_Init>
 8004b5a:	4b15      	ldr	r3, [pc, #84]	; (8004bb0 <HAL_ADC_MspInit+0xb0>)
 8004b5c:	f44f 6180 	mov.w	r1, #1024	; 0x400
 8004b60:	e9c4 3500 	strd	r3, r5, [r4]
 8004b64:	f44f 6300 	mov.w	r3, #2048	; 0x800
 8004b68:	f44f 5000 	mov.w	r0, #8192	; 0x2000
 8004b6c:	e9c4 1304 	strd	r1, r3, [r4, #16]
 8004b70:	f44f 7380 	mov.w	r3, #256	; 0x100
 8004b74:	e9c4 0306 	strd	r0, r3, [r4, #24]
 8004b78:	4620      	mov	r0, r4
 8004b7a:	e9c4 5502 	strd	r5, r5, [r4, #8]
 8004b7e:	e9c4 5508 	strd	r5, r5, [r4, #32]
 8004b82:	f000 ff09 	bl	8005998 <HAL_DMA_Init>
 8004b86:	b108      	cbz	r0, 8004b8c <HAL_ADC_MspInit+0x8c>
 8004b88:	f7ff fd47 	bl	800461a <Error_Handler>
 8004b8c:	2200      	movs	r2, #0
 8004b8e:	63b4      	str	r4, [r6, #56]	; 0x38
 8004b90:	2012      	movs	r0, #18
 8004b92:	4611      	mov	r1, r2
 8004b94:	63a6      	str	r6, [r4, #56]	; 0x38
 8004b96:	f000 fe93 	bl	80058c0 <HAL_NVIC_SetPriority>
 8004b9a:	2012      	movs	r0, #18
 8004b9c:	f000 fec2 	bl	8005924 <HAL_NVIC_EnableIRQ>
 8004ba0:	b008      	add	sp, #32
 8004ba2:	bd70      	pop	{r4, r5, r6, pc}
 8004ba4:	40012000 	.word	0x40012000
 8004ba8:	40020800 	.word	0x40020800
 8004bac:	20001ac4 	.word	0x20001ac4
 8004bb0:	40026410 	.word	0x40026410

08004bb4 <HAL_I2C_MspInit>:
 8004bb4:	b530      	push	{r4, r5, lr}
 8004bb6:	2214      	movs	r2, #20
 8004bb8:	b08b      	sub	sp, #44	; 0x2c
 8004bba:	4604      	mov	r4, r0
 8004bbc:	2100      	movs	r1, #0
 8004bbe:	eb0d 0002 	add.w	r0, sp, r2
 8004bc2:	f004 fa37 	bl	8009034 <memset>
 8004bc6:	6823      	ldr	r3, [r4, #0]
 8004bc8:	4a29      	ldr	r2, [pc, #164]	; (8004c70 <HAL_I2C_MspInit+0xbc>)
 8004bca:	4293      	cmp	r3, r2
 8004bcc:	d126      	bne.n	8004c1c <HAL_I2C_MspInit+0x68>
 8004bce:	4c29      	ldr	r4, [pc, #164]	; (8004c74 <HAL_I2C_MspInit+0xc0>)
 8004bd0:	2500      	movs	r5, #0
 8004bd2:	9501      	str	r5, [sp, #4]
 8004bd4:	6b23      	ldr	r3, [r4, #48]	; 0x30
 8004bd6:	f043 0302 	orr.w	r3, r3, #2
 8004bda:	6323      	str	r3, [r4, #48]	; 0x30
 8004bdc:	6b23      	ldr	r3, [r4, #48]	; 0x30
 8004bde:	f003 0302 	and.w	r3, r3, #2
 8004be2:	9301      	str	r3, [sp, #4]
 8004be4:	9b01      	ldr	r3, [sp, #4]
 8004be6:	20c0      	movs	r0, #192	; 0xc0
 8004be8:	2312      	movs	r3, #18
 8004bea:	e9cd 0305 	strd	r0, r3, [sp, #20]
 8004bee:	f04f 0c01 	mov.w	ip, #1
 8004bf2:	2303      	movs	r3, #3
 8004bf4:	e9cd c307 	strd	ip, r3, [sp, #28]
 8004bf8:	481f      	ldr	r0, [pc, #124]	; (8004c78 <HAL_I2C_MspInit+0xc4>)
 8004bfa:	2304      	movs	r3, #4
 8004bfc:	a905      	add	r1, sp, #20
 8004bfe:	9309      	str	r3, [sp, #36]	; 0x24
 8004c00:	f001 f8b0 	bl	8005d64 <HAL_GPIO_Init>
 8004c04:	9502      	str	r5, [sp, #8]
 8004c06:	6c23      	ldr	r3, [r4, #64]	; 0x40
 8004c08:	f443 1300 	orr.w	r3, r3, #2097152	; 0x200000
 8004c0c:	6423      	str	r3, [r4, #64]	; 0x40
 8004c0e:	6c23      	ldr	r3, [r4, #64]	; 0x40
 8004c10:	f403 1300 	and.w	r3, r3, #2097152	; 0x200000
 8004c14:	9302      	str	r3, [sp, #8]
 8004c16:	9b02      	ldr	r3, [sp, #8]
 8004c18:	b00b      	add	sp, #44	; 0x2c
 8004c1a:	bd30      	pop	{r4, r5, pc}
 8004c1c:	4a17      	ldr	r2, [pc, #92]	; (8004c7c <HAL_I2C_MspInit+0xc8>)
 8004c1e:	4293      	cmp	r3, r2
 8004c20:	d1fa      	bne.n	8004c18 <HAL_I2C_MspInit+0x64>
 8004c22:	4c14      	ldr	r4, [pc, #80]	; (8004c74 <HAL_I2C_MspInit+0xc0>)
 8004c24:	4814      	ldr	r0, [pc, #80]	; (8004c78 <HAL_I2C_MspInit+0xc4>)
 8004c26:	2500      	movs	r5, #0
 8004c28:	9503      	str	r5, [sp, #12]
 8004c2a:	6b23      	ldr	r3, [r4, #48]	; 0x30
 8004c2c:	f043 0302 	orr.w	r3, r3, #2
 8004c30:	6323      	str	r3, [r4, #48]	; 0x30
 8004c32:	6b23      	ldr	r3, [r4, #48]	; 0x30
 8004c34:	f003 0302 	and.w	r3, r3, #2
 8004c38:	9303      	str	r3, [sp, #12]
 8004c3a:	9b03      	ldr	r3, [sp, #12]
 8004c3c:	f44f 6240 	mov.w	r2, #3072	; 0xc00
 8004c40:	2312      	movs	r3, #18
 8004c42:	e9cd 2305 	strd	r2, r3, [sp, #20]
 8004c46:	2101      	movs	r1, #1
 8004c48:	2303      	movs	r3, #3
 8004c4a:	e9cd 1307 	strd	r1, r3, [sp, #28]
 8004c4e:	2304      	movs	r3, #4
 8004c50:	a905      	add	r1, sp, #20
 8004c52:	9309      	str	r3, [sp, #36]	; 0x24
 8004c54:	f001 f886 	bl	8005d64 <HAL_GPIO_Init>
 8004c58:	9504      	str	r5, [sp, #16]
 8004c5a:	6c23      	ldr	r3, [r4, #64]	; 0x40
 8004c5c:	f443 0380 	orr.w	r3, r3, #4194304	; 0x400000
 8004c60:	6423      	str	r3, [r4, #64]	; 0x40
 8004c62:	6c23      	ldr	r3, [r4, #64]	; 0x40
 8004c64:	f403 0380 	and.w	r3, r3, #4194304	; 0x400000
 8004c68:	9304      	str	r3, [sp, #16]
 8004c6a:	9b04      	ldr	r3, [sp, #16]
 8004c6c:	e7d4      	b.n	8004c18 <HAL_I2C_MspInit+0x64>
 8004c6e:	bf00      	nop
 8004c70:	40005400 	.word	0x40005400
 8004c74:	40023800 	.word	0x40023800
 8004c78:	40020400 	.word	0x40020400
 8004c7c:	40005800 	.word	0x40005800

08004c80 <HAL_I2C_MspDeInit>:
 8004c80:	b508      	push	{r3, lr}
 8004c82:	4a13      	ldr	r2, [pc, #76]	; (8004cd0 <HAL_I2C_MspDeInit+0x50>)
 8004c84:	6803      	ldr	r3, [r0, #0]
 8004c86:	4293      	cmp	r3, r2
 8004c88:	d10f      	bne.n	8004caa <HAL_I2C_MspDeInit+0x2a>
 8004c8a:	f502 32f2 	add.w	r2, r2, #123904	; 0x1e400
 8004c8e:	2140      	movs	r1, #64	; 0x40
 8004c90:	6c13      	ldr	r3, [r2, #64]	; 0x40
 8004c92:	4810      	ldr	r0, [pc, #64]	; (8004cd4 <HAL_I2C_MspDeInit+0x54>)
 8004c94:	f423 1300 	bic.w	r3, r3, #2097152	; 0x200000
 8004c98:	6413      	str	r3, [r2, #64]	; 0x40
 8004c9a:	f001 f945 	bl	8005f28 <HAL_GPIO_DeInit>
 8004c9e:	2180      	movs	r1, #128	; 0x80
 8004ca0:	e8bd 4008 	ldmia.w	sp!, {r3, lr}
 8004ca4:	480b      	ldr	r0, [pc, #44]	; (8004cd4 <HAL_I2C_MspDeInit+0x54>)
 8004ca6:	f001 b93f 	b.w	8005f28 <HAL_GPIO_DeInit>
 8004caa:	4a0b      	ldr	r2, [pc, #44]	; (8004cd8 <HAL_I2C_MspDeInit+0x58>)
 8004cac:	4293      	cmp	r3, r2
 8004cae:	d10d      	bne.n	8004ccc <HAL_I2C_MspDeInit+0x4c>
 8004cb0:	f502 32f0 	add.w	r2, r2, #122880	; 0x1e000
 8004cb4:	f44f 6180 	mov.w	r1, #1024	; 0x400
 8004cb8:	6c13      	ldr	r3, [r2, #64]	; 0x40
 8004cba:	4806      	ldr	r0, [pc, #24]	; (8004cd4 <HAL_I2C_MspDeInit+0x54>)
 8004cbc:	f423 0380 	bic.w	r3, r3, #4194304	; 0x400000
 8004cc0:	6413      	str	r3, [r2, #64]	; 0x40
 8004cc2:	f001 f931 	bl	8005f28 <HAL_GPIO_DeInit>
 8004cc6:	f44f 6100 	mov.w	r1, #2048	; 0x800
 8004cca:	e7e9      	b.n	8004ca0 <HAL_I2C_MspDeInit+0x20>
 8004ccc:	bd08      	pop	{r3, pc}
 8004cce:	bf00      	nop
 8004cd0:	40005400 	.word	0x40005400
 8004cd4:	40020400 	.word	0x40020400
 8004cd8:	40005800 	.word	0x40005800

08004cdc <HAL_RNG_MspInit>:
 8004cdc:	b507      	push	{r0, r1, r2, lr}
 8004cde:	4b0e      	ldr	r3, [pc, #56]	; (8004d18 <HAL_RNG_MspInit+0x3c>)
 8004ce0:	6802      	ldr	r2, [r0, #0]
 8004ce2:	429a      	cmp	r2, r3
 8004ce4:	d115      	bne.n	8004d12 <HAL_RNG_MspInit+0x36>
 8004ce6:	2200      	movs	r2, #0
 8004ce8:	4b0c      	ldr	r3, [pc, #48]	; (8004d1c <HAL_RNG_MspInit+0x40>)
 8004cea:	9201      	str	r2, [sp, #4]
 8004cec:	6b59      	ldr	r1, [r3, #52]	; 0x34
 8004cee:	f041 0140 	orr.w	r1, r1, #64	; 0x40
 8004cf2:	6359      	str	r1, [r3, #52]	; 0x34
 8004cf4:	6b5b      	ldr	r3, [r3, #52]	; 0x34
 8004cf6:	f003 0340 	and.w	r3, r3, #64	; 0x40
 8004cfa:	9301      	str	r3, [sp, #4]
 8004cfc:	4611      	mov	r1, r2
 8004cfe:	2050      	movs	r0, #80	; 0x50
 8004d00:	9b01      	ldr	r3, [sp, #4]
 8004d02:	f000 fddd 	bl	80058c0 <HAL_NVIC_SetPriority>
 8004d06:	2050      	movs	r0, #80	; 0x50
 8004d08:	b003      	add	sp, #12
 8004d0a:	f85d eb04 	ldr.w	lr, [sp], #4
 8004d0e:	f000 be09 	b.w	8005924 <HAL_NVIC_EnableIRQ>
 8004d12:	b003      	add	sp, #12
 8004d14:	f85d fb04 	ldr.w	pc, [sp], #4
 8004d18:	50060800 	.word	0x50060800
 8004d1c:	40023800 	.word	0x40023800

08004d20 <HAL_RTC_MspInit>:
 8004d20:	6802      	ldr	r2, [r0, #0]
 8004d22:	4b03      	ldr	r3, [pc, #12]	; (8004d30 <HAL_RTC_MspInit+0x10>)
 8004d24:	429a      	cmp	r2, r3
 8004d26:	bf02      	ittt	eq
 8004d28:	4b02      	ldreq	r3, [pc, #8]	; (8004d34 <HAL_RTC_MspInit+0x14>)
 8004d2a:	2201      	moveq	r2, #1
 8004d2c:	601a      	streq	r2, [r3, #0]
 8004d2e:	4770      	bx	lr
 8004d30:	40002800 	.word	0x40002800
 8004d34:	42470e3c 	.word	0x42470e3c

08004d38 <HAL_TIM_Base_MspInit>:
 8004d38:	b51f      	push	{r0, r1, r2, r3, r4, lr}
 8004d3a:	6803      	ldr	r3, [r0, #0]
 8004d3c:	f1b3 4f80 	cmp.w	r3, #1073741824	; 0x40000000
 8004d40:	d116      	bne.n	8004d70 <HAL_TIM_Base_MspInit+0x38>
 8004d42:	2200      	movs	r2, #0
 8004d44:	f503 330e 	add.w	r3, r3, #145408	; 0x23800
 8004d48:	9200      	str	r2, [sp, #0]
 8004d4a:	6c19      	ldr	r1, [r3, #64]	; 0x40
 8004d4c:	f041 0101 	orr.w	r1, r1, #1
 8004d50:	6419      	str	r1, [r3, #64]	; 0x40
 8004d52:	6c1b      	ldr	r3, [r3, #64]	; 0x40
 8004d54:	f003 0301 	and.w	r3, r3, #1
 8004d58:	9300      	str	r3, [sp, #0]
 8004d5a:	201c      	movs	r0, #28
 8004d5c:	4611      	mov	r1, r2
 8004d5e:	9b00      	ldr	r3, [sp, #0]
 8004d60:	f000 fdae 	bl	80058c0 <HAL_NVIC_SetPriority>
 8004d64:	201c      	movs	r0, #28
 8004d66:	b005      	add	sp, #20
 8004d68:	f85d eb04 	ldr.w	lr, [sp], #4
 8004d6c:	f000 bdda 	b.w	8005924 <HAL_NVIC_EnableIRQ>
 8004d70:	4a1b      	ldr	r2, [pc, #108]	; (8004de0 <HAL_TIM_Base_MspInit+0xa8>)
 8004d72:	4293      	cmp	r3, r2
 8004d74:	d10e      	bne.n	8004d94 <HAL_TIM_Base_MspInit+0x5c>
 8004d76:	2300      	movs	r3, #0
 8004d78:	9301      	str	r3, [sp, #4]
 8004d7a:	4b1a      	ldr	r3, [pc, #104]	; (8004de4 <HAL_TIM_Base_MspInit+0xac>)
 8004d7c:	6c1a      	ldr	r2, [r3, #64]	; 0x40
 8004d7e:	f042 0202 	orr.w	r2, r2, #2
 8004d82:	641a      	str	r2, [r3, #64]	; 0x40
 8004d84:	6c1b      	ldr	r3, [r3, #64]	; 0x40
 8004d86:	f003 0302 	and.w	r3, r3, #2
 8004d8a:	9301      	str	r3, [sp, #4]
 8004d8c:	9b01      	ldr	r3, [sp, #4]
 8004d8e:	b005      	add	sp, #20
 8004d90:	f85d fb04 	ldr.w	pc, [sp], #4
 8004d94:	4a14      	ldr	r2, [pc, #80]	; (8004de8 <HAL_TIM_Base_MspInit+0xb0>)
 8004d96:	4293      	cmp	r3, r2
 8004d98:	d10c      	bne.n	8004db4 <HAL_TIM_Base_MspInit+0x7c>
 8004d9a:	2300      	movs	r3, #0
 8004d9c:	9302      	str	r3, [sp, #8]
 8004d9e:	4b11      	ldr	r3, [pc, #68]	; (8004de4 <HAL_TIM_Base_MspInit+0xac>)
 8004da0:	6c1a      	ldr	r2, [r3, #64]	; 0x40
 8004da2:	f042 0204 	orr.w	r2, r2, #4
 8004da6:	641a      	str	r2, [r3, #64]	; 0x40
 8004da8:	6c1b      	ldr	r3, [r3, #64]	; 0x40
 8004daa:	f003 0304 	and.w	r3, r3, #4
 8004dae:	9302      	str	r3, [sp, #8]
 8004db0:	9b02      	ldr	r3, [sp, #8]
 8004db2:	e7ec      	b.n	8004d8e <HAL_TIM_Base_MspInit+0x56>
 8004db4:	4a0d      	ldr	r2, [pc, #52]	; (8004dec <HAL_TIM_Base_MspInit+0xb4>)
 8004db6:	4293      	cmp	r3, r2
 8004db8:	d1e9      	bne.n	8004d8e <HAL_TIM_Base_MspInit+0x56>
 8004dba:	4b0a      	ldr	r3, [pc, #40]	; (8004de4 <HAL_TIM_Base_MspInit+0xac>)
 8004dbc:	2200      	movs	r2, #0
 8004dbe:	9203      	str	r2, [sp, #12]
 8004dc0:	6c19      	ldr	r1, [r3, #64]	; 0x40
 8004dc2:	f041 0108 	orr.w	r1, r1, #8
 8004dc6:	6419      	str	r1, [r3, #64]	; 0x40
 8004dc8:	6c1b      	ldr	r3, [r3, #64]	; 0x40
 8004dca:	f003 0308 	and.w	r3, r3, #8
 8004dce:	9303      	str	r3, [sp, #12]
 8004dd0:	2032      	movs	r0, #50	; 0x32
 8004dd2:	4611      	mov	r1, r2
 8004dd4:	9b03      	ldr	r3, [sp, #12]
 8004dd6:	f000 fd73 	bl	80058c0 <HAL_NVIC_SetPriority>
 8004dda:	2032      	movs	r0, #50	; 0x32
 8004ddc:	e7c3      	b.n	8004d66 <HAL_TIM_Base_MspInit+0x2e>
 8004dde:	bf00      	nop
 8004de0:	40000400 	.word	0x40000400
 8004de4:	40023800 	.word	0x40023800
 8004de8:	40000800 	.word	0x40000800
 8004dec:	40000c00 	.word	0x40000c00

08004df0 <HAL_TIM_MspPostInit>:
 8004df0:	b510      	push	{r4, lr}
 8004df2:	4604      	mov	r4, r0
 8004df4:	b088      	sub	sp, #32
 8004df6:	2214      	movs	r2, #20
 8004df8:	2100      	movs	r1, #0
 8004dfa:	a803      	add	r0, sp, #12
 8004dfc:	f004 f91a 	bl	8009034 <memset>
 8004e00:	6823      	ldr	r3, [r4, #0]
 8004e02:	4a1c      	ldr	r2, [pc, #112]	; (8004e74 <HAL_TIM_MspPostInit+0x84>)
 8004e04:	4293      	cmp	r3, r2
 8004e06:	d119      	bne.n	8004e3c <HAL_TIM_MspPostInit+0x4c>
 8004e08:	2300      	movs	r3, #0
 8004e0a:	9301      	str	r3, [sp, #4]
 8004e0c:	4b1a      	ldr	r3, [pc, #104]	; (8004e78 <HAL_TIM_MspPostInit+0x88>)
 8004e0e:	481b      	ldr	r0, [pc, #108]	; (8004e7c <HAL_TIM_MspPostInit+0x8c>)
 8004e10:	6b1a      	ldr	r2, [r3, #48]	; 0x30
 8004e12:	f042 0204 	orr.w	r2, r2, #4
 8004e16:	631a      	str	r2, [r3, #48]	; 0x30
 8004e18:	6b1b      	ldr	r3, [r3, #48]	; 0x30
 8004e1a:	f003 0304 	and.w	r3, r3, #4
 8004e1e:	9301      	str	r3, [sp, #4]
 8004e20:	9b01      	ldr	r3, [sp, #4]
 8004e22:	2203      	movs	r2, #3
 8004e24:	2302      	movs	r3, #2
 8004e26:	e9cd 2306 	strd	r2, r3, [sp, #24]
 8004e2a:	21c0      	movs	r1, #192	; 0xc0
 8004e2c:	e9cd 1303 	strd	r1, r3, [sp, #12]
 8004e30:	9305      	str	r3, [sp, #20]
 8004e32:	a903      	add	r1, sp, #12
 8004e34:	f000 ff96 	bl	8005d64 <HAL_GPIO_Init>
 8004e38:	b008      	add	sp, #32
 8004e3a:	bd10      	pop	{r4, pc}
 8004e3c:	4a10      	ldr	r2, [pc, #64]	; (8004e80 <HAL_TIM_MspPostInit+0x90>)
 8004e3e:	4293      	cmp	r3, r2
 8004e40:	d1fa      	bne.n	8004e38 <HAL_TIM_MspPostInit+0x48>
 8004e42:	2300      	movs	r3, #0
 8004e44:	9302      	str	r3, [sp, #8]
 8004e46:	4b0c      	ldr	r3, [pc, #48]	; (8004e78 <HAL_TIM_MspPostInit+0x88>)
 8004e48:	480e      	ldr	r0, [pc, #56]	; (8004e84 <HAL_TIM_MspPostInit+0x94>)
 8004e4a:	6b1a      	ldr	r2, [r3, #48]	; 0x30
 8004e4c:	f042 0208 	orr.w	r2, r2, #8
 8004e50:	631a      	str	r2, [r3, #48]	; 0x30
 8004e52:	6b1b      	ldr	r3, [r3, #48]	; 0x30
 8004e54:	f003 0308 	and.w	r3, r3, #8
 8004e58:	9302      	str	r3, [sp, #8]
 8004e5a:	f44f 4270 	mov.w	r2, #61440	; 0xf000
 8004e5e:	9b02      	ldr	r3, [sp, #8]
 8004e60:	2302      	movs	r3, #2
 8004e62:	e9cd 2303 	strd	r2, r3, [sp, #12]
 8004e66:	2203      	movs	r2, #3
 8004e68:	e9cd 2306 	strd	r2, r3, [sp, #24]
 8004e6c:	9305      	str	r3, [sp, #20]
 8004e6e:	a903      	add	r1, sp, #12
 8004e70:	e7e0      	b.n	8004e34 <HAL_TIM_MspPostInit+0x44>
 8004e72:	bf00      	nop
 8004e74:	40000400 	.word	0x40000400
 8004e78:	40023800 	.word	0x40023800
 8004e7c:	40020800 	.word	0x40020800
 8004e80:	40000800 	.word	0x40000800
 8004e84:	40020c00 	.word	0x40020c00

08004e88 <HAL_UART_MspInit>:
 8004e88:	b570      	push	{r4, r5, r6, lr}
 8004e8a:	2214      	movs	r2, #20
 8004e8c:	b08a      	sub	sp, #40	; 0x28
 8004e8e:	4606      	mov	r6, r0
 8004e90:	2100      	movs	r1, #0
 8004e92:	eb0d 0002 	add.w	r0, sp, r2
 8004e96:	f004 f8cd 	bl	8009034 <memset>
 8004e9a:	6833      	ldr	r3, [r6, #0]
 8004e9c:	4a47      	ldr	r2, [pc, #284]	; (8004fbc <HAL_UART_MspInit+0x134>)
 8004e9e:	4293      	cmp	r3, r2
 8004ea0:	d147      	bne.n	8004f32 <HAL_UART_MspInit+0xaa>
 8004ea2:	2500      	movs	r5, #0
 8004ea4:	4b46      	ldr	r3, [pc, #280]	; (8004fc0 <HAL_UART_MspInit+0x138>)
 8004ea6:	9501      	str	r5, [sp, #4]
 8004ea8:	6c5a      	ldr	r2, [r3, #68]	; 0x44
 8004eaa:	4846      	ldr	r0, [pc, #280]	; (8004fc4 <HAL_UART_MspInit+0x13c>)
 8004eac:	f042 0210 	orr.w	r2, r2, #16
 8004eb0:	645a      	str	r2, [r3, #68]	; 0x44
 8004eb2:	6c5a      	ldr	r2, [r3, #68]	; 0x44
 8004eb4:	f002 0210 	and.w	r2, r2, #16
 8004eb8:	9201      	str	r2, [sp, #4]
 8004eba:	9a01      	ldr	r2, [sp, #4]
 8004ebc:	9502      	str	r5, [sp, #8]
 8004ebe:	6b1a      	ldr	r2, [r3, #48]	; 0x30
 8004ec0:	f042 0201 	orr.w	r2, r2, #1
 8004ec4:	631a      	str	r2, [r3, #48]	; 0x30
 8004ec6:	6b1b      	ldr	r3, [r3, #48]	; 0x30
 8004ec8:	9507      	str	r5, [sp, #28]
 8004eca:	f003 0301 	and.w	r3, r3, #1
 8004ece:	9302      	str	r3, [sp, #8]
 8004ed0:	9b02      	ldr	r3, [sp, #8]
 8004ed2:	f44f 64c0 	mov.w	r4, #1536	; 0x600
 8004ed6:	2302      	movs	r3, #2
 8004ed8:	e9cd 4305 	strd	r4, r3, [sp, #20]
 8004edc:	f04f 0c03 	mov.w	ip, #3
 8004ee0:	2307      	movs	r3, #7
 8004ee2:	a905      	add	r1, sp, #20
 8004ee4:	4c38      	ldr	r4, [pc, #224]	; (8004fc8 <HAL_UART_MspInit+0x140>)
 8004ee6:	e9cd c308 	strd	ip, r3, [sp, #32]
 8004eea:	f000 ff3b 	bl	8005d64 <HAL_GPIO_Init>
 8004eee:	f8df e0e8 	ldr.w	lr, [pc, #232]	; 8004fd8 <HAL_UART_MspInit+0x150>
 8004ef2:	f04f 6300 	mov.w	r3, #134217728	; 0x8000000
 8004ef6:	e9c4 e300 	strd	lr, r3, [r4]
 8004efa:	4620      	mov	r0, r4
 8004efc:	f44f 6380 	mov.w	r3, #1024	; 0x400
 8004f00:	e9c4 5502 	strd	r5, r5, [r4, #8]
 8004f04:	e9c4 3504 	strd	r3, r5, [r4, #16]
 8004f08:	e9c4 5506 	strd	r5, r5, [r4, #24]
 8004f0c:	e9c4 5508 	strd	r5, r5, [r4, #32]
 8004f10:	f000 fd42 	bl	8005998 <HAL_DMA_Init>
 8004f14:	b108      	cbz	r0, 8004f1a <HAL_UART_MspInit+0x92>
 8004f16:	f7ff fb80 	bl	800461a <Error_Handler>
 8004f1a:	2200      	movs	r2, #0
 8004f1c:	63b4      	str	r4, [r6, #56]	; 0x38
 8004f1e:	2025      	movs	r0, #37	; 0x25
 8004f20:	4611      	mov	r1, r2
 8004f22:	63a6      	str	r6, [r4, #56]	; 0x38
 8004f24:	f000 fccc 	bl	80058c0 <HAL_NVIC_SetPriority>
 8004f28:	2025      	movs	r0, #37	; 0x25
 8004f2a:	f000 fcfb 	bl	8005924 <HAL_NVIC_EnableIRQ>
 8004f2e:	b00a      	add	sp, #40	; 0x28
 8004f30:	bd70      	pop	{r4, r5, r6, pc}
 8004f32:	4a26      	ldr	r2, [pc, #152]	; (8004fcc <HAL_UART_MspInit+0x144>)
 8004f34:	4293      	cmp	r3, r2
 8004f36:	d1fa      	bne.n	8004f2e <HAL_UART_MspInit+0xa6>
 8004f38:	2500      	movs	r5, #0
 8004f3a:	4b21      	ldr	r3, [pc, #132]	; (8004fc0 <HAL_UART_MspInit+0x138>)
 8004f3c:	9503      	str	r5, [sp, #12]
 8004f3e:	6c1a      	ldr	r2, [r3, #64]	; 0x40
 8004f40:	4820      	ldr	r0, [pc, #128]	; (8004fc4 <HAL_UART_MspInit+0x13c>)
 8004f42:	4c23      	ldr	r4, [pc, #140]	; (8004fd0 <HAL_UART_MspInit+0x148>)
 8004f44:	f442 3200 	orr.w	r2, r2, #131072	; 0x20000
 8004f48:	641a      	str	r2, [r3, #64]	; 0x40
 8004f4a:	6c1a      	ldr	r2, [r3, #64]	; 0x40
 8004f4c:	f402 3200 	and.w	r2, r2, #131072	; 0x20000
 8004f50:	9203      	str	r2, [sp, #12]
 8004f52:	9a03      	ldr	r2, [sp, #12]
 8004f54:	9504      	str	r5, [sp, #16]
 8004f56:	6b1a      	ldr	r2, [r3, #48]	; 0x30
 8004f58:	f042 0201 	orr.w	r2, r2, #1
 8004f5c:	631a      	str	r2, [r3, #48]	; 0x30
 8004f5e:	6b1b      	ldr	r3, [r3, #48]	; 0x30
 8004f60:	9507      	str	r5, [sp, #28]
 8004f62:	f003 0301 	and.w	r3, r3, #1
 8004f66:	9304      	str	r3, [sp, #16]
 8004f68:	9b04      	ldr	r3, [sp, #16]
 8004f6a:	220c      	movs	r2, #12
 8004f6c:	2302      	movs	r3, #2
 8004f6e:	e9cd 2305 	strd	r2, r3, [sp, #20]
 8004f72:	2103      	movs	r1, #3
 8004f74:	2307      	movs	r3, #7
 8004f76:	e9cd 1308 	strd	r1, r3, [sp, #32]
 8004f7a:	a905      	add	r1, sp, #20
 8004f7c:	f000 fef2 	bl	8005d64 <HAL_GPIO_Init>
 8004f80:	4814      	ldr	r0, [pc, #80]	; (8004fd4 <HAL_UART_MspInit+0x14c>)
 8004f82:	f04f 6300 	mov.w	r3, #134217728	; 0x8000000
 8004f86:	e9c4 0300 	strd	r0, r3, [r4]
 8004f8a:	f44f 6380 	mov.w	r3, #1024	; 0x400
 8004f8e:	4620      	mov	r0, r4
 8004f90:	e9c4 5502 	strd	r5, r5, [r4, #8]
 8004f94:	e9c4 3504 	strd	r3, r5, [r4, #16]
 8004f98:	e9c4 5506 	strd	r5, r5, [r4, #24]
 8004f9c:	e9c4 5508 	strd	r5, r5, [r4, #32]
 8004fa0:	f000 fcfa 	bl	8005998 <HAL_DMA_Init>
 8004fa4:	b108      	cbz	r0, 8004faa <HAL_UART_MspInit+0x122>
 8004fa6:	f7ff fb38 	bl	800461a <Error_Handler>
 8004faa:	2200      	movs	r2, #0
 8004fac:	63b4      	str	r4, [r6, #56]	; 0x38
 8004fae:	2026      	movs	r0, #38	; 0x26
 8004fb0:	4611      	mov	r1, r2
 8004fb2:	63a6      	str	r6, [r4, #56]	; 0x38
 8004fb4:	f000 fc84 	bl	80058c0 <HAL_NVIC_SetPriority>
 8004fb8:	2026      	movs	r0, #38	; 0x26
 8004fba:	e7b6      	b.n	8004f2a <HAL_UART_MspInit+0xa2>
 8004fbc:	40011000 	.word	0x40011000
 8004fc0:	40023800 	.word	0x40023800
 8004fc4:	40020000 	.word	0x40020000
 8004fc8:	20001600 	.word	0x20001600
 8004fcc:	40004400 	.word	0x40004400
 8004fd0:	20000a04 	.word	0x20000a04
 8004fd4:	40026088 	.word	0x40026088
 8004fd8:	40026440 	.word	0x40026440

08004fdc <NMI_Handler>:
 8004fdc:	e7fe      	b.n	8004fdc <NMI_Handler>

08004fde <HardFault_Handler>:
 8004fde:	e7fe      	b.n	8004fde <HardFault_Handler>

08004fe0 <MemManage_Handler>:
 8004fe0:	e7fe      	b.n	8004fe0 <MemManage_Handler>

08004fe2 <BusFault_Handler>:
 8004fe2:	e7fe      	b.n	8004fe2 <BusFault_Handler>

08004fe4 <UsageFault_Handler>:
 8004fe4:	e7fe      	b.n	8004fe4 <UsageFault_Handler>

08004fe6 <SVC_Handler>:
 8004fe6:	4770      	bx	lr

08004fe8 <DebugMon_Handler>:
 8004fe8:	4770      	bx	lr

08004fea <PendSV_Handler>:
 8004fea:	4770      	bx	lr

08004fec <SysTick_Handler>:
 8004fec:	f000 b92e 	b.w	800524c <HAL_IncTick>

08004ff0 <PVD_IRQHandler>:
 8004ff0:	f001 bf1e 	b.w	8006e30 <HAL_PWR_PVD_IRQHandler>

08004ff4 <DMA1_Stream5_IRQHandler>:
 8004ff4:	4801      	ldr	r0, [pc, #4]	; (8004ffc <DMA1_Stream5_IRQHandler+0x8>)
 8004ff6:	f000 bdeb 	b.w	8005bd0 <HAL_DMA_IRQHandler>
 8004ffa:	bf00      	nop
 8004ffc:	20000a04 	.word	0x20000a04

08005000 <ADC_IRQHandler>:
 8005000:	4801      	ldr	r0, [pc, #4]	; (8005008 <ADC_IRQHandler+0x8>)
 8005002:	f000 babd 	b.w	8005580 <HAL_ADC_IRQHandler>
 8005006:	bf00      	nop
 8005008:	200011b8 	.word	0x200011b8

0800500c <TIM2_IRQHandler>:
 800500c:	4801      	ldr	r0, [pc, #4]	; (8005014 <TIM2_IRQHandler+0x8>)
 800500e:	f002 bda6 	b.w	8007b5e <HAL_TIM_IRQHandler>
 8005012:	bf00      	nop
 8005014:	20001f9c 	.word	0x20001f9c

08005018 <USART1_IRQHandler>:
 8005018:	b510      	push	{r4, lr}
 800501a:	4c07      	ldr	r4, [pc, #28]	; (8005038 <USART1_IRQHandler+0x20>)
 800501c:	4620      	mov	r0, r4
 800501e:	f003 fad9 	bl	80085d4 <HAL_UART_IRQHandler>
 8005022:	6823      	ldr	r3, [r4, #0]
 8005024:	681b      	ldr	r3, [r3, #0]
 8005026:	06db      	lsls	r3, r3, #27
 8005028:	d504      	bpl.n	8005034 <USART1_IRQHandler+0x1c>
 800502a:	4620      	mov	r0, r4
 800502c:	e8bd 4010 	ldmia.w	sp!, {r4, lr}
 8005030:	f7ff babe 	b.w	80045b0 <HAL_UART_RxCpltCallback_UART1>
 8005034:	bd10      	pop	{r4, pc}
 8005036:	bf00      	nop
 8005038:	20001a60 	.word	0x20001a60

0800503c <USART2_IRQHandler>:
 800503c:	b510      	push	{r4, lr}
 800503e:	4c07      	ldr	r4, [pc, #28]	; (800505c <USART2_IRQHandler+0x20>)
 8005040:	4620      	mov	r0, r4
 8005042:	f003 fac7 	bl	80085d4 <HAL_UART_IRQHandler>
 8005046:	6823      	ldr	r3, [r4, #0]
 8005048:	681b      	ldr	r3, [r3, #0]
 800504a:	06db      	lsls	r3, r3, #27
 800504c:	d504      	bpl.n	8005058 <USART2_IRQHandler+0x1c>
 800504e:	4620      	mov	r0, r4
 8005050:	e8bd 4010 	ldmia.w	sp!, {r4, lr}
 8005054:	f7ff bac6 	b.w	80045e4 <HAL_UART_RxCpltCallback_UART2>
 8005058:	bd10      	pop	{r4, pc}
 800505a:	bf00      	nop
 800505c:	20001fe4 	.word	0x20001fe4

08005060 <TIM5_IRQHandler>:
 8005060:	4801      	ldr	r0, [pc, #4]	; (8005068 <TIM5_IRQHandler+0x8>)
 8005062:	f002 bd7c 	b.w	8007b5e <HAL_TIM_IRQHandler>
 8005066:	bf00      	nop
 8005068:	20001110 	.word	0x20001110

0800506c <DMA2_Stream0_IRQHandler>:
 800506c:	4801      	ldr	r0, [pc, #4]	; (8005074 <DMA2_Stream0_IRQHandler+0x8>)
 800506e:	f000 bdaf 	b.w	8005bd0 <HAL_DMA_IRQHandler>
 8005072:	bf00      	nop
 8005074:	20001ac4 	.word	0x20001ac4

08005078 <DMA2_Stream2_IRQHandler>:
 8005078:	4801      	ldr	r0, [pc, #4]	; (8005080 <DMA2_Stream2_IRQHandler+0x8>)
 800507a:	f000 bda9 	b.w	8005bd0 <HAL_DMA_IRQHandler>
 800507e:	bf00      	nop
 8005080:	20001600 	.word	0x20001600

08005084 <HASH_RNG_IRQHandler>:
 8005084:	4801      	ldr	r0, [pc, #4]	; (800508c <HASH_RNG_IRQHandler+0x8>)
 8005086:	f002 ba7a 	b.w	800757e <HAL_RNG_IRQHandler>
 800508a:	bf00      	nop
 800508c:	20001f88 	.word	0x20001f88

08005090 <_getpid>:
 8005090:	2001      	movs	r0, #1
 8005092:	4770      	bx	lr

08005094 <_kill>:
 8005094:	b508      	push	{r3, lr}
 8005096:	f003 ff95 	bl	8008fc4 <__errno>
 800509a:	2316      	movs	r3, #22
 800509c:	6003      	str	r3, [r0, #0]
 800509e:	f04f 30ff 	mov.w	r0, #4294967295
 80050a2:	bd08      	pop	{r3, pc}

080050a4 <_exit>:
 80050a4:	b508      	push	{r3, lr}
 80050a6:	f003 ff8d 	bl	8008fc4 <__errno>
 80050aa:	2316      	movs	r3, #22
 80050ac:	6003      	str	r3, [r0, #0]
 80050ae:	e7fe      	b.n	80050ae <_exit+0xa>

080050b0 <_read>:
 80050b0:	b570      	push	{r4, r5, r6, lr}
 80050b2:	460e      	mov	r6, r1
 80050b4:	4614      	mov	r4, r2
 80050b6:	2500      	movs	r5, #0
 80050b8:	42a5      	cmp	r5, r4
 80050ba:	db01      	blt.n	80050c0 <_read+0x10>
 80050bc:	4620      	mov	r0, r4
 80050be:	bd70      	pop	{r4, r5, r6, pc}
 80050c0:	f3af 8000 	nop.w
 80050c4:	5570      	strb	r0, [r6, r5]
 80050c6:	3501      	adds	r5, #1
 80050c8:	e7f6      	b.n	80050b8 <_read+0x8>

080050ca <_write>:
 80050ca:	b570      	push	{r4, r5, r6, lr}
 80050cc:	460e      	mov	r6, r1
 80050ce:	4614      	mov	r4, r2
 80050d0:	2500      	movs	r5, #0
 80050d2:	42a5      	cmp	r5, r4
 80050d4:	db01      	blt.n	80050da <_write+0x10>
 80050d6:	4620      	mov	r0, r4
 80050d8:	bd70      	pop	{r4, r5, r6, pc}
 80050da:	5d70      	ldrb	r0, [r6, r5]
 80050dc:	f3af 8000 	nop.w
 80050e0:	3501      	adds	r5, #1
 80050e2:	e7f6      	b.n	80050d2 <_write+0x8>

080050e4 <_close>:
 80050e4:	f04f 30ff 	mov.w	r0, #4294967295
 80050e8:	4770      	bx	lr

080050ea <_fstat>:
 80050ea:	f44f 5300 	mov.w	r3, #8192	; 0x2000
 80050ee:	604b      	str	r3, [r1, #4]
 80050f0:	2000      	movs	r0, #0
 80050f2:	4770      	bx	lr

080050f4 <_isatty>:
 80050f4:	2001      	movs	r0, #1
 80050f6:	4770      	bx	lr

080050f8 <_lseek>:
 80050f8:	2000      	movs	r0, #0
 80050fa:	4770      	bx	lr

080050fc <_sbrk>:
 80050fc:	b510      	push	{r4, lr}
 80050fe:	4b0b      	ldr	r3, [pc, #44]	; (800512c <_sbrk+0x30>)
 8005100:	6819      	ldr	r1, [r3, #0]
 8005102:	4602      	mov	r2, r0
 8005104:	b909      	cbnz	r1, 800510a <_sbrk+0xe>
 8005106:	490a      	ldr	r1, [pc, #40]	; (8005130 <_sbrk+0x34>)
 8005108:	6019      	str	r1, [r3, #0]
 800510a:	6818      	ldr	r0, [r3, #0]
 800510c:	4909      	ldr	r1, [pc, #36]	; (8005134 <_sbrk+0x38>)
 800510e:	4c0a      	ldr	r4, [pc, #40]	; (8005138 <_sbrk+0x3c>)
 8005110:	4402      	add	r2, r0
 8005112:	1b09      	subs	r1, r1, r4
 8005114:	428a      	cmp	r2, r1
 8005116:	d906      	bls.n	8005126 <_sbrk+0x2a>
 8005118:	f003 ff54 	bl	8008fc4 <__errno>
 800511c:	230c      	movs	r3, #12
 800511e:	6003      	str	r3, [r0, #0]
 8005120:	f04f 30ff 	mov.w	r0, #4294967295
 8005124:	bd10      	pop	{r4, pc}
 8005126:	601a      	str	r2, [r3, #0]
 8005128:	e7fc      	b.n	8005124 <_sbrk+0x28>
 800512a:	bf00      	nop
 800512c:	200009a4 	.word	0x200009a4
 8005130:	20002048 	.word	0x20002048
 8005134:	20020000 	.word	0x20020000
 8005138:	00000400 	.word	0x00000400

0800513c <SystemInit>:
 800513c:	4a03      	ldr	r2, [pc, #12]	; (800514c <SystemInit+0x10>)
 800513e:	f8d2 3088 	ldr.w	r3, [r2, #136]	; 0x88
 8005142:	f443 0370 	orr.w	r3, r3, #15728640	; 0xf00000
 8005146:	f8c2 3088 	str.w	r3, [r2, #136]	; 0x88
 800514a:	4770      	bx	lr
 800514c:	e000ed00 	.word	0xe000ed00

08005150 <Reset_Handler>:
 8005150:	f8df d034 	ldr.w	sp, [pc, #52]	; 8005188 <LoopFillZerobss+0x12>
 8005154:	480d      	ldr	r0, [pc, #52]	; (800518c <LoopFillZerobss+0x16>)
 8005156:	490e      	ldr	r1, [pc, #56]	; (8005190 <LoopFillZerobss+0x1a>)
 8005158:	4a0e      	ldr	r2, [pc, #56]	; (8005194 <LoopFillZerobss+0x1e>)
 800515a:	2300      	movs	r3, #0
 800515c:	e002      	b.n	8005164 <LoopCopyDataInit>

0800515e <CopyDataInit>:
 800515e:	58d4      	ldr	r4, [r2, r3]
 8005160:	50c4      	str	r4, [r0, r3]
 8005162:	3304      	adds	r3, #4

08005164 <LoopCopyDataInit>:
 8005164:	18c4      	adds	r4, r0, r3
 8005166:	428c      	cmp	r4, r1
 8005168:	d3f9      	bcc.n	800515e <CopyDataInit>
 800516a:	4a0b      	ldr	r2, [pc, #44]	; (8005198 <LoopFillZerobss+0x22>)
 800516c:	4c0b      	ldr	r4, [pc, #44]	; (800519c <LoopFillZerobss+0x26>)
 800516e:	2300      	movs	r3, #0
 8005170:	e001      	b.n	8005176 <LoopFillZerobss>

08005172 <FillZerobss>:
 8005172:	6013      	str	r3, [r2, #0]
 8005174:	3204      	adds	r2, #4

08005176 <LoopFillZerobss>:
 8005176:	42a2      	cmp	r2, r4
 8005178:	d3fb      	bcc.n	8005172 <FillZerobss>
 800517a:	f7ff ffdf 	bl	800513c <SystemInit>
 800517e:	f003 ff27 	bl	8008fd0 <__libc_init_array>
 8005182:	f7fd fc4d 	bl	8002a20 <main>
 8005186:	4770      	bx	lr
 8005188:	20020000 	.word	0x20020000
 800518c:	20000000 	.word	0x20000000
 8005190:	20000380 	.word	0x20000380
 8005194:	08010028 	.word	0x08010028
 8005198:	20000380 	.word	0x20000380
 800519c:	20002048 	.word	0x20002048

080051a0 <CAN1_RX0_IRQHandler>:
 80051a0:	e7fe      	b.n	80051a0 <CAN1_RX0_IRQHandler>

080051a2 <HAL_MspDeInit>:
 80051a2:	4770      	bx	lr

080051a4 <HAL_DeInit>:
 80051a4:	b510      	push	{r4, lr}
 80051a6:	4b09      	ldr	r3, [pc, #36]	; (80051cc <HAL_DeInit+0x28>)
 80051a8:	f04f 32ff 	mov.w	r2, #4294967295
 80051ac:	2400      	movs	r4, #0
 80051ae:	621a      	str	r2, [r3, #32]
 80051b0:	621c      	str	r4, [r3, #32]
 80051b2:	625a      	str	r2, [r3, #36]	; 0x24
 80051b4:	625c      	str	r4, [r3, #36]	; 0x24
 80051b6:	611a      	str	r2, [r3, #16]
 80051b8:	611c      	str	r4, [r3, #16]
 80051ba:	615a      	str	r2, [r3, #20]
 80051bc:	615c      	str	r4, [r3, #20]
 80051be:	619a      	str	r2, [r3, #24]
 80051c0:	619c      	str	r4, [r3, #24]
 80051c2:	f7ff ffee 	bl	80051a2 <HAL_MspDeInit>
 80051c6:	4620      	mov	r0, r4
 80051c8:	bd10      	pop	{r4, pc}
 80051ca:	bf00      	nop
 80051cc:	40023800 	.word	0x40023800

080051d0 <HAL_InitTick>:
 80051d0:	b538      	push	{r3, r4, r5, lr}
 80051d2:	4a0e      	ldr	r2, [pc, #56]	; (800520c <HAL_InitTick+0x3c>)
 80051d4:	4b0e      	ldr	r3, [pc, #56]	; (8005210 <HAL_InitTick+0x40>)
 80051d6:	4605      	mov	r5, r0
 80051d8:	7818      	ldrb	r0, [r3, #0]
 80051da:	f44f 737a 	mov.w	r3, #1000	; 0x3e8
 80051de:	fbb3 f3f0 	udiv	r3, r3, r0
 80051e2:	6810      	ldr	r0, [r2, #0]
 80051e4:	fbb0 f0f3 	udiv	r0, r0, r3
 80051e8:	f000 fbaa 	bl	8005940 <HAL_SYSTICK_Config>
 80051ec:	4604      	mov	r4, r0
 80051ee:	b958      	cbnz	r0, 8005208 <HAL_InitTick+0x38>
 80051f0:	2d0f      	cmp	r5, #15
 80051f2:	d809      	bhi.n	8005208 <HAL_InitTick+0x38>
 80051f4:	4602      	mov	r2, r0
 80051f6:	4629      	mov	r1, r5
 80051f8:	f04f 30ff 	mov.w	r0, #4294967295
 80051fc:	f000 fb60 	bl	80058c0 <HAL_NVIC_SetPriority>
 8005200:	4b04      	ldr	r3, [pc, #16]	; (8005214 <HAL_InitTick+0x44>)
 8005202:	4620      	mov	r0, r4
 8005204:	601d      	str	r5, [r3, #0]
 8005206:	bd38      	pop	{r3, r4, r5, pc}
 8005208:	2001      	movs	r0, #1
 800520a:	e7fc      	b.n	8005206 <HAL_InitTick+0x36>
 800520c:	2000019c 	.word	0x2000019c
 8005210:	200001a0 	.word	0x200001a0
 8005214:	200001a4 	.word	0x200001a4

08005218 <HAL_Init>:
 8005218:	b508      	push	{r3, lr}
 800521a:	4b0b      	ldr	r3, [pc, #44]	; (8005248 <HAL_Init+0x30>)
 800521c:	681a      	ldr	r2, [r3, #0]
 800521e:	f442 7200 	orr.w	r2, r2, #512	; 0x200
 8005222:	601a      	str	r2, [r3, #0]
 8005224:	681a      	ldr	r2, [r3, #0]
 8005226:	f442 6280 	orr.w	r2, r2, #1024	; 0x400
 800522a:	601a      	str	r2, [r3, #0]
 800522c:	681a      	ldr	r2, [r3, #0]
 800522e:	f442 7280 	orr.w	r2, r2, #256	; 0x100
 8005232:	601a      	str	r2, [r3, #0]
 8005234:	2003      	movs	r0, #3
 8005236:	f000 fb31 	bl	800589c <HAL_NVIC_SetPriorityGrouping>
 800523a:	2000      	movs	r0, #0
 800523c:	f7ff ffc8 	bl	80051d0 <HAL_InitTick>
 8005240:	f7ff fc3a 	bl	8004ab8 <HAL_MspInit>
 8005244:	2000      	movs	r0, #0
 8005246:	bd08      	pop	{r3, pc}
 8005248:	40023c00 	.word	0x40023c00

0800524c <HAL_IncTick>:
 800524c:	4a03      	ldr	r2, [pc, #12]	; (800525c <HAL_IncTick+0x10>)
 800524e:	4b04      	ldr	r3, [pc, #16]	; (8005260 <HAL_IncTick+0x14>)
 8005250:	6811      	ldr	r1, [r2, #0]
 8005252:	781b      	ldrb	r3, [r3, #0]
 8005254:	440b      	add	r3, r1
 8005256:	6013      	str	r3, [r2, #0]
 8005258:	4770      	bx	lr
 800525a:	bf00      	nop
 800525c:	20002034 	.word	0x20002034
 8005260:	200001a0 	.word	0x200001a0

08005264 <HAL_GetTick>:
 8005264:	4b01      	ldr	r3, [pc, #4]	; (800526c <HAL_GetTick+0x8>)
 8005266:	6818      	ldr	r0, [r3, #0]
 8005268:	4770      	bx	lr
 800526a:	bf00      	nop
 800526c:	20002034 	.word	0x20002034

08005270 <HAL_Delay>:
 8005270:	b538      	push	{r3, r4, r5, lr}
 8005272:	4604      	mov	r4, r0
 8005274:	f7ff fff6 	bl	8005264 <HAL_GetTick>
 8005278:	1c63      	adds	r3, r4, #1
 800527a:	bf1c      	itt	ne
 800527c:	4b05      	ldrne	r3, [pc, #20]	; (8005294 <HAL_Delay+0x24>)
 800527e:	781b      	ldrbne	r3, [r3, #0]
 8005280:	4605      	mov	r5, r0
 8005282:	bf18      	it	ne
 8005284:	18e4      	addne	r4, r4, r3
 8005286:	f7ff ffed 	bl	8005264 <HAL_GetTick>
 800528a:	1b43      	subs	r3, r0, r5
 800528c:	42a3      	cmp	r3, r4
 800528e:	d3fa      	bcc.n	8005286 <HAL_Delay+0x16>
 8005290:	bd38      	pop	{r3, r4, r5, pc}
 8005292:	bf00      	nop
 8005294:	200001a0 	.word	0x200001a0

08005298 <HAL_ADC_Init>:
 8005298:	b538      	push	{r3, r4, r5, lr}
 800529a:	4604      	mov	r4, r0
 800529c:	2800      	cmp	r0, #0
 800529e:	f000 80ac 	beq.w	80053fa <HAL_ADC_Init+0x162>
 80052a2:	6c05      	ldr	r5, [r0, #64]	; 0x40
 80052a4:	b925      	cbnz	r5, 80052b0 <HAL_ADC_Init+0x18>
 80052a6:	f7ff fc2b 	bl	8004b00 <HAL_ADC_MspInit>
 80052aa:	6465      	str	r5, [r4, #68]	; 0x44
 80052ac:	f884 503c 	strb.w	r5, [r4, #60]	; 0x3c
 80052b0:	6c23      	ldr	r3, [r4, #64]	; 0x40
 80052b2:	06db      	lsls	r3, r3, #27
 80052b4:	f100 809f 	bmi.w	80053f6 <HAL_ADC_Init+0x15e>
 80052b8:	6c23      	ldr	r3, [r4, #64]	; 0x40
 80052ba:	f423 5388 	bic.w	r3, r3, #4352	; 0x1100
 80052be:	f023 0302 	bic.w	r3, r3, #2
 80052c2:	f043 0302 	orr.w	r3, r3, #2
 80052c6:	6423      	str	r3, [r4, #64]	; 0x40
 80052c8:	4b4d      	ldr	r3, [pc, #308]	; (8005400 <HAL_ADC_Init+0x168>)
 80052ca:	685a      	ldr	r2, [r3, #4]
 80052cc:	f422 3240 	bic.w	r2, r2, #196608	; 0x30000
 80052d0:	605a      	str	r2, [r3, #4]
 80052d2:	685a      	ldr	r2, [r3, #4]
 80052d4:	6861      	ldr	r1, [r4, #4]
 80052d6:	430a      	orrs	r2, r1
 80052d8:	605a      	str	r2, [r3, #4]
 80052da:	6822      	ldr	r2, [r4, #0]
 80052dc:	6853      	ldr	r3, [r2, #4]
 80052de:	f423 7380 	bic.w	r3, r3, #256	; 0x100
 80052e2:	6053      	str	r3, [r2, #4]
 80052e4:	6822      	ldr	r2, [r4, #0]
 80052e6:	6921      	ldr	r1, [r4, #16]
 80052e8:	6853      	ldr	r3, [r2, #4]
 80052ea:	ea43 2301 	orr.w	r3, r3, r1, lsl #8
 80052ee:	6053      	str	r3, [r2, #4]
 80052f0:	6822      	ldr	r2, [r4, #0]
 80052f2:	6853      	ldr	r3, [r2, #4]
 80052f4:	f023 7340 	bic.w	r3, r3, #50331648	; 0x3000000
 80052f8:	6053      	str	r3, [r2, #4]
 80052fa:	6822      	ldr	r2, [r4, #0]
 80052fc:	68a1      	ldr	r1, [r4, #8]
 80052fe:	6853      	ldr	r3, [r2, #4]
 8005300:	430b      	orrs	r3, r1
 8005302:	6053      	str	r3, [r2, #4]
 8005304:	6822      	ldr	r2, [r4, #0]
 8005306:	6893      	ldr	r3, [r2, #8]
 8005308:	f423 6300 	bic.w	r3, r3, #2048	; 0x800
 800530c:	6093      	str	r3, [r2, #8]
 800530e:	6822      	ldr	r2, [r4, #0]
 8005310:	68e1      	ldr	r1, [r4, #12]
 8005312:	6893      	ldr	r3, [r2, #8]
 8005314:	430b      	orrs	r3, r1
 8005316:	6093      	str	r3, [r2, #8]
 8005318:	6aa2      	ldr	r2, [r4, #40]	; 0x28
 800531a:	4b3a      	ldr	r3, [pc, #232]	; (8005404 <HAL_ADC_Init+0x16c>)
 800531c:	429a      	cmp	r2, r3
 800531e:	6823      	ldr	r3, [r4, #0]
 8005320:	689a      	ldr	r2, [r3, #8]
 8005322:	f022 6270 	bic.w	r2, r2, #251658240	; 0xf000000
 8005326:	609a      	str	r2, [r3, #8]
 8005328:	6822      	ldr	r2, [r4, #0]
 800532a:	6893      	ldr	r3, [r2, #8]
 800532c:	d05b      	beq.n	80053e6 <HAL_ADC_Init+0x14e>
 800532e:	6aa1      	ldr	r1, [r4, #40]	; 0x28
 8005330:	430b      	orrs	r3, r1
 8005332:	6093      	str	r3, [r2, #8]
 8005334:	6822      	ldr	r2, [r4, #0]
 8005336:	6893      	ldr	r3, [r2, #8]
 8005338:	f023 5340 	bic.w	r3, r3, #805306368	; 0x30000000
 800533c:	6093      	str	r3, [r2, #8]
 800533e:	6822      	ldr	r2, [r4, #0]
 8005340:	6ae1      	ldr	r1, [r4, #44]	; 0x2c
 8005342:	6893      	ldr	r3, [r2, #8]
 8005344:	430b      	orrs	r3, r1
 8005346:	6093      	str	r3, [r2, #8]
 8005348:	6822      	ldr	r2, [r4, #0]
 800534a:	6893      	ldr	r3, [r2, #8]
 800534c:	f023 0302 	bic.w	r3, r3, #2
 8005350:	6093      	str	r3, [r2, #8]
 8005352:	6822      	ldr	r2, [r4, #0]
 8005354:	7e21      	ldrb	r1, [r4, #24]
 8005356:	6893      	ldr	r3, [r2, #8]
 8005358:	ea43 0341 	orr.w	r3, r3, r1, lsl #1
 800535c:	6093      	str	r3, [r2, #8]
 800535e:	f894 2020 	ldrb.w	r2, [r4, #32]
 8005362:	6823      	ldr	r3, [r4, #0]
 8005364:	2a00      	cmp	r2, #0
 8005366:	d041      	beq.n	80053ec <HAL_ADC_Init+0x154>
 8005368:	685a      	ldr	r2, [r3, #4]
 800536a:	f442 6200 	orr.w	r2, r2, #2048	; 0x800
 800536e:	605a      	str	r2, [r3, #4]
 8005370:	6822      	ldr	r2, [r4, #0]
 8005372:	6853      	ldr	r3, [r2, #4]
 8005374:	f423 4360 	bic.w	r3, r3, #57344	; 0xe000
 8005378:	6053      	str	r3, [r2, #4]
 800537a:	6821      	ldr	r1, [r4, #0]
 800537c:	6a62      	ldr	r2, [r4, #36]	; 0x24
 800537e:	684b      	ldr	r3, [r1, #4]
 8005380:	3a01      	subs	r2, #1
 8005382:	ea43 3342 	orr.w	r3, r3, r2, lsl #13
 8005386:	604b      	str	r3, [r1, #4]
 8005388:	6822      	ldr	r2, [r4, #0]
 800538a:	6ad3      	ldr	r3, [r2, #44]	; 0x2c
 800538c:	f423 0370 	bic.w	r3, r3, #15728640	; 0xf00000
 8005390:	62d3      	str	r3, [r2, #44]	; 0x2c
 8005392:	6821      	ldr	r1, [r4, #0]
 8005394:	69e2      	ldr	r2, [r4, #28]
 8005396:	6acb      	ldr	r3, [r1, #44]	; 0x2c
 8005398:	3a01      	subs	r2, #1
 800539a:	ea43 5302 	orr.w	r3, r3, r2, lsl #20
 800539e:	62cb      	str	r3, [r1, #44]	; 0x2c
 80053a0:	6822      	ldr	r2, [r4, #0]
 80053a2:	6893      	ldr	r3, [r2, #8]
 80053a4:	f423 7300 	bic.w	r3, r3, #512	; 0x200
 80053a8:	6093      	str	r3, [r2, #8]
 80053aa:	6822      	ldr	r2, [r4, #0]
 80053ac:	f894 1030 	ldrb.w	r1, [r4, #48]	; 0x30
 80053b0:	6893      	ldr	r3, [r2, #8]
 80053b2:	ea43 2341 	orr.w	r3, r3, r1, lsl #9
 80053b6:	6093      	str	r3, [r2, #8]
 80053b8:	6822      	ldr	r2, [r4, #0]
 80053ba:	6893      	ldr	r3, [r2, #8]
 80053bc:	f423 6380 	bic.w	r3, r3, #1024	; 0x400
 80053c0:	6093      	str	r3, [r2, #8]
 80053c2:	6822      	ldr	r2, [r4, #0]
 80053c4:	6961      	ldr	r1, [r4, #20]
 80053c6:	6893      	ldr	r3, [r2, #8]
 80053c8:	2000      	movs	r0, #0
 80053ca:	ea43 2381 	orr.w	r3, r3, r1, lsl #10
 80053ce:	6093      	str	r3, [r2, #8]
 80053d0:	6460      	str	r0, [r4, #68]	; 0x44
 80053d2:	6c23      	ldr	r3, [r4, #64]	; 0x40
 80053d4:	f023 0303 	bic.w	r3, r3, #3
 80053d8:	f043 0301 	orr.w	r3, r3, #1
 80053dc:	6423      	str	r3, [r4, #64]	; 0x40
 80053de:	2300      	movs	r3, #0
 80053e0:	f884 303c 	strb.w	r3, [r4, #60]	; 0x3c
 80053e4:	bd38      	pop	{r3, r4, r5, pc}
 80053e6:	f023 5340 	bic.w	r3, r3, #805306368	; 0x30000000
 80053ea:	e7ac      	b.n	8005346 <HAL_ADC_Init+0xae>
 80053ec:	685a      	ldr	r2, [r3, #4]
 80053ee:	f422 6200 	bic.w	r2, r2, #2048	; 0x800
 80053f2:	605a      	str	r2, [r3, #4]
 80053f4:	e7c8      	b.n	8005388 <HAL_ADC_Init+0xf0>
 80053f6:	2001      	movs	r0, #1
 80053f8:	e7f1      	b.n	80053de <HAL_ADC_Init+0x146>
 80053fa:	2001      	movs	r0, #1
 80053fc:	e7f2      	b.n	80053e4 <HAL_ADC_Init+0x14c>
 80053fe:	bf00      	nop
 8005400:	40012300 	.word	0x40012300
 8005404:	0f000001 	.word	0x0f000001

08005408 <HAL_ADC_Start_DMA>:
 8005408:	b537      	push	{r0, r1, r2, r4, r5, lr}
 800540a:	4613      	mov	r3, r2
 800540c:	2200      	movs	r2, #0
 800540e:	9201      	str	r2, [sp, #4]
 8005410:	f890 203c 	ldrb.w	r2, [r0, #60]	; 0x3c
 8005414:	2a01      	cmp	r2, #1
 8005416:	4604      	mov	r4, r0
 8005418:	f000 8095 	beq.w	8005546 <HAL_ADC_Start_DMA+0x13e>
 800541c:	2201      	movs	r2, #1
 800541e:	f880 203c 	strb.w	r2, [r0, #60]	; 0x3c
 8005422:	6802      	ldr	r2, [r0, #0]
 8005424:	6890      	ldr	r0, [r2, #8]
 8005426:	07c5      	lsls	r5, r0, #31
 8005428:	d55d      	bpl.n	80054e6 <HAL_ADC_Start_DMA+0xde>
 800542a:	6822      	ldr	r2, [r4, #0]
 800542c:	6890      	ldr	r0, [r2, #8]
 800542e:	05c0      	lsls	r0, r0, #23
 8005430:	d46c      	bmi.n	800550c <HAL_ADC_Start_DMA+0x104>
 8005432:	6822      	ldr	r2, [r4, #0]
 8005434:	6890      	ldr	r0, [r2, #8]
 8005436:	f010 0001 	ands.w	r0, r0, #1
 800543a:	d07b      	beq.n	8005534 <HAL_ADC_Start_DMA+0x12c>
 800543c:	6c20      	ldr	r0, [r4, #64]	; 0x40
 800543e:	f420 60e0 	bic.w	r0, r0, #1792	; 0x700
 8005442:	f020 0001 	bic.w	r0, r0, #1
 8005446:	f440 7080 	orr.w	r0, r0, #256	; 0x100
 800544a:	6420      	str	r0, [r4, #64]	; 0x40
 800544c:	6852      	ldr	r2, [r2, #4]
 800544e:	0552      	lsls	r2, r2, #21
 8005450:	bf41      	itttt	mi
 8005452:	6c20      	ldrmi	r0, [r4, #64]	; 0x40
 8005454:	f420 5040 	bicmi.w	r0, r0, #12288	; 0x3000
 8005458:	f440 5080 	orrmi.w	r0, r0, #4096	; 0x1000
 800545c:	6420      	strmi	r0, [r4, #64]	; 0x40
 800545e:	6c22      	ldr	r2, [r4, #64]	; 0x40
 8005460:	483b      	ldr	r0, [pc, #236]	; (8005550 <HAL_ADC_Start_DMA+0x148>)
 8005462:	f412 5280 	ands.w	r2, r2, #4096	; 0x1000
 8005466:	bf1c      	itt	ne
 8005468:	6c62      	ldrne	r2, [r4, #68]	; 0x44
 800546a:	f022 0206 	bicne.w	r2, r2, #6
 800546e:	6462      	str	r2, [r4, #68]	; 0x44
 8005470:	6ba2      	ldr	r2, [r4, #56]	; 0x38
 8005472:	2500      	movs	r5, #0
 8005474:	f884 503c 	strb.w	r5, [r4, #60]	; 0x3c
 8005478:	63d0      	str	r0, [r2, #60]	; 0x3c
 800547a:	6ba2      	ldr	r2, [r4, #56]	; 0x38
 800547c:	4835      	ldr	r0, [pc, #212]	; (8005554 <HAL_ADC_Start_DMA+0x14c>)
 800547e:	6410      	str	r0, [r2, #64]	; 0x40
 8005480:	6ba2      	ldr	r2, [r4, #56]	; 0x38
 8005482:	4835      	ldr	r0, [pc, #212]	; (8005558 <HAL_ADC_Start_DMA+0x150>)
 8005484:	64d0      	str	r0, [r2, #76]	; 0x4c
 8005486:	6822      	ldr	r2, [r4, #0]
 8005488:	f06f 0022 	mvn.w	r0, #34	; 0x22
 800548c:	6010      	str	r0, [r2, #0]
 800548e:	6820      	ldr	r0, [r4, #0]
 8005490:	6842      	ldr	r2, [r0, #4]
 8005492:	f042 6280 	orr.w	r2, r2, #67108864	; 0x4000000
 8005496:	6042      	str	r2, [r0, #4]
 8005498:	6820      	ldr	r0, [r4, #0]
 800549a:	6882      	ldr	r2, [r0, #8]
 800549c:	f442 7280 	orr.w	r2, r2, #256	; 0x100
 80054a0:	6082      	str	r2, [r0, #8]
 80054a2:	6820      	ldr	r0, [r4, #0]
 80054a4:	460a      	mov	r2, r1
 80054a6:	f100 014c 	add.w	r1, r0, #76	; 0x4c
 80054aa:	6ba0      	ldr	r0, [r4, #56]	; 0x38
 80054ac:	f000 faf6 	bl	8005a9c <HAL_DMA_Start_IT>
 80054b0:	4a2a      	ldr	r2, [pc, #168]	; (800555c <HAL_ADC_Start_DMA+0x154>)
 80054b2:	6823      	ldr	r3, [r4, #0]
 80054b4:	6850      	ldr	r0, [r2, #4]
 80054b6:	492a      	ldr	r1, [pc, #168]	; (8005560 <HAL_ADC_Start_DMA+0x158>)
 80054b8:	f010 001f 	ands.w	r0, r0, #31
 80054bc:	d132      	bne.n	8005524 <HAL_ADC_Start_DMA+0x11c>
 80054be:	428b      	cmp	r3, r1
 80054c0:	d007      	beq.n	80054d2 <HAL_ADC_Start_DMA+0xca>
 80054c2:	f501 7180 	add.w	r1, r1, #256	; 0x100
 80054c6:	428b      	cmp	r3, r1
 80054c8:	d125      	bne.n	8005516 <HAL_ADC_Start_DMA+0x10e>
 80054ca:	6852      	ldr	r2, [r2, #4]
 80054cc:	f012 0f1f 	tst.w	r2, #31
 80054d0:	d107      	bne.n	80054e2 <HAL_ADC_Start_DMA+0xda>
 80054d2:	6898      	ldr	r0, [r3, #8]
 80054d4:	f010 5040 	ands.w	r0, r0, #805306368	; 0x30000000
 80054d8:	d137      	bne.n	800554a <HAL_ADC_Start_DMA+0x142>
 80054da:	689a      	ldr	r2, [r3, #8]
 80054dc:	f042 4280 	orr.w	r2, r2, #1073741824	; 0x40000000
 80054e0:	609a      	str	r2, [r3, #8]
 80054e2:	b003      	add	sp, #12
 80054e4:	bd30      	pop	{r4, r5, pc}
 80054e6:	6890      	ldr	r0, [r2, #8]
 80054e8:	f040 0001 	orr.w	r0, r0, #1
 80054ec:	6090      	str	r0, [r2, #8]
 80054ee:	4a1d      	ldr	r2, [pc, #116]	; (8005564 <HAL_ADC_Start_DMA+0x15c>)
 80054f0:	6810      	ldr	r0, [r2, #0]
 80054f2:	4a1d      	ldr	r2, [pc, #116]	; (8005568 <HAL_ADC_Start_DMA+0x160>)
 80054f4:	fbb0 f0f2 	udiv	r0, r0, r2
 80054f8:	eb00 0040 	add.w	r0, r0, r0, lsl #1
 80054fc:	9001      	str	r0, [sp, #4]
 80054fe:	9a01      	ldr	r2, [sp, #4]
 8005500:	2a00      	cmp	r2, #0
 8005502:	d092      	beq.n	800542a <HAL_ADC_Start_DMA+0x22>
 8005504:	9a01      	ldr	r2, [sp, #4]
 8005506:	3a01      	subs	r2, #1
 8005508:	9201      	str	r2, [sp, #4]
 800550a:	e7f8      	b.n	80054fe <HAL_ADC_Start_DMA+0xf6>
 800550c:	6890      	ldr	r0, [r2, #8]
 800550e:	f420 7080 	bic.w	r0, r0, #256	; 0x100
 8005512:	6090      	str	r0, [r2, #8]
 8005514:	e78d      	b.n	8005432 <HAL_ADC_Start_DMA+0x2a>
 8005516:	4915      	ldr	r1, [pc, #84]	; (800556c <HAL_ADC_Start_DMA+0x164>)
 8005518:	428b      	cmp	r3, r1
 800551a:	d1e2      	bne.n	80054e2 <HAL_ADC_Start_DMA+0xda>
 800551c:	6852      	ldr	r2, [r2, #4]
 800551e:	f012 0f10 	tst.w	r2, #16
 8005522:	e7d5      	b.n	80054d0 <HAL_ADC_Start_DMA+0xc8>
 8005524:	428b      	cmp	r3, r1
 8005526:	d110      	bne.n	800554a <HAL_ADC_Start_DMA+0x142>
 8005528:	6898      	ldr	r0, [r3, #8]
 800552a:	f010 5040 	ands.w	r0, r0, #805306368	; 0x30000000
 800552e:	d0d4      	beq.n	80054da <HAL_ADC_Start_DMA+0xd2>
 8005530:	4628      	mov	r0, r5
 8005532:	e7d6      	b.n	80054e2 <HAL_ADC_Start_DMA+0xda>
 8005534:	6c23      	ldr	r3, [r4, #64]	; 0x40
 8005536:	f043 0310 	orr.w	r3, r3, #16
 800553a:	6423      	str	r3, [r4, #64]	; 0x40
 800553c:	6c63      	ldr	r3, [r4, #68]	; 0x44
 800553e:	f043 0301 	orr.w	r3, r3, #1
 8005542:	6463      	str	r3, [r4, #68]	; 0x44
 8005544:	e7cd      	b.n	80054e2 <HAL_ADC_Start_DMA+0xda>
 8005546:	2002      	movs	r0, #2
 8005548:	e7cb      	b.n	80054e2 <HAL_ADC_Start_DMA+0xda>
 800554a:	2000      	movs	r0, #0
 800554c:	e7c9      	b.n	80054e2 <HAL_ADC_Start_DMA+0xda>
 800554e:	bf00      	nop
 8005550:	080056bf 	.word	0x080056bf
 8005554:	08005573 	.word	0x08005573
 8005558:	080056a9 	.word	0x080056a9
 800555c:	40012300 	.word	0x40012300
 8005560:	40012000 	.word	0x40012000
 8005564:	2000019c 	.word	0x2000019c
 8005568:	000f4240 	.word	0x000f4240
 800556c:	40012200 	.word	0x40012200

08005570 <HAL_ADC_ConvHalfCpltCallback>:
 8005570:	4770      	bx	lr

08005572 <ADC_DMAHalfConvCplt>:
 8005572:	b508      	push	{r3, lr}
 8005574:	6b80      	ldr	r0, [r0, #56]	; 0x38
 8005576:	f7ff fffb 	bl	8005570 <HAL_ADC_ConvHalfCpltCallback>
 800557a:	bd08      	pop	{r3, pc}

0800557c <HAL_ADC_LevelOutOfWindowCallback>:
 800557c:	4770      	bx	lr

0800557e <HAL_ADC_ErrorCallback>:
 800557e:	4770      	bx	lr

08005580 <HAL_ADC_IRQHandler>:
 8005580:	b538      	push	{r3, r4, r5, lr}
 8005582:	6803      	ldr	r3, [r0, #0]
 8005584:	6819      	ldr	r1, [r3, #0]
 8005586:	685a      	ldr	r2, [r3, #4]
 8005588:	078d      	lsls	r5, r1, #30
 800558a:	4604      	mov	r4, r0
 800558c:	d52b      	bpl.n	80055e6 <HAL_ADC_IRQHandler+0x66>
 800558e:	0690      	lsls	r0, r2, #26
 8005590:	d529      	bpl.n	80055e6 <HAL_ADC_IRQHandler+0x66>
 8005592:	6c22      	ldr	r2, [r4, #64]	; 0x40
 8005594:	06d1      	lsls	r1, r2, #27
 8005596:	bf5e      	ittt	pl
 8005598:	6c22      	ldrpl	r2, [r4, #64]	; 0x40
 800559a:	f442 7200 	orrpl.w	r2, r2, #512	; 0x200
 800559e:	6422      	strpl	r2, [r4, #64]	; 0x40
 80055a0:	689a      	ldr	r2, [r3, #8]
 80055a2:	f012 5f40 	tst.w	r2, #805306368	; 0x30000000
 80055a6:	d117      	bne.n	80055d8 <HAL_ADC_IRQHandler+0x58>
 80055a8:	7e22      	ldrb	r2, [r4, #24]
 80055aa:	b9aa      	cbnz	r2, 80055d8 <HAL_ADC_IRQHandler+0x58>
 80055ac:	6ada      	ldr	r2, [r3, #44]	; 0x2c
 80055ae:	f412 0f70 	tst.w	r2, #15728640	; 0xf00000
 80055b2:	d002      	beq.n	80055ba <HAL_ADC_IRQHandler+0x3a>
 80055b4:	689a      	ldr	r2, [r3, #8]
 80055b6:	0552      	lsls	r2, r2, #21
 80055b8:	d40e      	bmi.n	80055d8 <HAL_ADC_IRQHandler+0x58>
 80055ba:	685a      	ldr	r2, [r3, #4]
 80055bc:	f022 0220 	bic.w	r2, r2, #32
 80055c0:	605a      	str	r2, [r3, #4]
 80055c2:	6c23      	ldr	r3, [r4, #64]	; 0x40
 80055c4:	f423 7380 	bic.w	r3, r3, #256	; 0x100
 80055c8:	6423      	str	r3, [r4, #64]	; 0x40
 80055ca:	6c23      	ldr	r3, [r4, #64]	; 0x40
 80055cc:	04db      	lsls	r3, r3, #19
 80055ce:	bf5e      	ittt	pl
 80055d0:	6c23      	ldrpl	r3, [r4, #64]	; 0x40
 80055d2:	f043 0301 	orrpl.w	r3, r3, #1
 80055d6:	6423      	strpl	r3, [r4, #64]	; 0x40
 80055d8:	4620      	mov	r0, r4
 80055da:	f7fe ffe7 	bl	80045ac <HAL_ADC_ConvCpltCallback>
 80055de:	6823      	ldr	r3, [r4, #0]
 80055e0:	f06f 0212 	mvn.w	r2, #18
 80055e4:	601a      	str	r2, [r3, #0]
 80055e6:	6823      	ldr	r3, [r4, #0]
 80055e8:	6819      	ldr	r1, [r3, #0]
 80055ea:	685a      	ldr	r2, [r3, #4]
 80055ec:	074d      	lsls	r5, r1, #29
 80055ee:	d532      	bpl.n	8005656 <HAL_ADC_IRQHandler+0xd6>
 80055f0:	0610      	lsls	r0, r2, #24
 80055f2:	d530      	bpl.n	8005656 <HAL_ADC_IRQHandler+0xd6>
 80055f4:	6c22      	ldr	r2, [r4, #64]	; 0x40
 80055f6:	06d1      	lsls	r1, r2, #27
 80055f8:	bf5e      	ittt	pl
 80055fa:	6c22      	ldrpl	r2, [r4, #64]	; 0x40
 80055fc:	f442 5200 	orrpl.w	r2, r2, #8192	; 0x2000
 8005600:	6422      	strpl	r2, [r4, #64]	; 0x40
 8005602:	689a      	ldr	r2, [r3, #8]
 8005604:	f412 1f40 	tst.w	r2, #3145728	; 0x300000
 8005608:	d11e      	bne.n	8005648 <HAL_ADC_IRQHandler+0xc8>
 800560a:	6b9a      	ldr	r2, [r3, #56]	; 0x38
 800560c:	f412 1f40 	tst.w	r2, #3145728	; 0x300000
 8005610:	d002      	beq.n	8005618 <HAL_ADC_IRQHandler+0x98>
 8005612:	689a      	ldr	r2, [r3, #8]
 8005614:	0552      	lsls	r2, r2, #21
 8005616:	d417      	bmi.n	8005648 <HAL_ADC_IRQHandler+0xc8>
 8005618:	685a      	ldr	r2, [r3, #4]
 800561a:	0555      	lsls	r5, r2, #21
 800561c:	d414      	bmi.n	8005648 <HAL_ADC_IRQHandler+0xc8>
 800561e:	689a      	ldr	r2, [r3, #8]
 8005620:	f012 5f40 	tst.w	r2, #805306368	; 0x30000000
 8005624:	d110      	bne.n	8005648 <HAL_ADC_IRQHandler+0xc8>
 8005626:	7e22      	ldrb	r2, [r4, #24]
 8005628:	b972      	cbnz	r2, 8005648 <HAL_ADC_IRQHandler+0xc8>
 800562a:	685a      	ldr	r2, [r3, #4]
 800562c:	f022 0280 	bic.w	r2, r2, #128	; 0x80
 8005630:	605a      	str	r2, [r3, #4]
 8005632:	6c23      	ldr	r3, [r4, #64]	; 0x40
 8005634:	f423 5380 	bic.w	r3, r3, #4096	; 0x1000
 8005638:	6423      	str	r3, [r4, #64]	; 0x40
 800563a:	6c23      	ldr	r3, [r4, #64]	; 0x40
 800563c:	05d8      	lsls	r0, r3, #23
 800563e:	bf5e      	ittt	pl
 8005640:	6c23      	ldrpl	r3, [r4, #64]	; 0x40
 8005642:	f043 0301 	orrpl.w	r3, r3, #1
 8005646:	6423      	strpl	r3, [r4, #64]	; 0x40
 8005648:	4620      	mov	r0, r4
 800564a:	f000 f925 	bl	8005898 <HAL_ADCEx_InjectedConvCpltCallback>
 800564e:	6823      	ldr	r3, [r4, #0]
 8005650:	f06f 020c 	mvn.w	r2, #12
 8005654:	601a      	str	r2, [r3, #0]
 8005656:	6823      	ldr	r3, [r4, #0]
 8005658:	6819      	ldr	r1, [r3, #0]
 800565a:	685a      	ldr	r2, [r3, #4]
 800565c:	07c9      	lsls	r1, r1, #31
 800565e:	d50f      	bpl.n	8005680 <HAL_ADC_IRQHandler+0x100>
 8005660:	0655      	lsls	r5, r2, #25
 8005662:	d50d      	bpl.n	8005680 <HAL_ADC_IRQHandler+0x100>
 8005664:	681b      	ldr	r3, [r3, #0]
 8005666:	07d8      	lsls	r0, r3, #31
 8005668:	d50a      	bpl.n	8005680 <HAL_ADC_IRQHandler+0x100>
 800566a:	6c23      	ldr	r3, [r4, #64]	; 0x40
 800566c:	f443 3380 	orr.w	r3, r3, #65536	; 0x10000
 8005670:	6423      	str	r3, [r4, #64]	; 0x40
 8005672:	4620      	mov	r0, r4
 8005674:	f7ff ff82 	bl	800557c <HAL_ADC_LevelOutOfWindowCallback>
 8005678:	6823      	ldr	r3, [r4, #0]
 800567a:	f06f 0201 	mvn.w	r2, #1
 800567e:	601a      	str	r2, [r3, #0]
 8005680:	6823      	ldr	r3, [r4, #0]
 8005682:	6819      	ldr	r1, [r3, #0]
 8005684:	685a      	ldr	r2, [r3, #4]
 8005686:	0689      	lsls	r1, r1, #26
 8005688:	d50d      	bpl.n	80056a6 <HAL_ADC_IRQHandler+0x126>
 800568a:	0152      	lsls	r2, r2, #5
 800568c:	d50b      	bpl.n	80056a6 <HAL_ADC_IRQHandler+0x126>
 800568e:	6c62      	ldr	r2, [r4, #68]	; 0x44
 8005690:	f06f 0520 	mvn.w	r5, #32
 8005694:	f042 0202 	orr.w	r2, r2, #2
 8005698:	6462      	str	r2, [r4, #68]	; 0x44
 800569a:	4620      	mov	r0, r4
 800569c:	601d      	str	r5, [r3, #0]
 800569e:	f7ff ff6e 	bl	800557e <HAL_ADC_ErrorCallback>
 80056a2:	6823      	ldr	r3, [r4, #0]
 80056a4:	601d      	str	r5, [r3, #0]
 80056a6:	bd38      	pop	{r3, r4, r5, pc}

080056a8 <ADC_DMAError>:
 80056a8:	b508      	push	{r3, lr}
 80056aa:	6b80      	ldr	r0, [r0, #56]	; 0x38
 80056ac:	2340      	movs	r3, #64	; 0x40
 80056ae:	6403      	str	r3, [r0, #64]	; 0x40
 80056b0:	6c43      	ldr	r3, [r0, #68]	; 0x44
 80056b2:	f043 0304 	orr.w	r3, r3, #4
 80056b6:	6443      	str	r3, [r0, #68]	; 0x44
 80056b8:	f7ff ff61 	bl	800557e <HAL_ADC_ErrorCallback>
 80056bc:	bd08      	pop	{r3, pc}

080056be <ADC_DMAConvCplt>:
 80056be:	b510      	push	{r4, lr}
 80056c0:	6b83      	ldr	r3, [r0, #56]	; 0x38
 80056c2:	6c1a      	ldr	r2, [r3, #64]	; 0x40
 80056c4:	f012 0f50 	tst.w	r2, #80	; 0x50
 80056c8:	6c1a      	ldr	r2, [r3, #64]	; 0x40
 80056ca:	d123      	bne.n	8005714 <ADC_DMAConvCplt+0x56>
 80056cc:	f442 7200 	orr.w	r2, r2, #512	; 0x200
 80056d0:	641a      	str	r2, [r3, #64]	; 0x40
 80056d2:	681a      	ldr	r2, [r3, #0]
 80056d4:	6891      	ldr	r1, [r2, #8]
 80056d6:	f011 5f40 	tst.w	r1, #805306368	; 0x30000000
 80056da:	d117      	bne.n	800570c <ADC_DMAConvCplt+0x4e>
 80056dc:	7e19      	ldrb	r1, [r3, #24]
 80056de:	b9a9      	cbnz	r1, 800570c <ADC_DMAConvCplt+0x4e>
 80056e0:	6ad1      	ldr	r1, [r2, #44]	; 0x2c
 80056e2:	f411 0f70 	tst.w	r1, #15728640	; 0xf00000
 80056e6:	d002      	beq.n	80056ee <ADC_DMAConvCplt+0x30>
 80056e8:	6891      	ldr	r1, [r2, #8]
 80056ea:	0548      	lsls	r0, r1, #21
 80056ec:	d40e      	bmi.n	800570c <ADC_DMAConvCplt+0x4e>
 80056ee:	6851      	ldr	r1, [r2, #4]
 80056f0:	f021 0120 	bic.w	r1, r1, #32
 80056f4:	6051      	str	r1, [r2, #4]
 80056f6:	6c1a      	ldr	r2, [r3, #64]	; 0x40
 80056f8:	f422 7280 	bic.w	r2, r2, #256	; 0x100
 80056fc:	641a      	str	r2, [r3, #64]	; 0x40
 80056fe:	6c1a      	ldr	r2, [r3, #64]	; 0x40
 8005700:	04d1      	lsls	r1, r2, #19
 8005702:	bf5e      	ittt	pl
 8005704:	6c1a      	ldrpl	r2, [r3, #64]	; 0x40
 8005706:	f042 0201 	orrpl.w	r2, r2, #1
 800570a:	641a      	strpl	r2, [r3, #64]	; 0x40
 800570c:	4618      	mov	r0, r3
 800570e:	f7fe ff4d 	bl	80045ac <HAL_ADC_ConvCpltCallback>
 8005712:	bd10      	pop	{r4, pc}
 8005714:	06d2      	lsls	r2, r2, #27
 8005716:	d503      	bpl.n	8005720 <ADC_DMAConvCplt+0x62>
 8005718:	4618      	mov	r0, r3
 800571a:	f7ff ff30 	bl	800557e <HAL_ADC_ErrorCallback>
 800571e:	e7f8      	b.n	8005712 <ADC_DMAConvCplt+0x54>
 8005720:	6b9b      	ldr	r3, [r3, #56]	; 0x38
 8005722:	e8bd 4010 	ldmia.w	sp!, {r4, lr}
 8005726:	6cdb      	ldr	r3, [r3, #76]	; 0x4c
 8005728:	4718      	bx	r3
	...

0800572c <HAL_ADC_ConfigChannel>:
 800572c:	b537      	push	{r0, r1, r2, r4, r5, lr}
 800572e:	2300      	movs	r3, #0
 8005730:	9301      	str	r3, [sp, #4]
 8005732:	f890 303c 	ldrb.w	r3, [r0, #60]	; 0x3c
 8005736:	2b01      	cmp	r3, #1
 8005738:	f000 80a3 	beq.w	8005882 <HAL_ADC_ConfigChannel+0x156>
 800573c:	2301      	movs	r3, #1
 800573e:	f880 303c 	strb.w	r3, [r0, #60]	; 0x3c
 8005742:	680b      	ldr	r3, [r1, #0]
 8005744:	6802      	ldr	r2, [r0, #0]
 8005746:	2b09      	cmp	r3, #9
 8005748:	d938      	bls.n	80057bc <HAL_ADC_ConfigChannel+0x90>
 800574a:	b29b      	uxth	r3, r3
 800574c:	eb03 0343 	add.w	r3, r3, r3, lsl #1
 8005750:	68d4      	ldr	r4, [r2, #12]
 8005752:	2507      	movs	r5, #7
 8005754:	3b1e      	subs	r3, #30
 8005756:	fa05 f303 	lsl.w	r3, r5, r3
 800575a:	ea24 0303 	bic.w	r3, r4, r3
 800575e:	60d3      	str	r3, [r2, #12]
 8005760:	880b      	ldrh	r3, [r1, #0]
 8005762:	6804      	ldr	r4, [r0, #0]
 8005764:	688a      	ldr	r2, [r1, #8]
 8005766:	68e5      	ldr	r5, [r4, #12]
 8005768:	eb03 0343 	add.w	r3, r3, r3, lsl #1
 800576c:	3b1e      	subs	r3, #30
 800576e:	fa02 f303 	lsl.w	r3, r2, r3
 8005772:	432b      	orrs	r3, r5
 8005774:	60e3      	str	r3, [r4, #12]
 8005776:	684c      	ldr	r4, [r1, #4]
 8005778:	6802      	ldr	r2, [r0, #0]
 800577a:	2c06      	cmp	r4, #6
 800577c:	eb04 0384 	add.w	r3, r4, r4, lsl #2
 8005780:	d82f      	bhi.n	80057e2 <HAL_ADC_ConfigChannel+0xb6>
 8005782:	6b54      	ldr	r4, [r2, #52]	; 0x34
 8005784:	251f      	movs	r5, #31
 8005786:	3b05      	subs	r3, #5
 8005788:	fa05 f303 	lsl.w	r3, r5, r3
 800578c:	ea24 0303 	bic.w	r3, r4, r3
 8005790:	6353      	str	r3, [r2, #52]	; 0x34
 8005792:	684b      	ldr	r3, [r1, #4]
 8005794:	6804      	ldr	r4, [r0, #0]
 8005796:	880a      	ldrh	r2, [r1, #0]
 8005798:	6b65      	ldr	r5, [r4, #52]	; 0x34
 800579a:	eb03 0383 	add.w	r3, r3, r3, lsl #2
 800579e:	3b05      	subs	r3, #5
 80057a0:	fa02 f303 	lsl.w	r3, r2, r3
 80057a4:	432b      	orrs	r3, r5
 80057a6:	6363      	str	r3, [r4, #52]	; 0x34
 80057a8:	6802      	ldr	r2, [r0, #0]
 80057aa:	4b37      	ldr	r3, [pc, #220]	; (8005888 <HAL_ADC_ConfigChannel+0x15c>)
 80057ac:	429a      	cmp	r2, r3
 80057ae:	d042      	beq.n	8005836 <HAL_ADC_ConfigChannel+0x10a>
 80057b0:	2300      	movs	r3, #0
 80057b2:	f880 303c 	strb.w	r3, [r0, #60]	; 0x3c
 80057b6:	4618      	mov	r0, r3
 80057b8:	b003      	add	sp, #12
 80057ba:	bd30      	pop	{r4, r5, pc}
 80057bc:	6914      	ldr	r4, [r2, #16]
 80057be:	2507      	movs	r5, #7
 80057c0:	eb03 0343 	add.w	r3, r3, r3, lsl #1
 80057c4:	fa05 f303 	lsl.w	r3, r5, r3
 80057c8:	ea24 0303 	bic.w	r3, r4, r3
 80057cc:	6113      	str	r3, [r2, #16]
 80057ce:	880b      	ldrh	r3, [r1, #0]
 80057d0:	6804      	ldr	r4, [r0, #0]
 80057d2:	eb03 0243 	add.w	r2, r3, r3, lsl #1
 80057d6:	688b      	ldr	r3, [r1, #8]
 80057d8:	6925      	ldr	r5, [r4, #16]
 80057da:	4093      	lsls	r3, r2
 80057dc:	432b      	orrs	r3, r5
 80057de:	6123      	str	r3, [r4, #16]
 80057e0:	e7c9      	b.n	8005776 <HAL_ADC_ConfigChannel+0x4a>
 80057e2:	2c0c      	cmp	r4, #12
 80057e4:	f04f 041f 	mov.w	r4, #31
 80057e8:	d812      	bhi.n	8005810 <HAL_ADC_ConfigChannel+0xe4>
 80057ea:	6b15      	ldr	r5, [r2, #48]	; 0x30
 80057ec:	3b23      	subs	r3, #35	; 0x23
 80057ee:	fa04 f303 	lsl.w	r3, r4, r3
 80057f2:	ea25 0303 	bic.w	r3, r5, r3
 80057f6:	6313      	str	r3, [r2, #48]	; 0x30
 80057f8:	684b      	ldr	r3, [r1, #4]
 80057fa:	6804      	ldr	r4, [r0, #0]
 80057fc:	880a      	ldrh	r2, [r1, #0]
 80057fe:	6b25      	ldr	r5, [r4, #48]	; 0x30
 8005800:	eb03 0383 	add.w	r3, r3, r3, lsl #2
 8005804:	3b23      	subs	r3, #35	; 0x23
 8005806:	fa02 f303 	lsl.w	r3, r2, r3
 800580a:	432b      	orrs	r3, r5
 800580c:	6323      	str	r3, [r4, #48]	; 0x30
 800580e:	e7cb      	b.n	80057a8 <HAL_ADC_ConfigChannel+0x7c>
 8005810:	6ad5      	ldr	r5, [r2, #44]	; 0x2c
 8005812:	3b41      	subs	r3, #65	; 0x41
 8005814:	fa04 f303 	lsl.w	r3, r4, r3
 8005818:	ea25 0303 	bic.w	r3, r5, r3
 800581c:	62d3      	str	r3, [r2, #44]	; 0x2c
 800581e:	684b      	ldr	r3, [r1, #4]
 8005820:	6804      	ldr	r4, [r0, #0]
 8005822:	880a      	ldrh	r2, [r1, #0]
 8005824:	6ae5      	ldr	r5, [r4, #44]	; 0x2c
 8005826:	eb03 0383 	add.w	r3, r3, r3, lsl #2
 800582a:	3b41      	subs	r3, #65	; 0x41
 800582c:	fa02 f303 	lsl.w	r3, r2, r3
 8005830:	432b      	orrs	r3, r5
 8005832:	62e3      	str	r3, [r4, #44]	; 0x2c
 8005834:	e7b8      	b.n	80057a8 <HAL_ADC_ConfigChannel+0x7c>
 8005836:	680b      	ldr	r3, [r1, #0]
 8005838:	2b12      	cmp	r3, #18
 800583a:	d019      	beq.n	8005870 <HAL_ADC_ConfigChannel+0x144>
 800583c:	680b      	ldr	r3, [r1, #0]
 800583e:	3b10      	subs	r3, #16
 8005840:	2b01      	cmp	r3, #1
 8005842:	d8b5      	bhi.n	80057b0 <HAL_ADC_ConfigChannel+0x84>
 8005844:	4a11      	ldr	r2, [pc, #68]	; (800588c <HAL_ADC_ConfigChannel+0x160>)
 8005846:	6853      	ldr	r3, [r2, #4]
 8005848:	f443 0300 	orr.w	r3, r3, #8388608	; 0x800000
 800584c:	6053      	str	r3, [r2, #4]
 800584e:	680b      	ldr	r3, [r1, #0]
 8005850:	2b10      	cmp	r3, #16
 8005852:	d1ad      	bne.n	80057b0 <HAL_ADC_ConfigChannel+0x84>
 8005854:	4b0e      	ldr	r3, [pc, #56]	; (8005890 <HAL_ADC_ConfigChannel+0x164>)
 8005856:	4a0f      	ldr	r2, [pc, #60]	; (8005894 <HAL_ADC_ConfigChannel+0x168>)
 8005858:	681b      	ldr	r3, [r3, #0]
 800585a:	fbb3 f2f2 	udiv	r2, r3, r2
 800585e:	230a      	movs	r3, #10
 8005860:	4353      	muls	r3, r2
 8005862:	9301      	str	r3, [sp, #4]
 8005864:	9b01      	ldr	r3, [sp, #4]
 8005866:	2b00      	cmp	r3, #0
 8005868:	d0a2      	beq.n	80057b0 <HAL_ADC_ConfigChannel+0x84>
 800586a:	9b01      	ldr	r3, [sp, #4]
 800586c:	3b01      	subs	r3, #1
 800586e:	e7f8      	b.n	8005862 <HAL_ADC_ConfigChannel+0x136>
 8005870:	4c06      	ldr	r4, [pc, #24]	; (800588c <HAL_ADC_ConfigChannel+0x160>)
 8005872:	6863      	ldr	r3, [r4, #4]
 8005874:	f443 0380 	orr.w	r3, r3, #4194304	; 0x400000
 8005878:	6063      	str	r3, [r4, #4]
 800587a:	6803      	ldr	r3, [r0, #0]
 800587c:	4293      	cmp	r3, r2
 800587e:	d0dd      	beq.n	800583c <HAL_ADC_ConfigChannel+0x110>
 8005880:	e796      	b.n	80057b0 <HAL_ADC_ConfigChannel+0x84>
 8005882:	2002      	movs	r0, #2
 8005884:	e798      	b.n	80057b8 <HAL_ADC_ConfigChannel+0x8c>
 8005886:	bf00      	nop
 8005888:	40012000 	.word	0x40012000
 800588c:	40012300 	.word	0x40012300
 8005890:	2000019c 	.word	0x2000019c
 8005894:	000f4240 	.word	0x000f4240

08005898 <HAL_ADCEx_InjectedConvCpltCallback>:
 8005898:	4770      	bx	lr
	...

0800589c <HAL_NVIC_SetPriorityGrouping>:
 800589c:	4907      	ldr	r1, [pc, #28]	; (80058bc <HAL_NVIC_SetPriorityGrouping+0x20>)
 800589e:	68ca      	ldr	r2, [r1, #12]
 80058a0:	f422 62e0 	bic.w	r2, r2, #1792	; 0x700
 80058a4:	0203      	lsls	r3, r0, #8
 80058a6:	0412      	lsls	r2, r2, #16
 80058a8:	f403 63e0 	and.w	r3, r3, #1792	; 0x700
 80058ac:	0c12      	lsrs	r2, r2, #16
 80058ae:	4313      	orrs	r3, r2
 80058b0:	f043 63bf 	orr.w	r3, r3, #100139008	; 0x5f80000
 80058b4:	f443 3300 	orr.w	r3, r3, #131072	; 0x20000
 80058b8:	60cb      	str	r3, [r1, #12]
 80058ba:	4770      	bx	lr
 80058bc:	e000ed00 	.word	0xe000ed00

080058c0 <HAL_NVIC_SetPriority>:
 80058c0:	b530      	push	{r4, r5, lr}
 80058c2:	4b16      	ldr	r3, [pc, #88]	; (800591c <HAL_NVIC_SetPriority+0x5c>)
 80058c4:	68dc      	ldr	r4, [r3, #12]
 80058c6:	f3c4 2402 	ubfx	r4, r4, #8, #3
 80058ca:	f1c4 0507 	rsb	r5, r4, #7
 80058ce:	1d23      	adds	r3, r4, #4
 80058d0:	2d04      	cmp	r5, #4
 80058d2:	bf28      	it	cs
 80058d4:	2504      	movcs	r5, #4
 80058d6:	2b06      	cmp	r3, #6
 80058d8:	f04f 33ff 	mov.w	r3, #4294967295
 80058dc:	bf8c      	ite	hi
 80058de:	3c03      	subhi	r4, #3
 80058e0:	2400      	movls	r4, #0
 80058e2:	fa03 f505 	lsl.w	r5, r3, r5
 80058e6:	ea21 0105 	bic.w	r1, r1, r5
 80058ea:	40a3      	lsls	r3, r4
 80058ec:	ea22 0203 	bic.w	r2, r2, r3
 80058f0:	40a1      	lsls	r1, r4
 80058f2:	2800      	cmp	r0, #0
 80058f4:	ea41 0302 	orr.w	r3, r1, r2
 80058f8:	bfac      	ite	ge
 80058fa:	f100 4060 	addge.w	r0, r0, #3758096384	; 0xe0000000
 80058fe:	4a08      	ldrlt	r2, [pc, #32]	; (8005920 <HAL_NVIC_SetPriority+0x60>)
 8005900:	ea4f 1303 	mov.w	r3, r3, lsl #4
 8005904:	bfb8      	it	lt
 8005906:	f000 000f 	andlt.w	r0, r0, #15
 800590a:	b2db      	uxtb	r3, r3
 800590c:	bfaa      	itet	ge
 800590e:	f500 4061 	addge.w	r0, r0, #57600	; 0xe100
 8005912:	5413      	strblt	r3, [r2, r0]
 8005914:	f880 3300 	strbge.w	r3, [r0, #768]	; 0x300
 8005918:	bd30      	pop	{r4, r5, pc}
 800591a:	bf00      	nop
 800591c:	e000ed00 	.word	0xe000ed00
 8005920:	e000ed14 	.word	0xe000ed14

08005924 <HAL_NVIC_EnableIRQ>:
 8005924:	2800      	cmp	r0, #0
 8005926:	db08      	blt.n	800593a <HAL_NVIC_EnableIRQ+0x16>
 8005928:	0942      	lsrs	r2, r0, #5
 800592a:	2301      	movs	r3, #1
 800592c:	f000 001f 	and.w	r0, r0, #31
 8005930:	fa03 f000 	lsl.w	r0, r3, r0
 8005934:	4b01      	ldr	r3, [pc, #4]	; (800593c <HAL_NVIC_EnableIRQ+0x18>)
 8005936:	f843 0022 	str.w	r0, [r3, r2, lsl #2]
 800593a:	4770      	bx	lr
 800593c:	e000e100 	.word	0xe000e100

08005940 <HAL_SYSTICK_Config>:
 8005940:	3801      	subs	r0, #1
 8005942:	f1b0 7f80 	cmp.w	r0, #16777216	; 0x1000000
 8005946:	d20a      	bcs.n	800595e <HAL_SYSTICK_Config+0x1e>
 8005948:	4b06      	ldr	r3, [pc, #24]	; (8005964 <HAL_SYSTICK_Config+0x24>)
 800594a:	4a07      	ldr	r2, [pc, #28]	; (8005968 <HAL_SYSTICK_Config+0x28>)
 800594c:	6058      	str	r0, [r3, #4]
 800594e:	21f0      	movs	r1, #240	; 0xf0
 8005950:	f882 1023 	strb.w	r1, [r2, #35]	; 0x23
 8005954:	2000      	movs	r0, #0
 8005956:	2207      	movs	r2, #7
 8005958:	6098      	str	r0, [r3, #8]
 800595a:	601a      	str	r2, [r3, #0]
 800595c:	4770      	bx	lr
 800595e:	2001      	movs	r0, #1
 8005960:	4770      	bx	lr
 8005962:	bf00      	nop
 8005964:	e000e010 	.word	0xe000e010
 8005968:	e000ed00 	.word	0xe000ed00

0800596c <DMA_CalcBaseAndBitshift>:
 800596c:	b510      	push	{r4, lr}
 800596e:	6803      	ldr	r3, [r0, #0]
 8005970:	4c08      	ldr	r4, [pc, #32]	; (8005994 <DMA_CalcBaseAndBitshift+0x28>)
 8005972:	4602      	mov	r2, r0
 8005974:	b2d9      	uxtb	r1, r3
 8005976:	3910      	subs	r1, #16
 8005978:	2018      	movs	r0, #24
 800597a:	fbb1 f0f0 	udiv	r0, r1, r0
 800597e:	5c20      	ldrb	r0, [r4, r0]
 8005980:	65d0      	str	r0, [r2, #92]	; 0x5c
 8005982:	f423 707f 	bic.w	r0, r3, #1020	; 0x3fc
 8005986:	f020 0003 	bic.w	r0, r0, #3
 800598a:	295f      	cmp	r1, #95	; 0x5f
 800598c:	bf88      	it	hi
 800598e:	3004      	addhi	r0, #4
 8005990:	6590      	str	r0, [r2, #88]	; 0x58
 8005992:	bd10      	pop	{r4, pc}
 8005994:	0800fad0 	.word	0x0800fad0

08005998 <HAL_DMA_Init>:
 8005998:	b538      	push	{r3, r4, r5, lr}
 800599a:	4604      	mov	r4, r0
 800599c:	f7ff fc62 	bl	8005264 <HAL_GetTick>
 80059a0:	4605      	mov	r5, r0
 80059a2:	2c00      	cmp	r4, #0
 80059a4:	d075      	beq.n	8005a92 <HAL_DMA_Init+0xfa>
 80059a6:	2300      	movs	r3, #0
 80059a8:	f884 3034 	strb.w	r3, [r4, #52]	; 0x34
 80059ac:	6822      	ldr	r2, [r4, #0]
 80059ae:	2302      	movs	r3, #2
 80059b0:	f884 3035 	strb.w	r3, [r4, #53]	; 0x35
 80059b4:	6813      	ldr	r3, [r2, #0]
 80059b6:	f023 0301 	bic.w	r3, r3, #1
 80059ba:	6013      	str	r3, [r2, #0]
 80059bc:	6821      	ldr	r1, [r4, #0]
 80059be:	680b      	ldr	r3, [r1, #0]
 80059c0:	07d8      	lsls	r0, r3, #31
 80059c2:	d432      	bmi.n	8005a2a <HAL_DMA_Init+0x92>
 80059c4:	680b      	ldr	r3, [r1, #0]
 80059c6:	4834      	ldr	r0, [pc, #208]	; (8005a98 <HAL_DMA_Init+0x100>)
 80059c8:	4018      	ands	r0, r3
 80059ca:	e9d4 2301 	ldrd	r2, r3, [r4, #4]
 80059ce:	4313      	orrs	r3, r2
 80059d0:	68e2      	ldr	r2, [r4, #12]
 80059d2:	4313      	orrs	r3, r2
 80059d4:	6922      	ldr	r2, [r4, #16]
 80059d6:	4313      	orrs	r3, r2
 80059d8:	6962      	ldr	r2, [r4, #20]
 80059da:	4313      	orrs	r3, r2
 80059dc:	69a2      	ldr	r2, [r4, #24]
 80059de:	4313      	orrs	r3, r2
 80059e0:	69e2      	ldr	r2, [r4, #28]
 80059e2:	4313      	orrs	r3, r2
 80059e4:	6a22      	ldr	r2, [r4, #32]
 80059e6:	4313      	orrs	r3, r2
 80059e8:	6a62      	ldr	r2, [r4, #36]	; 0x24
 80059ea:	2a04      	cmp	r2, #4
 80059ec:	ea43 0300 	orr.w	r3, r3, r0
 80059f0:	bf02      	ittt	eq
 80059f2:	e9d4 200b 	ldrdeq	r2, r0, [r4, #44]	; 0x2c
 80059f6:	4302      	orreq	r2, r0
 80059f8:	4313      	orreq	r3, r2
 80059fa:	600b      	str	r3, [r1, #0]
 80059fc:	6820      	ldr	r0, [r4, #0]
 80059fe:	6a62      	ldr	r2, [r4, #36]	; 0x24
 8005a00:	6943      	ldr	r3, [r0, #20]
 8005a02:	2a04      	cmp	r2, #4
 8005a04:	f023 0307 	bic.w	r3, r3, #7
 8005a08:	ea43 0302 	orr.w	r3, r3, r2
 8005a0c:	d133      	bne.n	8005a76 <HAL_DMA_Init+0xde>
 8005a0e:	6aa2      	ldr	r2, [r4, #40]	; 0x28
 8005a10:	6ae1      	ldr	r1, [r4, #44]	; 0x2c
 8005a12:	4313      	orrs	r3, r2
 8005a14:	b379      	cbz	r1, 8005a76 <HAL_DMA_Init+0xde>
 8005a16:	69a5      	ldr	r5, [r4, #24]
 8005a18:	b995      	cbnz	r5, 8005a40 <HAL_DMA_Init+0xa8>
 8005a1a:	2a01      	cmp	r2, #1
 8005a1c:	d020      	beq.n	8005a60 <HAL_DMA_Init+0xc8>
 8005a1e:	f032 0202 	bics.w	r2, r2, #2
 8005a22:	d128      	bne.n	8005a76 <HAL_DMA_Init+0xde>
 8005a24:	01ca      	lsls	r2, r1, #7
 8005a26:	d526      	bpl.n	8005a76 <HAL_DMA_Init+0xde>
 8005a28:	e01d      	b.n	8005a66 <HAL_DMA_Init+0xce>
 8005a2a:	f7ff fc1b 	bl	8005264 <HAL_GetTick>
 8005a2e:	1b40      	subs	r0, r0, r5
 8005a30:	2805      	cmp	r0, #5
 8005a32:	d9c3      	bls.n	80059bc <HAL_DMA_Init+0x24>
 8005a34:	2320      	movs	r3, #32
 8005a36:	6563      	str	r3, [r4, #84]	; 0x54
 8005a38:	2003      	movs	r0, #3
 8005a3a:	f884 0035 	strb.w	r0, [r4, #53]	; 0x35
 8005a3e:	bd38      	pop	{r3, r4, r5, pc}
 8005a40:	f5b5 5f00 	cmp.w	r5, #8192	; 0x2000
 8005a44:	d113      	bne.n	8005a6e <HAL_DMA_Init+0xd6>
 8005a46:	2a03      	cmp	r2, #3
 8005a48:	d815      	bhi.n	8005a76 <HAL_DMA_Init+0xde>
 8005a4a:	a501      	add	r5, pc, #4	; (adr r5, 8005a50 <HAL_DMA_Init+0xb8>)
 8005a4c:	f855 f022 	ldr.w	pc, [r5, r2, lsl #2]
 8005a50:	08005a67 	.word	0x08005a67
 8005a54:	08005a25 	.word	0x08005a25
 8005a58:	08005a67 	.word	0x08005a67
 8005a5c:	08005a61 	.word	0x08005a61
 8005a60:	f1b1 7fc0 	cmp.w	r1, #25165824	; 0x1800000
 8005a64:	d107      	bne.n	8005a76 <HAL_DMA_Init+0xde>
 8005a66:	2340      	movs	r3, #64	; 0x40
 8005a68:	6563      	str	r3, [r4, #84]	; 0x54
 8005a6a:	2001      	movs	r0, #1
 8005a6c:	e7e5      	b.n	8005a3a <HAL_DMA_Init+0xa2>
 8005a6e:	2a02      	cmp	r2, #2
 8005a70:	d9f9      	bls.n	8005a66 <HAL_DMA_Init+0xce>
 8005a72:	2a03      	cmp	r2, #3
 8005a74:	d0d6      	beq.n	8005a24 <HAL_DMA_Init+0x8c>
 8005a76:	6143      	str	r3, [r0, #20]
 8005a78:	4620      	mov	r0, r4
 8005a7a:	f7ff ff77 	bl	800596c <DMA_CalcBaseAndBitshift>
 8005a7e:	6de2      	ldr	r2, [r4, #92]	; 0x5c
 8005a80:	233f      	movs	r3, #63	; 0x3f
 8005a82:	4093      	lsls	r3, r2
 8005a84:	6083      	str	r3, [r0, #8]
 8005a86:	2000      	movs	r0, #0
 8005a88:	2301      	movs	r3, #1
 8005a8a:	6560      	str	r0, [r4, #84]	; 0x54
 8005a8c:	f884 3035 	strb.w	r3, [r4, #53]	; 0x35
 8005a90:	e7d5      	b.n	8005a3e <HAL_DMA_Init+0xa6>
 8005a92:	2001      	movs	r0, #1
 8005a94:	e7d3      	b.n	8005a3e <HAL_DMA_Init+0xa6>
 8005a96:	bf00      	nop
 8005a98:	f010803f 	.word	0xf010803f

08005a9c <HAL_DMA_Start_IT>:
 8005a9c:	b570      	push	{r4, r5, r6, lr}
 8005a9e:	f890 4034 	ldrb.w	r4, [r0, #52]	; 0x34
 8005aa2:	6d86      	ldr	r6, [r0, #88]	; 0x58
 8005aa4:	2c01      	cmp	r4, #1
 8005aa6:	d038      	beq.n	8005b1a <HAL_DMA_Start_IT+0x7e>
 8005aa8:	2401      	movs	r4, #1
 8005aaa:	f880 4034 	strb.w	r4, [r0, #52]	; 0x34
 8005aae:	f890 4035 	ldrb.w	r4, [r0, #53]	; 0x35
 8005ab2:	2c01      	cmp	r4, #1
 8005ab4:	f04f 0500 	mov.w	r5, #0
 8005ab8:	f04f 0402 	mov.w	r4, #2
 8005abc:	d12b      	bne.n	8005b16 <HAL_DMA_Start_IT+0x7a>
 8005abe:	f880 4035 	strb.w	r4, [r0, #53]	; 0x35
 8005ac2:	6545      	str	r5, [r0, #84]	; 0x54
 8005ac4:	6805      	ldr	r5, [r0, #0]
 8005ac6:	682c      	ldr	r4, [r5, #0]
 8005ac8:	f424 2480 	bic.w	r4, r4, #262144	; 0x40000
 8005acc:	602c      	str	r4, [r5, #0]
 8005ace:	6804      	ldr	r4, [r0, #0]
 8005ad0:	6063      	str	r3, [r4, #4]
 8005ad2:	6883      	ldr	r3, [r0, #8]
 8005ad4:	2b40      	cmp	r3, #64	; 0x40
 8005ad6:	6803      	ldr	r3, [r0, #0]
 8005ad8:	bf0b      	itete	eq
 8005ada:	609a      	streq	r2, [r3, #8]
 8005adc:	6099      	strne	r1, [r3, #8]
 8005ade:	6803      	ldreq	r3, [r0, #0]
 8005ae0:	6803      	ldrne	r3, [r0, #0]
 8005ae2:	bf0c      	ite	eq
 8005ae4:	60d9      	streq	r1, [r3, #12]
 8005ae6:	60da      	strne	r2, [r3, #12]
 8005ae8:	6dc2      	ldr	r2, [r0, #92]	; 0x5c
 8005aea:	233f      	movs	r3, #63	; 0x3f
 8005aec:	4093      	lsls	r3, r2
 8005aee:	60b3      	str	r3, [r6, #8]
 8005af0:	6802      	ldr	r2, [r0, #0]
 8005af2:	6813      	ldr	r3, [r2, #0]
 8005af4:	f043 0316 	orr.w	r3, r3, #22
 8005af8:	6013      	str	r3, [r2, #0]
 8005afa:	6c03      	ldr	r3, [r0, #64]	; 0x40
 8005afc:	b123      	cbz	r3, 8005b08 <HAL_DMA_Start_IT+0x6c>
 8005afe:	6802      	ldr	r2, [r0, #0]
 8005b00:	6813      	ldr	r3, [r2, #0]
 8005b02:	f043 0308 	orr.w	r3, r3, #8
 8005b06:	6013      	str	r3, [r2, #0]
 8005b08:	6802      	ldr	r2, [r0, #0]
 8005b0a:	6813      	ldr	r3, [r2, #0]
 8005b0c:	f043 0301 	orr.w	r3, r3, #1
 8005b10:	6013      	str	r3, [r2, #0]
 8005b12:	2000      	movs	r0, #0
 8005b14:	bd70      	pop	{r4, r5, r6, pc}
 8005b16:	f880 5034 	strb.w	r5, [r0, #52]	; 0x34
 8005b1a:	2002      	movs	r0, #2
 8005b1c:	e7fa      	b.n	8005b14 <HAL_DMA_Start_IT+0x78>

08005b1e <HAL_DMA_Abort>:
 8005b1e:	b570      	push	{r4, r5, r6, lr}
 8005b20:	4604      	mov	r4, r0
 8005b22:	6d86      	ldr	r6, [r0, #88]	; 0x58
 8005b24:	f7ff fb9e 	bl	8005264 <HAL_GetTick>
 8005b28:	f894 3035 	ldrb.w	r3, [r4, #53]	; 0x35
 8005b2c:	2b02      	cmp	r3, #2
 8005b2e:	4605      	mov	r5, r0
 8005b30:	d006      	beq.n	8005b40 <HAL_DMA_Abort+0x22>
 8005b32:	2380      	movs	r3, #128	; 0x80
 8005b34:	6563      	str	r3, [r4, #84]	; 0x54
 8005b36:	2300      	movs	r3, #0
 8005b38:	f884 3034 	strb.w	r3, [r4, #52]	; 0x34
 8005b3c:	2001      	movs	r0, #1
 8005b3e:	bd70      	pop	{r4, r5, r6, pc}
 8005b40:	6822      	ldr	r2, [r4, #0]
 8005b42:	6813      	ldr	r3, [r2, #0]
 8005b44:	f023 0316 	bic.w	r3, r3, #22
 8005b48:	6013      	str	r3, [r2, #0]
 8005b4a:	6822      	ldr	r2, [r4, #0]
 8005b4c:	6953      	ldr	r3, [r2, #20]
 8005b4e:	f023 0380 	bic.w	r3, r3, #128	; 0x80
 8005b52:	6153      	str	r3, [r2, #20]
 8005b54:	6c23      	ldr	r3, [r4, #64]	; 0x40
 8005b56:	b90b      	cbnz	r3, 8005b5c <HAL_DMA_Abort+0x3e>
 8005b58:	6ca3      	ldr	r3, [r4, #72]	; 0x48
 8005b5a:	b123      	cbz	r3, 8005b66 <HAL_DMA_Abort+0x48>
 8005b5c:	6822      	ldr	r2, [r4, #0]
 8005b5e:	6813      	ldr	r3, [r2, #0]
 8005b60:	f023 0308 	bic.w	r3, r3, #8
 8005b64:	6013      	str	r3, [r2, #0]
 8005b66:	6822      	ldr	r2, [r4, #0]
 8005b68:	6813      	ldr	r3, [r2, #0]
 8005b6a:	f023 0301 	bic.w	r3, r3, #1
 8005b6e:	6013      	str	r3, [r2, #0]
 8005b70:	6823      	ldr	r3, [r4, #0]
 8005b72:	681b      	ldr	r3, [r3, #0]
 8005b74:	f013 0301 	ands.w	r3, r3, #1
 8005b78:	d10a      	bne.n	8005b90 <HAL_DMA_Abort+0x72>
 8005b7a:	6de1      	ldr	r1, [r4, #92]	; 0x5c
 8005b7c:	223f      	movs	r2, #63	; 0x3f
 8005b7e:	408a      	lsls	r2, r1
 8005b80:	60b2      	str	r2, [r6, #8]
 8005b82:	2201      	movs	r2, #1
 8005b84:	f884 3034 	strb.w	r3, [r4, #52]	; 0x34
 8005b88:	f884 2035 	strb.w	r2, [r4, #53]	; 0x35
 8005b8c:	4618      	mov	r0, r3
 8005b8e:	e7d6      	b.n	8005b3e <HAL_DMA_Abort+0x20>
 8005b90:	f7ff fb68 	bl	8005264 <HAL_GetTick>
 8005b94:	1b40      	subs	r0, r0, r5
 8005b96:	2805      	cmp	r0, #5
 8005b98:	d9ea      	bls.n	8005b70 <HAL_DMA_Abort+0x52>
 8005b9a:	2320      	movs	r3, #32
 8005b9c:	6563      	str	r3, [r4, #84]	; 0x54
 8005b9e:	2003      	movs	r0, #3
 8005ba0:	2300      	movs	r3, #0
 8005ba2:	f884 3034 	strb.w	r3, [r4, #52]	; 0x34
 8005ba6:	f884 0035 	strb.w	r0, [r4, #53]	; 0x35
 8005baa:	e7c8      	b.n	8005b3e <HAL_DMA_Abort+0x20>

08005bac <HAL_DMA_Abort_IT>:
 8005bac:	f890 3035 	ldrb.w	r3, [r0, #53]	; 0x35
 8005bb0:	2b02      	cmp	r3, #2
 8005bb2:	d003      	beq.n	8005bbc <HAL_DMA_Abort_IT+0x10>
 8005bb4:	2380      	movs	r3, #128	; 0x80
 8005bb6:	6543      	str	r3, [r0, #84]	; 0x54
 8005bb8:	2001      	movs	r0, #1
 8005bba:	4770      	bx	lr
 8005bbc:	6802      	ldr	r2, [r0, #0]
 8005bbe:	2305      	movs	r3, #5
 8005bc0:	f880 3035 	strb.w	r3, [r0, #53]	; 0x35
 8005bc4:	6813      	ldr	r3, [r2, #0]
 8005bc6:	f023 0301 	bic.w	r3, r3, #1
 8005bca:	6013      	str	r3, [r2, #0]
 8005bcc:	2000      	movs	r0, #0
 8005bce:	4770      	bx	lr

08005bd0 <HAL_DMA_IRQHandler>:
 8005bd0:	b5f7      	push	{r0, r1, r2, r4, r5, r6, r7, lr}
 8005bd2:	2300      	movs	r3, #0
 8005bd4:	9301      	str	r3, [sp, #4]
 8005bd6:	6d85      	ldr	r5, [r0, #88]	; 0x58
 8005bd8:	4b61      	ldr	r3, [pc, #388]	; (8005d60 <HAL_DMA_IRQHandler+0x190>)
 8005bda:	6dc2      	ldr	r2, [r0, #92]	; 0x5c
 8005bdc:	681f      	ldr	r7, [r3, #0]
 8005bde:	682e      	ldr	r6, [r5, #0]
 8005be0:	2308      	movs	r3, #8
 8005be2:	fa03 f202 	lsl.w	r2, r3, r2
 8005be6:	4232      	tst	r2, r6
 8005be8:	4604      	mov	r4, r0
 8005bea:	d00e      	beq.n	8005c0a <HAL_DMA_IRQHandler+0x3a>
 8005bec:	6802      	ldr	r2, [r0, #0]
 8005bee:	6811      	ldr	r1, [r2, #0]
 8005bf0:	0749      	lsls	r1, r1, #29
 8005bf2:	d50a      	bpl.n	8005c0a <HAL_DMA_IRQHandler+0x3a>
 8005bf4:	6811      	ldr	r1, [r2, #0]
 8005bf6:	f021 0104 	bic.w	r1, r1, #4
 8005bfa:	6011      	str	r1, [r2, #0]
 8005bfc:	6dc2      	ldr	r2, [r0, #92]	; 0x5c
 8005bfe:	4093      	lsls	r3, r2
 8005c00:	60ab      	str	r3, [r5, #8]
 8005c02:	6d43      	ldr	r3, [r0, #84]	; 0x54
 8005c04:	f043 0301 	orr.w	r3, r3, #1
 8005c08:	6543      	str	r3, [r0, #84]	; 0x54
 8005c0a:	6de2      	ldr	r2, [r4, #92]	; 0x5c
 8005c0c:	2301      	movs	r3, #1
 8005c0e:	4093      	lsls	r3, r2
 8005c10:	4233      	tst	r3, r6
 8005c12:	d008      	beq.n	8005c26 <HAL_DMA_IRQHandler+0x56>
 8005c14:	6822      	ldr	r2, [r4, #0]
 8005c16:	6952      	ldr	r2, [r2, #20]
 8005c18:	0610      	lsls	r0, r2, #24
 8005c1a:	bf41      	itttt	mi
 8005c1c:	60ab      	strmi	r3, [r5, #8]
 8005c1e:	6d63      	ldrmi	r3, [r4, #84]	; 0x54
 8005c20:	f043 0302 	orrmi.w	r3, r3, #2
 8005c24:	6563      	strmi	r3, [r4, #84]	; 0x54
 8005c26:	6de2      	ldr	r2, [r4, #92]	; 0x5c
 8005c28:	2304      	movs	r3, #4
 8005c2a:	4093      	lsls	r3, r2
 8005c2c:	4233      	tst	r3, r6
 8005c2e:	d008      	beq.n	8005c42 <HAL_DMA_IRQHandler+0x72>
 8005c30:	6822      	ldr	r2, [r4, #0]
 8005c32:	6812      	ldr	r2, [r2, #0]
 8005c34:	0791      	lsls	r1, r2, #30
 8005c36:	bf41      	itttt	mi
 8005c38:	60ab      	strmi	r3, [r5, #8]
 8005c3a:	6d63      	ldrmi	r3, [r4, #84]	; 0x54
 8005c3c:	f043 0304 	orrmi.w	r3, r3, #4
 8005c40:	6563      	strmi	r3, [r4, #84]	; 0x54
 8005c42:	6de2      	ldr	r2, [r4, #92]	; 0x5c
 8005c44:	2310      	movs	r3, #16
 8005c46:	4093      	lsls	r3, r2
 8005c48:	4233      	tst	r3, r6
 8005c4a:	d011      	beq.n	8005c70 <HAL_DMA_IRQHandler+0xa0>
 8005c4c:	6822      	ldr	r2, [r4, #0]
 8005c4e:	6812      	ldr	r2, [r2, #0]
 8005c50:	0712      	lsls	r2, r2, #28
 8005c52:	d50d      	bpl.n	8005c70 <HAL_DMA_IRQHandler+0xa0>
 8005c54:	60ab      	str	r3, [r5, #8]
 8005c56:	6823      	ldr	r3, [r4, #0]
 8005c58:	681a      	ldr	r2, [r3, #0]
 8005c5a:	0350      	lsls	r0, r2, #13
 8005c5c:	d53b      	bpl.n	8005cd6 <HAL_DMA_IRQHandler+0x106>
 8005c5e:	681b      	ldr	r3, [r3, #0]
 8005c60:	0319      	lsls	r1, r3, #12
 8005c62:	d401      	bmi.n	8005c68 <HAL_DMA_IRQHandler+0x98>
 8005c64:	6c23      	ldr	r3, [r4, #64]	; 0x40
 8005c66:	e000      	b.n	8005c6a <HAL_DMA_IRQHandler+0x9a>
 8005c68:	6ca3      	ldr	r3, [r4, #72]	; 0x48
 8005c6a:	b10b      	cbz	r3, 8005c70 <HAL_DMA_IRQHandler+0xa0>
 8005c6c:	4620      	mov	r0, r4
 8005c6e:	4798      	blx	r3
 8005c70:	6de2      	ldr	r2, [r4, #92]	; 0x5c
 8005c72:	2320      	movs	r3, #32
 8005c74:	4093      	lsls	r3, r2
 8005c76:	4233      	tst	r3, r6
 8005c78:	d03e      	beq.n	8005cf8 <HAL_DMA_IRQHandler+0x128>
 8005c7a:	6822      	ldr	r2, [r4, #0]
 8005c7c:	6812      	ldr	r2, [r2, #0]
 8005c7e:	06d6      	lsls	r6, r2, #27
 8005c80:	d53a      	bpl.n	8005cf8 <HAL_DMA_IRQHandler+0x128>
 8005c82:	60ab      	str	r3, [r5, #8]
 8005c84:	f894 3035 	ldrb.w	r3, [r4, #53]	; 0x35
 8005c88:	2b05      	cmp	r3, #5
 8005c8a:	6823      	ldr	r3, [r4, #0]
 8005c8c:	681a      	ldr	r2, [r3, #0]
 8005c8e:	d12a      	bne.n	8005ce6 <HAL_DMA_IRQHandler+0x116>
 8005c90:	f022 0216 	bic.w	r2, r2, #22
 8005c94:	601a      	str	r2, [r3, #0]
 8005c96:	6822      	ldr	r2, [r4, #0]
 8005c98:	6953      	ldr	r3, [r2, #20]
 8005c9a:	f023 0380 	bic.w	r3, r3, #128	; 0x80
 8005c9e:	6153      	str	r3, [r2, #20]
 8005ca0:	6c23      	ldr	r3, [r4, #64]	; 0x40
 8005ca2:	b90b      	cbnz	r3, 8005ca8 <HAL_DMA_IRQHandler+0xd8>
 8005ca4:	6ca3      	ldr	r3, [r4, #72]	; 0x48
 8005ca6:	b123      	cbz	r3, 8005cb2 <HAL_DMA_IRQHandler+0xe2>
 8005ca8:	6822      	ldr	r2, [r4, #0]
 8005caa:	6813      	ldr	r3, [r2, #0]
 8005cac:	f023 0308 	bic.w	r3, r3, #8
 8005cb0:	6013      	str	r3, [r2, #0]
 8005cb2:	6de2      	ldr	r2, [r4, #92]	; 0x5c
 8005cb4:	233f      	movs	r3, #63	; 0x3f
 8005cb6:	4093      	lsls	r3, r2
 8005cb8:	60ab      	str	r3, [r5, #8]
 8005cba:	2300      	movs	r3, #0
 8005cbc:	f884 3034 	strb.w	r3, [r4, #52]	; 0x34
 8005cc0:	2301      	movs	r3, #1
 8005cc2:	f884 3035 	strb.w	r3, [r4, #53]	; 0x35
 8005cc6:	6d23      	ldr	r3, [r4, #80]	; 0x50
 8005cc8:	2b00      	cmp	r3, #0
 8005cca:	d046      	beq.n	8005d5a <HAL_DMA_IRQHandler+0x18a>
 8005ccc:	4620      	mov	r0, r4
 8005cce:	b003      	add	sp, #12
 8005cd0:	e8bd 40f0 	ldmia.w	sp!, {r4, r5, r6, r7, lr}
 8005cd4:	4718      	bx	r3
 8005cd6:	681a      	ldr	r2, [r3, #0]
 8005cd8:	05d2      	lsls	r2, r2, #23
 8005cda:	bf5e      	ittt	pl
 8005cdc:	681a      	ldrpl	r2, [r3, #0]
 8005cde:	f022 0208 	bicpl.w	r2, r2, #8
 8005ce2:	601a      	strpl	r2, [r3, #0]
 8005ce4:	e7be      	b.n	8005c64 <HAL_DMA_IRQHandler+0x94>
 8005ce6:	0350      	lsls	r0, r2, #13
 8005ce8:	d528      	bpl.n	8005d3c <HAL_DMA_IRQHandler+0x16c>
 8005cea:	681b      	ldr	r3, [r3, #0]
 8005cec:	0319      	lsls	r1, r3, #12
 8005cee:	d432      	bmi.n	8005d56 <HAL_DMA_IRQHandler+0x186>
 8005cf0:	6c63      	ldr	r3, [r4, #68]	; 0x44
 8005cf2:	b10b      	cbz	r3, 8005cf8 <HAL_DMA_IRQHandler+0x128>
 8005cf4:	4620      	mov	r0, r4
 8005cf6:	4798      	blx	r3
 8005cf8:	6d63      	ldr	r3, [r4, #84]	; 0x54
 8005cfa:	b373      	cbz	r3, 8005d5a <HAL_DMA_IRQHandler+0x18a>
 8005cfc:	6d63      	ldr	r3, [r4, #84]	; 0x54
 8005cfe:	07da      	lsls	r2, r3, #31
 8005d00:	d51a      	bpl.n	8005d38 <HAL_DMA_IRQHandler+0x168>
 8005d02:	6822      	ldr	r2, [r4, #0]
 8005d04:	f44f 5316 	mov.w	r3, #9600	; 0x2580
 8005d08:	fbb7 f7f3 	udiv	r7, r7, r3
 8005d0c:	2305      	movs	r3, #5
 8005d0e:	f884 3035 	strb.w	r3, [r4, #53]	; 0x35
 8005d12:	6813      	ldr	r3, [r2, #0]
 8005d14:	f023 0301 	bic.w	r3, r3, #1
 8005d18:	6013      	str	r3, [r2, #0]
 8005d1a:	9b01      	ldr	r3, [sp, #4]
 8005d1c:	3301      	adds	r3, #1
 8005d1e:	42bb      	cmp	r3, r7
 8005d20:	9301      	str	r3, [sp, #4]
 8005d22:	d803      	bhi.n	8005d2c <HAL_DMA_IRQHandler+0x15c>
 8005d24:	6823      	ldr	r3, [r4, #0]
 8005d26:	681b      	ldr	r3, [r3, #0]
 8005d28:	07db      	lsls	r3, r3, #31
 8005d2a:	d4f6      	bmi.n	8005d1a <HAL_DMA_IRQHandler+0x14a>
 8005d2c:	2300      	movs	r3, #0
 8005d2e:	f884 3034 	strb.w	r3, [r4, #52]	; 0x34
 8005d32:	2301      	movs	r3, #1
 8005d34:	f884 3035 	strb.w	r3, [r4, #53]	; 0x35
 8005d38:	6ce3      	ldr	r3, [r4, #76]	; 0x4c
 8005d3a:	e7c5      	b.n	8005cc8 <HAL_DMA_IRQHandler+0xf8>
 8005d3c:	681a      	ldr	r2, [r3, #0]
 8005d3e:	f412 7280 	ands.w	r2, r2, #256	; 0x100
 8005d42:	d108      	bne.n	8005d56 <HAL_DMA_IRQHandler+0x186>
 8005d44:	6819      	ldr	r1, [r3, #0]
 8005d46:	f021 0110 	bic.w	r1, r1, #16
 8005d4a:	6019      	str	r1, [r3, #0]
 8005d4c:	2301      	movs	r3, #1
 8005d4e:	f884 2034 	strb.w	r2, [r4, #52]	; 0x34
 8005d52:	f884 3035 	strb.w	r3, [r4, #53]	; 0x35
 8005d56:	6be3      	ldr	r3, [r4, #60]	; 0x3c
 8005d58:	e7cb      	b.n	8005cf2 <HAL_DMA_IRQHandler+0x122>
 8005d5a:	b003      	add	sp, #12
 8005d5c:	bdf0      	pop	{r4, r5, r6, r7, pc}
 8005d5e:	bf00      	nop
 8005d60:	2000019c 	.word	0x2000019c

08005d64 <HAL_GPIO_Init>:
 8005d64:	e92d 4ff7 	stmdb	sp!, {r0, r1, r2, r4, r5, r6, r7, r8, r9, sl, fp, lr}
 8005d68:	f8df c1b0 	ldr.w	ip, [pc, #432]	; 8005f1c <HAL_GPIO_Init+0x1b8>
 8005d6c:	4a69      	ldr	r2, [pc, #420]	; (8005f14 <HAL_GPIO_Init+0x1b0>)
 8005d6e:	f8df 81b0 	ldr.w	r8, [pc, #432]	; 8005f20 <HAL_GPIO_Init+0x1bc>
 8005d72:	f8df e1b0 	ldr.w	lr, [pc, #432]	; 8005f24 <HAL_GPIO_Init+0x1c0>
 8005d76:	2300      	movs	r3, #0
 8005d78:	680d      	ldr	r5, [r1, #0]
 8005d7a:	2401      	movs	r4, #1
 8005d7c:	409c      	lsls	r4, r3
 8005d7e:	ea04 0605 	and.w	r6, r4, r5
 8005d82:	43ac      	bics	r4, r5
 8005d84:	f040 80b0 	bne.w	8005ee8 <HAL_GPIO_Init+0x184>
 8005d88:	684d      	ldr	r5, [r1, #4]
 8005d8a:	f005 0503 	and.w	r5, r5, #3
 8005d8e:	005f      	lsls	r7, r3, #1
 8005d90:	2403      	movs	r4, #3
 8005d92:	3d01      	subs	r5, #1
 8005d94:	40bc      	lsls	r4, r7
 8005d96:	2d01      	cmp	r5, #1
 8005d98:	ea6f 0404 	mvn.w	r4, r4
 8005d9c:	d811      	bhi.n	8005dc2 <HAL_GPIO_Init+0x5e>
 8005d9e:	6885      	ldr	r5, [r0, #8]
 8005da0:	ea05 0904 	and.w	r9, r5, r4
 8005da4:	68cd      	ldr	r5, [r1, #12]
 8005da6:	40bd      	lsls	r5, r7
 8005da8:	ea45 0509 	orr.w	r5, r5, r9
 8005dac:	6085      	str	r5, [r0, #8]
 8005dae:	6845      	ldr	r5, [r0, #4]
 8005db0:	ea25 0906 	bic.w	r9, r5, r6
 8005db4:	684d      	ldr	r5, [r1, #4]
 8005db6:	f3c5 1500 	ubfx	r5, r5, #4, #1
 8005dba:	409d      	lsls	r5, r3
 8005dbc:	ea45 0509 	orr.w	r5, r5, r9
 8005dc0:	6045      	str	r5, [r0, #4]
 8005dc2:	684d      	ldr	r5, [r1, #4]
 8005dc4:	f005 0503 	and.w	r5, r5, #3
 8005dc8:	2d03      	cmp	r5, #3
 8005dca:	d023      	beq.n	8005e14 <HAL_GPIO_Init+0xb0>
 8005dcc:	68c5      	ldr	r5, [r0, #12]
 8005dce:	ea05 0904 	and.w	r9, r5, r4
 8005dd2:	688d      	ldr	r5, [r1, #8]
 8005dd4:	40bd      	lsls	r5, r7
 8005dd6:	ea45 0509 	orr.w	r5, r5, r9
 8005dda:	60c5      	str	r5, [r0, #12]
 8005ddc:	684d      	ldr	r5, [r1, #4]
 8005dde:	f005 0503 	and.w	r5, r5, #3
 8005de2:	2d02      	cmp	r5, #2
 8005de4:	d116      	bne.n	8005e14 <HAL_GPIO_Init+0xb0>
 8005de6:	ea4f 0ad3 	mov.w	sl, r3, lsr #3
 8005dea:	eb00 0a8a 	add.w	sl, r0, sl, lsl #2
 8005dee:	f003 0b07 	and.w	fp, r3, #7
 8005df2:	f8da 5020 	ldr.w	r5, [sl, #32]
 8005df6:	ea4f 0b8b 	mov.w	fp, fp, lsl #2
 8005dfa:	f04f 090f 	mov.w	r9, #15
 8005dfe:	fa09 f90b 	lsl.w	r9, r9, fp
 8005e02:	ea25 0909 	bic.w	r9, r5, r9
 8005e06:	690d      	ldr	r5, [r1, #16]
 8005e08:	fa05 f50b 	lsl.w	r5, r5, fp
 8005e0c:	ea45 0509 	orr.w	r5, r5, r9
 8005e10:	f8ca 5020 	str.w	r5, [sl, #32]
 8005e14:	6805      	ldr	r5, [r0, #0]
 8005e16:	402c      	ands	r4, r5
 8005e18:	684d      	ldr	r5, [r1, #4]
 8005e1a:	f005 0503 	and.w	r5, r5, #3
 8005e1e:	40bd      	lsls	r5, r7
 8005e20:	432c      	orrs	r4, r5
 8005e22:	6004      	str	r4, [r0, #0]
 8005e24:	684c      	ldr	r4, [r1, #4]
 8005e26:	00e5      	lsls	r5, r4, #3
 8005e28:	d55e      	bpl.n	8005ee8 <HAL_GPIO_Init+0x184>
 8005e2a:	f04f 0b00 	mov.w	fp, #0
 8005e2e:	f8cd b004 	str.w	fp, [sp, #4]
 8005e32:	f8dc 5044 	ldr.w	r5, [ip, #68]	; 0x44
 8005e36:	4c38      	ldr	r4, [pc, #224]	; (8005f18 <HAL_GPIO_Init+0x1b4>)
 8005e38:	f445 4580 	orr.w	r5, r5, #16384	; 0x4000
 8005e3c:	f8cc 5044 	str.w	r5, [ip, #68]	; 0x44
 8005e40:	f8dc 5044 	ldr.w	r5, [ip, #68]	; 0x44
 8005e44:	f405 4580 	and.w	r5, r5, #16384	; 0x4000
 8005e48:	9501      	str	r5, [sp, #4]
 8005e4a:	9d01      	ldr	r5, [sp, #4]
 8005e4c:	f023 0503 	bic.w	r5, r3, #3
 8005e50:	f105 4580 	add.w	r5, r5, #1073741824	; 0x40000000
 8005e54:	f505 359c 	add.w	r5, r5, #79872	; 0x13800
 8005e58:	f003 0903 	and.w	r9, r3, #3
 8005e5c:	f8d5 a008 	ldr.w	sl, [r5, #8]
 8005e60:	ea4f 0989 	mov.w	r9, r9, lsl #2
 8005e64:	270f      	movs	r7, #15
 8005e66:	fa07 f709 	lsl.w	r7, r7, r9
 8005e6a:	42a0      	cmp	r0, r4
 8005e6c:	ea2a 0707 	bic.w	r7, sl, r7
 8005e70:	d041      	beq.n	8005ef6 <HAL_GPIO_Init+0x192>
 8005e72:	f504 6480 	add.w	r4, r4, #1024	; 0x400
 8005e76:	42a0      	cmp	r0, r4
 8005e78:	d03f      	beq.n	8005efa <HAL_GPIO_Init+0x196>
 8005e7a:	f504 6480 	add.w	r4, r4, #1024	; 0x400
 8005e7e:	42a0      	cmp	r0, r4
 8005e80:	d03d      	beq.n	8005efe <HAL_GPIO_Init+0x19a>
 8005e82:	f504 6480 	add.w	r4, r4, #1024	; 0x400
 8005e86:	42a0      	cmp	r0, r4
 8005e88:	d03b      	beq.n	8005f02 <HAL_GPIO_Init+0x19e>
 8005e8a:	4540      	cmp	r0, r8
 8005e8c:	d03b      	beq.n	8005f06 <HAL_GPIO_Init+0x1a2>
 8005e8e:	4570      	cmp	r0, lr
 8005e90:	d03b      	beq.n	8005f0a <HAL_GPIO_Init+0x1a6>
 8005e92:	f504 6440 	add.w	r4, r4, #3072	; 0xc00
 8005e96:	42a0      	cmp	r0, r4
 8005e98:	d039      	beq.n	8005f0e <HAL_GPIO_Init+0x1aa>
 8005e9a:	f504 6480 	add.w	r4, r4, #1024	; 0x400
 8005e9e:	42a0      	cmp	r0, r4
 8005ea0:	bf0c      	ite	eq
 8005ea2:	2407      	moveq	r4, #7
 8005ea4:	2408      	movne	r4, #8
 8005ea6:	fa04 f409 	lsl.w	r4, r4, r9
 8005eaa:	433c      	orrs	r4, r7
 8005eac:	60ac      	str	r4, [r5, #8]
 8005eae:	684c      	ldr	r4, [r1, #4]
 8005eb0:	6817      	ldr	r7, [r2, #0]
 8005eb2:	43f5      	mvns	r5, r6
 8005eb4:	03e4      	lsls	r4, r4, #15
 8005eb6:	bf54      	ite	pl
 8005eb8:	402f      	andpl	r7, r5
 8005eba:	4337      	orrmi	r7, r6
 8005ebc:	6017      	str	r7, [r2, #0]
 8005ebe:	684c      	ldr	r4, [r1, #4]
 8005ec0:	6857      	ldr	r7, [r2, #4]
 8005ec2:	03a4      	lsls	r4, r4, #14
 8005ec4:	bf54      	ite	pl
 8005ec6:	402f      	andpl	r7, r5
 8005ec8:	4337      	orrmi	r7, r6
 8005eca:	6057      	str	r7, [r2, #4]
 8005ecc:	684c      	ldr	r4, [r1, #4]
 8005ece:	6897      	ldr	r7, [r2, #8]
 8005ed0:	02e4      	lsls	r4, r4, #11
 8005ed2:	bf54      	ite	pl
 8005ed4:	402f      	andpl	r7, r5
 8005ed6:	4337      	orrmi	r7, r6
 8005ed8:	6097      	str	r7, [r2, #8]
 8005eda:	684c      	ldr	r4, [r1, #4]
 8005edc:	68d7      	ldr	r7, [r2, #12]
 8005ede:	02a4      	lsls	r4, r4, #10
 8005ee0:	bf54      	ite	pl
 8005ee2:	402f      	andpl	r7, r5
 8005ee4:	4337      	orrmi	r7, r6
 8005ee6:	60d7      	str	r7, [r2, #12]
 8005ee8:	3301      	adds	r3, #1
 8005eea:	2b10      	cmp	r3, #16
 8005eec:	f47f af44 	bne.w	8005d78 <HAL_GPIO_Init+0x14>
 8005ef0:	b003      	add	sp, #12
 8005ef2:	e8bd 8ff0 	ldmia.w	sp!, {r4, r5, r6, r7, r8, r9, sl, fp, pc}
 8005ef6:	465c      	mov	r4, fp
 8005ef8:	e7d5      	b.n	8005ea6 <HAL_GPIO_Init+0x142>
 8005efa:	2401      	movs	r4, #1
 8005efc:	e7d3      	b.n	8005ea6 <HAL_GPIO_Init+0x142>
 8005efe:	2402      	movs	r4, #2
 8005f00:	e7d1      	b.n	8005ea6 <HAL_GPIO_Init+0x142>
 8005f02:	2403      	movs	r4, #3
 8005f04:	e7cf      	b.n	8005ea6 <HAL_GPIO_Init+0x142>
 8005f06:	2404      	movs	r4, #4
 8005f08:	e7cd      	b.n	8005ea6 <HAL_GPIO_Init+0x142>
 8005f0a:	2405      	movs	r4, #5
 8005f0c:	e7cb      	b.n	8005ea6 <HAL_GPIO_Init+0x142>
 8005f0e:	2406      	movs	r4, #6
 8005f10:	e7c9      	b.n	8005ea6 <HAL_GPIO_Init+0x142>
 8005f12:	bf00      	nop
 8005f14:	40013c00 	.word	0x40013c00
 8005f18:	40020000 	.word	0x40020000
 8005f1c:	40023800 	.word	0x40023800
 8005f20:	40021000 	.word	0x40021000
 8005f24:	40021400 	.word	0x40021400

08005f28 <HAL_GPIO_DeInit>:
 8005f28:	e92d 4ff0 	stmdb	sp!, {r4, r5, r6, r7, r8, r9, sl, fp, lr}
 8005f2c:	4c44      	ldr	r4, [pc, #272]	; (8006040 <HAL_GPIO_DeInit+0x118>)
 8005f2e:	f8df 9118 	ldr.w	r9, [pc, #280]	; 8006048 <HAL_GPIO_DeInit+0x120>
 8005f32:	f8df a118 	ldr.w	sl, [pc, #280]	; 800604c <HAL_GPIO_DeInit+0x124>
 8005f36:	f8df b118 	ldr.w	fp, [pc, #280]	; 8006050 <HAL_GPIO_DeInit+0x128>
 8005f3a:	2200      	movs	r2, #0
 8005f3c:	2301      	movs	r3, #1
 8005f3e:	fa03 fe02 	lsl.w	lr, r3, r2
 8005f42:	ea3e 0301 	bics.w	r3, lr, r1
 8005f46:	ea0e 0701 	and.w	r7, lr, r1
 8005f4a:	d166      	bne.n	800601a <HAL_GPIO_DeInit+0xf2>
 8005f4c:	f022 0503 	bic.w	r5, r2, #3
 8005f50:	f105 4580 	add.w	r5, r5, #1073741824	; 0x40000000
 8005f54:	f505 359c 	add.w	r5, r5, #79872	; 0x13800
 8005f58:	4b3a      	ldr	r3, [pc, #232]	; (8006044 <HAL_GPIO_DeInit+0x11c>)
 8005f5a:	f8d5 8008 	ldr.w	r8, [r5, #8]
 8005f5e:	f002 0c03 	and.w	ip, r2, #3
 8005f62:	ea4f 0c8c 	mov.w	ip, ip, lsl #2
 8005f66:	260f      	movs	r6, #15
 8005f68:	fa06 f60c 	lsl.w	r6, r6, ip
 8005f6c:	4298      	cmp	r0, r3
 8005f6e:	ea06 0808 	and.w	r8, r6, r8
 8005f72:	d057      	beq.n	8006024 <HAL_GPIO_DeInit+0xfc>
 8005f74:	f503 6380 	add.w	r3, r3, #1024	; 0x400
 8005f78:	4298      	cmp	r0, r3
 8005f7a:	d055      	beq.n	8006028 <HAL_GPIO_DeInit+0x100>
 8005f7c:	f503 6380 	add.w	r3, r3, #1024	; 0x400
 8005f80:	4298      	cmp	r0, r3
 8005f82:	d053      	beq.n	800602c <HAL_GPIO_DeInit+0x104>
 8005f84:	f503 6380 	add.w	r3, r3, #1024	; 0x400
 8005f88:	4298      	cmp	r0, r3
 8005f8a:	d051      	beq.n	8006030 <HAL_GPIO_DeInit+0x108>
 8005f8c:	f503 6380 	add.w	r3, r3, #1024	; 0x400
 8005f90:	4298      	cmp	r0, r3
 8005f92:	d04f      	beq.n	8006034 <HAL_GPIO_DeInit+0x10c>
 8005f94:	4548      	cmp	r0, r9
 8005f96:	d04f      	beq.n	8006038 <HAL_GPIO_DeInit+0x110>
 8005f98:	4550      	cmp	r0, sl
 8005f9a:	d04f      	beq.n	800603c <HAL_GPIO_DeInit+0x114>
 8005f9c:	4558      	cmp	r0, fp
 8005f9e:	bf0c      	ite	eq
 8005fa0:	2307      	moveq	r3, #7
 8005fa2:	2308      	movne	r3, #8
 8005fa4:	fa03 f30c 	lsl.w	r3, r3, ip
 8005fa8:	4543      	cmp	r3, r8
 8005faa:	d113      	bne.n	8005fd4 <HAL_GPIO_DeInit+0xac>
 8005fac:	6823      	ldr	r3, [r4, #0]
 8005fae:	ea23 0307 	bic.w	r3, r3, r7
 8005fb2:	6023      	str	r3, [r4, #0]
 8005fb4:	6863      	ldr	r3, [r4, #4]
 8005fb6:	ea23 0307 	bic.w	r3, r3, r7
 8005fba:	6063      	str	r3, [r4, #4]
 8005fbc:	68a3      	ldr	r3, [r4, #8]
 8005fbe:	ea23 0307 	bic.w	r3, r3, r7
 8005fc2:	60a3      	str	r3, [r4, #8]
 8005fc4:	68e3      	ldr	r3, [r4, #12]
 8005fc6:	ea23 0707 	bic.w	r7, r3, r7
 8005fca:	60e7      	str	r7, [r4, #12]
 8005fcc:	68ab      	ldr	r3, [r5, #8]
 8005fce:	ea23 0606 	bic.w	r6, r3, r6
 8005fd2:	60ae      	str	r6, [r5, #8]
 8005fd4:	6805      	ldr	r5, [r0, #0]
 8005fd6:	2603      	movs	r6, #3
 8005fd8:	0053      	lsls	r3, r2, #1
 8005fda:	fa06 f303 	lsl.w	r3, r6, r3
 8005fde:	ea25 0503 	bic.w	r5, r5, r3
 8005fe2:	6005      	str	r5, [r0, #0]
 8005fe4:	fa22 f506 	lsr.w	r5, r2, r6
 8005fe8:	eb00 0585 	add.w	r5, r0, r5, lsl #2
 8005fec:	f002 0c07 	and.w	ip, r2, #7
 8005ff0:	6a2e      	ldr	r6, [r5, #32]
 8005ff2:	ea4f 0c8c 	mov.w	ip, ip, lsl #2
 8005ff6:	270f      	movs	r7, #15
 8005ff8:	fa07 f70c 	lsl.w	r7, r7, ip
 8005ffc:	ea26 0707 	bic.w	r7, r6, r7
 8006000:	622f      	str	r7, [r5, #32]
 8006002:	68c5      	ldr	r5, [r0, #12]
 8006004:	ea25 0503 	bic.w	r5, r5, r3
 8006008:	60c5      	str	r5, [r0, #12]
 800600a:	6845      	ldr	r5, [r0, #4]
 800600c:	ea25 050e 	bic.w	r5, r5, lr
 8006010:	6045      	str	r5, [r0, #4]
 8006012:	6885      	ldr	r5, [r0, #8]
 8006014:	ea25 0303 	bic.w	r3, r5, r3
 8006018:	6083      	str	r3, [r0, #8]
 800601a:	3201      	adds	r2, #1
 800601c:	2a10      	cmp	r2, #16
 800601e:	d18d      	bne.n	8005f3c <HAL_GPIO_DeInit+0x14>
 8006020:	e8bd 8ff0 	ldmia.w	sp!, {r4, r5, r6, r7, r8, r9, sl, fp, pc}
 8006024:	2300      	movs	r3, #0
 8006026:	e7bd      	b.n	8005fa4 <HAL_GPIO_DeInit+0x7c>
 8006028:	2301      	movs	r3, #1
 800602a:	e7bb      	b.n	8005fa4 <HAL_GPIO_DeInit+0x7c>
 800602c:	2302      	movs	r3, #2
 800602e:	e7b9      	b.n	8005fa4 <HAL_GPIO_DeInit+0x7c>
 8006030:	2303      	movs	r3, #3
 8006032:	e7b7      	b.n	8005fa4 <HAL_GPIO_DeInit+0x7c>
 8006034:	2304      	movs	r3, #4
 8006036:	e7b5      	b.n	8005fa4 <HAL_GPIO_DeInit+0x7c>
 8006038:	2305      	movs	r3, #5
 800603a:	e7b3      	b.n	8005fa4 <HAL_GPIO_DeInit+0x7c>
 800603c:	2306      	movs	r3, #6
 800603e:	e7b1      	b.n	8005fa4 <HAL_GPIO_DeInit+0x7c>
 8006040:	40013c00 	.word	0x40013c00
 8006044:	40020000 	.word	0x40020000
 8006048:	40021400 	.word	0x40021400
 800604c:	40021800 	.word	0x40021800
 8006050:	40021c00 	.word	0x40021c00

08006054 <HAL_GPIO_ReadPin>:
 8006054:	6903      	ldr	r3, [r0, #16]
 8006056:	4219      	tst	r1, r3
 8006058:	bf14      	ite	ne
 800605a:	2001      	movne	r0, #1
 800605c:	2000      	moveq	r0, #0
 800605e:	4770      	bx	lr

08006060 <HAL_GPIO_WritePin>:
 8006060:	b10a      	cbz	r2, 8006066 <HAL_GPIO_WritePin+0x6>
 8006062:	6181      	str	r1, [r0, #24]
 8006064:	4770      	bx	lr
 8006066:	0409      	lsls	r1, r1, #16
 8006068:	e7fb      	b.n	8006062 <HAL_GPIO_WritePin+0x2>

0800606a <I2C_IsAcknowledgeFailed>:
 800606a:	6801      	ldr	r1, [r0, #0]
 800606c:	694b      	ldr	r3, [r1, #20]
 800606e:	f413 6380 	ands.w	r3, r3, #1024	; 0x400
 8006072:	f04f 0200 	mov.w	r2, #0
 8006076:	d010      	beq.n	800609a <I2C_IsAcknowledgeFailed+0x30>
 8006078:	f46f 6380 	mvn.w	r3, #1024	; 0x400
 800607c:	614b      	str	r3, [r1, #20]
 800607e:	2320      	movs	r3, #32
 8006080:	6302      	str	r2, [r0, #48]	; 0x30
 8006082:	f880 303d 	strb.w	r3, [r0, #61]	; 0x3d
 8006086:	f880 203e 	strb.w	r2, [r0, #62]	; 0x3e
 800608a:	6c03      	ldr	r3, [r0, #64]	; 0x40
 800608c:	f880 203c 	strb.w	r2, [r0, #60]	; 0x3c
 8006090:	f043 0304 	orr.w	r3, r3, #4
 8006094:	6403      	str	r3, [r0, #64]	; 0x40
 8006096:	2001      	movs	r0, #1
 8006098:	4770      	bx	lr
 800609a:	4618      	mov	r0, r3
 800609c:	4770      	bx	lr

0800609e <I2C_WaitOnMasterAddressFlagUntilTimeout>:
 800609e:	b5f8      	push	{r3, r4, r5, r6, r7, lr}
 80060a0:	4604      	mov	r4, r0
 80060a2:	460e      	mov	r6, r1
 80060a4:	4615      	mov	r5, r2
 80060a6:	461f      	mov	r7, r3
 80060a8:	6822      	ldr	r2, [r4, #0]
 80060aa:	6950      	ldr	r0, [r2, #20]
 80060ac:	ea26 0000 	bic.w	r0, r6, r0
 80060b0:	b280      	uxth	r0, r0
 80060b2:	b1c0      	cbz	r0, 80060e6 <I2C_WaitOnMasterAddressFlagUntilTimeout+0x48>
 80060b4:	6953      	ldr	r3, [r2, #20]
 80060b6:	0559      	lsls	r1, r3, #21
 80060b8:	d516      	bpl.n	80060e8 <I2C_WaitOnMasterAddressFlagUntilTimeout+0x4a>
 80060ba:	6813      	ldr	r3, [r2, #0]
 80060bc:	f443 7300 	orr.w	r3, r3, #512	; 0x200
 80060c0:	6013      	str	r3, [r2, #0]
 80060c2:	6823      	ldr	r3, [r4, #0]
 80060c4:	f46f 6280 	mvn.w	r2, #1024	; 0x400
 80060c8:	615a      	str	r2, [r3, #20]
 80060ca:	2300      	movs	r3, #0
 80060cc:	2220      	movs	r2, #32
 80060ce:	6323      	str	r3, [r4, #48]	; 0x30
 80060d0:	f884 203d 	strb.w	r2, [r4, #61]	; 0x3d
 80060d4:	f884 303e 	strb.w	r3, [r4, #62]	; 0x3e
 80060d8:	6c22      	ldr	r2, [r4, #64]	; 0x40
 80060da:	f042 0204 	orr.w	r2, r2, #4
 80060de:	6422      	str	r2, [r4, #64]	; 0x40
 80060e0:	f884 303c 	strb.w	r3, [r4, #60]	; 0x3c
 80060e4:	2001      	movs	r0, #1
 80060e6:	bdf8      	pop	{r3, r4, r5, r6, r7, pc}
 80060e8:	1c6b      	adds	r3, r5, #1
 80060ea:	d0de      	beq.n	80060aa <I2C_WaitOnMasterAddressFlagUntilTimeout+0xc>
 80060ec:	f7ff f8ba 	bl	8005264 <HAL_GetTick>
 80060f0:	1bc0      	subs	r0, r0, r7
 80060f2:	42a8      	cmp	r0, r5
 80060f4:	d801      	bhi.n	80060fa <I2C_WaitOnMasterAddressFlagUntilTimeout+0x5c>
 80060f6:	2d00      	cmp	r5, #0
 80060f8:	d1d6      	bne.n	80060a8 <I2C_WaitOnMasterAddressFlagUntilTimeout+0xa>
 80060fa:	2300      	movs	r3, #0
 80060fc:	2220      	movs	r2, #32
 80060fe:	6323      	str	r3, [r4, #48]	; 0x30
 8006100:	f884 203d 	strb.w	r2, [r4, #61]	; 0x3d
 8006104:	f884 303e 	strb.w	r3, [r4, #62]	; 0x3e
 8006108:	6c22      	ldr	r2, [r4, #64]	; 0x40
 800610a:	f042 0220 	orr.w	r2, r2, #32
 800610e:	e7e6      	b.n	80060de <I2C_WaitOnMasterAddressFlagUntilTimeout+0x40>

08006110 <I2C_WaitOnBTFFlagUntilTimeout>:
 8006110:	b570      	push	{r4, r5, r6, lr}
 8006112:	4604      	mov	r4, r0
 8006114:	460d      	mov	r5, r1
 8006116:	4616      	mov	r6, r2
 8006118:	6823      	ldr	r3, [r4, #0]
 800611a:	695b      	ldr	r3, [r3, #20]
 800611c:	075b      	lsls	r3, r3, #29
 800611e:	d501      	bpl.n	8006124 <I2C_WaitOnBTFFlagUntilTimeout+0x14>
 8006120:	2000      	movs	r0, #0
 8006122:	bd70      	pop	{r4, r5, r6, pc}
 8006124:	4620      	mov	r0, r4
 8006126:	f7ff ffa0 	bl	800606a <I2C_IsAcknowledgeFailed>
 800612a:	b9a8      	cbnz	r0, 8006158 <I2C_WaitOnBTFFlagUntilTimeout+0x48>
 800612c:	1c6a      	adds	r2, r5, #1
 800612e:	d0f3      	beq.n	8006118 <I2C_WaitOnBTFFlagUntilTimeout+0x8>
 8006130:	f7ff f898 	bl	8005264 <HAL_GetTick>
 8006134:	1b80      	subs	r0, r0, r6
 8006136:	42a8      	cmp	r0, r5
 8006138:	d801      	bhi.n	800613e <I2C_WaitOnBTFFlagUntilTimeout+0x2e>
 800613a:	2d00      	cmp	r5, #0
 800613c:	d1ec      	bne.n	8006118 <I2C_WaitOnBTFFlagUntilTimeout+0x8>
 800613e:	2300      	movs	r3, #0
 8006140:	2220      	movs	r2, #32
 8006142:	6323      	str	r3, [r4, #48]	; 0x30
 8006144:	f884 203d 	strb.w	r2, [r4, #61]	; 0x3d
 8006148:	f884 303e 	strb.w	r3, [r4, #62]	; 0x3e
 800614c:	6c22      	ldr	r2, [r4, #64]	; 0x40
 800614e:	f884 303c 	strb.w	r3, [r4, #60]	; 0x3c
 8006152:	f042 0220 	orr.w	r2, r2, #32
 8006156:	6422      	str	r2, [r4, #64]	; 0x40
 8006158:	2001      	movs	r0, #1
 800615a:	e7e2      	b.n	8006122 <I2C_WaitOnBTFFlagUntilTimeout+0x12>

0800615c <I2C_WaitOnRXNEFlagUntilTimeout>:
 800615c:	b570      	push	{r4, r5, r6, lr}
 800615e:	4604      	mov	r4, r0
 8006160:	460d      	mov	r5, r1
 8006162:	4616      	mov	r6, r2
 8006164:	6821      	ldr	r1, [r4, #0]
 8006166:	694b      	ldr	r3, [r1, #20]
 8006168:	f013 0340 	ands.w	r3, r3, #64	; 0x40
 800616c:	d001      	beq.n	8006172 <I2C_WaitOnRXNEFlagUntilTimeout+0x16>
 800616e:	2000      	movs	r0, #0
 8006170:	e010      	b.n	8006194 <I2C_WaitOnRXNEFlagUntilTimeout+0x38>
 8006172:	694a      	ldr	r2, [r1, #20]
 8006174:	06d2      	lsls	r2, r2, #27
 8006176:	d50e      	bpl.n	8006196 <I2C_WaitOnRXNEFlagUntilTimeout+0x3a>
 8006178:	f06f 0210 	mvn.w	r2, #16
 800617c:	614a      	str	r2, [r1, #20]
 800617e:	2220      	movs	r2, #32
 8006180:	6323      	str	r3, [r4, #48]	; 0x30
 8006182:	f884 203d 	strb.w	r2, [r4, #61]	; 0x3d
 8006186:	f884 303e 	strb.w	r3, [r4, #62]	; 0x3e
 800618a:	6c22      	ldr	r2, [r4, #64]	; 0x40
 800618c:	6422      	str	r2, [r4, #64]	; 0x40
 800618e:	f884 303c 	strb.w	r3, [r4, #60]	; 0x3c
 8006192:	2001      	movs	r0, #1
 8006194:	bd70      	pop	{r4, r5, r6, pc}
 8006196:	f7ff f865 	bl	8005264 <HAL_GetTick>
 800619a:	1b80      	subs	r0, r0, r6
 800619c:	42a8      	cmp	r0, r5
 800619e:	d801      	bhi.n	80061a4 <I2C_WaitOnRXNEFlagUntilTimeout+0x48>
 80061a0:	2d00      	cmp	r5, #0
 80061a2:	d1df      	bne.n	8006164 <I2C_WaitOnRXNEFlagUntilTimeout+0x8>
 80061a4:	2300      	movs	r3, #0
 80061a6:	2220      	movs	r2, #32
 80061a8:	6323      	str	r3, [r4, #48]	; 0x30
 80061aa:	f884 203d 	strb.w	r2, [r4, #61]	; 0x3d
 80061ae:	f884 303e 	strb.w	r3, [r4, #62]	; 0x3e
 80061b2:	6c22      	ldr	r2, [r4, #64]	; 0x40
 80061b4:	f042 0220 	orr.w	r2, r2, #32
 80061b8:	e7e8      	b.n	800618c <I2C_WaitOnRXNEFlagUntilTimeout+0x30>

080061ba <I2C_WaitOnFlagUntilTimeout>:
 80061ba:	e92d 46f8 	stmdb	sp!, {r3, r4, r5, r6, r7, r9, sl, lr}
 80061be:	4606      	mov	r6, r0
 80061c0:	460f      	mov	r7, r1
 80061c2:	4691      	mov	r9, r2
 80061c4:	461d      	mov	r5, r3
 80061c6:	ea4f 4a11 	mov.w	sl, r1, lsr #16
 80061ca:	6833      	ldr	r3, [r6, #0]
 80061cc:	f1ba 0f01 	cmp.w	sl, #1
 80061d0:	bf0c      	ite	eq
 80061d2:	695c      	ldreq	r4, [r3, #20]
 80061d4:	699c      	ldrne	r4, [r3, #24]
 80061d6:	ea27 0404 	bic.w	r4, r7, r4
 80061da:	b2a4      	uxth	r4, r4
 80061dc:	fab4 f484 	clz	r4, r4
 80061e0:	0964      	lsrs	r4, r4, #5
 80061e2:	45a1      	cmp	r9, r4
 80061e4:	d001      	beq.n	80061ea <I2C_WaitOnFlagUntilTimeout+0x30>
 80061e6:	2000      	movs	r0, #0
 80061e8:	e017      	b.n	800621a <I2C_WaitOnFlagUntilTimeout+0x60>
 80061ea:	1c6a      	adds	r2, r5, #1
 80061ec:	d0ee      	beq.n	80061cc <I2C_WaitOnFlagUntilTimeout+0x12>
 80061ee:	f7ff f839 	bl	8005264 <HAL_GetTick>
 80061f2:	9b08      	ldr	r3, [sp, #32]
 80061f4:	1ac0      	subs	r0, r0, r3
 80061f6:	42a8      	cmp	r0, r5
 80061f8:	d801      	bhi.n	80061fe <I2C_WaitOnFlagUntilTimeout+0x44>
 80061fa:	2d00      	cmp	r5, #0
 80061fc:	d1e5      	bne.n	80061ca <I2C_WaitOnFlagUntilTimeout+0x10>
 80061fe:	2300      	movs	r3, #0
 8006200:	2220      	movs	r2, #32
 8006202:	6333      	str	r3, [r6, #48]	; 0x30
 8006204:	f886 203d 	strb.w	r2, [r6, #61]	; 0x3d
 8006208:	f886 303e 	strb.w	r3, [r6, #62]	; 0x3e
 800620c:	6c32      	ldr	r2, [r6, #64]	; 0x40
 800620e:	f886 303c 	strb.w	r3, [r6, #60]	; 0x3c
 8006212:	f042 0220 	orr.w	r2, r2, #32
 8006216:	6432      	str	r2, [r6, #64]	; 0x40
 8006218:	2001      	movs	r0, #1
 800621a:	e8bd 86f8 	ldmia.w	sp!, {r3, r4, r5, r6, r7, r9, sl, pc}

0800621e <I2C_WaitOnTXEFlagUntilTimeout>:
 800621e:	b570      	push	{r4, r5, r6, lr}
 8006220:	4604      	mov	r4, r0
 8006222:	460d      	mov	r5, r1
 8006224:	4616      	mov	r6, r2
 8006226:	6823      	ldr	r3, [r4, #0]
 8006228:	695b      	ldr	r3, [r3, #20]
 800622a:	061b      	lsls	r3, r3, #24
 800622c:	d501      	bpl.n	8006232 <I2C_WaitOnTXEFlagUntilTimeout+0x14>
 800622e:	2000      	movs	r0, #0
 8006230:	bd70      	pop	{r4, r5, r6, pc}
 8006232:	4620      	mov	r0, r4
 8006234:	f7ff ff19 	bl	800606a <I2C_IsAcknowledgeFailed>
 8006238:	b9a8      	cbnz	r0, 8006266 <I2C_WaitOnTXEFlagUntilTimeout+0x48>
 800623a:	1c6a      	adds	r2, r5, #1
 800623c:	d0f3      	beq.n	8006226 <I2C_WaitOnTXEFlagUntilTimeout+0x8>
 800623e:	f7ff f811 	bl	8005264 <HAL_GetTick>
 8006242:	1b80      	subs	r0, r0, r6
 8006244:	42a8      	cmp	r0, r5
 8006246:	d801      	bhi.n	800624c <I2C_WaitOnTXEFlagUntilTimeout+0x2e>
 8006248:	2d00      	cmp	r5, #0
 800624a:	d1ec      	bne.n	8006226 <I2C_WaitOnTXEFlagUntilTimeout+0x8>
 800624c:	2300      	movs	r3, #0
 800624e:	2220      	movs	r2, #32
 8006250:	6323      	str	r3, [r4, #48]	; 0x30
 8006252:	f884 203d 	strb.w	r2, [r4, #61]	; 0x3d
 8006256:	f884 303e 	strb.w	r3, [r4, #62]	; 0x3e
 800625a:	6c22      	ldr	r2, [r4, #64]	; 0x40
 800625c:	f884 303c 	strb.w	r3, [r4, #60]	; 0x3c
 8006260:	f042 0220 	orr.w	r2, r2, #32
 8006264:	6422      	str	r2, [r4, #64]	; 0x40
 8006266:	2001      	movs	r0, #1
 8006268:	e7e2      	b.n	8006230 <I2C_WaitOnTXEFlagUntilTimeout+0x12>
	...

0800626c <I2C_RequestMemoryWrite>:
 800626c:	e92d 43f0 	stmdb	sp!, {r4, r5, r6, r7, r8, r9, lr}
 8006270:	4615      	mov	r5, r2
 8006272:	6802      	ldr	r2, [r0, #0]
 8006274:	b085      	sub	sp, #20
 8006276:	e9dd 780c 	ldrd	r7, r8, [sp, #48]	; 0x30
 800627a:	4699      	mov	r9, r3
 800627c:	6813      	ldr	r3, [r2, #0]
 800627e:	f443 7380 	orr.w	r3, r3, #256	; 0x100
 8006282:	6013      	str	r3, [r2, #0]
 8006284:	460e      	mov	r6, r1
 8006286:	463b      	mov	r3, r7
 8006288:	f8cd 8000 	str.w	r8, [sp]
 800628c:	2200      	movs	r2, #0
 800628e:	f04f 1101 	mov.w	r1, #65537	; 0x10001
 8006292:	4604      	mov	r4, r0
 8006294:	f7ff ff91 	bl	80061ba <I2C_WaitOnFlagUntilTimeout>
 8006298:	6823      	ldr	r3, [r4, #0]
 800629a:	b138      	cbz	r0, 80062ac <I2C_RequestMemoryWrite+0x40>
 800629c:	681b      	ldr	r3, [r3, #0]
 800629e:	05db      	lsls	r3, r3, #23
 80062a0:	d502      	bpl.n	80062a8 <I2C_RequestMemoryWrite+0x3c>
 80062a2:	f44f 7300 	mov.w	r3, #512	; 0x200
 80062a6:	6423      	str	r3, [r4, #64]	; 0x40
 80062a8:	2003      	movs	r0, #3
 80062aa:	e00a      	b.n	80062c2 <I2C_RequestMemoryWrite+0x56>
 80062ac:	f006 06fe 	and.w	r6, r6, #254	; 0xfe
 80062b0:	611e      	str	r6, [r3, #16]
 80062b2:	4919      	ldr	r1, [pc, #100]	; (8006318 <I2C_RequestMemoryWrite+0xac>)
 80062b4:	4643      	mov	r3, r8
 80062b6:	463a      	mov	r2, r7
 80062b8:	4620      	mov	r0, r4
 80062ba:	f7ff fef0 	bl	800609e <I2C_WaitOnMasterAddressFlagUntilTimeout>
 80062be:	b118      	cbz	r0, 80062c8 <I2C_RequestMemoryWrite+0x5c>
 80062c0:	2001      	movs	r0, #1
 80062c2:	b005      	add	sp, #20
 80062c4:	e8bd 83f0 	ldmia.w	sp!, {r4, r5, r6, r7, r8, r9, pc}
 80062c8:	6823      	ldr	r3, [r4, #0]
 80062ca:	9003      	str	r0, [sp, #12]
 80062cc:	695a      	ldr	r2, [r3, #20]
 80062ce:	9203      	str	r2, [sp, #12]
 80062d0:	699b      	ldr	r3, [r3, #24]
 80062d2:	9303      	str	r3, [sp, #12]
 80062d4:	4642      	mov	r2, r8
 80062d6:	4639      	mov	r1, r7
 80062d8:	4620      	mov	r0, r4
 80062da:	9b03      	ldr	r3, [sp, #12]
 80062dc:	f7ff ff9f 	bl	800621e <I2C_WaitOnTXEFlagUntilTimeout>
 80062e0:	b140      	cbz	r0, 80062f4 <I2C_RequestMemoryWrite+0x88>
 80062e2:	6c23      	ldr	r3, [r4, #64]	; 0x40
 80062e4:	2b04      	cmp	r3, #4
 80062e6:	bf01      	itttt	eq
 80062e8:	6822      	ldreq	r2, [r4, #0]
 80062ea:	6813      	ldreq	r3, [r2, #0]
 80062ec:	f443 7300 	orreq.w	r3, r3, #512	; 0x200
 80062f0:	6013      	streq	r3, [r2, #0]
 80062f2:	e7e5      	b.n	80062c0 <I2C_RequestMemoryWrite+0x54>
 80062f4:	f1b9 0f01 	cmp.w	r9, #1
 80062f8:	6823      	ldr	r3, [r4, #0]
 80062fa:	d102      	bne.n	8006302 <I2C_RequestMemoryWrite+0x96>
 80062fc:	b2ed      	uxtb	r5, r5
 80062fe:	611d      	str	r5, [r3, #16]
 8006300:	e7df      	b.n	80062c2 <I2C_RequestMemoryWrite+0x56>
 8006302:	0a2a      	lsrs	r2, r5, #8
 8006304:	611a      	str	r2, [r3, #16]
 8006306:	4639      	mov	r1, r7
 8006308:	4642      	mov	r2, r8
 800630a:	4620      	mov	r0, r4
 800630c:	f7ff ff87 	bl	800621e <I2C_WaitOnTXEFlagUntilTimeout>
 8006310:	2800      	cmp	r0, #0
 8006312:	d1e6      	bne.n	80062e2 <I2C_RequestMemoryWrite+0x76>
 8006314:	6823      	ldr	r3, [r4, #0]
 8006316:	e7f1      	b.n	80062fc <I2C_RequestMemoryWrite+0x90>
 8006318:	00010002 	.word	0x00010002

0800631c <I2C_RequestMemoryRead>:
 800631c:	e92d 47ff 	stmdb	sp!, {r0, r1, r2, r3, r4, r5, r6, r7, r8, r9, sl, lr}
 8006320:	4615      	mov	r5, r2
 8006322:	6802      	ldr	r2, [r0, #0]
 8006324:	469a      	mov	sl, r3
 8006326:	6813      	ldr	r3, [r2, #0]
 8006328:	f443 6380 	orr.w	r3, r3, #1024	; 0x400
 800632c:	6013      	str	r3, [r2, #0]
 800632e:	6802      	ldr	r2, [r0, #0]
 8006330:	e9dd 780c 	ldrd	r7, r8, [sp, #48]	; 0x30
 8006334:	6813      	ldr	r3, [r2, #0]
 8006336:	f443 7380 	orr.w	r3, r3, #256	; 0x100
 800633a:	6013      	str	r3, [r2, #0]
 800633c:	460e      	mov	r6, r1
 800633e:	463b      	mov	r3, r7
 8006340:	f8cd 8000 	str.w	r8, [sp]
 8006344:	2200      	movs	r2, #0
 8006346:	f04f 1101 	mov.w	r1, #65537	; 0x10001
 800634a:	4604      	mov	r4, r0
 800634c:	f7ff ff35 	bl	80061ba <I2C_WaitOnFlagUntilTimeout>
 8006350:	6823      	ldr	r3, [r4, #0]
 8006352:	b148      	cbz	r0, 8006368 <I2C_RequestMemoryRead+0x4c>
 8006354:	681b      	ldr	r3, [r3, #0]
 8006356:	05db      	lsls	r3, r3, #23
 8006358:	d502      	bpl.n	8006360 <I2C_RequestMemoryRead+0x44>
 800635a:	f44f 7300 	mov.w	r3, #512	; 0x200
 800635e:	6423      	str	r3, [r4, #64]	; 0x40
 8006360:	2003      	movs	r0, #3
 8006362:	b004      	add	sp, #16
 8006364:	e8bd 87f0 	ldmia.w	sp!, {r4, r5, r6, r7, r8, r9, sl, pc}
 8006368:	fa5f f986 	uxtb.w	r9, r6
 800636c:	f006 06fe 	and.w	r6, r6, #254	; 0xfe
 8006370:	611e      	str	r6, [r3, #16]
 8006372:	492b      	ldr	r1, [pc, #172]	; (8006420 <I2C_RequestMemoryRead+0x104>)
 8006374:	4643      	mov	r3, r8
 8006376:	463a      	mov	r2, r7
 8006378:	4620      	mov	r0, r4
 800637a:	f7ff fe90 	bl	800609e <I2C_WaitOnMasterAddressFlagUntilTimeout>
 800637e:	b108      	cbz	r0, 8006384 <I2C_RequestMemoryRead+0x68>
 8006380:	2001      	movs	r0, #1
 8006382:	e7ee      	b.n	8006362 <I2C_RequestMemoryRead+0x46>
 8006384:	6823      	ldr	r3, [r4, #0]
 8006386:	9003      	str	r0, [sp, #12]
 8006388:	695a      	ldr	r2, [r3, #20]
 800638a:	9203      	str	r2, [sp, #12]
 800638c:	699b      	ldr	r3, [r3, #24]
 800638e:	9303      	str	r3, [sp, #12]
 8006390:	4642      	mov	r2, r8
 8006392:	4639      	mov	r1, r7
 8006394:	4620      	mov	r0, r4
 8006396:	9b03      	ldr	r3, [sp, #12]
 8006398:	f7ff ff41 	bl	800621e <I2C_WaitOnTXEFlagUntilTimeout>
 800639c:	b140      	cbz	r0, 80063b0 <I2C_RequestMemoryRead+0x94>
 800639e:	6c23      	ldr	r3, [r4, #64]	; 0x40
 80063a0:	2b04      	cmp	r3, #4
 80063a2:	bf01      	itttt	eq
 80063a4:	6822      	ldreq	r2, [r4, #0]
 80063a6:	6813      	ldreq	r3, [r2, #0]
 80063a8:	f443 7300 	orreq.w	r3, r3, #512	; 0x200
 80063ac:	6013      	streq	r3, [r2, #0]
 80063ae:	e7e7      	b.n	8006380 <I2C_RequestMemoryRead+0x64>
 80063b0:	f1ba 0f01 	cmp.w	sl, #1
 80063b4:	6823      	ldr	r3, [r4, #0]
 80063b6:	d11a      	bne.n	80063ee <I2C_RequestMemoryRead+0xd2>
 80063b8:	b2ed      	uxtb	r5, r5
 80063ba:	611d      	str	r5, [r3, #16]
 80063bc:	4642      	mov	r2, r8
 80063be:	4639      	mov	r1, r7
 80063c0:	4620      	mov	r0, r4
 80063c2:	f7ff ff2c 	bl	800621e <I2C_WaitOnTXEFlagUntilTimeout>
 80063c6:	2800      	cmp	r0, #0
 80063c8:	d1e9      	bne.n	800639e <I2C_RequestMemoryRead+0x82>
 80063ca:	6822      	ldr	r2, [r4, #0]
 80063cc:	6813      	ldr	r3, [r2, #0]
 80063ce:	f443 7380 	orr.w	r3, r3, #256	; 0x100
 80063d2:	6013      	str	r3, [r2, #0]
 80063d4:	f04f 1101 	mov.w	r1, #65537	; 0x10001
 80063d8:	4602      	mov	r2, r0
 80063da:	f8cd 8000 	str.w	r8, [sp]
 80063de:	463b      	mov	r3, r7
 80063e0:	4620      	mov	r0, r4
 80063e2:	f7ff feea 	bl	80061ba <I2C_WaitOnFlagUntilTimeout>
 80063e6:	6822      	ldr	r2, [r4, #0]
 80063e8:	b160      	cbz	r0, 8006404 <I2C_RequestMemoryRead+0xe8>
 80063ea:	6813      	ldr	r3, [r2, #0]
 80063ec:	e7b3      	b.n	8006356 <I2C_RequestMemoryRead+0x3a>
 80063ee:	0a2a      	lsrs	r2, r5, #8
 80063f0:	611a      	str	r2, [r3, #16]
 80063f2:	4639      	mov	r1, r7
 80063f4:	4642      	mov	r2, r8
 80063f6:	4620      	mov	r0, r4
 80063f8:	f7ff ff11 	bl	800621e <I2C_WaitOnTXEFlagUntilTimeout>
 80063fc:	2800      	cmp	r0, #0
 80063fe:	d1ce      	bne.n	800639e <I2C_RequestMemoryRead+0x82>
 8006400:	6823      	ldr	r3, [r4, #0]
 8006402:	e7d9      	b.n	80063b8 <I2C_RequestMemoryRead+0x9c>
 8006404:	f049 0301 	orr.w	r3, r9, #1
 8006408:	6113      	str	r3, [r2, #16]
 800640a:	4905      	ldr	r1, [pc, #20]	; (8006420 <I2C_RequestMemoryRead+0x104>)
 800640c:	4643      	mov	r3, r8
 800640e:	463a      	mov	r2, r7
 8006410:	4620      	mov	r0, r4
 8006412:	f7ff fe44 	bl	800609e <I2C_WaitOnMasterAddressFlagUntilTimeout>
 8006416:	3800      	subs	r0, #0
 8006418:	bf18      	it	ne
 800641a:	2001      	movne	r0, #1
 800641c:	e7a1      	b.n	8006362 <I2C_RequestMemoryRead+0x46>
 800641e:	bf00      	nop
 8006420:	00010002 	.word	0x00010002

08006424 <HAL_I2C_Init>:
 8006424:	b570      	push	{r4, r5, r6, lr}
 8006426:	4604      	mov	r4, r0
 8006428:	b908      	cbnz	r0, 800642e <HAL_I2C_Init+0xa>
 800642a:	2001      	movs	r0, #1
 800642c:	bd70      	pop	{r4, r5, r6, pc}
 800642e:	f890 303d 	ldrb.w	r3, [r0, #61]	; 0x3d
 8006432:	f003 02ff 	and.w	r2, r3, #255	; 0xff
 8006436:	b91b      	cbnz	r3, 8006440 <HAL_I2C_Init+0x1c>
 8006438:	f880 203c 	strb.w	r2, [r0, #60]	; 0x3c
 800643c:	f7fe fbba 	bl	8004bb4 <HAL_I2C_MspInit>
 8006440:	6822      	ldr	r2, [r4, #0]
 8006442:	2324      	movs	r3, #36	; 0x24
 8006444:	f884 303d 	strb.w	r3, [r4, #61]	; 0x3d
 8006448:	6813      	ldr	r3, [r2, #0]
 800644a:	f023 0301 	bic.w	r3, r3, #1
 800644e:	6013      	str	r3, [r2, #0]
 8006450:	6822      	ldr	r2, [r4, #0]
 8006452:	6813      	ldr	r3, [r2, #0]
 8006454:	f443 4300 	orr.w	r3, r3, #32768	; 0x8000
 8006458:	6013      	str	r3, [r2, #0]
 800645a:	6822      	ldr	r2, [r4, #0]
 800645c:	6813      	ldr	r3, [r2, #0]
 800645e:	f423 4300 	bic.w	r3, r3, #32768	; 0x8000
 8006462:	6013      	str	r3, [r2, #0]
 8006464:	f000 ff7a 	bl	800735c <HAL_RCC_GetPCLK1Freq>
 8006468:	4b43      	ldr	r3, [pc, #268]	; (8006578 <HAL_I2C_Init+0x154>)
 800646a:	6862      	ldr	r2, [r4, #4]
 800646c:	429a      	cmp	r2, r3
 800646e:	bf94      	ite	ls
 8006470:	4b42      	ldrls	r3, [pc, #264]	; (800657c <HAL_I2C_Init+0x158>)
 8006472:	4b43      	ldrhi	r3, [pc, #268]	; (8006580 <HAL_I2C_Init+0x15c>)
 8006474:	4298      	cmp	r0, r3
 8006476:	bf8c      	ite	hi
 8006478:	2300      	movhi	r3, #0
 800647a:	2301      	movls	r3, #1
 800647c:	2b00      	cmp	r3, #0
 800647e:	d1d4      	bne.n	800642a <HAL_I2C_Init+0x6>
 8006480:	6822      	ldr	r2, [r4, #0]
 8006482:	4940      	ldr	r1, [pc, #256]	; (8006584 <HAL_I2C_Init+0x160>)
 8006484:	6853      	ldr	r3, [r2, #4]
 8006486:	fbb0 f1f1 	udiv	r1, r0, r1
 800648a:	f023 033f 	bic.w	r3, r3, #63	; 0x3f
 800648e:	430b      	orrs	r3, r1
 8006490:	6053      	str	r3, [r2, #4]
 8006492:	6866      	ldr	r6, [r4, #4]
 8006494:	4b38      	ldr	r3, [pc, #224]	; (8006578 <HAL_I2C_Init+0x154>)
 8006496:	6825      	ldr	r5, [r4, #0]
 8006498:	429e      	cmp	r6, r3
 800649a:	bf88      	it	hi
 800649c:	f44f 7396 	movhi.w	r3, #300	; 0x12c
 80064a0:	6a2a      	ldr	r2, [r5, #32]
 80064a2:	bf8a      	itet	hi
 80064a4:	434b      	mulhi	r3, r1
 80064a6:	1c4b      	addls	r3, r1, #1
 80064a8:	f44f 717a 	movhi.w	r1, #1000	; 0x3e8
 80064ac:	f022 023f 	bic.w	r2, r2, #63	; 0x3f
 80064b0:	bf84      	itt	hi
 80064b2:	fbb3 f3f1 	udivhi	r3, r3, r1
 80064b6:	3301      	addhi	r3, #1
 80064b8:	4313      	orrs	r3, r2
 80064ba:	622b      	str	r3, [r5, #32]
 80064bc:	6825      	ldr	r5, [r4, #0]
 80064be:	6863      	ldr	r3, [r4, #4]
 80064c0:	69e9      	ldr	r1, [r5, #28]
 80064c2:	1e42      	subs	r2, r0, #1
 80064c4:	482c      	ldr	r0, [pc, #176]	; (8006578 <HAL_I2C_Init+0x154>)
 80064c6:	f421 414f 	bic.w	r1, r1, #52992	; 0xcf00
 80064ca:	4283      	cmp	r3, r0
 80064cc:	f021 01ff 	bic.w	r1, r1, #255	; 0xff
 80064d0:	d836      	bhi.n	8006540 <HAL_I2C_Init+0x11c>
 80064d2:	005b      	lsls	r3, r3, #1
 80064d4:	fbb2 f3f3 	udiv	r3, r2, r3
 80064d8:	f640 72fc 	movw	r2, #4092	; 0xffc
 80064dc:	3301      	adds	r3, #1
 80064de:	4213      	tst	r3, r2
 80064e0:	d046      	beq.n	8006570 <HAL_I2C_Init+0x14c>
 80064e2:	f3c3 030b 	ubfx	r3, r3, #0, #12
 80064e6:	430b      	orrs	r3, r1
 80064e8:	61eb      	str	r3, [r5, #28]
 80064ea:	6821      	ldr	r1, [r4, #0]
 80064ec:	e9d4 3007 	ldrd	r3, r0, [r4, #28]
 80064f0:	680a      	ldr	r2, [r1, #0]
 80064f2:	4303      	orrs	r3, r0
 80064f4:	f022 02c0 	bic.w	r2, r2, #192	; 0xc0
 80064f8:	4313      	orrs	r3, r2
 80064fa:	600b      	str	r3, [r1, #0]
 80064fc:	6821      	ldr	r1, [r4, #0]
 80064fe:	e9d4 0303 	ldrd	r0, r3, [r4, #12]
 8006502:	688a      	ldr	r2, [r1, #8]
 8006504:	f422 4203 	bic.w	r2, r2, #33536	; 0x8300
 8006508:	4303      	orrs	r3, r0
 800650a:	f022 02ff 	bic.w	r2, r2, #255	; 0xff
 800650e:	4313      	orrs	r3, r2
 8006510:	608b      	str	r3, [r1, #8]
 8006512:	6821      	ldr	r1, [r4, #0]
 8006514:	e9d4 3005 	ldrd	r3, r0, [r4, #20]
 8006518:	68ca      	ldr	r2, [r1, #12]
 800651a:	4303      	orrs	r3, r0
 800651c:	f022 02ff 	bic.w	r2, r2, #255	; 0xff
 8006520:	4313      	orrs	r3, r2
 8006522:	60cb      	str	r3, [r1, #12]
 8006524:	6822      	ldr	r2, [r4, #0]
 8006526:	6813      	ldr	r3, [r2, #0]
 8006528:	f043 0301 	orr.w	r3, r3, #1
 800652c:	6013      	str	r3, [r2, #0]
 800652e:	2000      	movs	r0, #0
 8006530:	2320      	movs	r3, #32
 8006532:	6420      	str	r0, [r4, #64]	; 0x40
 8006534:	f884 303d 	strb.w	r3, [r4, #61]	; 0x3d
 8006538:	6320      	str	r0, [r4, #48]	; 0x30
 800653a:	f884 003e 	strb.w	r0, [r4, #62]	; 0x3e
 800653e:	e775      	b.n	800642c <HAL_I2C_Init+0x8>
 8006540:	68a0      	ldr	r0, [r4, #8]
 8006542:	b950      	cbnz	r0, 800655a <HAL_I2C_Init+0x136>
 8006544:	eb03 0343 	add.w	r3, r3, r3, lsl #1
 8006548:	fbb2 f3f3 	udiv	r3, r2, r3
 800654c:	3301      	adds	r3, #1
 800654e:	f3c3 030b 	ubfx	r3, r3, #0, #12
 8006552:	b17b      	cbz	r3, 8006574 <HAL_I2C_Init+0x150>
 8006554:	f443 4300 	orr.w	r3, r3, #32768	; 0x8000
 8006558:	e7c5      	b.n	80064e6 <HAL_I2C_Init+0xc2>
 800655a:	2019      	movs	r0, #25
 800655c:	4343      	muls	r3, r0
 800655e:	fbb2 f3f3 	udiv	r3, r2, r3
 8006562:	3301      	adds	r3, #1
 8006564:	f3c3 030b 	ubfx	r3, r3, #0, #12
 8006568:	b123      	cbz	r3, 8006574 <HAL_I2C_Init+0x150>
 800656a:	f443 4340 	orr.w	r3, r3, #49152	; 0xc000
 800656e:	e7ba      	b.n	80064e6 <HAL_I2C_Init+0xc2>
 8006570:	2304      	movs	r3, #4
 8006572:	e7b8      	b.n	80064e6 <HAL_I2C_Init+0xc2>
 8006574:	2301      	movs	r3, #1
 8006576:	e7b6      	b.n	80064e6 <HAL_I2C_Init+0xc2>
 8006578:	000186a0 	.word	0x000186a0
 800657c:	001e847f 	.word	0x001e847f
 8006580:	003d08ff 	.word	0x003d08ff
 8006584:	000f4240 	.word	0x000f4240

08006588 <HAL_I2C_DeInit>:
 8006588:	b510      	push	{r4, lr}
 800658a:	4604      	mov	r4, r0
 800658c:	b198      	cbz	r0, 80065b6 <HAL_I2C_DeInit+0x2e>
 800658e:	6802      	ldr	r2, [r0, #0]
 8006590:	2324      	movs	r3, #36	; 0x24
 8006592:	f880 303d 	strb.w	r3, [r0, #61]	; 0x3d
 8006596:	6813      	ldr	r3, [r2, #0]
 8006598:	f023 0301 	bic.w	r3, r3, #1
 800659c:	6013      	str	r3, [r2, #0]
 800659e:	f7fe fb6f 	bl	8004c80 <HAL_I2C_MspDeInit>
 80065a2:	2000      	movs	r0, #0
 80065a4:	6420      	str	r0, [r4, #64]	; 0x40
 80065a6:	f884 003c 	strb.w	r0, [r4, #60]	; 0x3c
 80065aa:	f884 003d 	strb.w	r0, [r4, #61]	; 0x3d
 80065ae:	6320      	str	r0, [r4, #48]	; 0x30
 80065b0:	f884 003e 	strb.w	r0, [r4, #62]	; 0x3e
 80065b4:	bd10      	pop	{r4, pc}
 80065b6:	2001      	movs	r0, #1
 80065b8:	e7fc      	b.n	80065b4 <HAL_I2C_DeInit+0x2c>
	...

080065bc <HAL_I2C_Master_Transmit>:
 80065bc:	e92d 43f0 	stmdb	sp!, {r4, r5, r6, r7, r8, r9, lr}
 80065c0:	4604      	mov	r4, r0
 80065c2:	b085      	sub	sp, #20
 80065c4:	4698      	mov	r8, r3
 80065c6:	9f0c      	ldr	r7, [sp, #48]	; 0x30
 80065c8:	460d      	mov	r5, r1
 80065ca:	4691      	mov	r9, r2
 80065cc:	f7fe fe4a 	bl	8005264 <HAL_GetTick>
 80065d0:	f894 303d 	ldrb.w	r3, [r4, #61]	; 0x3d
 80065d4:	2b20      	cmp	r3, #32
 80065d6:	4606      	mov	r6, r0
 80065d8:	d004      	beq.n	80065e4 <HAL_I2C_Master_Transmit+0x28>
 80065da:	2502      	movs	r5, #2
 80065dc:	4628      	mov	r0, r5
 80065de:	b005      	add	sp, #20
 80065e0:	e8bd 83f0 	ldmia.w	sp!, {r4, r5, r6, r7, r8, r9, pc}
 80065e4:	9000      	str	r0, [sp, #0]
 80065e6:	495f      	ldr	r1, [pc, #380]	; (8006764 <HAL_I2C_Master_Transmit+0x1a8>)
 80065e8:	2319      	movs	r3, #25
 80065ea:	2201      	movs	r2, #1
 80065ec:	4620      	mov	r0, r4
 80065ee:	f7ff fde4 	bl	80061ba <I2C_WaitOnFlagUntilTimeout>
 80065f2:	2800      	cmp	r0, #0
 80065f4:	d1f1      	bne.n	80065da <HAL_I2C_Master_Transmit+0x1e>
 80065f6:	f894 303c 	ldrb.w	r3, [r4, #60]	; 0x3c
 80065fa:	2b01      	cmp	r3, #1
 80065fc:	d0ed      	beq.n	80065da <HAL_I2C_Master_Transmit+0x1e>
 80065fe:	2301      	movs	r3, #1
 8006600:	f884 303c 	strb.w	r3, [r4, #60]	; 0x3c
 8006604:	6823      	ldr	r3, [r4, #0]
 8006606:	681a      	ldr	r2, [r3, #0]
 8006608:	07d2      	lsls	r2, r2, #31
 800660a:	bf5e      	ittt	pl
 800660c:	681a      	ldrpl	r2, [r3, #0]
 800660e:	f042 0201 	orrpl.w	r2, r2, #1
 8006612:	601a      	strpl	r2, [r3, #0]
 8006614:	6822      	ldr	r2, [r4, #0]
 8006616:	6813      	ldr	r3, [r2, #0]
 8006618:	f423 6300 	bic.w	r3, r3, #2048	; 0x800
 800661c:	6013      	str	r3, [r2, #0]
 800661e:	2321      	movs	r3, #33	; 0x21
 8006620:	f884 303d 	strb.w	r3, [r4, #61]	; 0x3d
 8006624:	2310      	movs	r3, #16
 8006626:	f884 303e 	strb.w	r3, [r4, #62]	; 0x3e
 800662a:	2300      	movs	r3, #0
 800662c:	6423      	str	r3, [r4, #64]	; 0x40
 800662e:	f8a4 802a 	strh.w	r8, [r4, #42]	; 0x2a
 8006632:	8d63      	ldrh	r3, [r4, #42]	; 0x2a
 8006634:	8523      	strh	r3, [r4, #40]	; 0x28
 8006636:	4b4c      	ldr	r3, [pc, #304]	; (8006768 <HAL_I2C_Master_Transmit+0x1ac>)
 8006638:	62e3      	str	r3, [r4, #44]	; 0x2c
 800663a:	6ae3      	ldr	r3, [r4, #44]	; 0x2c
 800663c:	f8c4 9024 	str.w	r9, [r4, #36]	; 0x24
 8006640:	2b08      	cmp	r3, #8
 8006642:	d004      	beq.n	800664e <HAL_I2C_Master_Transmit+0x92>
 8006644:	2b01      	cmp	r3, #1
 8006646:	d002      	beq.n	800664e <HAL_I2C_Master_Transmit+0x92>
 8006648:	f513 3f80 	cmn.w	r3, #65536	; 0x10000
 800664c:	d105      	bne.n	800665a <HAL_I2C_Master_Transmit+0x9e>
 800664e:	6822      	ldr	r2, [r4, #0]
 8006650:	6813      	ldr	r3, [r2, #0]
 8006652:	f443 7380 	orr.w	r3, r3, #256	; 0x100
 8006656:	6013      	str	r3, [r2, #0]
 8006658:	e002      	b.n	8006660 <HAL_I2C_Master_Transmit+0xa4>
 800665a:	6b23      	ldr	r3, [r4, #48]	; 0x30
 800665c:	2b12      	cmp	r3, #18
 800665e:	d0f6      	beq.n	800664e <HAL_I2C_Master_Transmit+0x92>
 8006660:	2200      	movs	r2, #0
 8006662:	9600      	str	r6, [sp, #0]
 8006664:	463b      	mov	r3, r7
 8006666:	f04f 1101 	mov.w	r1, #65537	; 0x10001
 800666a:	4620      	mov	r0, r4
 800666c:	f7ff fda5 	bl	80061ba <I2C_WaitOnFlagUntilTimeout>
 8006670:	6822      	ldr	r2, [r4, #0]
 8006672:	b138      	cbz	r0, 8006684 <HAL_I2C_Master_Transmit+0xc8>
 8006674:	6813      	ldr	r3, [r2, #0]
 8006676:	05dd      	lsls	r5, r3, #23
 8006678:	bf44      	itt	mi
 800667a:	f44f 7300 	movmi.w	r3, #512	; 0x200
 800667e:	6423      	strmi	r3, [r4, #64]	; 0x40
 8006680:	2501      	movs	r5, #1
 8006682:	e7ab      	b.n	80065dc <HAL_I2C_Master_Transmit+0x20>
 8006684:	6923      	ldr	r3, [r4, #16]
 8006686:	f5b3 4f80 	cmp.w	r3, #16384	; 0x4000
 800668a:	d121      	bne.n	80066d0 <HAL_I2C_Master_Transmit+0x114>
 800668c:	f005 05fe 	and.w	r5, r5, #254	; 0xfe
 8006690:	6115      	str	r5, [r2, #16]
 8006692:	4936      	ldr	r1, [pc, #216]	; (800676c <HAL_I2C_Master_Transmit+0x1b0>)
 8006694:	4633      	mov	r3, r6
 8006696:	463a      	mov	r2, r7
 8006698:	4620      	mov	r0, r4
 800669a:	f7ff fd00 	bl	800609e <I2C_WaitOnMasterAddressFlagUntilTimeout>
 800669e:	4605      	mov	r5, r0
 80066a0:	2800      	cmp	r0, #0
 80066a2:	d1ed      	bne.n	8006680 <HAL_I2C_Master_Transmit+0xc4>
 80066a4:	6823      	ldr	r3, [r4, #0]
 80066a6:	9003      	str	r0, [sp, #12]
 80066a8:	695a      	ldr	r2, [r3, #20]
 80066aa:	9203      	str	r2, [sp, #12]
 80066ac:	699b      	ldr	r3, [r3, #24]
 80066ae:	9303      	str	r3, [sp, #12]
 80066b0:	9b03      	ldr	r3, [sp, #12]
 80066b2:	8d23      	ldrh	r3, [r4, #40]	; 0x28
 80066b4:	b9f3      	cbnz	r3, 80066f4 <HAL_I2C_Master_Transmit+0x138>
 80066b6:	6821      	ldr	r1, [r4, #0]
 80066b8:	680a      	ldr	r2, [r1, #0]
 80066ba:	f442 7200 	orr.w	r2, r2, #512	; 0x200
 80066be:	600a      	str	r2, [r1, #0]
 80066c0:	2220      	movs	r2, #32
 80066c2:	f884 203d 	strb.w	r2, [r4, #61]	; 0x3d
 80066c6:	f884 303c 	strb.w	r3, [r4, #60]	; 0x3c
 80066ca:	f884 303e 	strb.w	r3, [r4, #62]	; 0x3e
 80066ce:	e785      	b.n	80065dc <HAL_I2C_Master_Transmit+0x20>
 80066d0:	11eb      	asrs	r3, r5, #7
 80066d2:	f003 0306 	and.w	r3, r3, #6
 80066d6:	f043 03f0 	orr.w	r3, r3, #240	; 0xf0
 80066da:	6113      	str	r3, [r2, #16]
 80066dc:	4924      	ldr	r1, [pc, #144]	; (8006770 <HAL_I2C_Master_Transmit+0x1b4>)
 80066de:	4633      	mov	r3, r6
 80066e0:	463a      	mov	r2, r7
 80066e2:	4620      	mov	r0, r4
 80066e4:	f7ff fcdb 	bl	800609e <I2C_WaitOnMasterAddressFlagUntilTimeout>
 80066e8:	2800      	cmp	r0, #0
 80066ea:	d1c9      	bne.n	8006680 <HAL_I2C_Master_Transmit+0xc4>
 80066ec:	6823      	ldr	r3, [r4, #0]
 80066ee:	b2ed      	uxtb	r5, r5
 80066f0:	611d      	str	r5, [r3, #16]
 80066f2:	e7ce      	b.n	8006692 <HAL_I2C_Master_Transmit+0xd6>
 80066f4:	4632      	mov	r2, r6
 80066f6:	4639      	mov	r1, r7
 80066f8:	4620      	mov	r0, r4
 80066fa:	f7ff fd90 	bl	800621e <I2C_WaitOnTXEFlagUntilTimeout>
 80066fe:	b140      	cbz	r0, 8006712 <HAL_I2C_Master_Transmit+0x156>
 8006700:	6c23      	ldr	r3, [r4, #64]	; 0x40
 8006702:	2b04      	cmp	r3, #4
 8006704:	d1bc      	bne.n	8006680 <HAL_I2C_Master_Transmit+0xc4>
 8006706:	6822      	ldr	r2, [r4, #0]
 8006708:	6813      	ldr	r3, [r2, #0]
 800670a:	f443 7300 	orr.w	r3, r3, #512	; 0x200
 800670e:	6013      	str	r3, [r2, #0]
 8006710:	e7b6      	b.n	8006680 <HAL_I2C_Master_Transmit+0xc4>
 8006712:	6a62      	ldr	r2, [r4, #36]	; 0x24
 8006714:	6823      	ldr	r3, [r4, #0]
 8006716:	7812      	ldrb	r2, [r2, #0]
 8006718:	611a      	str	r2, [r3, #16]
 800671a:	6a61      	ldr	r1, [r4, #36]	; 0x24
 800671c:	6822      	ldr	r2, [r4, #0]
 800671e:	1c4b      	adds	r3, r1, #1
 8006720:	6263      	str	r3, [r4, #36]	; 0x24
 8006722:	8d63      	ldrh	r3, [r4, #42]	; 0x2a
 8006724:	3b01      	subs	r3, #1
 8006726:	b29b      	uxth	r3, r3
 8006728:	8563      	strh	r3, [r4, #42]	; 0x2a
 800672a:	8d23      	ldrh	r3, [r4, #40]	; 0x28
 800672c:	3b01      	subs	r3, #1
 800672e:	b29b      	uxth	r3, r3
 8006730:	8523      	strh	r3, [r4, #40]	; 0x28
 8006732:	6950      	ldr	r0, [r2, #20]
 8006734:	0740      	lsls	r0, r0, #29
 8006736:	d50c      	bpl.n	8006752 <HAL_I2C_Master_Transmit+0x196>
 8006738:	b15b      	cbz	r3, 8006752 <HAL_I2C_Master_Transmit+0x196>
 800673a:	784b      	ldrb	r3, [r1, #1]
 800673c:	6113      	str	r3, [r2, #16]
 800673e:	6a63      	ldr	r3, [r4, #36]	; 0x24
 8006740:	3301      	adds	r3, #1
 8006742:	6263      	str	r3, [r4, #36]	; 0x24
 8006744:	8d63      	ldrh	r3, [r4, #42]	; 0x2a
 8006746:	3b01      	subs	r3, #1
 8006748:	b29b      	uxth	r3, r3
 800674a:	8563      	strh	r3, [r4, #42]	; 0x2a
 800674c:	8d23      	ldrh	r3, [r4, #40]	; 0x28
 800674e:	3b01      	subs	r3, #1
 8006750:	8523      	strh	r3, [r4, #40]	; 0x28
 8006752:	4632      	mov	r2, r6
 8006754:	4639      	mov	r1, r7
 8006756:	4620      	mov	r0, r4
 8006758:	f7ff fcda 	bl	8006110 <I2C_WaitOnBTFFlagUntilTimeout>
 800675c:	2800      	cmp	r0, #0
 800675e:	d0a8      	beq.n	80066b2 <HAL_I2C_Master_Transmit+0xf6>
 8006760:	e7ce      	b.n	8006700 <HAL_I2C_Master_Transmit+0x144>
 8006762:	bf00      	nop
 8006764:	00100002 	.word	0x00100002
 8006768:	ffff0000 	.word	0xffff0000
 800676c:	00010002 	.word	0x00010002
 8006770:	00010008 	.word	0x00010008

08006774 <HAL_I2C_Master_Receive>:
 8006774:	e92d 43f0 	stmdb	sp!, {r4, r5, r6, r7, r8, r9, lr}
 8006778:	4604      	mov	r4, r0
 800677a:	b089      	sub	sp, #36	; 0x24
 800677c:	4698      	mov	r8, r3
 800677e:	9f10      	ldr	r7, [sp, #64]	; 0x40
 8006780:	460e      	mov	r6, r1
 8006782:	4691      	mov	r9, r2
 8006784:	f7fe fd6e 	bl	8005264 <HAL_GetTick>
 8006788:	f894 303d 	ldrb.w	r3, [r4, #61]	; 0x3d
 800678c:	2b20      	cmp	r3, #32
 800678e:	4605      	mov	r5, r0
 8006790:	d004      	beq.n	800679c <HAL_I2C_Master_Receive+0x28>
 8006792:	2602      	movs	r6, #2
 8006794:	4630      	mov	r0, r6
 8006796:	b009      	add	sp, #36	; 0x24
 8006798:	e8bd 83f0 	ldmia.w	sp!, {r4, r5, r6, r7, r8, r9, pc}
 800679c:	9000      	str	r0, [sp, #0]
 800679e:	499f      	ldr	r1, [pc, #636]	; (8006a1c <HAL_I2C_Master_Receive+0x2a8>)
 80067a0:	2319      	movs	r3, #25
 80067a2:	2201      	movs	r2, #1
 80067a4:	4620      	mov	r0, r4
 80067a6:	f7ff fd08 	bl	80061ba <I2C_WaitOnFlagUntilTimeout>
 80067aa:	2800      	cmp	r0, #0
 80067ac:	d1f1      	bne.n	8006792 <HAL_I2C_Master_Receive+0x1e>
 80067ae:	f894 303c 	ldrb.w	r3, [r4, #60]	; 0x3c
 80067b2:	2b01      	cmp	r3, #1
 80067b4:	d0ed      	beq.n	8006792 <HAL_I2C_Master_Receive+0x1e>
 80067b6:	2301      	movs	r3, #1
 80067b8:	f884 303c 	strb.w	r3, [r4, #60]	; 0x3c
 80067bc:	6823      	ldr	r3, [r4, #0]
 80067be:	681a      	ldr	r2, [r3, #0]
 80067c0:	07d2      	lsls	r2, r2, #31
 80067c2:	bf5e      	ittt	pl
 80067c4:	681a      	ldrpl	r2, [r3, #0]
 80067c6:	f042 0201 	orrpl.w	r2, r2, #1
 80067ca:	601a      	strpl	r2, [r3, #0]
 80067cc:	6822      	ldr	r2, [r4, #0]
 80067ce:	6813      	ldr	r3, [r2, #0]
 80067d0:	f423 6300 	bic.w	r3, r3, #2048	; 0x800
 80067d4:	6013      	str	r3, [r2, #0]
 80067d6:	2322      	movs	r3, #34	; 0x22
 80067d8:	f884 303d 	strb.w	r3, [r4, #61]	; 0x3d
 80067dc:	2310      	movs	r3, #16
 80067de:	f884 303e 	strb.w	r3, [r4, #62]	; 0x3e
 80067e2:	2300      	movs	r3, #0
 80067e4:	6423      	str	r3, [r4, #64]	; 0x40
 80067e6:	f8a4 802a 	strh.w	r8, [r4, #42]	; 0x2a
 80067ea:	8d63      	ldrh	r3, [r4, #42]	; 0x2a
 80067ec:	8523      	strh	r3, [r4, #40]	; 0x28
 80067ee:	6821      	ldr	r1, [r4, #0]
 80067f0:	4b8b      	ldr	r3, [pc, #556]	; (8006a20 <HAL_I2C_Master_Receive+0x2ac>)
 80067f2:	62e3      	str	r3, [r4, #44]	; 0x2c
 80067f4:	f8c4 9024 	str.w	r9, [r4, #36]	; 0x24
 80067f8:	6ae3      	ldr	r3, [r4, #44]	; 0x2c
 80067fa:	680a      	ldr	r2, [r1, #0]
 80067fc:	2b08      	cmp	r3, #8
 80067fe:	f442 6280 	orr.w	r2, r2, #1024	; 0x400
 8006802:	600a      	str	r2, [r1, #0]
 8006804:	d004      	beq.n	8006810 <HAL_I2C_Master_Receive+0x9c>
 8006806:	2b01      	cmp	r3, #1
 8006808:	d002      	beq.n	8006810 <HAL_I2C_Master_Receive+0x9c>
 800680a:	f513 3f80 	cmn.w	r3, #65536	; 0x10000
 800680e:	d105      	bne.n	800681c <HAL_I2C_Master_Receive+0xa8>
 8006810:	6822      	ldr	r2, [r4, #0]
 8006812:	6813      	ldr	r3, [r2, #0]
 8006814:	f443 7380 	orr.w	r3, r3, #256	; 0x100
 8006818:	6013      	str	r3, [r2, #0]
 800681a:	e002      	b.n	8006822 <HAL_I2C_Master_Receive+0xae>
 800681c:	6b23      	ldr	r3, [r4, #48]	; 0x30
 800681e:	2b11      	cmp	r3, #17
 8006820:	d0f6      	beq.n	8006810 <HAL_I2C_Master_Receive+0x9c>
 8006822:	463b      	mov	r3, r7
 8006824:	9500      	str	r5, [sp, #0]
 8006826:	2200      	movs	r2, #0
 8006828:	f04f 1101 	mov.w	r1, #65537	; 0x10001
 800682c:	4620      	mov	r0, r4
 800682e:	f7ff fcc4 	bl	80061ba <I2C_WaitOnFlagUntilTimeout>
 8006832:	6823      	ldr	r3, [r4, #0]
 8006834:	b138      	cbz	r0, 8006846 <HAL_I2C_Master_Receive+0xd2>
 8006836:	681b      	ldr	r3, [r3, #0]
 8006838:	05d8      	lsls	r0, r3, #23
 800683a:	d502      	bpl.n	8006842 <HAL_I2C_Master_Receive+0xce>
 800683c:	f44f 7300 	mov.w	r3, #512	; 0x200
 8006840:	6423      	str	r3, [r4, #64]	; 0x40
 8006842:	2601      	movs	r6, #1
 8006844:	e7a6      	b.n	8006794 <HAL_I2C_Master_Receive+0x20>
 8006846:	6922      	ldr	r2, [r4, #16]
 8006848:	f5b2 4f80 	cmp.w	r2, #16384	; 0x4000
 800684c:	d127      	bne.n	800689e <HAL_I2C_Master_Receive+0x12a>
 800684e:	f046 0601 	orr.w	r6, r6, #1
 8006852:	b2f6      	uxtb	r6, r6
 8006854:	611e      	str	r6, [r3, #16]
 8006856:	4973      	ldr	r1, [pc, #460]	; (8006a24 <HAL_I2C_Master_Receive+0x2b0>)
 8006858:	462b      	mov	r3, r5
 800685a:	463a      	mov	r2, r7
 800685c:	4620      	mov	r0, r4
 800685e:	f7ff fc1e 	bl	800609e <I2C_WaitOnMasterAddressFlagUntilTimeout>
 8006862:	4606      	mov	r6, r0
 8006864:	2800      	cmp	r0, #0
 8006866:	d1ec      	bne.n	8006842 <HAL_I2C_Master_Receive+0xce>
 8006868:	8d22      	ldrh	r2, [r4, #40]	; 0x28
 800686a:	6823      	ldr	r3, [r4, #0]
 800686c:	2a00      	cmp	r2, #0
 800686e:	d14b      	bne.n	8006908 <HAL_I2C_Master_Receive+0x194>
 8006870:	9003      	str	r0, [sp, #12]
 8006872:	695a      	ldr	r2, [r3, #20]
 8006874:	9203      	str	r2, [sp, #12]
 8006876:	699a      	ldr	r2, [r3, #24]
 8006878:	9203      	str	r2, [sp, #12]
 800687a:	9a03      	ldr	r2, [sp, #12]
 800687c:	681a      	ldr	r2, [r3, #0]
 800687e:	f442 7200 	orr.w	r2, r2, #512	; 0x200
 8006882:	601a      	str	r2, [r3, #0]
 8006884:	f8df 81a4 	ldr.w	r8, [pc, #420]	; 8006a2c <HAL_I2C_Master_Receive+0x2b8>
 8006888:	8d23      	ldrh	r3, [r4, #40]	; 0x28
 800688a:	2b00      	cmp	r3, #0
 800688c:	d168      	bne.n	8006960 <HAL_I2C_Master_Receive+0x1ec>
 800688e:	2220      	movs	r2, #32
 8006890:	f884 203d 	strb.w	r2, [r4, #61]	; 0x3d
 8006894:	f884 303c 	strb.w	r3, [r4, #60]	; 0x3c
 8006898:	f884 303e 	strb.w	r3, [r4, #62]	; 0x3e
 800689c:	e77a      	b.n	8006794 <HAL_I2C_Master_Receive+0x20>
 800689e:	ea4f 18e6 	mov.w	r8, r6, asr #7
 80068a2:	f008 0806 	and.w	r8, r8, #6
 80068a6:	f048 02f0 	orr.w	r2, r8, #240	; 0xf0
 80068aa:	611a      	str	r2, [r3, #16]
 80068ac:	495e      	ldr	r1, [pc, #376]	; (8006a28 <HAL_I2C_Master_Receive+0x2b4>)
 80068ae:	462b      	mov	r3, r5
 80068b0:	463a      	mov	r2, r7
 80068b2:	4620      	mov	r0, r4
 80068b4:	f7ff fbf3 	bl	800609e <I2C_WaitOnMasterAddressFlagUntilTimeout>
 80068b8:	2800      	cmp	r0, #0
 80068ba:	d1c2      	bne.n	8006842 <HAL_I2C_Master_Receive+0xce>
 80068bc:	6823      	ldr	r3, [r4, #0]
 80068be:	4959      	ldr	r1, [pc, #356]	; (8006a24 <HAL_I2C_Master_Receive+0x2b0>)
 80068c0:	b2f6      	uxtb	r6, r6
 80068c2:	611e      	str	r6, [r3, #16]
 80068c4:	463a      	mov	r2, r7
 80068c6:	462b      	mov	r3, r5
 80068c8:	4620      	mov	r0, r4
 80068ca:	f7ff fbe8 	bl	800609e <I2C_WaitOnMasterAddressFlagUntilTimeout>
 80068ce:	2800      	cmp	r0, #0
 80068d0:	d1b7      	bne.n	8006842 <HAL_I2C_Master_Receive+0xce>
 80068d2:	6823      	ldr	r3, [r4, #0]
 80068d4:	9007      	str	r0, [sp, #28]
 80068d6:	695a      	ldr	r2, [r3, #20]
 80068d8:	9207      	str	r2, [sp, #28]
 80068da:	699a      	ldr	r2, [r3, #24]
 80068dc:	9207      	str	r2, [sp, #28]
 80068de:	9a07      	ldr	r2, [sp, #28]
 80068e0:	681a      	ldr	r2, [r3, #0]
 80068e2:	f442 7280 	orr.w	r2, r2, #256	; 0x100
 80068e6:	601a      	str	r2, [r3, #0]
 80068e8:	f04f 1101 	mov.w	r1, #65537	; 0x10001
 80068ec:	4602      	mov	r2, r0
 80068ee:	9500      	str	r5, [sp, #0]
 80068f0:	463b      	mov	r3, r7
 80068f2:	4620      	mov	r0, r4
 80068f4:	f7ff fc61 	bl	80061ba <I2C_WaitOnFlagUntilTimeout>
 80068f8:	6822      	ldr	r2, [r4, #0]
 80068fa:	b108      	cbz	r0, 8006900 <HAL_I2C_Master_Receive+0x18c>
 80068fc:	6813      	ldr	r3, [r2, #0]
 80068fe:	e79b      	b.n	8006838 <HAL_I2C_Master_Receive+0xc4>
 8006900:	f048 03f1 	orr.w	r3, r8, #241	; 0xf1
 8006904:	6113      	str	r3, [r2, #16]
 8006906:	e7a6      	b.n	8006856 <HAL_I2C_Master_Receive+0xe2>
 8006908:	2a01      	cmp	r2, #1
 800690a:	d10b      	bne.n	8006924 <HAL_I2C_Master_Receive+0x1b0>
 800690c:	681a      	ldr	r2, [r3, #0]
 800690e:	f422 6280 	bic.w	r2, r2, #1024	; 0x400
 8006912:	601a      	str	r2, [r3, #0]
 8006914:	6823      	ldr	r3, [r4, #0]
 8006916:	9004      	str	r0, [sp, #16]
 8006918:	695a      	ldr	r2, [r3, #20]
 800691a:	9204      	str	r2, [sp, #16]
 800691c:	699a      	ldr	r2, [r3, #24]
 800691e:	9204      	str	r2, [sp, #16]
 8006920:	9a04      	ldr	r2, [sp, #16]
 8006922:	e7ab      	b.n	800687c <HAL_I2C_Master_Receive+0x108>
 8006924:	2a02      	cmp	r2, #2
 8006926:	681a      	ldr	r2, [r3, #0]
 8006928:	d10f      	bne.n	800694a <HAL_I2C_Master_Receive+0x1d6>
 800692a:	f422 6280 	bic.w	r2, r2, #1024	; 0x400
 800692e:	601a      	str	r2, [r3, #0]
 8006930:	6822      	ldr	r2, [r4, #0]
 8006932:	6813      	ldr	r3, [r2, #0]
 8006934:	f443 6300 	orr.w	r3, r3, #2048	; 0x800
 8006938:	6013      	str	r3, [r2, #0]
 800693a:	6823      	ldr	r3, [r4, #0]
 800693c:	9005      	str	r0, [sp, #20]
 800693e:	695a      	ldr	r2, [r3, #20]
 8006940:	9205      	str	r2, [sp, #20]
 8006942:	699b      	ldr	r3, [r3, #24]
 8006944:	9305      	str	r3, [sp, #20]
 8006946:	9b05      	ldr	r3, [sp, #20]
 8006948:	e79c      	b.n	8006884 <HAL_I2C_Master_Receive+0x110>
 800694a:	f442 6280 	orr.w	r2, r2, #1024	; 0x400
 800694e:	601a      	str	r2, [r3, #0]
 8006950:	6823      	ldr	r3, [r4, #0]
 8006952:	9006      	str	r0, [sp, #24]
 8006954:	695a      	ldr	r2, [r3, #20]
 8006956:	9206      	str	r2, [sp, #24]
 8006958:	699b      	ldr	r3, [r3, #24]
 800695a:	9306      	str	r3, [sp, #24]
 800695c:	9b06      	ldr	r3, [sp, #24]
 800695e:	e791      	b.n	8006884 <HAL_I2C_Master_Receive+0x110>
 8006960:	2b03      	cmp	r3, #3
 8006962:	d865      	bhi.n	8006a30 <HAL_I2C_Master_Receive+0x2bc>
 8006964:	2b01      	cmp	r3, #1
 8006966:	d116      	bne.n	8006996 <HAL_I2C_Master_Receive+0x222>
 8006968:	462a      	mov	r2, r5
 800696a:	4639      	mov	r1, r7
 800696c:	4620      	mov	r0, r4
 800696e:	f7ff fbf5 	bl	800615c <I2C_WaitOnRXNEFlagUntilTimeout>
 8006972:	2800      	cmp	r0, #0
 8006974:	f47f af65 	bne.w	8006842 <HAL_I2C_Master_Receive+0xce>
 8006978:	6823      	ldr	r3, [r4, #0]
 800697a:	691a      	ldr	r2, [r3, #16]
 800697c:	6a63      	ldr	r3, [r4, #36]	; 0x24
 800697e:	701a      	strb	r2, [r3, #0]
 8006980:	6a63      	ldr	r3, [r4, #36]	; 0x24
 8006982:	3301      	adds	r3, #1
 8006984:	6263      	str	r3, [r4, #36]	; 0x24
 8006986:	8d23      	ldrh	r3, [r4, #40]	; 0x28
 8006988:	3b01      	subs	r3, #1
 800698a:	8523      	strh	r3, [r4, #40]	; 0x28
 800698c:	8d63      	ldrh	r3, [r4, #42]	; 0x2a
 800698e:	3b01      	subs	r3, #1
 8006990:	b29b      	uxth	r3, r3
 8006992:	8563      	strh	r3, [r4, #42]	; 0x2a
 8006994:	e778      	b.n	8006888 <HAL_I2C_Master_Receive+0x114>
 8006996:	2b02      	cmp	r3, #2
 8006998:	9500      	str	r5, [sp, #0]
 800699a:	463b      	mov	r3, r7
 800699c:	f04f 0200 	mov.w	r2, #0
 80069a0:	4641      	mov	r1, r8
 80069a2:	4620      	mov	r0, r4
 80069a4:	d11b      	bne.n	80069de <HAL_I2C_Master_Receive+0x26a>
 80069a6:	f7ff fc08 	bl	80061ba <I2C_WaitOnFlagUntilTimeout>
 80069aa:	2800      	cmp	r0, #0
 80069ac:	f47f af49 	bne.w	8006842 <HAL_I2C_Master_Receive+0xce>
 80069b0:	6822      	ldr	r2, [r4, #0]
 80069b2:	6813      	ldr	r3, [r2, #0]
 80069b4:	f443 7300 	orr.w	r3, r3, #512	; 0x200
 80069b8:	6013      	str	r3, [r2, #0]
 80069ba:	6823      	ldr	r3, [r4, #0]
 80069bc:	691a      	ldr	r2, [r3, #16]
 80069be:	6a63      	ldr	r3, [r4, #36]	; 0x24
 80069c0:	701a      	strb	r2, [r3, #0]
 80069c2:	6a62      	ldr	r2, [r4, #36]	; 0x24
 80069c4:	1c53      	adds	r3, r2, #1
 80069c6:	6263      	str	r3, [r4, #36]	; 0x24
 80069c8:	8d23      	ldrh	r3, [r4, #40]	; 0x28
 80069ca:	3b01      	subs	r3, #1
 80069cc:	8523      	strh	r3, [r4, #40]	; 0x28
 80069ce:	8d63      	ldrh	r3, [r4, #42]	; 0x2a
 80069d0:	3b01      	subs	r3, #1
 80069d2:	b29b      	uxth	r3, r3
 80069d4:	8563      	strh	r3, [r4, #42]	; 0x2a
 80069d6:	6823      	ldr	r3, [r4, #0]
 80069d8:	691b      	ldr	r3, [r3, #16]
 80069da:	7053      	strb	r3, [r2, #1]
 80069dc:	e7d0      	b.n	8006980 <HAL_I2C_Master_Receive+0x20c>
 80069de:	f7ff fbec 	bl	80061ba <I2C_WaitOnFlagUntilTimeout>
 80069e2:	2800      	cmp	r0, #0
 80069e4:	f47f af2d 	bne.w	8006842 <HAL_I2C_Master_Receive+0xce>
 80069e8:	6822      	ldr	r2, [r4, #0]
 80069ea:	6813      	ldr	r3, [r2, #0]
 80069ec:	f423 6380 	bic.w	r3, r3, #1024	; 0x400
 80069f0:	6013      	str	r3, [r2, #0]
 80069f2:	6823      	ldr	r3, [r4, #0]
 80069f4:	691a      	ldr	r2, [r3, #16]
 80069f6:	6a63      	ldr	r3, [r4, #36]	; 0x24
 80069f8:	701a      	strb	r2, [r3, #0]
 80069fa:	6a63      	ldr	r3, [r4, #36]	; 0x24
 80069fc:	9500      	str	r5, [sp, #0]
 80069fe:	3301      	adds	r3, #1
 8006a00:	6263      	str	r3, [r4, #36]	; 0x24
 8006a02:	8d23      	ldrh	r3, [r4, #40]	; 0x28
 8006a04:	3b01      	subs	r3, #1
 8006a06:	8523      	strh	r3, [r4, #40]	; 0x28
 8006a08:	8d63      	ldrh	r3, [r4, #42]	; 0x2a
 8006a0a:	3b01      	subs	r3, #1
 8006a0c:	b29b      	uxth	r3, r3
 8006a0e:	8563      	strh	r3, [r4, #42]	; 0x2a
 8006a10:	4602      	mov	r2, r0
 8006a12:	463b      	mov	r3, r7
 8006a14:	4641      	mov	r1, r8
 8006a16:	4620      	mov	r0, r4
 8006a18:	e7c5      	b.n	80069a6 <HAL_I2C_Master_Receive+0x232>
 8006a1a:	bf00      	nop
 8006a1c:	00100002 	.word	0x00100002
 8006a20:	ffff0000 	.word	0xffff0000
 8006a24:	00010002 	.word	0x00010002
 8006a28:	00010008 	.word	0x00010008
 8006a2c:	00010004 	.word	0x00010004
 8006a30:	462a      	mov	r2, r5
 8006a32:	4639      	mov	r1, r7
 8006a34:	4620      	mov	r0, r4
 8006a36:	f7ff fb91 	bl	800615c <I2C_WaitOnRXNEFlagUntilTimeout>
 8006a3a:	2800      	cmp	r0, #0
 8006a3c:	f47f af01 	bne.w	8006842 <HAL_I2C_Master_Receive+0xce>
 8006a40:	6823      	ldr	r3, [r4, #0]
 8006a42:	691a      	ldr	r2, [r3, #16]
 8006a44:	6a63      	ldr	r3, [r4, #36]	; 0x24
 8006a46:	701a      	strb	r2, [r3, #0]
 8006a48:	6a62      	ldr	r2, [r4, #36]	; 0x24
 8006a4a:	1c53      	adds	r3, r2, #1
 8006a4c:	6263      	str	r3, [r4, #36]	; 0x24
 8006a4e:	8d23      	ldrh	r3, [r4, #40]	; 0x28
 8006a50:	3b01      	subs	r3, #1
 8006a52:	8523      	strh	r3, [r4, #40]	; 0x28
 8006a54:	8d63      	ldrh	r3, [r4, #42]	; 0x2a
 8006a56:	3b01      	subs	r3, #1
 8006a58:	b29b      	uxth	r3, r3
 8006a5a:	8563      	strh	r3, [r4, #42]	; 0x2a
 8006a5c:	6823      	ldr	r3, [r4, #0]
 8006a5e:	6959      	ldr	r1, [r3, #20]
 8006a60:	0749      	lsls	r1, r1, #29
 8006a62:	f57f af11 	bpl.w	8006888 <HAL_I2C_Master_Receive+0x114>
 8006a66:	e7b7      	b.n	80069d8 <HAL_I2C_Master_Receive+0x264>

08006a68 <HAL_I2C_Mem_Write>:
 8006a68:	e92d 43f7 	stmdb	sp!, {r0, r1, r2, r4, r5, r6, r7, r8, r9, lr}
 8006a6c:	4604      	mov	r4, r0
 8006a6e:	4699      	mov	r9, r3
 8006a70:	9e0c      	ldr	r6, [sp, #48]	; 0x30
 8006a72:	460f      	mov	r7, r1
 8006a74:	4690      	mov	r8, r2
 8006a76:	f7fe fbf5 	bl	8005264 <HAL_GetTick>
 8006a7a:	f894 303d 	ldrb.w	r3, [r4, #61]	; 0x3d
 8006a7e:	2b20      	cmp	r3, #32
 8006a80:	4605      	mov	r5, r0
 8006a82:	d003      	beq.n	8006a8c <HAL_I2C_Mem_Write+0x24>
 8006a84:	2002      	movs	r0, #2
 8006a86:	b003      	add	sp, #12
 8006a88:	e8bd 83f0 	ldmia.w	sp!, {r4, r5, r6, r7, r8, r9, pc}
 8006a8c:	9000      	str	r0, [sp, #0]
 8006a8e:	493e      	ldr	r1, [pc, #248]	; (8006b88 <HAL_I2C_Mem_Write+0x120>)
 8006a90:	2319      	movs	r3, #25
 8006a92:	2201      	movs	r2, #1
 8006a94:	4620      	mov	r0, r4
 8006a96:	f7ff fb90 	bl	80061ba <I2C_WaitOnFlagUntilTimeout>
 8006a9a:	2800      	cmp	r0, #0
 8006a9c:	d1f2      	bne.n	8006a84 <HAL_I2C_Mem_Write+0x1c>
 8006a9e:	f894 303c 	ldrb.w	r3, [r4, #60]	; 0x3c
 8006aa2:	2b01      	cmp	r3, #1
 8006aa4:	d0ee      	beq.n	8006a84 <HAL_I2C_Mem_Write+0x1c>
 8006aa6:	2301      	movs	r3, #1
 8006aa8:	f884 303c 	strb.w	r3, [r4, #60]	; 0x3c
 8006aac:	6823      	ldr	r3, [r4, #0]
 8006aae:	681a      	ldr	r2, [r3, #0]
 8006ab0:	07d2      	lsls	r2, r2, #31
 8006ab2:	bf5e      	ittt	pl
 8006ab4:	681a      	ldrpl	r2, [r3, #0]
 8006ab6:	f042 0201 	orrpl.w	r2, r2, #1
 8006aba:	601a      	strpl	r2, [r3, #0]
 8006abc:	6822      	ldr	r2, [r4, #0]
 8006abe:	6813      	ldr	r3, [r2, #0]
 8006ac0:	f423 6300 	bic.w	r3, r3, #2048	; 0x800
 8006ac4:	6013      	str	r3, [r2, #0]
 8006ac6:	2321      	movs	r3, #33	; 0x21
 8006ac8:	f884 303d 	strb.w	r3, [r4, #61]	; 0x3d
 8006acc:	2340      	movs	r3, #64	; 0x40
 8006ace:	f884 303e 	strb.w	r3, [r4, #62]	; 0x3e
 8006ad2:	2300      	movs	r3, #0
 8006ad4:	6423      	str	r3, [r4, #64]	; 0x40
 8006ad6:	9b0a      	ldr	r3, [sp, #40]	; 0x28
 8006ad8:	6263      	str	r3, [r4, #36]	; 0x24
 8006ada:	f8bd 302c 	ldrh.w	r3, [sp, #44]	; 0x2c
 8006ade:	8563      	strh	r3, [r4, #42]	; 0x2a
 8006ae0:	8d63      	ldrh	r3, [r4, #42]	; 0x2a
 8006ae2:	8523      	strh	r3, [r4, #40]	; 0x28
 8006ae4:	4b29      	ldr	r3, [pc, #164]	; (8006b8c <HAL_I2C_Mem_Write+0x124>)
 8006ae6:	62e3      	str	r3, [r4, #44]	; 0x2c
 8006ae8:	e9cd 6500 	strd	r6, r5, [sp]
 8006aec:	464b      	mov	r3, r9
 8006aee:	4642      	mov	r2, r8
 8006af0:	4639      	mov	r1, r7
 8006af2:	4620      	mov	r0, r4
 8006af4:	f7ff fbba 	bl	800626c <I2C_RequestMemoryWrite>
 8006af8:	2800      	cmp	r0, #0
 8006afa:	d02d      	beq.n	8006b58 <HAL_I2C_Mem_Write+0xf0>
 8006afc:	2001      	movs	r0, #1
 8006afe:	e7c2      	b.n	8006a86 <HAL_I2C_Mem_Write+0x1e>
 8006b00:	f7ff fb8d 	bl	800621e <I2C_WaitOnTXEFlagUntilTimeout>
 8006b04:	b140      	cbz	r0, 8006b18 <HAL_I2C_Mem_Write+0xb0>
 8006b06:	6c23      	ldr	r3, [r4, #64]	; 0x40
 8006b08:	2b04      	cmp	r3, #4
 8006b0a:	bf01      	itttt	eq
 8006b0c:	6822      	ldreq	r2, [r4, #0]
 8006b0e:	6813      	ldreq	r3, [r2, #0]
 8006b10:	f443 7300 	orreq.w	r3, r3, #512	; 0x200
 8006b14:	6013      	streq	r3, [r2, #0]
 8006b16:	e7f1      	b.n	8006afc <HAL_I2C_Mem_Write+0x94>
 8006b18:	6a62      	ldr	r2, [r4, #36]	; 0x24
 8006b1a:	6823      	ldr	r3, [r4, #0]
 8006b1c:	7812      	ldrb	r2, [r2, #0]
 8006b1e:	611a      	str	r2, [r3, #16]
 8006b20:	6a61      	ldr	r1, [r4, #36]	; 0x24
 8006b22:	8d62      	ldrh	r2, [r4, #42]	; 0x2a
 8006b24:	1c4b      	adds	r3, r1, #1
 8006b26:	6263      	str	r3, [r4, #36]	; 0x24
 8006b28:	8d23      	ldrh	r3, [r4, #40]	; 0x28
 8006b2a:	3a01      	subs	r2, #1
 8006b2c:	b292      	uxth	r2, r2
 8006b2e:	3b01      	subs	r3, #1
 8006b30:	8562      	strh	r2, [r4, #42]	; 0x2a
 8006b32:	b29b      	uxth	r3, r3
 8006b34:	6822      	ldr	r2, [r4, #0]
 8006b36:	8523      	strh	r3, [r4, #40]	; 0x28
 8006b38:	6950      	ldr	r0, [r2, #20]
 8006b3a:	0740      	lsls	r0, r0, #29
 8006b3c:	d50c      	bpl.n	8006b58 <HAL_I2C_Mem_Write+0xf0>
 8006b3e:	b15b      	cbz	r3, 8006b58 <HAL_I2C_Mem_Write+0xf0>
 8006b40:	784b      	ldrb	r3, [r1, #1]
 8006b42:	6113      	str	r3, [r2, #16]
 8006b44:	6a63      	ldr	r3, [r4, #36]	; 0x24
 8006b46:	3301      	adds	r3, #1
 8006b48:	6263      	str	r3, [r4, #36]	; 0x24
 8006b4a:	8d23      	ldrh	r3, [r4, #40]	; 0x28
 8006b4c:	3b01      	subs	r3, #1
 8006b4e:	8523      	strh	r3, [r4, #40]	; 0x28
 8006b50:	8d63      	ldrh	r3, [r4, #42]	; 0x2a
 8006b52:	3b01      	subs	r3, #1
 8006b54:	b29b      	uxth	r3, r3
 8006b56:	8563      	strh	r3, [r4, #42]	; 0x2a
 8006b58:	8d23      	ldrh	r3, [r4, #40]	; 0x28
 8006b5a:	462a      	mov	r2, r5
 8006b5c:	4631      	mov	r1, r6
 8006b5e:	4620      	mov	r0, r4
 8006b60:	2b00      	cmp	r3, #0
 8006b62:	d1cd      	bne.n	8006b00 <HAL_I2C_Mem_Write+0x98>
 8006b64:	f7ff fad4 	bl	8006110 <I2C_WaitOnBTFFlagUntilTimeout>
 8006b68:	2800      	cmp	r0, #0
 8006b6a:	d1cc      	bne.n	8006b06 <HAL_I2C_Mem_Write+0x9e>
 8006b6c:	6822      	ldr	r2, [r4, #0]
 8006b6e:	6813      	ldr	r3, [r2, #0]
 8006b70:	f443 7300 	orr.w	r3, r3, #512	; 0x200
 8006b74:	6013      	str	r3, [r2, #0]
 8006b76:	2320      	movs	r3, #32
 8006b78:	f884 303d 	strb.w	r3, [r4, #61]	; 0x3d
 8006b7c:	f884 003c 	strb.w	r0, [r4, #60]	; 0x3c
 8006b80:	f884 003e 	strb.w	r0, [r4, #62]	; 0x3e
 8006b84:	e77f      	b.n	8006a86 <HAL_I2C_Mem_Write+0x1e>
 8006b86:	bf00      	nop
 8006b88:	00100002 	.word	0x00100002
 8006b8c:	ffff0000 	.word	0xffff0000

08006b90 <HAL_I2C_Mem_Read>:
 8006b90:	e92d 43f0 	stmdb	sp!, {r4, r5, r6, r7, r8, r9, lr}
 8006b94:	4604      	mov	r4, r0
 8006b96:	b087      	sub	sp, #28
 8006b98:	4699      	mov	r9, r3
 8006b9a:	9f10      	ldr	r7, [sp, #64]	; 0x40
 8006b9c:	460d      	mov	r5, r1
 8006b9e:	4690      	mov	r8, r2
 8006ba0:	f7fe fb60 	bl	8005264 <HAL_GetTick>
 8006ba4:	f894 303d 	ldrb.w	r3, [r4, #61]	; 0x3d
 8006ba8:	2b20      	cmp	r3, #32
 8006baa:	4606      	mov	r6, r0
 8006bac:	d004      	beq.n	8006bb8 <HAL_I2C_Mem_Read+0x28>
 8006bae:	2502      	movs	r5, #2
 8006bb0:	4628      	mov	r0, r5
 8006bb2:	b007      	add	sp, #28
 8006bb4:	e8bd 83f0 	ldmia.w	sp!, {r4, r5, r6, r7, r8, r9, pc}
 8006bb8:	9000      	str	r0, [sp, #0]
 8006bba:	4979      	ldr	r1, [pc, #484]	; (8006da0 <HAL_I2C_Mem_Read+0x210>)
 8006bbc:	2319      	movs	r3, #25
 8006bbe:	2201      	movs	r2, #1
 8006bc0:	4620      	mov	r0, r4
 8006bc2:	f7ff fafa 	bl	80061ba <I2C_WaitOnFlagUntilTimeout>
 8006bc6:	2800      	cmp	r0, #0
 8006bc8:	d1f1      	bne.n	8006bae <HAL_I2C_Mem_Read+0x1e>
 8006bca:	f894 303c 	ldrb.w	r3, [r4, #60]	; 0x3c
 8006bce:	2b01      	cmp	r3, #1
 8006bd0:	d0ed      	beq.n	8006bae <HAL_I2C_Mem_Read+0x1e>
 8006bd2:	2301      	movs	r3, #1
 8006bd4:	f884 303c 	strb.w	r3, [r4, #60]	; 0x3c
 8006bd8:	6823      	ldr	r3, [r4, #0]
 8006bda:	681a      	ldr	r2, [r3, #0]
 8006bdc:	07d0      	lsls	r0, r2, #31
 8006bde:	bf5e      	ittt	pl
 8006be0:	681a      	ldrpl	r2, [r3, #0]
 8006be2:	f042 0201 	orrpl.w	r2, r2, #1
 8006be6:	601a      	strpl	r2, [r3, #0]
 8006be8:	6822      	ldr	r2, [r4, #0]
 8006bea:	6813      	ldr	r3, [r2, #0]
 8006bec:	f423 6300 	bic.w	r3, r3, #2048	; 0x800
 8006bf0:	6013      	str	r3, [r2, #0]
 8006bf2:	2322      	movs	r3, #34	; 0x22
 8006bf4:	f884 303d 	strb.w	r3, [r4, #61]	; 0x3d
 8006bf8:	2340      	movs	r3, #64	; 0x40
 8006bfa:	f884 303e 	strb.w	r3, [r4, #62]	; 0x3e
 8006bfe:	2300      	movs	r3, #0
 8006c00:	6423      	str	r3, [r4, #64]	; 0x40
 8006c02:	9b0e      	ldr	r3, [sp, #56]	; 0x38
 8006c04:	6263      	str	r3, [r4, #36]	; 0x24
 8006c06:	f8bd 303c 	ldrh.w	r3, [sp, #60]	; 0x3c
 8006c0a:	8563      	strh	r3, [r4, #42]	; 0x2a
 8006c0c:	8d63      	ldrh	r3, [r4, #42]	; 0x2a
 8006c0e:	8523      	strh	r3, [r4, #40]	; 0x28
 8006c10:	4b64      	ldr	r3, [pc, #400]	; (8006da4 <HAL_I2C_Mem_Read+0x214>)
 8006c12:	62e3      	str	r3, [r4, #44]	; 0x2c
 8006c14:	4629      	mov	r1, r5
 8006c16:	e9cd 7600 	strd	r7, r6, [sp]
 8006c1a:	464b      	mov	r3, r9
 8006c1c:	4642      	mov	r2, r8
 8006c1e:	4620      	mov	r0, r4
 8006c20:	f7ff fb7c 	bl	800631c <I2C_RequestMemoryRead>
 8006c24:	4605      	mov	r5, r0
 8006c26:	b108      	cbz	r0, 8006c2c <HAL_I2C_Mem_Read+0x9c>
 8006c28:	2501      	movs	r5, #1
 8006c2a:	e7c1      	b.n	8006bb0 <HAL_I2C_Mem_Read+0x20>
 8006c2c:	8d22      	ldrh	r2, [r4, #40]	; 0x28
 8006c2e:	6823      	ldr	r3, [r4, #0]
 8006c30:	b9b2      	cbnz	r2, 8006c60 <HAL_I2C_Mem_Read+0xd0>
 8006c32:	9002      	str	r0, [sp, #8]
 8006c34:	695a      	ldr	r2, [r3, #20]
 8006c36:	9202      	str	r2, [sp, #8]
 8006c38:	699a      	ldr	r2, [r3, #24]
 8006c3a:	9202      	str	r2, [sp, #8]
 8006c3c:	9a02      	ldr	r2, [sp, #8]
 8006c3e:	681a      	ldr	r2, [r3, #0]
 8006c40:	f442 7200 	orr.w	r2, r2, #512	; 0x200
 8006c44:	601a      	str	r2, [r3, #0]
 8006c46:	f8df 8160 	ldr.w	r8, [pc, #352]	; 8006da8 <HAL_I2C_Mem_Read+0x218>
 8006c4a:	8d23      	ldrh	r3, [r4, #40]	; 0x28
 8006c4c:	2b00      	cmp	r3, #0
 8006c4e:	d12f      	bne.n	8006cb0 <HAL_I2C_Mem_Read+0x120>
 8006c50:	2220      	movs	r2, #32
 8006c52:	f884 203d 	strb.w	r2, [r4, #61]	; 0x3d
 8006c56:	f884 303c 	strb.w	r3, [r4, #60]	; 0x3c
 8006c5a:	f884 303e 	strb.w	r3, [r4, #62]	; 0x3e
 8006c5e:	e7a7      	b.n	8006bb0 <HAL_I2C_Mem_Read+0x20>
 8006c60:	2a01      	cmp	r2, #1
 8006c62:	d10b      	bne.n	8006c7c <HAL_I2C_Mem_Read+0xec>
 8006c64:	681a      	ldr	r2, [r3, #0]
 8006c66:	f422 6280 	bic.w	r2, r2, #1024	; 0x400
 8006c6a:	601a      	str	r2, [r3, #0]
 8006c6c:	6823      	ldr	r3, [r4, #0]
 8006c6e:	9003      	str	r0, [sp, #12]
 8006c70:	695a      	ldr	r2, [r3, #20]
 8006c72:	9203      	str	r2, [sp, #12]
 8006c74:	699a      	ldr	r2, [r3, #24]
 8006c76:	9203      	str	r2, [sp, #12]
 8006c78:	9a03      	ldr	r2, [sp, #12]
 8006c7a:	e7e0      	b.n	8006c3e <HAL_I2C_Mem_Read+0xae>
 8006c7c:	2a02      	cmp	r2, #2
 8006c7e:	d110      	bne.n	8006ca2 <HAL_I2C_Mem_Read+0x112>
 8006c80:	681a      	ldr	r2, [r3, #0]
 8006c82:	f422 6280 	bic.w	r2, r2, #1024	; 0x400
 8006c86:	601a      	str	r2, [r3, #0]
 8006c88:	6822      	ldr	r2, [r4, #0]
 8006c8a:	6813      	ldr	r3, [r2, #0]
 8006c8c:	f443 6300 	orr.w	r3, r3, #2048	; 0x800
 8006c90:	6013      	str	r3, [r2, #0]
 8006c92:	6823      	ldr	r3, [r4, #0]
 8006c94:	9004      	str	r0, [sp, #16]
 8006c96:	695a      	ldr	r2, [r3, #20]
 8006c98:	9204      	str	r2, [sp, #16]
 8006c9a:	699b      	ldr	r3, [r3, #24]
 8006c9c:	9304      	str	r3, [sp, #16]
 8006c9e:	9b04      	ldr	r3, [sp, #16]
 8006ca0:	e7d1      	b.n	8006c46 <HAL_I2C_Mem_Read+0xb6>
 8006ca2:	9005      	str	r0, [sp, #20]
 8006ca4:	695a      	ldr	r2, [r3, #20]
 8006ca6:	9205      	str	r2, [sp, #20]
 8006ca8:	699b      	ldr	r3, [r3, #24]
 8006caa:	9305      	str	r3, [sp, #20]
 8006cac:	9b05      	ldr	r3, [sp, #20]
 8006cae:	e7ca      	b.n	8006c46 <HAL_I2C_Mem_Read+0xb6>
 8006cb0:	2b03      	cmp	r3, #3
 8006cb2:	d858      	bhi.n	8006d66 <HAL_I2C_Mem_Read+0x1d6>
 8006cb4:	2b01      	cmp	r3, #1
 8006cb6:	d115      	bne.n	8006ce4 <HAL_I2C_Mem_Read+0x154>
 8006cb8:	4632      	mov	r2, r6
 8006cba:	4639      	mov	r1, r7
 8006cbc:	4620      	mov	r0, r4
 8006cbe:	f7ff fa4d 	bl	800615c <I2C_WaitOnRXNEFlagUntilTimeout>
 8006cc2:	2800      	cmp	r0, #0
 8006cc4:	d1b0      	bne.n	8006c28 <HAL_I2C_Mem_Read+0x98>
 8006cc6:	6823      	ldr	r3, [r4, #0]
 8006cc8:	691a      	ldr	r2, [r3, #16]
 8006cca:	6a63      	ldr	r3, [r4, #36]	; 0x24
 8006ccc:	701a      	strb	r2, [r3, #0]
 8006cce:	6a63      	ldr	r3, [r4, #36]	; 0x24
 8006cd0:	3301      	adds	r3, #1
 8006cd2:	6263      	str	r3, [r4, #36]	; 0x24
 8006cd4:	8d23      	ldrh	r3, [r4, #40]	; 0x28
 8006cd6:	3b01      	subs	r3, #1
 8006cd8:	8523      	strh	r3, [r4, #40]	; 0x28
 8006cda:	8d63      	ldrh	r3, [r4, #42]	; 0x2a
 8006cdc:	3b01      	subs	r3, #1
 8006cde:	b29b      	uxth	r3, r3
 8006ce0:	8563      	strh	r3, [r4, #42]	; 0x2a
 8006ce2:	e7b2      	b.n	8006c4a <HAL_I2C_Mem_Read+0xba>
 8006ce4:	2b02      	cmp	r3, #2
 8006ce6:	9600      	str	r6, [sp, #0]
 8006ce8:	463b      	mov	r3, r7
 8006cea:	f04f 0200 	mov.w	r2, #0
 8006cee:	4641      	mov	r1, r8
 8006cf0:	4620      	mov	r0, r4
 8006cf2:	d11a      	bne.n	8006d2a <HAL_I2C_Mem_Read+0x19a>
 8006cf4:	f7ff fa61 	bl	80061ba <I2C_WaitOnFlagUntilTimeout>
 8006cf8:	2800      	cmp	r0, #0
 8006cfa:	d195      	bne.n	8006c28 <HAL_I2C_Mem_Read+0x98>
 8006cfc:	6822      	ldr	r2, [r4, #0]
 8006cfe:	6813      	ldr	r3, [r2, #0]
 8006d00:	f443 7300 	orr.w	r3, r3, #512	; 0x200
 8006d04:	6013      	str	r3, [r2, #0]
 8006d06:	6823      	ldr	r3, [r4, #0]
 8006d08:	691a      	ldr	r2, [r3, #16]
 8006d0a:	6a63      	ldr	r3, [r4, #36]	; 0x24
 8006d0c:	701a      	strb	r2, [r3, #0]
 8006d0e:	6a62      	ldr	r2, [r4, #36]	; 0x24
 8006d10:	1c53      	adds	r3, r2, #1
 8006d12:	6263      	str	r3, [r4, #36]	; 0x24
 8006d14:	8d23      	ldrh	r3, [r4, #40]	; 0x28
 8006d16:	3b01      	subs	r3, #1
 8006d18:	8523      	strh	r3, [r4, #40]	; 0x28
 8006d1a:	8d63      	ldrh	r3, [r4, #42]	; 0x2a
 8006d1c:	3b01      	subs	r3, #1
 8006d1e:	b29b      	uxth	r3, r3
 8006d20:	8563      	strh	r3, [r4, #42]	; 0x2a
 8006d22:	6823      	ldr	r3, [r4, #0]
 8006d24:	691b      	ldr	r3, [r3, #16]
 8006d26:	7053      	strb	r3, [r2, #1]
 8006d28:	e7d1      	b.n	8006cce <HAL_I2C_Mem_Read+0x13e>
 8006d2a:	f7ff fa46 	bl	80061ba <I2C_WaitOnFlagUntilTimeout>
 8006d2e:	2800      	cmp	r0, #0
 8006d30:	f47f af7a 	bne.w	8006c28 <HAL_I2C_Mem_Read+0x98>
 8006d34:	6822      	ldr	r2, [r4, #0]
 8006d36:	6813      	ldr	r3, [r2, #0]
 8006d38:	f423 6380 	bic.w	r3, r3, #1024	; 0x400
 8006d3c:	6013      	str	r3, [r2, #0]
 8006d3e:	6823      	ldr	r3, [r4, #0]
 8006d40:	691a      	ldr	r2, [r3, #16]
 8006d42:	6a63      	ldr	r3, [r4, #36]	; 0x24
 8006d44:	701a      	strb	r2, [r3, #0]
 8006d46:	6a63      	ldr	r3, [r4, #36]	; 0x24
 8006d48:	9600      	str	r6, [sp, #0]
 8006d4a:	3301      	adds	r3, #1
 8006d4c:	6263      	str	r3, [r4, #36]	; 0x24
 8006d4e:	8d23      	ldrh	r3, [r4, #40]	; 0x28
 8006d50:	3b01      	subs	r3, #1
 8006d52:	8523      	strh	r3, [r4, #40]	; 0x28
 8006d54:	8d63      	ldrh	r3, [r4, #42]	; 0x2a
 8006d56:	3b01      	subs	r3, #1
 8006d58:	b29b      	uxth	r3, r3
 8006d5a:	8563      	strh	r3, [r4, #42]	; 0x2a
 8006d5c:	4602      	mov	r2, r0
 8006d5e:	463b      	mov	r3, r7
 8006d60:	4641      	mov	r1, r8
 8006d62:	4620      	mov	r0, r4
 8006d64:	e7c6      	b.n	8006cf4 <HAL_I2C_Mem_Read+0x164>
 8006d66:	4632      	mov	r2, r6
 8006d68:	4639      	mov	r1, r7
 8006d6a:	4620      	mov	r0, r4
 8006d6c:	f7ff f9f6 	bl	800615c <I2C_WaitOnRXNEFlagUntilTimeout>
 8006d70:	2800      	cmp	r0, #0
 8006d72:	f47f af59 	bne.w	8006c28 <HAL_I2C_Mem_Read+0x98>
 8006d76:	6823      	ldr	r3, [r4, #0]
 8006d78:	691a      	ldr	r2, [r3, #16]
 8006d7a:	6a63      	ldr	r3, [r4, #36]	; 0x24
 8006d7c:	701a      	strb	r2, [r3, #0]
 8006d7e:	6a62      	ldr	r2, [r4, #36]	; 0x24
 8006d80:	1c53      	adds	r3, r2, #1
 8006d82:	6263      	str	r3, [r4, #36]	; 0x24
 8006d84:	8d23      	ldrh	r3, [r4, #40]	; 0x28
 8006d86:	3b01      	subs	r3, #1
 8006d88:	8523      	strh	r3, [r4, #40]	; 0x28
 8006d8a:	8d63      	ldrh	r3, [r4, #42]	; 0x2a
 8006d8c:	3b01      	subs	r3, #1
 8006d8e:	b29b      	uxth	r3, r3
 8006d90:	8563      	strh	r3, [r4, #42]	; 0x2a
 8006d92:	6823      	ldr	r3, [r4, #0]
 8006d94:	6959      	ldr	r1, [r3, #20]
 8006d96:	0749      	lsls	r1, r1, #29
 8006d98:	f57f af57 	bpl.w	8006c4a <HAL_I2C_Mem_Read+0xba>
 8006d9c:	e7c2      	b.n	8006d24 <HAL_I2C_Mem_Read+0x194>
 8006d9e:	bf00      	nop
 8006da0:	00100002 	.word	0x00100002
 8006da4:	ffff0000 	.word	0xffff0000
 8006da8:	00010004 	.word	0x00010004

08006dac <HAL_IWDG_Init>:
 8006dac:	b538      	push	{r3, r4, r5, lr}
 8006dae:	4604      	mov	r4, r0
 8006db0:	b328      	cbz	r0, 8006dfe <HAL_IWDG_Init+0x52>
 8006db2:	6803      	ldr	r3, [r0, #0]
 8006db4:	f64c 42cc 	movw	r2, #52428	; 0xcccc
 8006db8:	601a      	str	r2, [r3, #0]
 8006dba:	6803      	ldr	r3, [r0, #0]
 8006dbc:	f245 5255 	movw	r2, #21845	; 0x5555
 8006dc0:	601a      	str	r2, [r3, #0]
 8006dc2:	e9d0 3200 	ldrd	r3, r2, [r0]
 8006dc6:	605a      	str	r2, [r3, #4]
 8006dc8:	6803      	ldr	r3, [r0, #0]
 8006dca:	6882      	ldr	r2, [r0, #8]
 8006dcc:	609a      	str	r2, [r3, #8]
 8006dce:	f7fe fa49 	bl	8005264 <HAL_GetTick>
 8006dd2:	4605      	mov	r5, r0
 8006dd4:	6822      	ldr	r2, [r4, #0]
 8006dd6:	68d3      	ldr	r3, [r2, #12]
 8006dd8:	f013 0303 	ands.w	r3, r3, #3
 8006ddc:	d104      	bne.n	8006de8 <HAL_IWDG_Init+0x3c>
 8006dde:	f64a 21aa 	movw	r1, #43690	; 0xaaaa
 8006de2:	6011      	str	r1, [r2, #0]
 8006de4:	4618      	mov	r0, r3
 8006de6:	bd38      	pop	{r3, r4, r5, pc}
 8006de8:	f7fe fa3c 	bl	8005264 <HAL_GetTick>
 8006dec:	1b40      	subs	r0, r0, r5
 8006dee:	2830      	cmp	r0, #48	; 0x30
 8006df0:	d9f0      	bls.n	8006dd4 <HAL_IWDG_Init+0x28>
 8006df2:	6823      	ldr	r3, [r4, #0]
 8006df4:	68db      	ldr	r3, [r3, #12]
 8006df6:	079b      	lsls	r3, r3, #30
 8006df8:	d0ec      	beq.n	8006dd4 <HAL_IWDG_Init+0x28>
 8006dfa:	2003      	movs	r0, #3
 8006dfc:	e7f3      	b.n	8006de6 <HAL_IWDG_Init+0x3a>
 8006dfe:	2001      	movs	r0, #1
 8006e00:	e7f1      	b.n	8006de6 <HAL_IWDG_Init+0x3a>

08006e02 <HAL_IWDG_Refresh>:
 8006e02:	6803      	ldr	r3, [r0, #0]
 8006e04:	f64a 22aa 	movw	r2, #43690	; 0xaaaa
 8006e08:	601a      	str	r2, [r3, #0]
 8006e0a:	2000      	movs	r0, #0
 8006e0c:	4770      	bx	lr
	...

08006e10 <HAL_PWR_EnableBkUpAccess>:
 8006e10:	4b04      	ldr	r3, [pc, #16]	; (8006e24 <HAL_PWR_EnableBkUpAccess+0x14>)
 8006e12:	2201      	movs	r2, #1
 8006e14:	601a      	str	r2, [r3, #0]
 8006e16:	4b04      	ldr	r3, [pc, #16]	; (8006e28 <HAL_PWR_EnableBkUpAccess+0x18>)
 8006e18:	b082      	sub	sp, #8
 8006e1a:	681b      	ldr	r3, [r3, #0]
 8006e1c:	9301      	str	r3, [sp, #4]
 8006e1e:	9b01      	ldr	r3, [sp, #4]
 8006e20:	b002      	add	sp, #8
 8006e22:	4770      	bx	lr
 8006e24:	420e0020 	.word	0x420e0020
 8006e28:	40007000 	.word	0x40007000

08006e2c <HAL_PWR_PVDCallback>:
 8006e2c:	4770      	bx	lr
	...

08006e30 <HAL_PWR_PVD_IRQHandler>:
 8006e30:	b510      	push	{r4, lr}
 8006e32:	4c05      	ldr	r4, [pc, #20]	; (8006e48 <HAL_PWR_PVD_IRQHandler+0x18>)
 8006e34:	6963      	ldr	r3, [r4, #20]
 8006e36:	03db      	lsls	r3, r3, #15
 8006e38:	d504      	bpl.n	8006e44 <HAL_PWR_PVD_IRQHandler+0x14>
 8006e3a:	f7ff fff7 	bl	8006e2c <HAL_PWR_PVDCallback>
 8006e3e:	f44f 3380 	mov.w	r3, #65536	; 0x10000
 8006e42:	6163      	str	r3, [r4, #20]
 8006e44:	bd10      	pop	{r4, pc}
 8006e46:	bf00      	nop
 8006e48:	40013c00 	.word	0x40013c00

08006e4c <HAL_PWREx_EnableBkUpReg>:
 8006e4c:	b538      	push	{r3, r4, r5, lr}
 8006e4e:	4b0a      	ldr	r3, [pc, #40]	; (8006e78 <HAL_PWREx_EnableBkUpReg+0x2c>)
 8006e50:	4d0a      	ldr	r5, [pc, #40]	; (8006e7c <HAL_PWREx_EnableBkUpReg+0x30>)
 8006e52:	2201      	movs	r2, #1
 8006e54:	601a      	str	r2, [r3, #0]
 8006e56:	f7fe fa05 	bl	8005264 <HAL_GetTick>
 8006e5a:	4604      	mov	r4, r0
 8006e5c:	686b      	ldr	r3, [r5, #4]
 8006e5e:	071b      	lsls	r3, r3, #28
 8006e60:	d501      	bpl.n	8006e66 <HAL_PWREx_EnableBkUpReg+0x1a>
 8006e62:	2000      	movs	r0, #0
 8006e64:	bd38      	pop	{r3, r4, r5, pc}
 8006e66:	f7fe f9fd 	bl	8005264 <HAL_GetTick>
 8006e6a:	1b00      	subs	r0, r0, r4
 8006e6c:	f5b0 7f7a 	cmp.w	r0, #1000	; 0x3e8
 8006e70:	d9f4      	bls.n	8006e5c <HAL_PWREx_EnableBkUpReg+0x10>
 8006e72:	2003      	movs	r0, #3
 8006e74:	e7f6      	b.n	8006e64 <HAL_PWREx_EnableBkUpReg+0x18>
 8006e76:	bf00      	nop
 8006e78:	420e00a4 	.word	0x420e00a4
 8006e7c:	40007000 	.word	0x40007000

08006e80 <HAL_RCC_OscConfig>:
 8006e80:	e92d 41f3 	stmdb	sp!, {r0, r1, r4, r5, r6, r7, r8, lr}
 8006e84:	4604      	mov	r4, r0
 8006e86:	b340      	cbz	r0, 8006eda <HAL_RCC_OscConfig+0x5a>
 8006e88:	6803      	ldr	r3, [r0, #0]
 8006e8a:	07dd      	lsls	r5, r3, #31
 8006e8c:	d410      	bmi.n	8006eb0 <HAL_RCC_OscConfig+0x30>
 8006e8e:	6823      	ldr	r3, [r4, #0]
 8006e90:	0798      	lsls	r0, r3, #30
 8006e92:	d45b      	bmi.n	8006f4c <HAL_RCC_OscConfig+0xcc>
 8006e94:	6823      	ldr	r3, [r4, #0]
 8006e96:	071a      	lsls	r2, r3, #28
 8006e98:	f100 809d 	bmi.w	8006fd6 <HAL_RCC_OscConfig+0x156>
 8006e9c:	6823      	ldr	r3, [r4, #0]
 8006e9e:	075b      	lsls	r3, r3, #29
 8006ea0:	f100 80bb 	bmi.w	800701a <HAL_RCC_OscConfig+0x19a>
 8006ea4:	69a0      	ldr	r0, [r4, #24]
 8006ea6:	2800      	cmp	r0, #0
 8006ea8:	f040 811d 	bne.w	80070e6 <HAL_RCC_OscConfig+0x266>
 8006eac:	2000      	movs	r0, #0
 8006eae:	e02d      	b.n	8006f0c <HAL_RCC_OscConfig+0x8c>
 8006eb0:	4ba5      	ldr	r3, [pc, #660]	; (8007148 <HAL_RCC_OscConfig+0x2c8>)
 8006eb2:	689a      	ldr	r2, [r3, #8]
 8006eb4:	f002 020c 	and.w	r2, r2, #12
 8006eb8:	2a04      	cmp	r2, #4
 8006eba:	d007      	beq.n	8006ecc <HAL_RCC_OscConfig+0x4c>
 8006ebc:	689a      	ldr	r2, [r3, #8]
 8006ebe:	f002 020c 	and.w	r2, r2, #12
 8006ec2:	2a08      	cmp	r2, #8
 8006ec4:	d10b      	bne.n	8006ede <HAL_RCC_OscConfig+0x5e>
 8006ec6:	685a      	ldr	r2, [r3, #4]
 8006ec8:	0251      	lsls	r1, r2, #9
 8006eca:	d508      	bpl.n	8006ede <HAL_RCC_OscConfig+0x5e>
 8006ecc:	4b9e      	ldr	r3, [pc, #632]	; (8007148 <HAL_RCC_OscConfig+0x2c8>)
 8006ece:	681b      	ldr	r3, [r3, #0]
 8006ed0:	039a      	lsls	r2, r3, #14
 8006ed2:	d5dc      	bpl.n	8006e8e <HAL_RCC_OscConfig+0xe>
 8006ed4:	6863      	ldr	r3, [r4, #4]
 8006ed6:	2b00      	cmp	r3, #0
 8006ed8:	d1d9      	bne.n	8006e8e <HAL_RCC_OscConfig+0xe>
 8006eda:	2001      	movs	r0, #1
 8006edc:	e016      	b.n	8006f0c <HAL_RCC_OscConfig+0x8c>
 8006ede:	6862      	ldr	r2, [r4, #4]
 8006ee0:	f5b2 3f80 	cmp.w	r2, #65536	; 0x10000
 8006ee4:	d115      	bne.n	8006f12 <HAL_RCC_OscConfig+0x92>
 8006ee6:	681a      	ldr	r2, [r3, #0]
 8006ee8:	f442 3280 	orr.w	r2, r2, #65536	; 0x10000
 8006eec:	601a      	str	r2, [r3, #0]
 8006eee:	6863      	ldr	r3, [r4, #4]
 8006ef0:	b1fb      	cbz	r3, 8006f32 <HAL_RCC_OscConfig+0xb2>
 8006ef2:	f7fe f9b7 	bl	8005264 <HAL_GetTick>
 8006ef6:	4e94      	ldr	r6, [pc, #592]	; (8007148 <HAL_RCC_OscConfig+0x2c8>)
 8006ef8:	4605      	mov	r5, r0
 8006efa:	6833      	ldr	r3, [r6, #0]
 8006efc:	039b      	lsls	r3, r3, #14
 8006efe:	d4c6      	bmi.n	8006e8e <HAL_RCC_OscConfig+0xe>
 8006f00:	f7fe f9b0 	bl	8005264 <HAL_GetTick>
 8006f04:	1b40      	subs	r0, r0, r5
 8006f06:	2864      	cmp	r0, #100	; 0x64
 8006f08:	d9f7      	bls.n	8006efa <HAL_RCC_OscConfig+0x7a>
 8006f0a:	2003      	movs	r0, #3
 8006f0c:	b002      	add	sp, #8
 8006f0e:	e8bd 81f0 	ldmia.w	sp!, {r4, r5, r6, r7, r8, pc}
 8006f12:	4b8d      	ldr	r3, [pc, #564]	; (8007148 <HAL_RCC_OscConfig+0x2c8>)
 8006f14:	f5b2 2fa0 	cmp.w	r2, #327680	; 0x50000
 8006f18:	681a      	ldr	r2, [r3, #0]
 8006f1a:	d103      	bne.n	8006f24 <HAL_RCC_OscConfig+0xa4>
 8006f1c:	f442 2280 	orr.w	r2, r2, #262144	; 0x40000
 8006f20:	601a      	str	r2, [r3, #0]
 8006f22:	e7e0      	b.n	8006ee6 <HAL_RCC_OscConfig+0x66>
 8006f24:	f422 3280 	bic.w	r2, r2, #65536	; 0x10000
 8006f28:	601a      	str	r2, [r3, #0]
 8006f2a:	681a      	ldr	r2, [r3, #0]
 8006f2c:	f422 2280 	bic.w	r2, r2, #262144	; 0x40000
 8006f30:	e7dc      	b.n	8006eec <HAL_RCC_OscConfig+0x6c>
 8006f32:	f7fe f997 	bl	8005264 <HAL_GetTick>
 8006f36:	4e84      	ldr	r6, [pc, #528]	; (8007148 <HAL_RCC_OscConfig+0x2c8>)
 8006f38:	4605      	mov	r5, r0
 8006f3a:	6833      	ldr	r3, [r6, #0]
 8006f3c:	039f      	lsls	r7, r3, #14
 8006f3e:	d5a6      	bpl.n	8006e8e <HAL_RCC_OscConfig+0xe>
 8006f40:	f7fe f990 	bl	8005264 <HAL_GetTick>
 8006f44:	1b40      	subs	r0, r0, r5
 8006f46:	2864      	cmp	r0, #100	; 0x64
 8006f48:	d9f7      	bls.n	8006f3a <HAL_RCC_OscConfig+0xba>
 8006f4a:	e7de      	b.n	8006f0a <HAL_RCC_OscConfig+0x8a>
 8006f4c:	4b7e      	ldr	r3, [pc, #504]	; (8007148 <HAL_RCC_OscConfig+0x2c8>)
 8006f4e:	689a      	ldr	r2, [r3, #8]
 8006f50:	f012 0f0c 	tst.w	r2, #12
 8006f54:	d007      	beq.n	8006f66 <HAL_RCC_OscConfig+0xe6>
 8006f56:	689a      	ldr	r2, [r3, #8]
 8006f58:	f002 020c 	and.w	r2, r2, #12
 8006f5c:	2a08      	cmp	r2, #8
 8006f5e:	d111      	bne.n	8006f84 <HAL_RCC_OscConfig+0x104>
 8006f60:	685b      	ldr	r3, [r3, #4]
 8006f62:	025e      	lsls	r6, r3, #9
 8006f64:	d40e      	bmi.n	8006f84 <HAL_RCC_OscConfig+0x104>
 8006f66:	4b78      	ldr	r3, [pc, #480]	; (8007148 <HAL_RCC_OscConfig+0x2c8>)
 8006f68:	681a      	ldr	r2, [r3, #0]
 8006f6a:	0795      	lsls	r5, r2, #30
 8006f6c:	d502      	bpl.n	8006f74 <HAL_RCC_OscConfig+0xf4>
 8006f6e:	68e2      	ldr	r2, [r4, #12]
 8006f70:	2a01      	cmp	r2, #1
 8006f72:	d1b2      	bne.n	8006eda <HAL_RCC_OscConfig+0x5a>
 8006f74:	681a      	ldr	r2, [r3, #0]
 8006f76:	6921      	ldr	r1, [r4, #16]
 8006f78:	f022 02f8 	bic.w	r2, r2, #248	; 0xf8
 8006f7c:	ea42 02c1 	orr.w	r2, r2, r1, lsl #3
 8006f80:	601a      	str	r2, [r3, #0]
 8006f82:	e787      	b.n	8006e94 <HAL_RCC_OscConfig+0x14>
 8006f84:	68e2      	ldr	r2, [r4, #12]
 8006f86:	4b71      	ldr	r3, [pc, #452]	; (800714c <HAL_RCC_OscConfig+0x2cc>)
 8006f88:	b1b2      	cbz	r2, 8006fb8 <HAL_RCC_OscConfig+0x138>
 8006f8a:	2201      	movs	r2, #1
 8006f8c:	601a      	str	r2, [r3, #0]
 8006f8e:	f7fe f969 	bl	8005264 <HAL_GetTick>
 8006f92:	4d6d      	ldr	r5, [pc, #436]	; (8007148 <HAL_RCC_OscConfig+0x2c8>)
 8006f94:	4606      	mov	r6, r0
 8006f96:	682b      	ldr	r3, [r5, #0]
 8006f98:	0798      	lsls	r0, r3, #30
 8006f9a:	d507      	bpl.n	8006fac <HAL_RCC_OscConfig+0x12c>
 8006f9c:	682b      	ldr	r3, [r5, #0]
 8006f9e:	6922      	ldr	r2, [r4, #16]
 8006fa0:	f023 03f8 	bic.w	r3, r3, #248	; 0xf8
 8006fa4:	ea43 03c2 	orr.w	r3, r3, r2, lsl #3
 8006fa8:	602b      	str	r3, [r5, #0]
 8006faa:	e773      	b.n	8006e94 <HAL_RCC_OscConfig+0x14>
 8006fac:	f7fe f95a 	bl	8005264 <HAL_GetTick>
 8006fb0:	1b80      	subs	r0, r0, r6
 8006fb2:	2802      	cmp	r0, #2
 8006fb4:	d9ef      	bls.n	8006f96 <HAL_RCC_OscConfig+0x116>
 8006fb6:	e7a8      	b.n	8006f0a <HAL_RCC_OscConfig+0x8a>
 8006fb8:	601a      	str	r2, [r3, #0]
 8006fba:	f7fe f953 	bl	8005264 <HAL_GetTick>
 8006fbe:	4e62      	ldr	r6, [pc, #392]	; (8007148 <HAL_RCC_OscConfig+0x2c8>)
 8006fc0:	4605      	mov	r5, r0
 8006fc2:	6833      	ldr	r3, [r6, #0]
 8006fc4:	0799      	lsls	r1, r3, #30
 8006fc6:	f57f af65 	bpl.w	8006e94 <HAL_RCC_OscConfig+0x14>
 8006fca:	f7fe f94b 	bl	8005264 <HAL_GetTick>
 8006fce:	1b40      	subs	r0, r0, r5
 8006fd0:	2802      	cmp	r0, #2
 8006fd2:	d9f6      	bls.n	8006fc2 <HAL_RCC_OscConfig+0x142>
 8006fd4:	e799      	b.n	8006f0a <HAL_RCC_OscConfig+0x8a>
 8006fd6:	6962      	ldr	r2, [r4, #20]
 8006fd8:	4b5d      	ldr	r3, [pc, #372]	; (8007150 <HAL_RCC_OscConfig+0x2d0>)
 8006fda:	b17a      	cbz	r2, 8006ffc <HAL_RCC_OscConfig+0x17c>
 8006fdc:	2201      	movs	r2, #1
 8006fde:	601a      	str	r2, [r3, #0]
 8006fe0:	f7fe f940 	bl	8005264 <HAL_GetTick>
 8006fe4:	4e58      	ldr	r6, [pc, #352]	; (8007148 <HAL_RCC_OscConfig+0x2c8>)
 8006fe6:	4605      	mov	r5, r0
 8006fe8:	6f73      	ldr	r3, [r6, #116]	; 0x74
 8006fea:	079f      	lsls	r7, r3, #30
 8006fec:	f53f af56 	bmi.w	8006e9c <HAL_RCC_OscConfig+0x1c>
 8006ff0:	f7fe f938 	bl	8005264 <HAL_GetTick>
 8006ff4:	1b40      	subs	r0, r0, r5
 8006ff6:	2802      	cmp	r0, #2
 8006ff8:	d9f6      	bls.n	8006fe8 <HAL_RCC_OscConfig+0x168>
 8006ffa:	e786      	b.n	8006f0a <HAL_RCC_OscConfig+0x8a>
 8006ffc:	601a      	str	r2, [r3, #0]
 8006ffe:	f7fe f931 	bl	8005264 <HAL_GetTick>
 8007002:	4e51      	ldr	r6, [pc, #324]	; (8007148 <HAL_RCC_OscConfig+0x2c8>)
 8007004:	4605      	mov	r5, r0
 8007006:	6f73      	ldr	r3, [r6, #116]	; 0x74
 8007008:	0798      	lsls	r0, r3, #30
 800700a:	f57f af47 	bpl.w	8006e9c <HAL_RCC_OscConfig+0x1c>
 800700e:	f7fe f929 	bl	8005264 <HAL_GetTick>
 8007012:	1b40      	subs	r0, r0, r5
 8007014:	2802      	cmp	r0, #2
 8007016:	d9f6      	bls.n	8007006 <HAL_RCC_OscConfig+0x186>
 8007018:	e777      	b.n	8006f0a <HAL_RCC_OscConfig+0x8a>
 800701a:	4b4b      	ldr	r3, [pc, #300]	; (8007148 <HAL_RCC_OscConfig+0x2c8>)
 800701c:	6c1a      	ldr	r2, [r3, #64]	; 0x40
 800701e:	f012 5280 	ands.w	r2, r2, #268435456	; 0x10000000
 8007022:	d12b      	bne.n	800707c <HAL_RCC_OscConfig+0x1fc>
 8007024:	9201      	str	r2, [sp, #4]
 8007026:	6c1a      	ldr	r2, [r3, #64]	; 0x40
 8007028:	f042 5280 	orr.w	r2, r2, #268435456	; 0x10000000
 800702c:	641a      	str	r2, [r3, #64]	; 0x40
 800702e:	6c1b      	ldr	r3, [r3, #64]	; 0x40
 8007030:	f003 5380 	and.w	r3, r3, #268435456	; 0x10000000
 8007034:	9301      	str	r3, [sp, #4]
 8007036:	9b01      	ldr	r3, [sp, #4]
 8007038:	2601      	movs	r6, #1
 800703a:	4d46      	ldr	r5, [pc, #280]	; (8007154 <HAL_RCC_OscConfig+0x2d4>)
 800703c:	682b      	ldr	r3, [r5, #0]
 800703e:	05d9      	lsls	r1, r3, #23
 8007040:	d51e      	bpl.n	8007080 <HAL_RCC_OscConfig+0x200>
 8007042:	68a2      	ldr	r2, [r4, #8]
 8007044:	4b40      	ldr	r3, [pc, #256]	; (8007148 <HAL_RCC_OscConfig+0x2c8>)
 8007046:	2a01      	cmp	r2, #1
 8007048:	d12a      	bne.n	80070a0 <HAL_RCC_OscConfig+0x220>
 800704a:	6f1a      	ldr	r2, [r3, #112]	; 0x70
 800704c:	f042 0201 	orr.w	r2, r2, #1
 8007050:	671a      	str	r2, [r3, #112]	; 0x70
 8007052:	68a3      	ldr	r3, [r4, #8]
 8007054:	2b00      	cmp	r3, #0
 8007056:	d037      	beq.n	80070c8 <HAL_RCC_OscConfig+0x248>
 8007058:	f7fe f904 	bl	8005264 <HAL_GetTick>
 800705c:	4f3a      	ldr	r7, [pc, #232]	; (8007148 <HAL_RCC_OscConfig+0x2c8>)
 800705e:	4605      	mov	r5, r0
 8007060:	f241 3888 	movw	r8, #5000	; 0x1388
 8007064:	6f3b      	ldr	r3, [r7, #112]	; 0x70
 8007066:	079b      	lsls	r3, r3, #30
 8007068:	d528      	bpl.n	80070bc <HAL_RCC_OscConfig+0x23c>
 800706a:	2e00      	cmp	r6, #0
 800706c:	f43f af1a 	beq.w	8006ea4 <HAL_RCC_OscConfig+0x24>
 8007070:	4a35      	ldr	r2, [pc, #212]	; (8007148 <HAL_RCC_OscConfig+0x2c8>)
 8007072:	6c13      	ldr	r3, [r2, #64]	; 0x40
 8007074:	f023 5380 	bic.w	r3, r3, #268435456	; 0x10000000
 8007078:	6413      	str	r3, [r2, #64]	; 0x40
 800707a:	e713      	b.n	8006ea4 <HAL_RCC_OscConfig+0x24>
 800707c:	2600      	movs	r6, #0
 800707e:	e7dc      	b.n	800703a <HAL_RCC_OscConfig+0x1ba>
 8007080:	682b      	ldr	r3, [r5, #0]
 8007082:	f443 7380 	orr.w	r3, r3, #256	; 0x100
 8007086:	602b      	str	r3, [r5, #0]
 8007088:	f7fe f8ec 	bl	8005264 <HAL_GetTick>
 800708c:	4607      	mov	r7, r0
 800708e:	682b      	ldr	r3, [r5, #0]
 8007090:	05da      	lsls	r2, r3, #23
 8007092:	d4d6      	bmi.n	8007042 <HAL_RCC_OscConfig+0x1c2>
 8007094:	f7fe f8e6 	bl	8005264 <HAL_GetTick>
 8007098:	1bc0      	subs	r0, r0, r7
 800709a:	2802      	cmp	r0, #2
 800709c:	d9f7      	bls.n	800708e <HAL_RCC_OscConfig+0x20e>
 800709e:	e734      	b.n	8006f0a <HAL_RCC_OscConfig+0x8a>
 80070a0:	2a05      	cmp	r2, #5
 80070a2:	6f1a      	ldr	r2, [r3, #112]	; 0x70
 80070a4:	d103      	bne.n	80070ae <HAL_RCC_OscConfig+0x22e>
 80070a6:	f042 0204 	orr.w	r2, r2, #4
 80070aa:	671a      	str	r2, [r3, #112]	; 0x70
 80070ac:	e7cd      	b.n	800704a <HAL_RCC_OscConfig+0x1ca>
 80070ae:	f022 0201 	bic.w	r2, r2, #1
 80070b2:	671a      	str	r2, [r3, #112]	; 0x70
 80070b4:	6f1a      	ldr	r2, [r3, #112]	; 0x70
 80070b6:	f022 0204 	bic.w	r2, r2, #4
 80070ba:	e7c9      	b.n	8007050 <HAL_RCC_OscConfig+0x1d0>
 80070bc:	f7fe f8d2 	bl	8005264 <HAL_GetTick>
 80070c0:	1b40      	subs	r0, r0, r5
 80070c2:	4540      	cmp	r0, r8
 80070c4:	d9ce      	bls.n	8007064 <HAL_RCC_OscConfig+0x1e4>
 80070c6:	e720      	b.n	8006f0a <HAL_RCC_OscConfig+0x8a>
 80070c8:	f7fe f8cc 	bl	8005264 <HAL_GetTick>
 80070cc:	4f1e      	ldr	r7, [pc, #120]	; (8007148 <HAL_RCC_OscConfig+0x2c8>)
 80070ce:	4605      	mov	r5, r0
 80070d0:	f241 3888 	movw	r8, #5000	; 0x1388
 80070d4:	6f3b      	ldr	r3, [r7, #112]	; 0x70
 80070d6:	0798      	lsls	r0, r3, #30
 80070d8:	d5c7      	bpl.n	800706a <HAL_RCC_OscConfig+0x1ea>
 80070da:	f7fe f8c3 	bl	8005264 <HAL_GetTick>
 80070de:	1b40      	subs	r0, r0, r5
 80070e0:	4540      	cmp	r0, r8
 80070e2:	d9f7      	bls.n	80070d4 <HAL_RCC_OscConfig+0x254>
 80070e4:	e711      	b.n	8006f0a <HAL_RCC_OscConfig+0x8a>
 80070e6:	4d18      	ldr	r5, [pc, #96]	; (8007148 <HAL_RCC_OscConfig+0x2c8>)
 80070e8:	68ab      	ldr	r3, [r5, #8]
 80070ea:	f003 030c 	and.w	r3, r3, #12
 80070ee:	2b08      	cmp	r3, #8
 80070f0:	d047      	beq.n	8007182 <HAL_RCC_OscConfig+0x302>
 80070f2:	4e19      	ldr	r6, [pc, #100]	; (8007158 <HAL_RCC_OscConfig+0x2d8>)
 80070f4:	2300      	movs	r3, #0
 80070f6:	2802      	cmp	r0, #2
 80070f8:	6033      	str	r3, [r6, #0]
 80070fa:	d135      	bne.n	8007168 <HAL_RCC_OscConfig+0x2e8>
 80070fc:	f7fe f8b2 	bl	8005264 <HAL_GetTick>
 8007100:	4607      	mov	r7, r0
 8007102:	682b      	ldr	r3, [r5, #0]
 8007104:	0199      	lsls	r1, r3, #6
 8007106:	d429      	bmi.n	800715c <HAL_RCC_OscConfig+0x2dc>
 8007108:	e9d4 3207 	ldrd	r3, r2, [r4, #28]
 800710c:	4313      	orrs	r3, r2
 800710e:	6a62      	ldr	r2, [r4, #36]	; 0x24
 8007110:	ea43 1382 	orr.w	r3, r3, r2, lsl #6
 8007114:	6ae2      	ldr	r2, [r4, #44]	; 0x2c
 8007116:	ea43 6302 	orr.w	r3, r3, r2, lsl #24
 800711a:	6aa2      	ldr	r2, [r4, #40]	; 0x28
 800711c:	0852      	lsrs	r2, r2, #1
 800711e:	3a01      	subs	r2, #1
 8007120:	ea43 4302 	orr.w	r3, r3, r2, lsl #16
 8007124:	606b      	str	r3, [r5, #4]
 8007126:	2301      	movs	r3, #1
 8007128:	6033      	str	r3, [r6, #0]
 800712a:	f7fe f89b 	bl	8005264 <HAL_GetTick>
 800712e:	4d06      	ldr	r5, [pc, #24]	; (8007148 <HAL_RCC_OscConfig+0x2c8>)
 8007130:	4604      	mov	r4, r0
 8007132:	682b      	ldr	r3, [r5, #0]
 8007134:	019a      	lsls	r2, r3, #6
 8007136:	f53f aeb9 	bmi.w	8006eac <HAL_RCC_OscConfig+0x2c>
 800713a:	f7fe f893 	bl	8005264 <HAL_GetTick>
 800713e:	1b00      	subs	r0, r0, r4
 8007140:	2802      	cmp	r0, #2
 8007142:	d9f6      	bls.n	8007132 <HAL_RCC_OscConfig+0x2b2>
 8007144:	e6e1      	b.n	8006f0a <HAL_RCC_OscConfig+0x8a>
 8007146:	bf00      	nop
 8007148:	40023800 	.word	0x40023800
 800714c:	42470000 	.word	0x42470000
 8007150:	42470e80 	.word	0x42470e80
 8007154:	40007000 	.word	0x40007000
 8007158:	42470060 	.word	0x42470060
 800715c:	f7fe f882 	bl	8005264 <HAL_GetTick>
 8007160:	1bc0      	subs	r0, r0, r7
 8007162:	2802      	cmp	r0, #2
 8007164:	d9cd      	bls.n	8007102 <HAL_RCC_OscConfig+0x282>
 8007166:	e6d0      	b.n	8006f0a <HAL_RCC_OscConfig+0x8a>
 8007168:	f7fe f87c 	bl	8005264 <HAL_GetTick>
 800716c:	4604      	mov	r4, r0
 800716e:	682b      	ldr	r3, [r5, #0]
 8007170:	019b      	lsls	r3, r3, #6
 8007172:	f57f ae9b 	bpl.w	8006eac <HAL_RCC_OscConfig+0x2c>
 8007176:	f7fe f875 	bl	8005264 <HAL_GetTick>
 800717a:	1b00      	subs	r0, r0, r4
 800717c:	2802      	cmp	r0, #2
 800717e:	d9f6      	bls.n	800716e <HAL_RCC_OscConfig+0x2ee>
 8007180:	e6c3      	b.n	8006f0a <HAL_RCC_OscConfig+0x8a>
 8007182:	2801      	cmp	r0, #1
 8007184:	f43f aec2 	beq.w	8006f0c <HAL_RCC_OscConfig+0x8c>
 8007188:	686b      	ldr	r3, [r5, #4]
 800718a:	69e2      	ldr	r2, [r4, #28]
 800718c:	f403 0180 	and.w	r1, r3, #4194304	; 0x400000
 8007190:	4291      	cmp	r1, r2
 8007192:	f47f aea2 	bne.w	8006eda <HAL_RCC_OscConfig+0x5a>
 8007196:	6a21      	ldr	r1, [r4, #32]
 8007198:	f003 023f 	and.w	r2, r3, #63	; 0x3f
 800719c:	428a      	cmp	r2, r1
 800719e:	f47f ae9c 	bne.w	8006eda <HAL_RCC_OscConfig+0x5a>
 80071a2:	6a61      	ldr	r1, [r4, #36]	; 0x24
 80071a4:	f647 72c0 	movw	r2, #32704	; 0x7fc0
 80071a8:	401a      	ands	r2, r3
 80071aa:	ebb2 1f81 	cmp.w	r2, r1, lsl #6
 80071ae:	f47f ae94 	bne.w	8006eda <HAL_RCC_OscConfig+0x5a>
 80071b2:	6aa2      	ldr	r2, [r4, #40]	; 0x28
 80071b4:	0852      	lsrs	r2, r2, #1
 80071b6:	f403 3140 	and.w	r1, r3, #196608	; 0x30000
 80071ba:	3a01      	subs	r2, #1
 80071bc:	ebb1 4f02 	cmp.w	r1, r2, lsl #16
 80071c0:	f47f ae8b 	bne.w	8006eda <HAL_RCC_OscConfig+0x5a>
 80071c4:	6ae2      	ldr	r2, [r4, #44]	; 0x2c
 80071c6:	f003 6370 	and.w	r3, r3, #251658240	; 0xf000000
 80071ca:	ebb3 6f02 	cmp.w	r3, r2, lsl #24
 80071ce:	f43f ae6d 	beq.w	8006eac <HAL_RCC_OscConfig+0x2c>
 80071d2:	e682      	b.n	8006eda <HAL_RCC_OscConfig+0x5a>

080071d4 <HAL_RCC_GetSysClockFreq>:
 80071d4:	b508      	push	{r3, lr}
 80071d6:	4910      	ldr	r1, [pc, #64]	; (8007218 <HAL_RCC_GetSysClockFreq+0x44>)
 80071d8:	688b      	ldr	r3, [r1, #8]
 80071da:	f003 030c 	and.w	r3, r3, #12
 80071de:	2b08      	cmp	r3, #8
 80071e0:	d118      	bne.n	8007214 <HAL_RCC_GetSysClockFreq+0x40>
 80071e2:	684a      	ldr	r2, [r1, #4]
 80071e4:	684b      	ldr	r3, [r1, #4]
 80071e6:	6849      	ldr	r1, [r1, #4]
 80071e8:	480c      	ldr	r0, [pc, #48]	; (800721c <HAL_RCC_GetSysClockFreq+0x48>)
 80071ea:	f413 0380 	ands.w	r3, r3, #4194304	; 0x400000
 80071ee:	f3c1 1188 	ubfx	r1, r1, #6, #9
 80071f2:	bf18      	it	ne
 80071f4:	2300      	movne	r3, #0
 80071f6:	f002 023f 	and.w	r2, r2, #63	; 0x3f
 80071fa:	fba1 0100 	umull	r0, r1, r1, r0
 80071fe:	f7f9 fd53 	bl	8000ca8 <__aeabi_uldivmod>
 8007202:	4b05      	ldr	r3, [pc, #20]	; (8007218 <HAL_RCC_GetSysClockFreq+0x44>)
 8007204:	685b      	ldr	r3, [r3, #4]
 8007206:	f3c3 4301 	ubfx	r3, r3, #16, #2
 800720a:	3301      	adds	r3, #1
 800720c:	005b      	lsls	r3, r3, #1
 800720e:	fbb0 f0f3 	udiv	r0, r0, r3
 8007212:	bd08      	pop	{r3, pc}
 8007214:	4801      	ldr	r0, [pc, #4]	; (800721c <HAL_RCC_GetSysClockFreq+0x48>)
 8007216:	e7fc      	b.n	8007212 <HAL_RCC_GetSysClockFreq+0x3e>
 8007218:	40023800 	.word	0x40023800
 800721c:	00f42400 	.word	0x00f42400

08007220 <HAL_RCC_ClockConfig>:
 8007220:	e92d 41f0 	stmdb	sp!, {r4, r5, r6, r7, r8, lr}
 8007224:	460d      	mov	r5, r1
 8007226:	4604      	mov	r4, r0
 8007228:	b910      	cbnz	r0, 8007230 <HAL_RCC_ClockConfig+0x10>
 800722a:	2001      	movs	r0, #1
 800722c:	e8bd 81f0 	ldmia.w	sp!, {r4, r5, r6, r7, r8, pc}
 8007230:	4b45      	ldr	r3, [pc, #276]	; (8007348 <HAL_RCC_ClockConfig+0x128>)
 8007232:	681a      	ldr	r2, [r3, #0]
 8007234:	f002 0207 	and.w	r2, r2, #7
 8007238:	428a      	cmp	r2, r1
 800723a:	d32a      	bcc.n	8007292 <HAL_RCC_ClockConfig+0x72>
 800723c:	6823      	ldr	r3, [r4, #0]
 800723e:	079e      	lsls	r6, r3, #30
 8007240:	d42f      	bmi.n	80072a2 <HAL_RCC_ClockConfig+0x82>
 8007242:	6823      	ldr	r3, [r4, #0]
 8007244:	07d9      	lsls	r1, r3, #31
 8007246:	d443      	bmi.n	80072d0 <HAL_RCC_ClockConfig+0xb0>
 8007248:	4b3f      	ldr	r3, [pc, #252]	; (8007348 <HAL_RCC_ClockConfig+0x128>)
 800724a:	681a      	ldr	r2, [r3, #0]
 800724c:	f002 0207 	and.w	r2, r2, #7
 8007250:	42aa      	cmp	r2, r5
 8007252:	d868      	bhi.n	8007326 <HAL_RCC_ClockConfig+0x106>
 8007254:	6823      	ldr	r3, [r4, #0]
 8007256:	075a      	lsls	r2, r3, #29
 8007258:	d46e      	bmi.n	8007338 <HAL_RCC_ClockConfig+0x118>
 800725a:	6823      	ldr	r3, [r4, #0]
 800725c:	071b      	lsls	r3, r3, #28
 800725e:	d507      	bpl.n	8007270 <HAL_RCC_ClockConfig+0x50>
 8007260:	4a3a      	ldr	r2, [pc, #232]	; (800734c <HAL_RCC_ClockConfig+0x12c>)
 8007262:	6921      	ldr	r1, [r4, #16]
 8007264:	6893      	ldr	r3, [r2, #8]
 8007266:	f423 4360 	bic.w	r3, r3, #57344	; 0xe000
 800726a:	ea43 03c1 	orr.w	r3, r3, r1, lsl #3
 800726e:	6093      	str	r3, [r2, #8]
 8007270:	f7ff ffb0 	bl	80071d4 <HAL_RCC_GetSysClockFreq>
 8007274:	4b35      	ldr	r3, [pc, #212]	; (800734c <HAL_RCC_ClockConfig+0x12c>)
 8007276:	4a36      	ldr	r2, [pc, #216]	; (8007350 <HAL_RCC_ClockConfig+0x130>)
 8007278:	689b      	ldr	r3, [r3, #8]
 800727a:	f3c3 1303 	ubfx	r3, r3, #4, #4
 800727e:	5cd3      	ldrb	r3, [r2, r3]
 8007280:	40d8      	lsrs	r0, r3
 8007282:	4b34      	ldr	r3, [pc, #208]	; (8007354 <HAL_RCC_ClockConfig+0x134>)
 8007284:	6018      	str	r0, [r3, #0]
 8007286:	4b34      	ldr	r3, [pc, #208]	; (8007358 <HAL_RCC_ClockConfig+0x138>)
 8007288:	6818      	ldr	r0, [r3, #0]
 800728a:	f7fd ffa1 	bl	80051d0 <HAL_InitTick>
 800728e:	2000      	movs	r0, #0
 8007290:	e7cc      	b.n	800722c <HAL_RCC_ClockConfig+0xc>
 8007292:	b2ca      	uxtb	r2, r1
 8007294:	701a      	strb	r2, [r3, #0]
 8007296:	681b      	ldr	r3, [r3, #0]
 8007298:	f003 0307 	and.w	r3, r3, #7
 800729c:	428b      	cmp	r3, r1
 800729e:	d1c4      	bne.n	800722a <HAL_RCC_ClockConfig+0xa>
 80072a0:	e7cc      	b.n	800723c <HAL_RCC_ClockConfig+0x1c>
 80072a2:	0758      	lsls	r0, r3, #29
 80072a4:	bf41      	itttt	mi
 80072a6:	4a29      	ldrmi	r2, [pc, #164]	; (800734c <HAL_RCC_ClockConfig+0x12c>)
 80072a8:	6893      	ldrmi	r3, [r2, #8]
 80072aa:	f443 53e0 	orrmi.w	r3, r3, #7168	; 0x1c00
 80072ae:	6093      	strmi	r3, [r2, #8]
 80072b0:	6823      	ldr	r3, [r4, #0]
 80072b2:	4a26      	ldr	r2, [pc, #152]	; (800734c <HAL_RCC_ClockConfig+0x12c>)
 80072b4:	f013 0f08 	tst.w	r3, #8
 80072b8:	bf1e      	ittt	ne
 80072ba:	6893      	ldrne	r3, [r2, #8]
 80072bc:	f443 4360 	orrne.w	r3, r3, #57344	; 0xe000
 80072c0:	6093      	strne	r3, [r2, #8]
 80072c2:	6893      	ldr	r3, [r2, #8]
 80072c4:	68a1      	ldr	r1, [r4, #8]
 80072c6:	f023 03f0 	bic.w	r3, r3, #240	; 0xf0
 80072ca:	430b      	orrs	r3, r1
 80072cc:	6093      	str	r3, [r2, #8]
 80072ce:	e7b8      	b.n	8007242 <HAL_RCC_ClockConfig+0x22>
 80072d0:	6862      	ldr	r2, [r4, #4]
 80072d2:	4b1e      	ldr	r3, [pc, #120]	; (800734c <HAL_RCC_ClockConfig+0x12c>)
 80072d4:	2a01      	cmp	r2, #1
 80072d6:	d11c      	bne.n	8007312 <HAL_RCC_ClockConfig+0xf2>
 80072d8:	681b      	ldr	r3, [r3, #0]
 80072da:	f413 3f00 	tst.w	r3, #131072	; 0x20000
 80072de:	d0a4      	beq.n	800722a <HAL_RCC_ClockConfig+0xa>
 80072e0:	4e1a      	ldr	r6, [pc, #104]	; (800734c <HAL_RCC_ClockConfig+0x12c>)
 80072e2:	68b3      	ldr	r3, [r6, #8]
 80072e4:	f023 0303 	bic.w	r3, r3, #3
 80072e8:	4313      	orrs	r3, r2
 80072ea:	60b3      	str	r3, [r6, #8]
 80072ec:	f7fd ffba 	bl	8005264 <HAL_GetTick>
 80072f0:	f241 3888 	movw	r8, #5000	; 0x1388
 80072f4:	4607      	mov	r7, r0
 80072f6:	68b3      	ldr	r3, [r6, #8]
 80072f8:	6862      	ldr	r2, [r4, #4]
 80072fa:	f003 030c 	and.w	r3, r3, #12
 80072fe:	ebb3 0f82 	cmp.w	r3, r2, lsl #2
 8007302:	d0a1      	beq.n	8007248 <HAL_RCC_ClockConfig+0x28>
 8007304:	f7fd ffae 	bl	8005264 <HAL_GetTick>
 8007308:	1bc0      	subs	r0, r0, r7
 800730a:	4540      	cmp	r0, r8
 800730c:	d9f3      	bls.n	80072f6 <HAL_RCC_ClockConfig+0xd6>
 800730e:	2003      	movs	r0, #3
 8007310:	e78c      	b.n	800722c <HAL_RCC_ClockConfig+0xc>
 8007312:	1e91      	subs	r1, r2, #2
 8007314:	2901      	cmp	r1, #1
 8007316:	681b      	ldr	r3, [r3, #0]
 8007318:	d802      	bhi.n	8007320 <HAL_RCC_ClockConfig+0x100>
 800731a:	f013 7f00 	tst.w	r3, #33554432	; 0x2000000
 800731e:	e7de      	b.n	80072de <HAL_RCC_ClockConfig+0xbe>
 8007320:	f013 0f02 	tst.w	r3, #2
 8007324:	e7db      	b.n	80072de <HAL_RCC_ClockConfig+0xbe>
 8007326:	b2ea      	uxtb	r2, r5
 8007328:	701a      	strb	r2, [r3, #0]
 800732a:	681b      	ldr	r3, [r3, #0]
 800732c:	f003 0307 	and.w	r3, r3, #7
 8007330:	42ab      	cmp	r3, r5
 8007332:	f47f af7a 	bne.w	800722a <HAL_RCC_ClockConfig+0xa>
 8007336:	e78d      	b.n	8007254 <HAL_RCC_ClockConfig+0x34>
 8007338:	4a04      	ldr	r2, [pc, #16]	; (800734c <HAL_RCC_ClockConfig+0x12c>)
 800733a:	68e1      	ldr	r1, [r4, #12]
 800733c:	6893      	ldr	r3, [r2, #8]
 800733e:	f423 53e0 	bic.w	r3, r3, #7168	; 0x1c00
 8007342:	430b      	orrs	r3, r1
 8007344:	6093      	str	r3, [r2, #8]
 8007346:	e788      	b.n	800725a <HAL_RCC_ClockConfig+0x3a>
 8007348:	40023c00 	.word	0x40023c00
 800734c:	40023800 	.word	0x40023800
 8007350:	0800fab8 	.word	0x0800fab8
 8007354:	2000019c 	.word	0x2000019c
 8007358:	200001a4 	.word	0x200001a4

0800735c <HAL_RCC_GetPCLK1Freq>:
 800735c:	4b04      	ldr	r3, [pc, #16]	; (8007370 <HAL_RCC_GetPCLK1Freq+0x14>)
 800735e:	4a05      	ldr	r2, [pc, #20]	; (8007374 <HAL_RCC_GetPCLK1Freq+0x18>)
 8007360:	689b      	ldr	r3, [r3, #8]
 8007362:	f3c3 2382 	ubfx	r3, r3, #10, #3
 8007366:	5cd3      	ldrb	r3, [r2, r3]
 8007368:	4a03      	ldr	r2, [pc, #12]	; (8007378 <HAL_RCC_GetPCLK1Freq+0x1c>)
 800736a:	6810      	ldr	r0, [r2, #0]
 800736c:	40d8      	lsrs	r0, r3
 800736e:	4770      	bx	lr
 8007370:	40023800 	.word	0x40023800
 8007374:	0800fac8 	.word	0x0800fac8
 8007378:	2000019c 	.word	0x2000019c

0800737c <HAL_RCC_GetPCLK2Freq>:
 800737c:	4b04      	ldr	r3, [pc, #16]	; (8007390 <HAL_RCC_GetPCLK2Freq+0x14>)
 800737e:	4a05      	ldr	r2, [pc, #20]	; (8007394 <HAL_RCC_GetPCLK2Freq+0x18>)
 8007380:	689b      	ldr	r3, [r3, #8]
 8007382:	f3c3 3342 	ubfx	r3, r3, #13, #3
 8007386:	5cd3      	ldrb	r3, [r2, r3]
 8007388:	4a03      	ldr	r2, [pc, #12]	; (8007398 <HAL_RCC_GetPCLK2Freq+0x1c>)
 800738a:	6810      	ldr	r0, [r2, #0]
 800738c:	40d8      	lsrs	r0, r3
 800738e:	4770      	bx	lr
 8007390:	40023800 	.word	0x40023800
 8007394:	0800fac8 	.word	0x0800fac8
 8007398:	2000019c 	.word	0x2000019c

0800739c <HAL_RCCEx_PeriphCLKConfig>:
 800739c:	b5f7      	push	{r0, r1, r2, r4, r5, r6, r7, lr}
 800739e:	6803      	ldr	r3, [r0, #0]
 80073a0:	f013 0f05 	tst.w	r3, #5
 80073a4:	4604      	mov	r4, r0
 80073a6:	d105      	bne.n	80073b4 <HAL_RCCEx_PeriphCLKConfig+0x18>
 80073a8:	6820      	ldr	r0, [r4, #0]
 80073aa:	f010 0002 	ands.w	r0, r0, #2
 80073ae:	d128      	bne.n	8007402 <HAL_RCCEx_PeriphCLKConfig+0x66>
 80073b0:	b003      	add	sp, #12
 80073b2:	bdf0      	pop	{r4, r5, r6, r7, pc}
 80073b4:	4f41      	ldr	r7, [pc, #260]	; (80074bc <HAL_RCCEx_PeriphCLKConfig+0x120>)
 80073b6:	4e42      	ldr	r6, [pc, #264]	; (80074c0 <HAL_RCCEx_PeriphCLKConfig+0x124>)
 80073b8:	2300      	movs	r3, #0
 80073ba:	603b      	str	r3, [r7, #0]
 80073bc:	f7fd ff52 	bl	8005264 <HAL_GetTick>
 80073c0:	4605      	mov	r5, r0
 80073c2:	6833      	ldr	r3, [r6, #0]
 80073c4:	011b      	lsls	r3, r3, #4
 80073c6:	d415      	bmi.n	80073f4 <HAL_RCCEx_PeriphCLKConfig+0x58>
 80073c8:	e9d4 2301 	ldrd	r2, r3, [r4, #4]
 80073cc:	071b      	lsls	r3, r3, #28
 80073ce:	ea43 1382 	orr.w	r3, r3, r2, lsl #6
 80073d2:	f8c6 3084 	str.w	r3, [r6, #132]	; 0x84
 80073d6:	2301      	movs	r3, #1
 80073d8:	603b      	str	r3, [r7, #0]
 80073da:	f7fd ff43 	bl	8005264 <HAL_GetTick>
 80073de:	4e38      	ldr	r6, [pc, #224]	; (80074c0 <HAL_RCCEx_PeriphCLKConfig+0x124>)
 80073e0:	4605      	mov	r5, r0
 80073e2:	6833      	ldr	r3, [r6, #0]
 80073e4:	0118      	lsls	r0, r3, #4
 80073e6:	d4df      	bmi.n	80073a8 <HAL_RCCEx_PeriphCLKConfig+0xc>
 80073e8:	f7fd ff3c 	bl	8005264 <HAL_GetTick>
 80073ec:	1b40      	subs	r0, r0, r5
 80073ee:	2802      	cmp	r0, #2
 80073f0:	d9f7      	bls.n	80073e2 <HAL_RCCEx_PeriphCLKConfig+0x46>
 80073f2:	e004      	b.n	80073fe <HAL_RCCEx_PeriphCLKConfig+0x62>
 80073f4:	f7fd ff36 	bl	8005264 <HAL_GetTick>
 80073f8:	1b40      	subs	r0, r0, r5
 80073fa:	2802      	cmp	r0, #2
 80073fc:	d9e1      	bls.n	80073c2 <HAL_RCCEx_PeriphCLKConfig+0x26>
 80073fe:	2003      	movs	r0, #3
 8007400:	e7d6      	b.n	80073b0 <HAL_RCCEx_PeriphCLKConfig+0x14>
 8007402:	2300      	movs	r3, #0
 8007404:	9301      	str	r3, [sp, #4]
 8007406:	4b2e      	ldr	r3, [pc, #184]	; (80074c0 <HAL_RCCEx_PeriphCLKConfig+0x124>)
 8007408:	4d2e      	ldr	r5, [pc, #184]	; (80074c4 <HAL_RCCEx_PeriphCLKConfig+0x128>)
 800740a:	6c1a      	ldr	r2, [r3, #64]	; 0x40
 800740c:	f042 5280 	orr.w	r2, r2, #268435456	; 0x10000000
 8007410:	641a      	str	r2, [r3, #64]	; 0x40
 8007412:	6c1b      	ldr	r3, [r3, #64]	; 0x40
 8007414:	f003 5380 	and.w	r3, r3, #268435456	; 0x10000000
 8007418:	9301      	str	r3, [sp, #4]
 800741a:	9b01      	ldr	r3, [sp, #4]
 800741c:	682b      	ldr	r3, [r5, #0]
 800741e:	f443 7380 	orr.w	r3, r3, #256	; 0x100
 8007422:	602b      	str	r3, [r5, #0]
 8007424:	f7fd ff1e 	bl	8005264 <HAL_GetTick>
 8007428:	4606      	mov	r6, r0
 800742a:	682b      	ldr	r3, [r5, #0]
 800742c:	05d9      	lsls	r1, r3, #23
 800742e:	d51c      	bpl.n	800746a <HAL_RCCEx_PeriphCLKConfig+0xce>
 8007430:	4d23      	ldr	r5, [pc, #140]	; (80074c0 <HAL_RCCEx_PeriphCLKConfig+0x124>)
 8007432:	6f2b      	ldr	r3, [r5, #112]	; 0x70
 8007434:	f413 7340 	ands.w	r3, r3, #768	; 0x300
 8007438:	d11d      	bne.n	8007476 <HAL_RCCEx_PeriphCLKConfig+0xda>
 800743a:	68e2      	ldr	r2, [r4, #12]
 800743c:	f402 7340 	and.w	r3, r2, #768	; 0x300
 8007440:	f5b3 7f40 	cmp.w	r3, #768	; 0x300
 8007444:	4b1e      	ldr	r3, [pc, #120]	; (80074c0 <HAL_RCCEx_PeriphCLKConfig+0x124>)
 8007446:	d135      	bne.n	80074b4 <HAL_RCCEx_PeriphCLKConfig+0x118>
 8007448:	6899      	ldr	r1, [r3, #8]
 800744a:	f022 4270 	bic.w	r2, r2, #4026531840	; 0xf0000000
 800744e:	f421 11f8 	bic.w	r1, r1, #2031616	; 0x1f0000
 8007452:	f422 7240 	bic.w	r2, r2, #768	; 0x300
 8007456:	430a      	orrs	r2, r1
 8007458:	609a      	str	r2, [r3, #8]
 800745a:	68e2      	ldr	r2, [r4, #12]
 800745c:	6f19      	ldr	r1, [r3, #112]	; 0x70
 800745e:	f3c2 020b 	ubfx	r2, r2, #0, #12
 8007462:	430a      	orrs	r2, r1
 8007464:	671a      	str	r2, [r3, #112]	; 0x70
 8007466:	2000      	movs	r0, #0
 8007468:	e7a2      	b.n	80073b0 <HAL_RCCEx_PeriphCLKConfig+0x14>
 800746a:	f7fd fefb 	bl	8005264 <HAL_GetTick>
 800746e:	1b80      	subs	r0, r0, r6
 8007470:	2802      	cmp	r0, #2
 8007472:	d9da      	bls.n	800742a <HAL_RCCEx_PeriphCLKConfig+0x8e>
 8007474:	e7c3      	b.n	80073fe <HAL_RCCEx_PeriphCLKConfig+0x62>
 8007476:	68e2      	ldr	r2, [r4, #12]
 8007478:	f402 7240 	and.w	r2, r2, #768	; 0x300
 800747c:	4293      	cmp	r3, r2
 800747e:	d0dc      	beq.n	800743a <HAL_RCCEx_PeriphCLKConfig+0x9e>
 8007480:	6f2b      	ldr	r3, [r5, #112]	; 0x70
 8007482:	4a11      	ldr	r2, [pc, #68]	; (80074c8 <HAL_RCCEx_PeriphCLKConfig+0x12c>)
 8007484:	2101      	movs	r1, #1
 8007486:	6011      	str	r1, [r2, #0]
 8007488:	f423 7340 	bic.w	r3, r3, #768	; 0x300
 800748c:	2100      	movs	r1, #0
 800748e:	6011      	str	r1, [r2, #0]
 8007490:	672b      	str	r3, [r5, #112]	; 0x70
 8007492:	6f2b      	ldr	r3, [r5, #112]	; 0x70
 8007494:	07da      	lsls	r2, r3, #31
 8007496:	d5d0      	bpl.n	800743a <HAL_RCCEx_PeriphCLKConfig+0x9e>
 8007498:	f7fd fee4 	bl	8005264 <HAL_GetTick>
 800749c:	f241 3788 	movw	r7, #5000	; 0x1388
 80074a0:	4606      	mov	r6, r0
 80074a2:	6f2b      	ldr	r3, [r5, #112]	; 0x70
 80074a4:	079b      	lsls	r3, r3, #30
 80074a6:	d4c8      	bmi.n	800743a <HAL_RCCEx_PeriphCLKConfig+0x9e>
 80074a8:	f7fd fedc 	bl	8005264 <HAL_GetTick>
 80074ac:	1b80      	subs	r0, r0, r6
 80074ae:	42b8      	cmp	r0, r7
 80074b0:	d9f7      	bls.n	80074a2 <HAL_RCCEx_PeriphCLKConfig+0x106>
 80074b2:	e7a4      	b.n	80073fe <HAL_RCCEx_PeriphCLKConfig+0x62>
 80074b4:	689a      	ldr	r2, [r3, #8]
 80074b6:	f422 12f8 	bic.w	r2, r2, #2031616	; 0x1f0000
 80074ba:	e7cd      	b.n	8007458 <HAL_RCCEx_PeriphCLKConfig+0xbc>
 80074bc:	42470068 	.word	0x42470068
 80074c0:	40023800 	.word	0x40023800
 80074c4:	40007000 	.word	0x40007000
 80074c8:	42470e40 	.word	0x42470e40

080074cc <HAL_RNG_Init>:
 80074cc:	b510      	push	{r4, lr}
 80074ce:	4604      	mov	r4, r0
 80074d0:	b190      	cbz	r0, 80074f8 <HAL_RNG_Init+0x2c>
 80074d2:	7943      	ldrb	r3, [r0, #5]
 80074d4:	f003 02ff 	and.w	r2, r3, #255	; 0xff
 80074d8:	b913      	cbnz	r3, 80074e0 <HAL_RNG_Init+0x14>
 80074da:	7102      	strb	r2, [r0, #4]
 80074dc:	f7fd fbfe 	bl	8004cdc <HAL_RNG_MspInit>
 80074e0:	6822      	ldr	r2, [r4, #0]
 80074e2:	2302      	movs	r3, #2
 80074e4:	7163      	strb	r3, [r4, #5]
 80074e6:	6813      	ldr	r3, [r2, #0]
 80074e8:	f043 0304 	orr.w	r3, r3, #4
 80074ec:	6013      	str	r3, [r2, #0]
 80074ee:	2000      	movs	r0, #0
 80074f0:	2301      	movs	r3, #1
 80074f2:	7163      	strb	r3, [r4, #5]
 80074f4:	60a0      	str	r0, [r4, #8]
 80074f6:	bd10      	pop	{r4, pc}
 80074f8:	2001      	movs	r0, #1
 80074fa:	e7fc      	b.n	80074f6 <HAL_RNG_Init+0x2a>

080074fc <HAL_RNG_GenerateRandomNumber>:
 80074fc:	e92d 41f0 	stmdb	sp!, {r4, r5, r6, r7, r8, lr}
 8007500:	7903      	ldrb	r3, [r0, #4]
 8007502:	2b01      	cmp	r3, #1
 8007504:	4604      	mov	r4, r0
 8007506:	460f      	mov	r7, r1
 8007508:	d02a      	beq.n	8007560 <HAL_RNG_GenerateRandomNumber+0x64>
 800750a:	7942      	ldrb	r2, [r0, #5]
 800750c:	2301      	movs	r3, #1
 800750e:	429a      	cmp	r2, r3
 8007510:	7103      	strb	r3, [r0, #4]
 8007512:	b2d5      	uxtb	r5, r2
 8007514:	d120      	bne.n	8007558 <HAL_RNG_GenerateRandomNumber+0x5c>
 8007516:	2302      	movs	r3, #2
 8007518:	7143      	strb	r3, [r0, #5]
 800751a:	f7fd fea3 	bl	8005264 <HAL_GetTick>
 800751e:	4680      	mov	r8, r0
 8007520:	6822      	ldr	r2, [r4, #0]
 8007522:	6856      	ldr	r6, [r2, #4]
 8007524:	f016 0601 	ands.w	r6, r6, #1
 8007528:	d008      	beq.n	800753c <HAL_RNG_GenerateRandomNumber+0x40>
 800752a:	6893      	ldr	r3, [r2, #8]
 800752c:	60e3      	str	r3, [r4, #12]
 800752e:	603b      	str	r3, [r7, #0]
 8007530:	2301      	movs	r3, #1
 8007532:	7163      	strb	r3, [r4, #5]
 8007534:	2500      	movs	r5, #0
 8007536:	2300      	movs	r3, #0
 8007538:	7123      	strb	r3, [r4, #4]
 800753a:	e00a      	b.n	8007552 <HAL_RNG_GenerateRandomNumber+0x56>
 800753c:	f7fd fe92 	bl	8005264 <HAL_GetTick>
 8007540:	eba0 0008 	sub.w	r0, r0, r8
 8007544:	2802      	cmp	r0, #2
 8007546:	d9eb      	bls.n	8007520 <HAL_RNG_GenerateRandomNumber+0x24>
 8007548:	2301      	movs	r3, #1
 800754a:	7163      	strb	r3, [r4, #5]
 800754c:	2302      	movs	r3, #2
 800754e:	60a3      	str	r3, [r4, #8]
 8007550:	7126      	strb	r6, [r4, #4]
 8007552:	4628      	mov	r0, r5
 8007554:	e8bd 81f0 	ldmia.w	sp!, {r4, r5, r6, r7, r8, pc}
 8007558:	2204      	movs	r2, #4
 800755a:	6082      	str	r2, [r0, #8]
 800755c:	461d      	mov	r5, r3
 800755e:	e7ea      	b.n	8007536 <HAL_RNG_GenerateRandomNumber+0x3a>
 8007560:	2502      	movs	r5, #2
 8007562:	e7f6      	b.n	8007552 <HAL_RNG_GenerateRandomNumber+0x56>

08007564 <HAL_RNG_GetRandomNumber>:
 8007564:	b510      	push	{r4, lr}
 8007566:	f100 010c 	add.w	r1, r0, #12
 800756a:	4604      	mov	r4, r0
 800756c:	f7ff ffc6 	bl	80074fc <HAL_RNG_GenerateRandomNumber>
 8007570:	b908      	cbnz	r0, 8007576 <HAL_RNG_GetRandomNumber+0x12>
 8007572:	68e0      	ldr	r0, [r4, #12]
 8007574:	bd10      	pop	{r4, pc}
 8007576:	2000      	movs	r0, #0
 8007578:	e7fc      	b.n	8007574 <HAL_RNG_GetRandomNumber+0x10>

0800757a <HAL_RNG_ReadyDataCallback>:
 800757a:	4770      	bx	lr

0800757c <HAL_RNG_ErrorCallback>:
 800757c:	4770      	bx	lr

0800757e <HAL_RNG_IRQHandler>:
 800757e:	b510      	push	{r4, lr}
 8007580:	6803      	ldr	r3, [r0, #0]
 8007582:	685a      	ldr	r2, [r3, #4]
 8007584:	4604      	mov	r4, r0
 8007586:	0690      	lsls	r0, r2, #26
 8007588:	d520      	bpl.n	80075cc <HAL_RNG_IRQHandler+0x4e>
 800758a:	2310      	movs	r3, #16
 800758c:	60a3      	str	r3, [r4, #8]
 800758e:	2304      	movs	r3, #4
 8007590:	7163      	strb	r3, [r4, #5]
 8007592:	4620      	mov	r0, r4
 8007594:	f7ff fff2 	bl	800757c <HAL_RNG_ErrorCallback>
 8007598:	6823      	ldr	r3, [r4, #0]
 800759a:	f06f 0260 	mvn.w	r2, #96	; 0x60
 800759e:	605a      	str	r2, [r3, #4]
 80075a0:	6823      	ldr	r3, [r4, #0]
 80075a2:	685a      	ldr	r2, [r3, #4]
 80075a4:	07d2      	lsls	r2, r2, #31
 80075a6:	d510      	bpl.n	80075ca <HAL_RNG_IRQHandler+0x4c>
 80075a8:	681a      	ldr	r2, [r3, #0]
 80075aa:	f022 0208 	bic.w	r2, r2, #8
 80075ae:	601a      	str	r2, [r3, #0]
 80075b0:	6823      	ldr	r3, [r4, #0]
 80075b2:	6899      	ldr	r1, [r3, #8]
 80075b4:	7963      	ldrb	r3, [r4, #5]
 80075b6:	60e1      	str	r1, [r4, #12]
 80075b8:	2b04      	cmp	r3, #4
 80075ba:	d006      	beq.n	80075ca <HAL_RNG_IRQHandler+0x4c>
 80075bc:	2301      	movs	r3, #1
 80075be:	7163      	strb	r3, [r4, #5]
 80075c0:	2300      	movs	r3, #0
 80075c2:	7123      	strb	r3, [r4, #4]
 80075c4:	4620      	mov	r0, r4
 80075c6:	f7ff ffd8 	bl	800757a <HAL_RNG_ReadyDataCallback>
 80075ca:	bd10      	pop	{r4, pc}
 80075cc:	685b      	ldr	r3, [r3, #4]
 80075ce:	0659      	lsls	r1, r3, #25
 80075d0:	d5e6      	bpl.n	80075a0 <HAL_RNG_IRQHandler+0x22>
 80075d2:	2308      	movs	r3, #8
 80075d4:	e7da      	b.n	800758c <HAL_RNG_IRQHandler+0xe>

080075d6 <HAL_RTC_WaitForSynchro>:
 80075d6:	b538      	push	{r3, r4, r5, lr}
 80075d8:	6802      	ldr	r2, [r0, #0]
 80075da:	68d3      	ldr	r3, [r2, #12]
 80075dc:	f023 03a0 	bic.w	r3, r3, #160	; 0xa0
 80075e0:	60d3      	str	r3, [r2, #12]
 80075e2:	4604      	mov	r4, r0
 80075e4:	f7fd fe3e 	bl	8005264 <HAL_GetTick>
 80075e8:	4605      	mov	r5, r0
 80075ea:	6823      	ldr	r3, [r4, #0]
 80075ec:	68db      	ldr	r3, [r3, #12]
 80075ee:	069b      	lsls	r3, r3, #26
 80075f0:	d501      	bpl.n	80075f6 <HAL_RTC_WaitForSynchro+0x20>
 80075f2:	2000      	movs	r0, #0
 80075f4:	bd38      	pop	{r3, r4, r5, pc}
 80075f6:	f7fd fe35 	bl	8005264 <HAL_GetTick>
 80075fa:	1b40      	subs	r0, r0, r5
 80075fc:	f5b0 7f7a 	cmp.w	r0, #1000	; 0x3e8
 8007600:	d9f3      	bls.n	80075ea <HAL_RTC_WaitForSynchro+0x14>
 8007602:	2003      	movs	r0, #3
 8007604:	e7f6      	b.n	80075f4 <HAL_RTC_WaitForSynchro+0x1e>

08007606 <RTC_EnterInitMode>:
 8007606:	b538      	push	{r3, r4, r5, lr}
 8007608:	6803      	ldr	r3, [r0, #0]
 800760a:	68da      	ldr	r2, [r3, #12]
 800760c:	0652      	lsls	r2, r2, #25
 800760e:	4604      	mov	r4, r0
 8007610:	d501      	bpl.n	8007616 <RTC_EnterInitMode+0x10>
 8007612:	2000      	movs	r0, #0
 8007614:	bd38      	pop	{r3, r4, r5, pc}
 8007616:	f04f 32ff 	mov.w	r2, #4294967295
 800761a:	60da      	str	r2, [r3, #12]
 800761c:	f7fd fe22 	bl	8005264 <HAL_GetTick>
 8007620:	4605      	mov	r5, r0
 8007622:	6823      	ldr	r3, [r4, #0]
 8007624:	68db      	ldr	r3, [r3, #12]
 8007626:	065b      	lsls	r3, r3, #25
 8007628:	d4f3      	bmi.n	8007612 <RTC_EnterInitMode+0xc>
 800762a:	f7fd fe1b 	bl	8005264 <HAL_GetTick>
 800762e:	1b40      	subs	r0, r0, r5
 8007630:	f5b0 7f7a 	cmp.w	r0, #1000	; 0x3e8
 8007634:	d9f5      	bls.n	8007622 <RTC_EnterInitMode+0x1c>
 8007636:	2003      	movs	r0, #3
 8007638:	e7ec      	b.n	8007614 <RTC_EnterInitMode+0xe>

0800763a <HAL_RTC_Init>:
 800763a:	b538      	push	{r3, r4, r5, lr}
 800763c:	4604      	mov	r4, r0
 800763e:	b1c0      	cbz	r0, 8007672 <HAL_RTC_Init+0x38>
 8007640:	7f43      	ldrb	r3, [r0, #29]
 8007642:	f003 02ff 	and.w	r2, r3, #255	; 0xff
 8007646:	b913      	cbnz	r3, 800764e <HAL_RTC_Init+0x14>
 8007648:	7702      	strb	r2, [r0, #28]
 800764a:	f7fd fb69 	bl	8004d20 <HAL_RTC_MspInit>
 800764e:	2302      	movs	r3, #2
 8007650:	7763      	strb	r3, [r4, #29]
 8007652:	6823      	ldr	r3, [r4, #0]
 8007654:	22ca      	movs	r2, #202	; 0xca
 8007656:	625a      	str	r2, [r3, #36]	; 0x24
 8007658:	6823      	ldr	r3, [r4, #0]
 800765a:	2253      	movs	r2, #83	; 0x53
 800765c:	625a      	str	r2, [r3, #36]	; 0x24
 800765e:	4620      	mov	r0, r4
 8007660:	f7ff ffd1 	bl	8007606 <RTC_EnterInitMode>
 8007664:	6822      	ldr	r2, [r4, #0]
 8007666:	4605      	mov	r5, r0
 8007668:	b128      	cbz	r0, 8007676 <HAL_RTC_Init+0x3c>
 800766a:	23ff      	movs	r3, #255	; 0xff
 800766c:	6253      	str	r3, [r2, #36]	; 0x24
 800766e:	2304      	movs	r3, #4
 8007670:	7763      	strb	r3, [r4, #29]
 8007672:	2501      	movs	r5, #1
 8007674:	e037      	b.n	80076e6 <HAL_RTC_Init+0xac>
 8007676:	6893      	ldr	r3, [r2, #8]
 8007678:	f423 03e0 	bic.w	r3, r3, #7340032	; 0x700000
 800767c:	f023 0340 	bic.w	r3, r3, #64	; 0x40
 8007680:	6093      	str	r3, [r2, #8]
 8007682:	6920      	ldr	r0, [r4, #16]
 8007684:	6863      	ldr	r3, [r4, #4]
 8007686:	6822      	ldr	r2, [r4, #0]
 8007688:	4303      	orrs	r3, r0
 800768a:	6960      	ldr	r0, [r4, #20]
 800768c:	6891      	ldr	r1, [r2, #8]
 800768e:	4303      	orrs	r3, r0
 8007690:	430b      	orrs	r3, r1
 8007692:	6093      	str	r3, [r2, #8]
 8007694:	6823      	ldr	r3, [r4, #0]
 8007696:	68e2      	ldr	r2, [r4, #12]
 8007698:	611a      	str	r2, [r3, #16]
 800769a:	6822      	ldr	r2, [r4, #0]
 800769c:	68a1      	ldr	r1, [r4, #8]
 800769e:	6913      	ldr	r3, [r2, #16]
 80076a0:	ea43 4301 	orr.w	r3, r3, r1, lsl #16
 80076a4:	6113      	str	r3, [r2, #16]
 80076a6:	6822      	ldr	r2, [r4, #0]
 80076a8:	68d3      	ldr	r3, [r2, #12]
 80076aa:	f023 0380 	bic.w	r3, r3, #128	; 0x80
 80076ae:	60d3      	str	r3, [r2, #12]
 80076b0:	6823      	ldr	r3, [r4, #0]
 80076b2:	689b      	ldr	r3, [r3, #8]
 80076b4:	069b      	lsls	r3, r3, #26
 80076b6:	d407      	bmi.n	80076c8 <HAL_RTC_Init+0x8e>
 80076b8:	4620      	mov	r0, r4
 80076ba:	f7ff ff8c 	bl	80075d6 <HAL_RTC_WaitForSynchro>
 80076be:	b118      	cbz	r0, 80076c8 <HAL_RTC_Init+0x8e>
 80076c0:	6823      	ldr	r3, [r4, #0]
 80076c2:	22ff      	movs	r2, #255	; 0xff
 80076c4:	625a      	str	r2, [r3, #36]	; 0x24
 80076c6:	e7d2      	b.n	800766e <HAL_RTC_Init+0x34>
 80076c8:	6822      	ldr	r2, [r4, #0]
 80076ca:	6c13      	ldr	r3, [r2, #64]	; 0x40
 80076cc:	f423 2380 	bic.w	r3, r3, #262144	; 0x40000
 80076d0:	6413      	str	r3, [r2, #64]	; 0x40
 80076d2:	6822      	ldr	r2, [r4, #0]
 80076d4:	69a1      	ldr	r1, [r4, #24]
 80076d6:	6c13      	ldr	r3, [r2, #64]	; 0x40
 80076d8:	430b      	orrs	r3, r1
 80076da:	6413      	str	r3, [r2, #64]	; 0x40
 80076dc:	6823      	ldr	r3, [r4, #0]
 80076de:	22ff      	movs	r2, #255	; 0xff
 80076e0:	625a      	str	r2, [r3, #36]	; 0x24
 80076e2:	2301      	movs	r3, #1
 80076e4:	7763      	strb	r3, [r4, #29]
 80076e6:	4628      	mov	r0, r5
 80076e8:	bd38      	pop	{r3, r4, r5, pc}

080076ea <RTC_ByteToBcd2>:
 80076ea:	2300      	movs	r3, #0
 80076ec:	2809      	cmp	r0, #9
 80076ee:	d803      	bhi.n	80076f8 <RTC_ByteToBcd2+0xe>
 80076f0:	ea40 1003 	orr.w	r0, r0, r3, lsl #4
 80076f4:	b2c0      	uxtb	r0, r0
 80076f6:	4770      	bx	lr
 80076f8:	380a      	subs	r0, #10
 80076fa:	3301      	adds	r3, #1
 80076fc:	b2c0      	uxtb	r0, r0
 80076fe:	e7f5      	b.n	80076ec <RTC_ByteToBcd2+0x2>

08007700 <HAL_RTC_SetTime>:
 8007700:	e92d 41f0 	stmdb	sp!, {r4, r5, r6, r7, r8, lr}
 8007704:	7f03      	ldrb	r3, [r0, #28]
 8007706:	2b01      	cmp	r3, #1
 8007708:	4604      	mov	r4, r0
 800770a:	460e      	mov	r6, r1
 800770c:	f04f 0702 	mov.w	r7, #2
 8007710:	d030      	beq.n	8007774 <HAL_RTC_SetTime+0x74>
 8007712:	2301      	movs	r3, #1
 8007714:	7703      	strb	r3, [r0, #28]
 8007716:	7747      	strb	r7, [r0, #29]
 8007718:	6803      	ldr	r3, [r0, #0]
 800771a:	784d      	ldrb	r5, [r1, #1]
 800771c:	7808      	ldrb	r0, [r1, #0]
 800771e:	788f      	ldrb	r7, [r1, #2]
 8007720:	bb5a      	cbnz	r2, 800777a <HAL_RTC_SetTime+0x7a>
 8007722:	689a      	ldr	r2, [r3, #8]
 8007724:	f012 0240 	ands.w	r2, r2, #64	; 0x40
 8007728:	bf08      	it	eq
 800772a:	70ca      	strbeq	r2, [r1, #3]
 800772c:	f7ff ffdd 	bl	80076ea <RTC_ByteToBcd2>
 8007730:	4680      	mov	r8, r0
 8007732:	4628      	mov	r0, r5
 8007734:	f7ff ffd9 	bl	80076ea <RTC_ByteToBcd2>
 8007738:	4605      	mov	r5, r0
 800773a:	4638      	mov	r0, r7
 800773c:	f7ff ffd5 	bl	80076ea <RTC_ByteToBcd2>
 8007740:	78cb      	ldrb	r3, [r1, #3]
 8007742:	ea40 4203 	orr.w	r2, r0, r3, lsl #16
 8007746:	ea42 4308 	orr.w	r3, r2, r8, lsl #16
 800774a:	ea43 2505 	orr.w	r5, r3, r5, lsl #8
 800774e:	6823      	ldr	r3, [r4, #0]
 8007750:	22ca      	movs	r2, #202	; 0xca
 8007752:	625a      	str	r2, [r3, #36]	; 0x24
 8007754:	6823      	ldr	r3, [r4, #0]
 8007756:	2253      	movs	r2, #83	; 0x53
 8007758:	625a      	str	r2, [r3, #36]	; 0x24
 800775a:	4620      	mov	r0, r4
 800775c:	f7ff ff53 	bl	8007606 <RTC_EnterInitMode>
 8007760:	6822      	ldr	r2, [r4, #0]
 8007762:	4607      	mov	r7, r0
 8007764:	b1b0      	cbz	r0, 8007794 <HAL_RTC_SetTime+0x94>
 8007766:	23ff      	movs	r3, #255	; 0xff
 8007768:	6253      	str	r3, [r2, #36]	; 0x24
 800776a:	2304      	movs	r3, #4
 800776c:	7763      	strb	r3, [r4, #29]
 800776e:	2300      	movs	r3, #0
 8007770:	7723      	strb	r3, [r4, #28]
 8007772:	2701      	movs	r7, #1
 8007774:	4638      	mov	r0, r7
 8007776:	e8bd 81f0 	ldmia.w	sp!, {r4, r5, r6, r7, r8, pc}
 800777a:	689a      	ldr	r2, [r3, #8]
 800777c:	f012 0240 	ands.w	r2, r2, #64	; 0x40
 8007780:	bf08      	it	eq
 8007782:	70ca      	strbeq	r2, [r1, #3]
 8007784:	022d      	lsls	r5, r5, #8
 8007786:	78cb      	ldrb	r3, [r1, #3]
 8007788:	ea45 4500 	orr.w	r5, r5, r0, lsl #16
 800778c:	433d      	orrs	r5, r7
 800778e:	ea45 4503 	orr.w	r5, r5, r3, lsl #16
 8007792:	e7dc      	b.n	800774e <HAL_RTC_SetTime+0x4e>
 8007794:	f005 357f 	and.w	r5, r5, #2139062143	; 0x7f7f7f7f
 8007798:	f025 45fe 	bic.w	r5, r5, #2130706432	; 0x7f000000
 800779c:	6015      	str	r5, [r2, #0]
 800779e:	6822      	ldr	r2, [r4, #0]
 80077a0:	6893      	ldr	r3, [r2, #8]
 80077a2:	f423 2380 	bic.w	r3, r3, #262144	; 0x40000
 80077a6:	6093      	str	r3, [r2, #8]
 80077a8:	6822      	ldr	r2, [r4, #0]
 80077aa:	e9d6 3003 	ldrd	r3, r0, [r6, #12]
 80077ae:	6891      	ldr	r1, [r2, #8]
 80077b0:	4303      	orrs	r3, r0
 80077b2:	430b      	orrs	r3, r1
 80077b4:	6093      	str	r3, [r2, #8]
 80077b6:	6822      	ldr	r2, [r4, #0]
 80077b8:	68d3      	ldr	r3, [r2, #12]
 80077ba:	f023 0380 	bic.w	r3, r3, #128	; 0x80
 80077be:	60d3      	str	r3, [r2, #12]
 80077c0:	6823      	ldr	r3, [r4, #0]
 80077c2:	689b      	ldr	r3, [r3, #8]
 80077c4:	069b      	lsls	r3, r3, #26
 80077c6:	d40a      	bmi.n	80077de <HAL_RTC_SetTime+0xde>
 80077c8:	4620      	mov	r0, r4
 80077ca:	f7ff ff04 	bl	80075d6 <HAL_RTC_WaitForSynchro>
 80077ce:	b130      	cbz	r0, 80077de <HAL_RTC_SetTime+0xde>
 80077d0:	6823      	ldr	r3, [r4, #0]
 80077d2:	22ff      	movs	r2, #255	; 0xff
 80077d4:	625a      	str	r2, [r3, #36]	; 0x24
 80077d6:	2304      	movs	r3, #4
 80077d8:	7763      	strb	r3, [r4, #29]
 80077da:	7727      	strb	r7, [r4, #28]
 80077dc:	e7c9      	b.n	8007772 <HAL_RTC_SetTime+0x72>
 80077de:	6823      	ldr	r3, [r4, #0]
 80077e0:	22ff      	movs	r2, #255	; 0xff
 80077e2:	625a      	str	r2, [r3, #36]	; 0x24
 80077e4:	2301      	movs	r3, #1
 80077e6:	7763      	strb	r3, [r4, #29]
 80077e8:	2300      	movs	r3, #0
 80077ea:	7723      	strb	r3, [r4, #28]
 80077ec:	e7c2      	b.n	8007774 <HAL_RTC_SetTime+0x74>

080077ee <HAL_RTC_SetDate>:
 80077ee:	e92d 41e8 	stmdb	sp!, {r3, r5, r6, r7, r8, lr}
 80077f2:	7f03      	ldrb	r3, [r0, #28]
 80077f4:	2b01      	cmp	r3, #1
 80077f6:	4605      	mov	r5, r0
 80077f8:	f04f 0602 	mov.w	r6, #2
 80077fc:	d032      	beq.n	8007864 <HAL_RTC_SetDate+0x76>
 80077fe:	2301      	movs	r3, #1
 8007800:	7703      	strb	r3, [r0, #28]
 8007802:	7746      	strb	r6, [r0, #29]
 8007804:	784b      	ldrb	r3, [r1, #1]
 8007806:	78c8      	ldrb	r0, [r1, #3]
 8007808:	f891 8002 	ldrb.w	r8, [r1, #2]
 800780c:	780f      	ldrb	r7, [r1, #0]
 800780e:	2a00      	cmp	r2, #0
 8007810:	d14c      	bne.n	80078ac <HAL_RTC_SetDate+0xbe>
 8007812:	06da      	lsls	r2, r3, #27
 8007814:	d503      	bpl.n	800781e <HAL_RTC_SetDate+0x30>
 8007816:	f023 0210 	bic.w	r2, r3, #16
 800781a:	320a      	adds	r2, #10
 800781c:	704a      	strb	r2, [r1, #1]
 800781e:	f7ff ff64 	bl	80076ea <RTC_ByteToBcd2>
 8007822:	4602      	mov	r2, r0
 8007824:	7848      	ldrb	r0, [r1, #1]
 8007826:	f7ff ff60 	bl	80076ea <RTC_ByteToBcd2>
 800782a:	4606      	mov	r6, r0
 800782c:	4640      	mov	r0, r8
 800782e:	f7ff ff5c 	bl	80076ea <RTC_ByteToBcd2>
 8007832:	ea40 3147 	orr.w	r1, r0, r7, lsl #13
 8007836:	ea41 4202 	orr.w	r2, r1, r2, lsl #16
 800783a:	ea42 2706 	orr.w	r7, r2, r6, lsl #8
 800783e:	682b      	ldr	r3, [r5, #0]
 8007840:	22ca      	movs	r2, #202	; 0xca
 8007842:	625a      	str	r2, [r3, #36]	; 0x24
 8007844:	682b      	ldr	r3, [r5, #0]
 8007846:	2253      	movs	r2, #83	; 0x53
 8007848:	625a      	str	r2, [r3, #36]	; 0x24
 800784a:	4628      	mov	r0, r5
 800784c:	f7ff fedb 	bl	8007606 <RTC_EnterInitMode>
 8007850:	682a      	ldr	r2, [r5, #0]
 8007852:	4606      	mov	r6, r0
 8007854:	b148      	cbz	r0, 800786a <HAL_RTC_SetDate+0x7c>
 8007856:	23ff      	movs	r3, #255	; 0xff
 8007858:	6253      	str	r3, [r2, #36]	; 0x24
 800785a:	2304      	movs	r3, #4
 800785c:	776b      	strb	r3, [r5, #29]
 800785e:	2300      	movs	r3, #0
 8007860:	772b      	strb	r3, [r5, #28]
 8007862:	2601      	movs	r6, #1
 8007864:	4630      	mov	r0, r6
 8007866:	e8bd 81e8 	ldmia.w	sp!, {r3, r5, r6, r7, r8, pc}
 800786a:	f027 477f 	bic.w	r7, r7, #4278190080	; 0xff000000
 800786e:	f027 07c0 	bic.w	r7, r7, #192	; 0xc0
 8007872:	6057      	str	r7, [r2, #4]
 8007874:	682a      	ldr	r2, [r5, #0]
 8007876:	68d3      	ldr	r3, [r2, #12]
 8007878:	f023 0380 	bic.w	r3, r3, #128	; 0x80
 800787c:	60d3      	str	r3, [r2, #12]
 800787e:	682b      	ldr	r3, [r5, #0]
 8007880:	689b      	ldr	r3, [r3, #8]
 8007882:	069b      	lsls	r3, r3, #26
 8007884:	d40a      	bmi.n	800789c <HAL_RTC_SetDate+0xae>
 8007886:	4628      	mov	r0, r5
 8007888:	f7ff fea5 	bl	80075d6 <HAL_RTC_WaitForSynchro>
 800788c:	b130      	cbz	r0, 800789c <HAL_RTC_SetDate+0xae>
 800788e:	682b      	ldr	r3, [r5, #0]
 8007890:	22ff      	movs	r2, #255	; 0xff
 8007892:	625a      	str	r2, [r3, #36]	; 0x24
 8007894:	2304      	movs	r3, #4
 8007896:	776b      	strb	r3, [r5, #29]
 8007898:	772e      	strb	r6, [r5, #28]
 800789a:	e7e2      	b.n	8007862 <HAL_RTC_SetDate+0x74>
 800789c:	682b      	ldr	r3, [r5, #0]
 800789e:	22ff      	movs	r2, #255	; 0xff
 80078a0:	625a      	str	r2, [r3, #36]	; 0x24
 80078a2:	2301      	movs	r3, #1
 80078a4:	776b      	strb	r3, [r5, #29]
 80078a6:	2300      	movs	r3, #0
 80078a8:	772b      	strb	r3, [r5, #28]
 80078aa:	e7db      	b.n	8007864 <HAL_RTC_SetDate+0x76>
 80078ac:	021b      	lsls	r3, r3, #8
 80078ae:	ea43 4300 	orr.w	r3, r3, r0, lsl #16
 80078b2:	ea43 0308 	orr.w	r3, r3, r8
 80078b6:	ea43 3747 	orr.w	r7, r3, r7, lsl #13
 80078ba:	e7c0      	b.n	800783e <HAL_RTC_SetDate+0x50>

080078bc <RTC_Bcd2ToByte>:
 80078bc:	0903      	lsrs	r3, r0, #4
 80078be:	eb03 0383 	add.w	r3, r3, r3, lsl #2
 80078c2:	f000 000f 	and.w	r0, r0, #15
 80078c6:	eb00 0043 	add.w	r0, r0, r3, lsl #1
 80078ca:	b2c0      	uxtb	r0, r0
 80078cc:	4770      	bx	lr

080078ce <HAL_RTC_GetTime>:
 80078ce:	b570      	push	{r4, r5, r6, lr}
 80078d0:	6803      	ldr	r3, [r0, #0]
 80078d2:	6a9b      	ldr	r3, [r3, #40]	; 0x28
 80078d4:	604b      	str	r3, [r1, #4]
 80078d6:	6803      	ldr	r3, [r0, #0]
 80078d8:	691b      	ldr	r3, [r3, #16]
 80078da:	f3c3 030e 	ubfx	r3, r3, #0, #15
 80078de:	608b      	str	r3, [r1, #8]
 80078e0:	6803      	ldr	r3, [r0, #0]
 80078e2:	681c      	ldr	r4, [r3, #0]
 80078e4:	f3c4 4506 	ubfx	r5, r4, #16, #7
 80078e8:	f3c4 4005 	ubfx	r0, r4, #16, #6
 80078ec:	f3c4 2606 	ubfx	r6, r4, #8, #7
 80078f0:	f005 0340 	and.w	r3, r5, #64	; 0x40
 80078f4:	f004 047f 	and.w	r4, r4, #127	; 0x7f
 80078f8:	7008      	strb	r0, [r1, #0]
 80078fa:	704e      	strb	r6, [r1, #1]
 80078fc:	708c      	strb	r4, [r1, #2]
 80078fe:	70cb      	strb	r3, [r1, #3]
 8007900:	b952      	cbnz	r2, 8007918 <HAL_RTC_GetTime+0x4a>
 8007902:	f7ff ffdb 	bl	80078bc <RTC_Bcd2ToByte>
 8007906:	7008      	strb	r0, [r1, #0]
 8007908:	4630      	mov	r0, r6
 800790a:	f7ff ffd7 	bl	80078bc <RTC_Bcd2ToByte>
 800790e:	7048      	strb	r0, [r1, #1]
 8007910:	4620      	mov	r0, r4
 8007912:	f7ff ffd3 	bl	80078bc <RTC_Bcd2ToByte>
 8007916:	7088      	strb	r0, [r1, #2]
 8007918:	2000      	movs	r0, #0
 800791a:	bd70      	pop	{r4, r5, r6, pc}

0800791c <HAL_RTC_GetDate>:
 800791c:	b538      	push	{r3, r4, r5, lr}
 800791e:	6803      	ldr	r3, [r0, #0]
 8007920:	685b      	ldr	r3, [r3, #4]
 8007922:	f3c3 4007 	ubfx	r0, r3, #16, #8
 8007926:	f3c3 2504 	ubfx	r5, r3, #8, #5
 800792a:	f003 043f 	and.w	r4, r3, #63	; 0x3f
 800792e:	f3c3 3342 	ubfx	r3, r3, #13, #3
 8007932:	70c8      	strb	r0, [r1, #3]
 8007934:	704d      	strb	r5, [r1, #1]
 8007936:	708c      	strb	r4, [r1, #2]
 8007938:	700b      	strb	r3, [r1, #0]
 800793a:	b952      	cbnz	r2, 8007952 <HAL_RTC_GetDate+0x36>
 800793c:	f7ff ffbe 	bl	80078bc <RTC_Bcd2ToByte>
 8007940:	70c8      	strb	r0, [r1, #3]
 8007942:	4628      	mov	r0, r5
 8007944:	f7ff ffba 	bl	80078bc <RTC_Bcd2ToByte>
 8007948:	7048      	strb	r0, [r1, #1]
 800794a:	4620      	mov	r0, r4
 800794c:	f7ff ffb6 	bl	80078bc <RTC_Bcd2ToByte>
 8007950:	7088      	strb	r0, [r1, #2]
 8007952:	2000      	movs	r0, #0
 8007954:	bd38      	pop	{r3, r4, r5, pc}
	...

08007958 <TIM_OC1_SetConfig>:
 8007958:	6a03      	ldr	r3, [r0, #32]
 800795a:	f023 0301 	bic.w	r3, r3, #1
 800795e:	6203      	str	r3, [r0, #32]
 8007960:	6a03      	ldr	r3, [r0, #32]
 8007962:	b570      	push	{r4, r5, r6, lr}
 8007964:	6844      	ldr	r4, [r0, #4]
 8007966:	6982      	ldr	r2, [r0, #24]
 8007968:	680d      	ldr	r5, [r1, #0]
 800796a:	f022 0273 	bic.w	r2, r2, #115	; 0x73
 800796e:	432a      	orrs	r2, r5
 8007970:	688d      	ldr	r5, [r1, #8]
 8007972:	f023 0302 	bic.w	r3, r3, #2
 8007976:	432b      	orrs	r3, r5
 8007978:	4d0e      	ldr	r5, [pc, #56]	; (80079b4 <TIM_OC1_SetConfig+0x5c>)
 800797a:	42a8      	cmp	r0, r5
 800797c:	d002      	beq.n	8007984 <TIM_OC1_SetConfig+0x2c>
 800797e:	4e0e      	ldr	r6, [pc, #56]	; (80079b8 <TIM_OC1_SetConfig+0x60>)
 8007980:	42b0      	cmp	r0, r6
 8007982:	d110      	bne.n	80079a6 <TIM_OC1_SetConfig+0x4e>
 8007984:	68ce      	ldr	r6, [r1, #12]
 8007986:	f023 0308 	bic.w	r3, r3, #8
 800798a:	4333      	orrs	r3, r6
 800798c:	42a8      	cmp	r0, r5
 800798e:	f023 0304 	bic.w	r3, r3, #4
 8007992:	d002      	beq.n	800799a <TIM_OC1_SetConfig+0x42>
 8007994:	4d08      	ldr	r5, [pc, #32]	; (80079b8 <TIM_OC1_SetConfig+0x60>)
 8007996:	42a8      	cmp	r0, r5
 8007998:	d105      	bne.n	80079a6 <TIM_OC1_SetConfig+0x4e>
 800799a:	e9d1 5605 	ldrd	r5, r6, [r1, #20]
 800799e:	f424 7440 	bic.w	r4, r4, #768	; 0x300
 80079a2:	4335      	orrs	r5, r6
 80079a4:	432c      	orrs	r4, r5
 80079a6:	6044      	str	r4, [r0, #4]
 80079a8:	6182      	str	r2, [r0, #24]
 80079aa:	684a      	ldr	r2, [r1, #4]
 80079ac:	6342      	str	r2, [r0, #52]	; 0x34
 80079ae:	6203      	str	r3, [r0, #32]
 80079b0:	bd70      	pop	{r4, r5, r6, pc}
 80079b2:	bf00      	nop
 80079b4:	40010000 	.word	0x40010000
 80079b8:	40010400 	.word	0x40010400

080079bc <TIM_OC3_SetConfig>:
 80079bc:	6a03      	ldr	r3, [r0, #32]
 80079be:	f423 7380 	bic.w	r3, r3, #256	; 0x100
 80079c2:	6203      	str	r3, [r0, #32]
 80079c4:	6a03      	ldr	r3, [r0, #32]
 80079c6:	b570      	push	{r4, r5, r6, lr}
 80079c8:	6844      	ldr	r4, [r0, #4]
 80079ca:	69c2      	ldr	r2, [r0, #28]
 80079cc:	680d      	ldr	r5, [r1, #0]
 80079ce:	f022 0273 	bic.w	r2, r2, #115	; 0x73
 80079d2:	432a      	orrs	r2, r5
 80079d4:	688d      	ldr	r5, [r1, #8]
 80079d6:	f423 7300 	bic.w	r3, r3, #512	; 0x200
 80079da:	ea43 2305 	orr.w	r3, r3, r5, lsl #8
 80079de:	4d11      	ldr	r5, [pc, #68]	; (8007a24 <TIM_OC3_SetConfig+0x68>)
 80079e0:	42a8      	cmp	r0, r5
 80079e2:	d003      	beq.n	80079ec <TIM_OC3_SetConfig+0x30>
 80079e4:	f505 6580 	add.w	r5, r5, #1024	; 0x400
 80079e8:	42a8      	cmp	r0, r5
 80079ea:	d114      	bne.n	8007a16 <TIM_OC3_SetConfig+0x5a>
 80079ec:	68cd      	ldr	r5, [r1, #12]
 80079ee:	f423 6300 	bic.w	r3, r3, #2048	; 0x800
 80079f2:	ea43 2305 	orr.w	r3, r3, r5, lsl #8
 80079f6:	4d0b      	ldr	r5, [pc, #44]	; (8007a24 <TIM_OC3_SetConfig+0x68>)
 80079f8:	42a8      	cmp	r0, r5
 80079fa:	f423 6380 	bic.w	r3, r3, #1024	; 0x400
 80079fe:	d003      	beq.n	8007a08 <TIM_OC3_SetConfig+0x4c>
 8007a00:	f505 6580 	add.w	r5, r5, #1024	; 0x400
 8007a04:	42a8      	cmp	r0, r5
 8007a06:	d106      	bne.n	8007a16 <TIM_OC3_SetConfig+0x5a>
 8007a08:	e9d1 5605 	ldrd	r5, r6, [r1, #20]
 8007a0c:	f424 5440 	bic.w	r4, r4, #12288	; 0x3000
 8007a10:	4335      	orrs	r5, r6
 8007a12:	ea44 1405 	orr.w	r4, r4, r5, lsl #4
 8007a16:	6044      	str	r4, [r0, #4]
 8007a18:	61c2      	str	r2, [r0, #28]
 8007a1a:	684a      	ldr	r2, [r1, #4]
 8007a1c:	63c2      	str	r2, [r0, #60]	; 0x3c
 8007a1e:	6203      	str	r3, [r0, #32]
 8007a20:	bd70      	pop	{r4, r5, r6, pc}
 8007a22:	bf00      	nop
 8007a24:	40010000 	.word	0x40010000

08007a28 <TIM_OC4_SetConfig>:
 8007a28:	6a03      	ldr	r3, [r0, #32]
 8007a2a:	f423 5380 	bic.w	r3, r3, #4096	; 0x1000
 8007a2e:	6203      	str	r3, [r0, #32]
 8007a30:	6a03      	ldr	r3, [r0, #32]
 8007a32:	b530      	push	{r4, r5, lr}
 8007a34:	6844      	ldr	r4, [r0, #4]
 8007a36:	69c2      	ldr	r2, [r0, #28]
 8007a38:	680d      	ldr	r5, [r1, #0]
 8007a3a:	f422 42e6 	bic.w	r2, r2, #29440	; 0x7300
 8007a3e:	ea42 2205 	orr.w	r2, r2, r5, lsl #8
 8007a42:	688d      	ldr	r5, [r1, #8]
 8007a44:	f423 5300 	bic.w	r3, r3, #8192	; 0x2000
 8007a48:	ea43 3305 	orr.w	r3, r3, r5, lsl #12
 8007a4c:	4d08      	ldr	r5, [pc, #32]	; (8007a70 <TIM_OC4_SetConfig+0x48>)
 8007a4e:	42a8      	cmp	r0, r5
 8007a50:	d003      	beq.n	8007a5a <TIM_OC4_SetConfig+0x32>
 8007a52:	f505 6580 	add.w	r5, r5, #1024	; 0x400
 8007a56:	42a8      	cmp	r0, r5
 8007a58:	d104      	bne.n	8007a64 <TIM_OC4_SetConfig+0x3c>
 8007a5a:	694d      	ldr	r5, [r1, #20]
 8007a5c:	f424 4480 	bic.w	r4, r4, #16384	; 0x4000
 8007a60:	ea44 1485 	orr.w	r4, r4, r5, lsl #6
 8007a64:	6044      	str	r4, [r0, #4]
 8007a66:	61c2      	str	r2, [r0, #28]
 8007a68:	684a      	ldr	r2, [r1, #4]
 8007a6a:	6402      	str	r2, [r0, #64]	; 0x40
 8007a6c:	6203      	str	r3, [r0, #32]
 8007a6e:	bd30      	pop	{r4, r5, pc}
 8007a70:	40010000 	.word	0x40010000

08007a74 <HAL_TIM_Base_Start>:
 8007a74:	f890 303d 	ldrb.w	r3, [r0, #61]	; 0x3d
 8007a78:	2b01      	cmp	r3, #1
 8007a7a:	d12c      	bne.n	8007ad6 <HAL_TIM_Base_Start+0x62>
 8007a7c:	2302      	movs	r3, #2
 8007a7e:	4a17      	ldr	r2, [pc, #92]	; (8007adc <HAL_TIM_Base_Start+0x68>)
 8007a80:	f880 303d 	strb.w	r3, [r0, #61]	; 0x3d
 8007a84:	6803      	ldr	r3, [r0, #0]
 8007a86:	4293      	cmp	r3, r2
 8007a88:	d01a      	beq.n	8007ac0 <HAL_TIM_Base_Start+0x4c>
 8007a8a:	f1b3 4f80 	cmp.w	r3, #1073741824	; 0x40000000
 8007a8e:	d017      	beq.n	8007ac0 <HAL_TIM_Base_Start+0x4c>
 8007a90:	f5a2 427c 	sub.w	r2, r2, #64512	; 0xfc00
 8007a94:	4293      	cmp	r3, r2
 8007a96:	d013      	beq.n	8007ac0 <HAL_TIM_Base_Start+0x4c>
 8007a98:	f502 6280 	add.w	r2, r2, #1024	; 0x400
 8007a9c:	4293      	cmp	r3, r2
 8007a9e:	d00f      	beq.n	8007ac0 <HAL_TIM_Base_Start+0x4c>
 8007aa0:	f502 6280 	add.w	r2, r2, #1024	; 0x400
 8007aa4:	4293      	cmp	r3, r2
 8007aa6:	d00b      	beq.n	8007ac0 <HAL_TIM_Base_Start+0x4c>
 8007aa8:	f502 4278 	add.w	r2, r2, #63488	; 0xf800
 8007aac:	4293      	cmp	r3, r2
 8007aae:	d007      	beq.n	8007ac0 <HAL_TIM_Base_Start+0x4c>
 8007ab0:	f502 5270 	add.w	r2, r2, #15360	; 0x3c00
 8007ab4:	4293      	cmp	r3, r2
 8007ab6:	d003      	beq.n	8007ac0 <HAL_TIM_Base_Start+0x4c>
 8007ab8:	f5a2 3294 	sub.w	r2, r2, #75776	; 0x12800
 8007abc:	4293      	cmp	r3, r2
 8007abe:	d104      	bne.n	8007aca <HAL_TIM_Base_Start+0x56>
 8007ac0:	689a      	ldr	r2, [r3, #8]
 8007ac2:	f002 0207 	and.w	r2, r2, #7
 8007ac6:	2a06      	cmp	r2, #6
 8007ac8:	d003      	beq.n	8007ad2 <HAL_TIM_Base_Start+0x5e>
 8007aca:	681a      	ldr	r2, [r3, #0]
 8007acc:	f042 0201 	orr.w	r2, r2, #1
 8007ad0:	601a      	str	r2, [r3, #0]
 8007ad2:	2000      	movs	r0, #0
 8007ad4:	4770      	bx	lr
 8007ad6:	2001      	movs	r0, #1
 8007ad8:	4770      	bx	lr
 8007ada:	bf00      	nop
 8007adc:	40010000 	.word	0x40010000

08007ae0 <HAL_TIM_Base_Start_IT>:
 8007ae0:	f890 303d 	ldrb.w	r3, [r0, #61]	; 0x3d
 8007ae4:	2b01      	cmp	r3, #1
 8007ae6:	d131      	bne.n	8007b4c <HAL_TIM_Base_Start_IT+0x6c>
 8007ae8:	6802      	ldr	r2, [r0, #0]
 8007aea:	2302      	movs	r3, #2
 8007aec:	f880 303d 	strb.w	r3, [r0, #61]	; 0x3d
 8007af0:	68d3      	ldr	r3, [r2, #12]
 8007af2:	f043 0301 	orr.w	r3, r3, #1
 8007af6:	60d3      	str	r3, [r2, #12]
 8007af8:	6803      	ldr	r3, [r0, #0]
 8007afa:	4a15      	ldr	r2, [pc, #84]	; (8007b50 <HAL_TIM_Base_Start_IT+0x70>)
 8007afc:	4293      	cmp	r3, r2
 8007afe:	d01a      	beq.n	8007b36 <HAL_TIM_Base_Start_IT+0x56>
 8007b00:	f1b3 4f80 	cmp.w	r3, #1073741824	; 0x40000000
 8007b04:	d017      	beq.n	8007b36 <HAL_TIM_Base_Start_IT+0x56>
 8007b06:	f5a2 427c 	sub.w	r2, r2, #64512	; 0xfc00
 8007b0a:	4293      	cmp	r3, r2
 8007b0c:	d013      	beq.n	8007b36 <HAL_TIM_Base_Start_IT+0x56>
 8007b0e:	f502 6280 	add.w	r2, r2, #1024	; 0x400
 8007b12:	4293      	cmp	r3, r2
 8007b14:	d00f      	beq.n	8007b36 <HAL_TIM_Base_Start_IT+0x56>
 8007b16:	f502 6280 	add.w	r2, r2, #1024	; 0x400
 8007b1a:	4293      	cmp	r3, r2
 8007b1c:	d00b      	beq.n	8007b36 <HAL_TIM_Base_Start_IT+0x56>
 8007b1e:	f502 4278 	add.w	r2, r2, #63488	; 0xf800
 8007b22:	4293      	cmp	r3, r2
 8007b24:	d007      	beq.n	8007b36 <HAL_TIM_Base_Start_IT+0x56>
 8007b26:	f502 5270 	add.w	r2, r2, #15360	; 0x3c00
 8007b2a:	4293      	cmp	r3, r2
 8007b2c:	d003      	beq.n	8007b36 <HAL_TIM_Base_Start_IT+0x56>
 8007b2e:	f5a2 3294 	sub.w	r2, r2, #75776	; 0x12800
 8007b32:	4293      	cmp	r3, r2
 8007b34:	d104      	bne.n	8007b40 <HAL_TIM_Base_Start_IT+0x60>
 8007b36:	689a      	ldr	r2, [r3, #8]
 8007b38:	f002 0207 	and.w	r2, r2, #7
 8007b3c:	2a06      	cmp	r2, #6
 8007b3e:	d003      	beq.n	8007b48 <HAL_TIM_Base_Start_IT+0x68>
 8007b40:	681a      	ldr	r2, [r3, #0]
 8007b42:	f042 0201 	orr.w	r2, r2, #1
 8007b46:	601a      	str	r2, [r3, #0]
 8007b48:	2000      	movs	r0, #0
 8007b4a:	4770      	bx	lr
 8007b4c:	2001      	movs	r0, #1
 8007b4e:	4770      	bx	lr
 8007b50:	40010000 	.word	0x40010000

08007b54 <HAL_TIM_PWM_MspInit>:
 8007b54:	4770      	bx	lr

08007b56 <HAL_TIM_OC_DelayElapsedCallback>:
 8007b56:	4770      	bx	lr

08007b58 <HAL_TIM_IC_CaptureCallback>:
 8007b58:	4770      	bx	lr

08007b5a <HAL_TIM_PWM_PulseFinishedCallback>:
 8007b5a:	4770      	bx	lr

08007b5c <HAL_TIM_TriggerCallback>:
 8007b5c:	4770      	bx	lr

08007b5e <HAL_TIM_IRQHandler>:
 8007b5e:	b510      	push	{r4, lr}
 8007b60:	6803      	ldr	r3, [r0, #0]
 8007b62:	691a      	ldr	r2, [r3, #16]
 8007b64:	0791      	lsls	r1, r2, #30
 8007b66:	4604      	mov	r4, r0
 8007b68:	d50f      	bpl.n	8007b8a <HAL_TIM_IRQHandler+0x2c>
 8007b6a:	68da      	ldr	r2, [r3, #12]
 8007b6c:	0792      	lsls	r2, r2, #30
 8007b6e:	d50c      	bpl.n	8007b8a <HAL_TIM_IRQHandler+0x2c>
 8007b70:	f06f 0202 	mvn.w	r2, #2
 8007b74:	611a      	str	r2, [r3, #16]
 8007b76:	2301      	movs	r3, #1
 8007b78:	7703      	strb	r3, [r0, #28]
 8007b7a:	6803      	ldr	r3, [r0, #0]
 8007b7c:	699b      	ldr	r3, [r3, #24]
 8007b7e:	079b      	lsls	r3, r3, #30
 8007b80:	d07a      	beq.n	8007c78 <HAL_TIM_IRQHandler+0x11a>
 8007b82:	f7ff ffe9 	bl	8007b58 <HAL_TIM_IC_CaptureCallback>
 8007b86:	2300      	movs	r3, #0
 8007b88:	7723      	strb	r3, [r4, #28]
 8007b8a:	6823      	ldr	r3, [r4, #0]
 8007b8c:	691a      	ldr	r2, [r3, #16]
 8007b8e:	0750      	lsls	r0, r2, #29
 8007b90:	d511      	bpl.n	8007bb6 <HAL_TIM_IRQHandler+0x58>
 8007b92:	68da      	ldr	r2, [r3, #12]
 8007b94:	0751      	lsls	r1, r2, #29
 8007b96:	d50e      	bpl.n	8007bb6 <HAL_TIM_IRQHandler+0x58>
 8007b98:	f06f 0204 	mvn.w	r2, #4
 8007b9c:	611a      	str	r2, [r3, #16]
 8007b9e:	2302      	movs	r3, #2
 8007ba0:	7723      	strb	r3, [r4, #28]
 8007ba2:	6823      	ldr	r3, [r4, #0]
 8007ba4:	699b      	ldr	r3, [r3, #24]
 8007ba6:	f413 7f40 	tst.w	r3, #768	; 0x300
 8007baa:	4620      	mov	r0, r4
 8007bac:	d06a      	beq.n	8007c84 <HAL_TIM_IRQHandler+0x126>
 8007bae:	f7ff ffd3 	bl	8007b58 <HAL_TIM_IC_CaptureCallback>
 8007bb2:	2300      	movs	r3, #0
 8007bb4:	7723      	strb	r3, [r4, #28]
 8007bb6:	6823      	ldr	r3, [r4, #0]
 8007bb8:	691a      	ldr	r2, [r3, #16]
 8007bba:	0712      	lsls	r2, r2, #28
 8007bbc:	d510      	bpl.n	8007be0 <HAL_TIM_IRQHandler+0x82>
 8007bbe:	68da      	ldr	r2, [r3, #12]
 8007bc0:	0710      	lsls	r0, r2, #28
 8007bc2:	d50d      	bpl.n	8007be0 <HAL_TIM_IRQHandler+0x82>
 8007bc4:	f06f 0208 	mvn.w	r2, #8
 8007bc8:	611a      	str	r2, [r3, #16]
 8007bca:	2304      	movs	r3, #4
 8007bcc:	7723      	strb	r3, [r4, #28]
 8007bce:	6823      	ldr	r3, [r4, #0]
 8007bd0:	69db      	ldr	r3, [r3, #28]
 8007bd2:	0799      	lsls	r1, r3, #30
 8007bd4:	4620      	mov	r0, r4
 8007bd6:	d05b      	beq.n	8007c90 <HAL_TIM_IRQHandler+0x132>
 8007bd8:	f7ff ffbe 	bl	8007b58 <HAL_TIM_IC_CaptureCallback>
 8007bdc:	2300      	movs	r3, #0
 8007bde:	7723      	strb	r3, [r4, #28]
 8007be0:	6823      	ldr	r3, [r4, #0]
 8007be2:	691a      	ldr	r2, [r3, #16]
 8007be4:	06d2      	lsls	r2, r2, #27
 8007be6:	d511      	bpl.n	8007c0c <HAL_TIM_IRQHandler+0xae>
 8007be8:	68da      	ldr	r2, [r3, #12]
 8007bea:	06d0      	lsls	r0, r2, #27
 8007bec:	d50e      	bpl.n	8007c0c <HAL_TIM_IRQHandler+0xae>
 8007bee:	f06f 0210 	mvn.w	r2, #16
 8007bf2:	611a      	str	r2, [r3, #16]
 8007bf4:	2308      	movs	r3, #8
 8007bf6:	7723      	strb	r3, [r4, #28]
 8007bf8:	6823      	ldr	r3, [r4, #0]
 8007bfa:	69db      	ldr	r3, [r3, #28]
 8007bfc:	f413 7f40 	tst.w	r3, #768	; 0x300
 8007c00:	4620      	mov	r0, r4
 8007c02:	d04b      	beq.n	8007c9c <HAL_TIM_IRQHandler+0x13e>
 8007c04:	f7ff ffa8 	bl	8007b58 <HAL_TIM_IC_CaptureCallback>
 8007c08:	2300      	movs	r3, #0
 8007c0a:	7723      	strb	r3, [r4, #28]
 8007c0c:	6823      	ldr	r3, [r4, #0]
 8007c0e:	691a      	ldr	r2, [r3, #16]
 8007c10:	07d1      	lsls	r1, r2, #31
 8007c12:	d508      	bpl.n	8007c26 <HAL_TIM_IRQHandler+0xc8>
 8007c14:	68da      	ldr	r2, [r3, #12]
 8007c16:	07d2      	lsls	r2, r2, #31
 8007c18:	d505      	bpl.n	8007c26 <HAL_TIM_IRQHandler+0xc8>
 8007c1a:	f06f 0201 	mvn.w	r2, #1
 8007c1e:	611a      	str	r2, [r3, #16]
 8007c20:	4620      	mov	r0, r4
 8007c22:	f7fc fcb7 	bl	8004594 <HAL_TIM_PeriodElapsedCallback>
 8007c26:	6823      	ldr	r3, [r4, #0]
 8007c28:	691a      	ldr	r2, [r3, #16]
 8007c2a:	0610      	lsls	r0, r2, #24
 8007c2c:	d508      	bpl.n	8007c40 <HAL_TIM_IRQHandler+0xe2>
 8007c2e:	68da      	ldr	r2, [r3, #12]
 8007c30:	0611      	lsls	r1, r2, #24
 8007c32:	d505      	bpl.n	8007c40 <HAL_TIM_IRQHandler+0xe2>
 8007c34:	f06f 0280 	mvn.w	r2, #128	; 0x80
 8007c38:	611a      	str	r2, [r3, #16]
 8007c3a:	4620      	mov	r0, r4
 8007c3c:	f000 faed 	bl	800821a <HAL_TIMEx_BreakCallback>
 8007c40:	6823      	ldr	r3, [r4, #0]
 8007c42:	691a      	ldr	r2, [r3, #16]
 8007c44:	0652      	lsls	r2, r2, #25
 8007c46:	d508      	bpl.n	8007c5a <HAL_TIM_IRQHandler+0xfc>
 8007c48:	68da      	ldr	r2, [r3, #12]
 8007c4a:	0650      	lsls	r0, r2, #25
 8007c4c:	d505      	bpl.n	8007c5a <HAL_TIM_IRQHandler+0xfc>
 8007c4e:	f06f 0240 	mvn.w	r2, #64	; 0x40
 8007c52:	611a      	str	r2, [r3, #16]
 8007c54:	4620      	mov	r0, r4
 8007c56:	f7ff ff81 	bl	8007b5c <HAL_TIM_TriggerCallback>
 8007c5a:	6823      	ldr	r3, [r4, #0]
 8007c5c:	691a      	ldr	r2, [r3, #16]
 8007c5e:	0691      	lsls	r1, r2, #26
 8007c60:	d522      	bpl.n	8007ca8 <HAL_TIM_IRQHandler+0x14a>
 8007c62:	68da      	ldr	r2, [r3, #12]
 8007c64:	0692      	lsls	r2, r2, #26
 8007c66:	d51f      	bpl.n	8007ca8 <HAL_TIM_IRQHandler+0x14a>
 8007c68:	f06f 0220 	mvn.w	r2, #32
 8007c6c:	611a      	str	r2, [r3, #16]
 8007c6e:	4620      	mov	r0, r4
 8007c70:	e8bd 4010 	ldmia.w	sp!, {r4, lr}
 8007c74:	f000 bad0 	b.w	8008218 <HAL_TIMEx_CommutCallback>
 8007c78:	f7ff ff6d 	bl	8007b56 <HAL_TIM_OC_DelayElapsedCallback>
 8007c7c:	4620      	mov	r0, r4
 8007c7e:	f7ff ff6c 	bl	8007b5a <HAL_TIM_PWM_PulseFinishedCallback>
 8007c82:	e780      	b.n	8007b86 <HAL_TIM_IRQHandler+0x28>
 8007c84:	f7ff ff67 	bl	8007b56 <HAL_TIM_OC_DelayElapsedCallback>
 8007c88:	4620      	mov	r0, r4
 8007c8a:	f7ff ff66 	bl	8007b5a <HAL_TIM_PWM_PulseFinishedCallback>
 8007c8e:	e790      	b.n	8007bb2 <HAL_TIM_IRQHandler+0x54>
 8007c90:	f7ff ff61 	bl	8007b56 <HAL_TIM_OC_DelayElapsedCallback>
 8007c94:	4620      	mov	r0, r4
 8007c96:	f7ff ff60 	bl	8007b5a <HAL_TIM_PWM_PulseFinishedCallback>
 8007c9a:	e79f      	b.n	8007bdc <HAL_TIM_IRQHandler+0x7e>
 8007c9c:	f7ff ff5b 	bl	8007b56 <HAL_TIM_OC_DelayElapsedCallback>
 8007ca0:	4620      	mov	r0, r4
 8007ca2:	f7ff ff5a 	bl	8007b5a <HAL_TIM_PWM_PulseFinishedCallback>
 8007ca6:	e7af      	b.n	8007c08 <HAL_TIM_IRQHandler+0xaa>
 8007ca8:	bd10      	pop	{r4, pc}
	...

08007cac <TIM_Base_SetConfig>:
 8007cac:	4a30      	ldr	r2, [pc, #192]	; (8007d70 <TIM_Base_SetConfig+0xc4>)
 8007cae:	6803      	ldr	r3, [r0, #0]
 8007cb0:	4290      	cmp	r0, r2
 8007cb2:	d012      	beq.n	8007cda <TIM_Base_SetConfig+0x2e>
 8007cb4:	f1b0 4f80 	cmp.w	r0, #1073741824	; 0x40000000
 8007cb8:	d00f      	beq.n	8007cda <TIM_Base_SetConfig+0x2e>
 8007cba:	f5a2 427c 	sub.w	r2, r2, #64512	; 0xfc00
 8007cbe:	4290      	cmp	r0, r2
 8007cc0:	d00b      	beq.n	8007cda <TIM_Base_SetConfig+0x2e>
 8007cc2:	f502 6280 	add.w	r2, r2, #1024	; 0x400
 8007cc6:	4290      	cmp	r0, r2
 8007cc8:	d007      	beq.n	8007cda <TIM_Base_SetConfig+0x2e>
 8007cca:	f502 6280 	add.w	r2, r2, #1024	; 0x400
 8007cce:	4290      	cmp	r0, r2
 8007cd0:	d003      	beq.n	8007cda <TIM_Base_SetConfig+0x2e>
 8007cd2:	f502 4278 	add.w	r2, r2, #63488	; 0xf800
 8007cd6:	4290      	cmp	r0, r2
 8007cd8:	d119      	bne.n	8007d0e <TIM_Base_SetConfig+0x62>
 8007cda:	684a      	ldr	r2, [r1, #4]
 8007cdc:	f023 0370 	bic.w	r3, r3, #112	; 0x70
 8007ce0:	4313      	orrs	r3, r2
 8007ce2:	4a23      	ldr	r2, [pc, #140]	; (8007d70 <TIM_Base_SetConfig+0xc4>)
 8007ce4:	4290      	cmp	r0, r2
 8007ce6:	d029      	beq.n	8007d3c <TIM_Base_SetConfig+0x90>
 8007ce8:	f1b0 4f80 	cmp.w	r0, #1073741824	; 0x40000000
 8007cec:	d026      	beq.n	8007d3c <TIM_Base_SetConfig+0x90>
 8007cee:	f5a2 427c 	sub.w	r2, r2, #64512	; 0xfc00
 8007cf2:	4290      	cmp	r0, r2
 8007cf4:	d022      	beq.n	8007d3c <TIM_Base_SetConfig+0x90>
 8007cf6:	f502 6280 	add.w	r2, r2, #1024	; 0x400
 8007cfa:	4290      	cmp	r0, r2
 8007cfc:	d01e      	beq.n	8007d3c <TIM_Base_SetConfig+0x90>
 8007cfe:	f502 6280 	add.w	r2, r2, #1024	; 0x400
 8007d02:	4290      	cmp	r0, r2
 8007d04:	d01a      	beq.n	8007d3c <TIM_Base_SetConfig+0x90>
 8007d06:	f502 4278 	add.w	r2, r2, #63488	; 0xf800
 8007d0a:	4290      	cmp	r0, r2
 8007d0c:	d016      	beq.n	8007d3c <TIM_Base_SetConfig+0x90>
 8007d0e:	4a19      	ldr	r2, [pc, #100]	; (8007d74 <TIM_Base_SetConfig+0xc8>)
 8007d10:	4290      	cmp	r0, r2
 8007d12:	d013      	beq.n	8007d3c <TIM_Base_SetConfig+0x90>
 8007d14:	f502 6280 	add.w	r2, r2, #1024	; 0x400
 8007d18:	4290      	cmp	r0, r2
 8007d1a:	d00f      	beq.n	8007d3c <TIM_Base_SetConfig+0x90>
 8007d1c:	f502 6280 	add.w	r2, r2, #1024	; 0x400
 8007d20:	4290      	cmp	r0, r2
 8007d22:	d00b      	beq.n	8007d3c <TIM_Base_SetConfig+0x90>
 8007d24:	f5a2 3298 	sub.w	r2, r2, #77824	; 0x13000
 8007d28:	4290      	cmp	r0, r2
 8007d2a:	d007      	beq.n	8007d3c <TIM_Base_SetConfig+0x90>
 8007d2c:	f502 6280 	add.w	r2, r2, #1024	; 0x400
 8007d30:	4290      	cmp	r0, r2
 8007d32:	d003      	beq.n	8007d3c <TIM_Base_SetConfig+0x90>
 8007d34:	f502 6280 	add.w	r2, r2, #1024	; 0x400
 8007d38:	4290      	cmp	r0, r2
 8007d3a:	d103      	bne.n	8007d44 <TIM_Base_SetConfig+0x98>
 8007d3c:	68ca      	ldr	r2, [r1, #12]
 8007d3e:	f423 7340 	bic.w	r3, r3, #768	; 0x300
 8007d42:	4313      	orrs	r3, r2
 8007d44:	694a      	ldr	r2, [r1, #20]
 8007d46:	f023 0380 	bic.w	r3, r3, #128	; 0x80
 8007d4a:	4313      	orrs	r3, r2
 8007d4c:	6003      	str	r3, [r0, #0]
 8007d4e:	688b      	ldr	r3, [r1, #8]
 8007d50:	62c3      	str	r3, [r0, #44]	; 0x2c
 8007d52:	680b      	ldr	r3, [r1, #0]
 8007d54:	6283      	str	r3, [r0, #40]	; 0x28
 8007d56:	4b06      	ldr	r3, [pc, #24]	; (8007d70 <TIM_Base_SetConfig+0xc4>)
 8007d58:	4298      	cmp	r0, r3
 8007d5a:	d003      	beq.n	8007d64 <TIM_Base_SetConfig+0xb8>
 8007d5c:	f503 6380 	add.w	r3, r3, #1024	; 0x400
 8007d60:	4298      	cmp	r0, r3
 8007d62:	d101      	bne.n	8007d68 <TIM_Base_SetConfig+0xbc>
 8007d64:	690b      	ldr	r3, [r1, #16]
 8007d66:	6303      	str	r3, [r0, #48]	; 0x30
 8007d68:	2301      	movs	r3, #1
 8007d6a:	6143      	str	r3, [r0, #20]
 8007d6c:	4770      	bx	lr
 8007d6e:	bf00      	nop
 8007d70:	40010000 	.word	0x40010000
 8007d74:	40014000 	.word	0x40014000

08007d78 <HAL_TIM_Base_Init>:
 8007d78:	b510      	push	{r4, lr}
 8007d7a:	4604      	mov	r4, r0
 8007d7c:	b330      	cbz	r0, 8007dcc <HAL_TIM_Base_Init+0x54>
 8007d7e:	f890 303d 	ldrb.w	r3, [r0, #61]	; 0x3d
 8007d82:	f003 02ff 	and.w	r2, r3, #255	; 0xff
 8007d86:	b91b      	cbnz	r3, 8007d90 <HAL_TIM_Base_Init+0x18>
 8007d88:	f880 203c 	strb.w	r2, [r0, #60]	; 0x3c
 8007d8c:	f7fc ffd4 	bl	8004d38 <HAL_TIM_Base_MspInit>
 8007d90:	2302      	movs	r3, #2
 8007d92:	6820      	ldr	r0, [r4, #0]
 8007d94:	f884 303d 	strb.w	r3, [r4, #61]	; 0x3d
 8007d98:	1d21      	adds	r1, r4, #4
 8007d9a:	f7ff ff87 	bl	8007cac <TIM_Base_SetConfig>
 8007d9e:	2301      	movs	r3, #1
 8007da0:	f884 3046 	strb.w	r3, [r4, #70]	; 0x46
 8007da4:	2000      	movs	r0, #0
 8007da6:	f884 303e 	strb.w	r3, [r4, #62]	; 0x3e
 8007daa:	f884 303f 	strb.w	r3, [r4, #63]	; 0x3f
 8007dae:	f884 3040 	strb.w	r3, [r4, #64]	; 0x40
 8007db2:	f884 3041 	strb.w	r3, [r4, #65]	; 0x41
 8007db6:	f884 3042 	strb.w	r3, [r4, #66]	; 0x42
 8007dba:	f884 3043 	strb.w	r3, [r4, #67]	; 0x43
 8007dbe:	f884 3044 	strb.w	r3, [r4, #68]	; 0x44
 8007dc2:	f884 3045 	strb.w	r3, [r4, #69]	; 0x45
 8007dc6:	f884 303d 	strb.w	r3, [r4, #61]	; 0x3d
 8007dca:	bd10      	pop	{r4, pc}
 8007dcc:	2001      	movs	r0, #1
 8007dce:	e7fc      	b.n	8007dca <HAL_TIM_Base_Init+0x52>

08007dd0 <HAL_TIM_PWM_Init>:
 8007dd0:	b510      	push	{r4, lr}
 8007dd2:	4604      	mov	r4, r0
 8007dd4:	b330      	cbz	r0, 8007e24 <HAL_TIM_PWM_Init+0x54>
 8007dd6:	f890 303d 	ldrb.w	r3, [r0, #61]	; 0x3d
 8007dda:	f003 02ff 	and.w	r2, r3, #255	; 0xff
 8007dde:	b91b      	cbnz	r3, 8007de8 <HAL_TIM_PWM_Init+0x18>
 8007de0:	f880 203c 	strb.w	r2, [r0, #60]	; 0x3c
 8007de4:	f7ff feb6 	bl	8007b54 <HAL_TIM_PWM_MspInit>
 8007de8:	2302      	movs	r3, #2
 8007dea:	6820      	ldr	r0, [r4, #0]
 8007dec:	f884 303d 	strb.w	r3, [r4, #61]	; 0x3d
 8007df0:	1d21      	adds	r1, r4, #4
 8007df2:	f7ff ff5b 	bl	8007cac <TIM_Base_SetConfig>
 8007df6:	2301      	movs	r3, #1
 8007df8:	f884 3046 	strb.w	r3, [r4, #70]	; 0x46
 8007dfc:	2000      	movs	r0, #0
 8007dfe:	f884 303e 	strb.w	r3, [r4, #62]	; 0x3e
 8007e02:	f884 303f 	strb.w	r3, [r4, #63]	; 0x3f
 8007e06:	f884 3040 	strb.w	r3, [r4, #64]	; 0x40
 8007e0a:	f884 3041 	strb.w	r3, [r4, #65]	; 0x41
 8007e0e:	f884 3042 	strb.w	r3, [r4, #66]	; 0x42
 8007e12:	f884 3043 	strb.w	r3, [r4, #67]	; 0x43
 8007e16:	f884 3044 	strb.w	r3, [r4, #68]	; 0x44
 8007e1a:	f884 3045 	strb.w	r3, [r4, #69]	; 0x45
 8007e1e:	f884 303d 	strb.w	r3, [r4, #61]	; 0x3d
 8007e22:	bd10      	pop	{r4, pc}
 8007e24:	2001      	movs	r0, #1
 8007e26:	e7fc      	b.n	8007e22 <HAL_TIM_PWM_Init+0x52>

08007e28 <TIM_OC2_SetConfig>:
 8007e28:	6a03      	ldr	r3, [r0, #32]
 8007e2a:	f023 0310 	bic.w	r3, r3, #16
 8007e2e:	6203      	str	r3, [r0, #32]
 8007e30:	6a03      	ldr	r3, [r0, #32]
 8007e32:	b570      	push	{r4, r5, r6, lr}
 8007e34:	6844      	ldr	r4, [r0, #4]
 8007e36:	6982      	ldr	r2, [r0, #24]
 8007e38:	680d      	ldr	r5, [r1, #0]
 8007e3a:	f422 42e6 	bic.w	r2, r2, #29440	; 0x7300
 8007e3e:	ea42 2205 	orr.w	r2, r2, r5, lsl #8
 8007e42:	688d      	ldr	r5, [r1, #8]
 8007e44:	f023 0320 	bic.w	r3, r3, #32
 8007e48:	ea43 1305 	orr.w	r3, r3, r5, lsl #4
 8007e4c:	4d10      	ldr	r5, [pc, #64]	; (8007e90 <TIM_OC2_SetConfig+0x68>)
 8007e4e:	42a8      	cmp	r0, r5
 8007e50:	d003      	beq.n	8007e5a <TIM_OC2_SetConfig+0x32>
 8007e52:	f505 6580 	add.w	r5, r5, #1024	; 0x400
 8007e56:	42a8      	cmp	r0, r5
 8007e58:	d114      	bne.n	8007e84 <TIM_OC2_SetConfig+0x5c>
 8007e5a:	68cd      	ldr	r5, [r1, #12]
 8007e5c:	f023 0380 	bic.w	r3, r3, #128	; 0x80
 8007e60:	ea43 1305 	orr.w	r3, r3, r5, lsl #4
 8007e64:	4d0a      	ldr	r5, [pc, #40]	; (8007e90 <TIM_OC2_SetConfig+0x68>)
 8007e66:	42a8      	cmp	r0, r5
 8007e68:	f023 0340 	bic.w	r3, r3, #64	; 0x40
 8007e6c:	d003      	beq.n	8007e76 <TIM_OC2_SetConfig+0x4e>
 8007e6e:	f505 6580 	add.w	r5, r5, #1024	; 0x400
 8007e72:	42a8      	cmp	r0, r5
 8007e74:	d106      	bne.n	8007e84 <TIM_OC2_SetConfig+0x5c>
 8007e76:	e9d1 5605 	ldrd	r5, r6, [r1, #20]
 8007e7a:	f424 6440 	bic.w	r4, r4, #3072	; 0xc00
 8007e7e:	4335      	orrs	r5, r6
 8007e80:	ea44 0485 	orr.w	r4, r4, r5, lsl #2
 8007e84:	6044      	str	r4, [r0, #4]
 8007e86:	6182      	str	r2, [r0, #24]
 8007e88:	684a      	ldr	r2, [r1, #4]
 8007e8a:	6382      	str	r2, [r0, #56]	; 0x38
 8007e8c:	6203      	str	r3, [r0, #32]
 8007e8e:	bd70      	pop	{r4, r5, r6, pc}
 8007e90:	40010000 	.word	0x40010000

08007e94 <HAL_TIM_PWM_ConfigChannel>:
 8007e94:	b538      	push	{r3, r4, r5, lr}
 8007e96:	f890 303c 	ldrb.w	r3, [r0, #60]	; 0x3c
 8007e9a:	2b01      	cmp	r3, #1
 8007e9c:	4604      	mov	r4, r0
 8007e9e:	d05a      	beq.n	8007f56 <HAL_TIM_PWM_ConfigChannel+0xc2>
 8007ea0:	2301      	movs	r3, #1
 8007ea2:	2a08      	cmp	r2, #8
 8007ea4:	f880 303c 	strb.w	r3, [r0, #60]	; 0x3c
 8007ea8:	d042      	beq.n	8007f30 <HAL_TIM_PWM_ConfigChannel+0x9c>
 8007eaa:	d806      	bhi.n	8007eba <HAL_TIM_PWM_ConfigChannel+0x26>
 8007eac:	b1d2      	cbz	r2, 8007ee4 <HAL_TIM_PWM_ConfigChannel+0x50>
 8007eae:	2a04      	cmp	r2, #4
 8007eb0:	d02b      	beq.n	8007f0a <HAL_TIM_PWM_ConfigChannel+0x76>
 8007eb2:	2000      	movs	r0, #0
 8007eb4:	f884 003c 	strb.w	r0, [r4, #60]	; 0x3c
 8007eb8:	bd38      	pop	{r3, r4, r5, pc}
 8007eba:	2a0c      	cmp	r2, #12
 8007ebc:	d1f9      	bne.n	8007eb2 <HAL_TIM_PWM_ConfigChannel+0x1e>
 8007ebe:	6800      	ldr	r0, [r0, #0]
 8007ec0:	f7ff fdb2 	bl	8007a28 <TIM_OC4_SetConfig>
 8007ec4:	6822      	ldr	r2, [r4, #0]
 8007ec6:	69d3      	ldr	r3, [r2, #28]
 8007ec8:	f443 6300 	orr.w	r3, r3, #2048	; 0x800
 8007ecc:	61d3      	str	r3, [r2, #28]
 8007ece:	6822      	ldr	r2, [r4, #0]
 8007ed0:	69d3      	ldr	r3, [r2, #28]
 8007ed2:	f423 6380 	bic.w	r3, r3, #1024	; 0x400
 8007ed6:	61d3      	str	r3, [r2, #28]
 8007ed8:	6822      	ldr	r2, [r4, #0]
 8007eda:	6909      	ldr	r1, [r1, #16]
 8007edc:	69d3      	ldr	r3, [r2, #28]
 8007ede:	ea43 2301 	orr.w	r3, r3, r1, lsl #8
 8007ee2:	e036      	b.n	8007f52 <HAL_TIM_PWM_ConfigChannel+0xbe>
 8007ee4:	6800      	ldr	r0, [r0, #0]
 8007ee6:	f7ff fd37 	bl	8007958 <TIM_OC1_SetConfig>
 8007eea:	6822      	ldr	r2, [r4, #0]
 8007eec:	6993      	ldr	r3, [r2, #24]
 8007eee:	f043 0308 	orr.w	r3, r3, #8
 8007ef2:	6193      	str	r3, [r2, #24]
 8007ef4:	6822      	ldr	r2, [r4, #0]
 8007ef6:	6993      	ldr	r3, [r2, #24]
 8007ef8:	f023 0304 	bic.w	r3, r3, #4
 8007efc:	6193      	str	r3, [r2, #24]
 8007efe:	6822      	ldr	r2, [r4, #0]
 8007f00:	6909      	ldr	r1, [r1, #16]
 8007f02:	6993      	ldr	r3, [r2, #24]
 8007f04:	430b      	orrs	r3, r1
 8007f06:	6193      	str	r3, [r2, #24]
 8007f08:	e7d3      	b.n	8007eb2 <HAL_TIM_PWM_ConfigChannel+0x1e>
 8007f0a:	6800      	ldr	r0, [r0, #0]
 8007f0c:	f7ff ff8c 	bl	8007e28 <TIM_OC2_SetConfig>
 8007f10:	6822      	ldr	r2, [r4, #0]
 8007f12:	6993      	ldr	r3, [r2, #24]
 8007f14:	f443 6300 	orr.w	r3, r3, #2048	; 0x800
 8007f18:	6193      	str	r3, [r2, #24]
 8007f1a:	6822      	ldr	r2, [r4, #0]
 8007f1c:	6993      	ldr	r3, [r2, #24]
 8007f1e:	f423 6380 	bic.w	r3, r3, #1024	; 0x400
 8007f22:	6193      	str	r3, [r2, #24]
 8007f24:	6822      	ldr	r2, [r4, #0]
 8007f26:	6909      	ldr	r1, [r1, #16]
 8007f28:	6993      	ldr	r3, [r2, #24]
 8007f2a:	ea43 2301 	orr.w	r3, r3, r1, lsl #8
 8007f2e:	e7ea      	b.n	8007f06 <HAL_TIM_PWM_ConfigChannel+0x72>
 8007f30:	6800      	ldr	r0, [r0, #0]
 8007f32:	f7ff fd43 	bl	80079bc <TIM_OC3_SetConfig>
 8007f36:	6822      	ldr	r2, [r4, #0]
 8007f38:	69d3      	ldr	r3, [r2, #28]
 8007f3a:	f043 0308 	orr.w	r3, r3, #8
 8007f3e:	61d3      	str	r3, [r2, #28]
 8007f40:	6822      	ldr	r2, [r4, #0]
 8007f42:	69d3      	ldr	r3, [r2, #28]
 8007f44:	f023 0304 	bic.w	r3, r3, #4
 8007f48:	61d3      	str	r3, [r2, #28]
 8007f4a:	6822      	ldr	r2, [r4, #0]
 8007f4c:	6909      	ldr	r1, [r1, #16]
 8007f4e:	69d3      	ldr	r3, [r2, #28]
 8007f50:	430b      	orrs	r3, r1
 8007f52:	61d3      	str	r3, [r2, #28]
 8007f54:	e7ad      	b.n	8007eb2 <HAL_TIM_PWM_ConfigChannel+0x1e>
 8007f56:	2002      	movs	r0, #2
 8007f58:	e7ae      	b.n	8007eb8 <HAL_TIM_PWM_ConfigChannel+0x24>

08007f5a <TIM_ETR_SetConfig>:
 8007f5a:	b510      	push	{r4, lr}
 8007f5c:	6884      	ldr	r4, [r0, #8]
 8007f5e:	4311      	orrs	r1, r2
 8007f60:	f424 447f 	bic.w	r4, r4, #65280	; 0xff00
 8007f64:	ea41 2303 	orr.w	r3, r1, r3, lsl #8
 8007f68:	4323      	orrs	r3, r4
 8007f6a:	6083      	str	r3, [r0, #8]
 8007f6c:	bd10      	pop	{r4, pc}

08007f6e <HAL_TIM_ConfigClockSource>:
 8007f6e:	b570      	push	{r4, r5, r6, lr}
 8007f70:	f890 303c 	ldrb.w	r3, [r0, #60]	; 0x3c
 8007f74:	2b01      	cmp	r3, #1
 8007f76:	4604      	mov	r4, r0
 8007f78:	f04f 0002 	mov.w	r0, #2
 8007f7c:	d029      	beq.n	8007fd2 <HAL_TIM_ConfigClockSource+0x64>
 8007f7e:	6822      	ldr	r2, [r4, #0]
 8007f80:	f884 003d 	strb.w	r0, [r4, #61]	; 0x3d
 8007f84:	2301      	movs	r3, #1
 8007f86:	f884 303c 	strb.w	r3, [r4, #60]	; 0x3c
 8007f8a:	6893      	ldr	r3, [r2, #8]
 8007f8c:	f423 437f 	bic.w	r3, r3, #65280	; 0xff00
 8007f90:	f023 0377 	bic.w	r3, r3, #119	; 0x77
 8007f94:	6093      	str	r3, [r2, #8]
 8007f96:	680b      	ldr	r3, [r1, #0]
 8007f98:	2b60      	cmp	r3, #96	; 0x60
 8007f9a:	d052      	beq.n	8008042 <HAL_TIM_ConfigClockSource+0xd4>
 8007f9c:	d835      	bhi.n	800800a <HAL_TIM_ConfigClockSource+0x9c>
 8007f9e:	2b40      	cmp	r3, #64	; 0x40
 8007fa0:	d069      	beq.n	8008076 <HAL_TIM_ConfigClockSource+0x108>
 8007fa2:	d817      	bhi.n	8007fd4 <HAL_TIM_ConfigClockSource+0x66>
 8007fa4:	2b20      	cmp	r3, #32
 8007fa6:	d003      	beq.n	8007fb0 <HAL_TIM_ConfigClockSource+0x42>
 8007fa8:	d80b      	bhi.n	8007fc2 <HAL_TIM_ConfigClockSource+0x54>
 8007faa:	f033 0210 	bics.w	r2, r3, #16
 8007fae:	d10a      	bne.n	8007fc6 <HAL_TIM_ConfigClockSource+0x58>
 8007fb0:	6821      	ldr	r1, [r4, #0]
 8007fb2:	688a      	ldr	r2, [r1, #8]
 8007fb4:	f022 0270 	bic.w	r2, r2, #112	; 0x70
 8007fb8:	4313      	orrs	r3, r2
 8007fba:	f043 0307 	orr.w	r3, r3, #7
 8007fbe:	608b      	str	r3, [r1, #8]
 8007fc0:	e001      	b.n	8007fc6 <HAL_TIM_ConfigClockSource+0x58>
 8007fc2:	2b30      	cmp	r3, #48	; 0x30
 8007fc4:	d0f4      	beq.n	8007fb0 <HAL_TIM_ConfigClockSource+0x42>
 8007fc6:	2301      	movs	r3, #1
 8007fc8:	2000      	movs	r0, #0
 8007fca:	f884 303d 	strb.w	r3, [r4, #61]	; 0x3d
 8007fce:	f884 003c 	strb.w	r0, [r4, #60]	; 0x3c
 8007fd2:	bd70      	pop	{r4, r5, r6, pc}
 8007fd4:	2b50      	cmp	r3, #80	; 0x50
 8007fd6:	d1f6      	bne.n	8007fc6 <HAL_TIM_ConfigClockSource+0x58>
 8007fd8:	6823      	ldr	r3, [r4, #0]
 8007fda:	6848      	ldr	r0, [r1, #4]
 8007fdc:	68ce      	ldr	r6, [r1, #12]
 8007fde:	6a19      	ldr	r1, [r3, #32]
 8007fe0:	6a1d      	ldr	r5, [r3, #32]
 8007fe2:	f025 0501 	bic.w	r5, r5, #1
 8007fe6:	621d      	str	r5, [r3, #32]
 8007fe8:	699a      	ldr	r2, [r3, #24]
 8007fea:	f021 010a 	bic.w	r1, r1, #10
 8007fee:	f022 02f0 	bic.w	r2, r2, #240	; 0xf0
 8007ff2:	ea42 1206 	orr.w	r2, r2, r6, lsl #4
 8007ff6:	4301      	orrs	r1, r0
 8007ff8:	619a      	str	r2, [r3, #24]
 8007ffa:	6219      	str	r1, [r3, #32]
 8007ffc:	6822      	ldr	r2, [r4, #0]
 8007ffe:	6893      	ldr	r3, [r2, #8]
 8008000:	f023 0370 	bic.w	r3, r3, #112	; 0x70
 8008004:	f043 0357 	orr.w	r3, r3, #87	; 0x57
 8008008:	e019      	b.n	800803e <HAL_TIM_ConfigClockSource+0xd0>
 800800a:	2b70      	cmp	r3, #112	; 0x70
 800800c:	d00d      	beq.n	800802a <HAL_TIM_ConfigClockSource+0xbc>
 800800e:	f5b3 5f00 	cmp.w	r3, #8192	; 0x2000
 8008012:	d1d8      	bne.n	8007fc6 <HAL_TIM_ConfigClockSource+0x58>
 8008014:	68cb      	ldr	r3, [r1, #12]
 8008016:	6820      	ldr	r0, [r4, #0]
 8008018:	e9d1 2101 	ldrd	r2, r1, [r1, #4]
 800801c:	f7ff ff9d 	bl	8007f5a <TIM_ETR_SetConfig>
 8008020:	6822      	ldr	r2, [r4, #0]
 8008022:	6893      	ldr	r3, [r2, #8]
 8008024:	f443 4380 	orr.w	r3, r3, #16384	; 0x4000
 8008028:	e009      	b.n	800803e <HAL_TIM_ConfigClockSource+0xd0>
 800802a:	68cb      	ldr	r3, [r1, #12]
 800802c:	6820      	ldr	r0, [r4, #0]
 800802e:	e9d1 2101 	ldrd	r2, r1, [r1, #4]
 8008032:	f7ff ff92 	bl	8007f5a <TIM_ETR_SetConfig>
 8008036:	6822      	ldr	r2, [r4, #0]
 8008038:	6893      	ldr	r3, [r2, #8]
 800803a:	f043 0377 	orr.w	r3, r3, #119	; 0x77
 800803e:	6093      	str	r3, [r2, #8]
 8008040:	e7c1      	b.n	8007fc6 <HAL_TIM_ConfigClockSource+0x58>
 8008042:	6823      	ldr	r3, [r4, #0]
 8008044:	684d      	ldr	r5, [r1, #4]
 8008046:	6a18      	ldr	r0, [r3, #32]
 8008048:	68ce      	ldr	r6, [r1, #12]
 800804a:	f020 0010 	bic.w	r0, r0, #16
 800804e:	6218      	str	r0, [r3, #32]
 8008050:	6999      	ldr	r1, [r3, #24]
 8008052:	6a1a      	ldr	r2, [r3, #32]
 8008054:	f421 4170 	bic.w	r1, r1, #61440	; 0xf000
 8008058:	f022 02a0 	bic.w	r2, r2, #160	; 0xa0
 800805c:	ea42 1205 	orr.w	r2, r2, r5, lsl #4
 8008060:	ea41 3106 	orr.w	r1, r1, r6, lsl #12
 8008064:	6199      	str	r1, [r3, #24]
 8008066:	621a      	str	r2, [r3, #32]
 8008068:	6822      	ldr	r2, [r4, #0]
 800806a:	6893      	ldr	r3, [r2, #8]
 800806c:	f023 0370 	bic.w	r3, r3, #112	; 0x70
 8008070:	f043 0367 	orr.w	r3, r3, #103	; 0x67
 8008074:	e7e3      	b.n	800803e <HAL_TIM_ConfigClockSource+0xd0>
 8008076:	6823      	ldr	r3, [r4, #0]
 8008078:	6848      	ldr	r0, [r1, #4]
 800807a:	68ce      	ldr	r6, [r1, #12]
 800807c:	6a19      	ldr	r1, [r3, #32]
 800807e:	6a1d      	ldr	r5, [r3, #32]
 8008080:	f025 0501 	bic.w	r5, r5, #1
 8008084:	621d      	str	r5, [r3, #32]
 8008086:	699a      	ldr	r2, [r3, #24]
 8008088:	f021 010a 	bic.w	r1, r1, #10
 800808c:	f022 02f0 	bic.w	r2, r2, #240	; 0xf0
 8008090:	ea42 1206 	orr.w	r2, r2, r6, lsl #4
 8008094:	4301      	orrs	r1, r0
 8008096:	619a      	str	r2, [r3, #24]
 8008098:	6219      	str	r1, [r3, #32]
 800809a:	6822      	ldr	r2, [r4, #0]
 800809c:	6893      	ldr	r3, [r2, #8]
 800809e:	f023 0370 	bic.w	r3, r3, #112	; 0x70
 80080a2:	f043 0347 	orr.w	r3, r3, #71	; 0x47
 80080a6:	e7ca      	b.n	800803e <HAL_TIM_ConfigClockSource+0xd0>

080080a8 <TIM_CCxChannelCmd>:
 80080a8:	6a03      	ldr	r3, [r0, #32]
 80080aa:	f001 011f 	and.w	r1, r1, #31
 80080ae:	b510      	push	{r4, lr}
 80080b0:	2401      	movs	r4, #1
 80080b2:	408c      	lsls	r4, r1
 80080b4:	ea23 0304 	bic.w	r3, r3, r4
 80080b8:	6203      	str	r3, [r0, #32]
 80080ba:	6a03      	ldr	r3, [r0, #32]
 80080bc:	408a      	lsls	r2, r1
 80080be:	431a      	orrs	r2, r3
 80080c0:	6202      	str	r2, [r0, #32]
 80080c2:	bd10      	pop	{r4, pc}

080080c4 <HAL_TIM_OC_Start>:
 80080c4:	b510      	push	{r4, lr}
 80080c6:	4604      	mov	r4, r0
 80080c8:	b929      	cbnz	r1, 80080d6 <HAL_TIM_OC_Start+0x12>
 80080ca:	f890 303e 	ldrb.w	r3, [r0, #62]	; 0x3e
 80080ce:	2b01      	cmp	r3, #1
 80080d0:	d01d      	beq.n	800810e <HAL_TIM_OC_Start+0x4a>
 80080d2:	2001      	movs	r0, #1
 80080d4:	bd10      	pop	{r4, pc}
 80080d6:	2904      	cmp	r1, #4
 80080d8:	d107      	bne.n	80080ea <HAL_TIM_OC_Start+0x26>
 80080da:	f890 303f 	ldrb.w	r3, [r0, #63]	; 0x3f
 80080de:	2b01      	cmp	r3, #1
 80080e0:	d1f7      	bne.n	80080d2 <HAL_TIM_OC_Start+0xe>
 80080e2:	2302      	movs	r3, #2
 80080e4:	f880 303f 	strb.w	r3, [r0, #63]	; 0x3f
 80080e8:	e014      	b.n	8008114 <HAL_TIM_OC_Start+0x50>
 80080ea:	2908      	cmp	r1, #8
 80080ec:	d107      	bne.n	80080fe <HAL_TIM_OC_Start+0x3a>
 80080ee:	f890 3040 	ldrb.w	r3, [r0, #64]	; 0x40
 80080f2:	2b01      	cmp	r3, #1
 80080f4:	d1ed      	bne.n	80080d2 <HAL_TIM_OC_Start+0xe>
 80080f6:	2302      	movs	r3, #2
 80080f8:	f880 3040 	strb.w	r3, [r0, #64]	; 0x40
 80080fc:	e00a      	b.n	8008114 <HAL_TIM_OC_Start+0x50>
 80080fe:	f890 3041 	ldrb.w	r3, [r0, #65]	; 0x41
 8008102:	2b01      	cmp	r3, #1
 8008104:	d1e5      	bne.n	80080d2 <HAL_TIM_OC_Start+0xe>
 8008106:	2302      	movs	r3, #2
 8008108:	f880 3041 	strb.w	r3, [r0, #65]	; 0x41
 800810c:	e002      	b.n	8008114 <HAL_TIM_OC_Start+0x50>
 800810e:	2302      	movs	r3, #2
 8008110:	f880 303e 	strb.w	r3, [r0, #62]	; 0x3e
 8008114:	2201      	movs	r2, #1
 8008116:	6820      	ldr	r0, [r4, #0]
 8008118:	f7ff ffc6 	bl	80080a8 <TIM_CCxChannelCmd>
 800811c:	6821      	ldr	r1, [r4, #0]
 800811e:	4a19      	ldr	r2, [pc, #100]	; (8008184 <HAL_TIM_OC_Start+0xc0>)
 8008120:	4291      	cmp	r1, r2
 8008122:	d002      	beq.n	800812a <HAL_TIM_OC_Start+0x66>
 8008124:	4b18      	ldr	r3, [pc, #96]	; (8008188 <HAL_TIM_OC_Start+0xc4>)
 8008126:	4299      	cmp	r1, r3
 8008128:	d103      	bne.n	8008132 <HAL_TIM_OC_Start+0x6e>
 800812a:	6c4b      	ldr	r3, [r1, #68]	; 0x44
 800812c:	f443 4300 	orr.w	r3, r3, #32768	; 0x8000
 8008130:	644b      	str	r3, [r1, #68]	; 0x44
 8008132:	6823      	ldr	r3, [r4, #0]
 8008134:	4293      	cmp	r3, r2
 8008136:	d019      	beq.n	800816c <HAL_TIM_OC_Start+0xa8>
 8008138:	f1b3 4f80 	cmp.w	r3, #1073741824	; 0x40000000
 800813c:	d016      	beq.n	800816c <HAL_TIM_OC_Start+0xa8>
 800813e:	4a13      	ldr	r2, [pc, #76]	; (800818c <HAL_TIM_OC_Start+0xc8>)
 8008140:	4293      	cmp	r3, r2
 8008142:	d013      	beq.n	800816c <HAL_TIM_OC_Start+0xa8>
 8008144:	f502 6280 	add.w	r2, r2, #1024	; 0x400
 8008148:	4293      	cmp	r3, r2
 800814a:	d00f      	beq.n	800816c <HAL_TIM_OC_Start+0xa8>
 800814c:	f502 6280 	add.w	r2, r2, #1024	; 0x400
 8008150:	4293      	cmp	r3, r2
 8008152:	d00b      	beq.n	800816c <HAL_TIM_OC_Start+0xa8>
 8008154:	f502 4278 	add.w	r2, r2, #63488	; 0xf800
 8008158:	4293      	cmp	r3, r2
 800815a:	d007      	beq.n	800816c <HAL_TIM_OC_Start+0xa8>
 800815c:	f502 5270 	add.w	r2, r2, #15360	; 0x3c00
 8008160:	4293      	cmp	r3, r2
 8008162:	d003      	beq.n	800816c <HAL_TIM_OC_Start+0xa8>
 8008164:	f5a2 3294 	sub.w	r2, r2, #75776	; 0x12800
 8008168:	4293      	cmp	r3, r2
 800816a:	d104      	bne.n	8008176 <HAL_TIM_OC_Start+0xb2>
 800816c:	689a      	ldr	r2, [r3, #8]
 800816e:	f002 0207 	and.w	r2, r2, #7
 8008172:	2a06      	cmp	r2, #6
 8008174:	d003      	beq.n	800817e <HAL_TIM_OC_Start+0xba>
 8008176:	681a      	ldr	r2, [r3, #0]
 8008178:	f042 0201 	orr.w	r2, r2, #1
 800817c:	601a      	str	r2, [r3, #0]
 800817e:	2000      	movs	r0, #0
 8008180:	e7a8      	b.n	80080d4 <HAL_TIM_OC_Start+0x10>
 8008182:	bf00      	nop
 8008184:	40010000 	.word	0x40010000
 8008188:	40010400 	.word	0x40010400
 800818c:	40000400 	.word	0x40000400

08008190 <HAL_TIM_PWM_Start>:
 8008190:	f7ff bf98 	b.w	80080c4 <HAL_TIM_OC_Start>

08008194 <HAL_TIMEx_MasterConfigSynchronization>:
 8008194:	b530      	push	{r4, r5, lr}
 8008196:	f890 303c 	ldrb.w	r3, [r0, #60]	; 0x3c
 800819a:	2b01      	cmp	r3, #1
 800819c:	f04f 0302 	mov.w	r3, #2
 80081a0:	d036      	beq.n	8008210 <HAL_TIMEx_MasterConfigSynchronization+0x7c>
 80081a2:	6804      	ldr	r4, [r0, #0]
 80081a4:	f880 303d 	strb.w	r3, [r0, #61]	; 0x3d
 80081a8:	2201      	movs	r2, #1
 80081aa:	f880 203c 	strb.w	r2, [r0, #60]	; 0x3c
 80081ae:	6863      	ldr	r3, [r4, #4]
 80081b0:	680d      	ldr	r5, [r1, #0]
 80081b2:	68a2      	ldr	r2, [r4, #8]
 80081b4:	f023 0370 	bic.w	r3, r3, #112	; 0x70
 80081b8:	432b      	orrs	r3, r5
 80081ba:	6063      	str	r3, [r4, #4]
 80081bc:	6803      	ldr	r3, [r0, #0]
 80081be:	4c15      	ldr	r4, [pc, #84]	; (8008214 <HAL_TIMEx_MasterConfigSynchronization+0x80>)
 80081c0:	42a3      	cmp	r3, r4
 80081c2:	d01a      	beq.n	80081fa <HAL_TIMEx_MasterConfigSynchronization+0x66>
 80081c4:	f1b3 4f80 	cmp.w	r3, #1073741824	; 0x40000000
 80081c8:	d017      	beq.n	80081fa <HAL_TIMEx_MasterConfigSynchronization+0x66>
 80081ca:	f5a4 447c 	sub.w	r4, r4, #64512	; 0xfc00
 80081ce:	42a3      	cmp	r3, r4
 80081d0:	d013      	beq.n	80081fa <HAL_TIMEx_MasterConfigSynchronization+0x66>
 80081d2:	f504 6480 	add.w	r4, r4, #1024	; 0x400
 80081d6:	42a3      	cmp	r3, r4
 80081d8:	d00f      	beq.n	80081fa <HAL_TIMEx_MasterConfigSynchronization+0x66>
 80081da:	f504 6480 	add.w	r4, r4, #1024	; 0x400
 80081de:	42a3      	cmp	r3, r4
 80081e0:	d00b      	beq.n	80081fa <HAL_TIMEx_MasterConfigSynchronization+0x66>
 80081e2:	f504 4478 	add.w	r4, r4, #63488	; 0xf800
 80081e6:	42a3      	cmp	r3, r4
 80081e8:	d007      	beq.n	80081fa <HAL_TIMEx_MasterConfigSynchronization+0x66>
 80081ea:	f504 5470 	add.w	r4, r4, #15360	; 0x3c00
 80081ee:	42a3      	cmp	r3, r4
 80081f0:	d003      	beq.n	80081fa <HAL_TIMEx_MasterConfigSynchronization+0x66>
 80081f2:	f5a4 3494 	sub.w	r4, r4, #75776	; 0x12800
 80081f6:	42a3      	cmp	r3, r4
 80081f8:	d104      	bne.n	8008204 <HAL_TIMEx_MasterConfigSynchronization+0x70>
 80081fa:	6849      	ldr	r1, [r1, #4]
 80081fc:	f022 0280 	bic.w	r2, r2, #128	; 0x80
 8008200:	430a      	orrs	r2, r1
 8008202:	609a      	str	r2, [r3, #8]
 8008204:	2301      	movs	r3, #1
 8008206:	f880 303d 	strb.w	r3, [r0, #61]	; 0x3d
 800820a:	2300      	movs	r3, #0
 800820c:	f880 303c 	strb.w	r3, [r0, #60]	; 0x3c
 8008210:	4618      	mov	r0, r3
 8008212:	bd30      	pop	{r4, r5, pc}
 8008214:	40010000 	.word	0x40010000

08008218 <HAL_TIMEx_CommutCallback>:
 8008218:	4770      	bx	lr

0800821a <HAL_TIMEx_BreakCallback>:
 800821a:	4770      	bx	lr

0800821c <UART_EndRxTransfer>:
 800821c:	6802      	ldr	r2, [r0, #0]
 800821e:	68d3      	ldr	r3, [r2, #12]
 8008220:	f423 7390 	bic.w	r3, r3, #288	; 0x120
 8008224:	60d3      	str	r3, [r2, #12]
 8008226:	6802      	ldr	r2, [r0, #0]
 8008228:	6953      	ldr	r3, [r2, #20]
 800822a:	f023 0301 	bic.w	r3, r3, #1
 800822e:	6153      	str	r3, [r2, #20]
 8008230:	6b03      	ldr	r3, [r0, #48]	; 0x30
 8008232:	2b01      	cmp	r3, #1
 8008234:	bf01      	itttt	eq
 8008236:	6802      	ldreq	r2, [r0, #0]
 8008238:	68d3      	ldreq	r3, [r2, #12]
 800823a:	f023 0310 	biceq.w	r3, r3, #16
 800823e:	60d3      	streq	r3, [r2, #12]
 8008240:	2320      	movs	r3, #32
 8008242:	f880 303e 	strb.w	r3, [r0, #62]	; 0x3e
 8008246:	2300      	movs	r3, #0
 8008248:	6303      	str	r3, [r0, #48]	; 0x30
 800824a:	4770      	bx	lr

0800824c <UART_SetConfig>:
 800824c:	b538      	push	{r3, r4, r5, lr}
 800824e:	6802      	ldr	r2, [r0, #0]
 8008250:	68c1      	ldr	r1, [r0, #12]
 8008252:	6913      	ldr	r3, [r2, #16]
 8008254:	f423 5340 	bic.w	r3, r3, #12288	; 0x3000
 8008258:	430b      	orrs	r3, r1
 800825a:	6113      	str	r3, [r2, #16]
 800825c:	4605      	mov	r5, r0
 800825e:	6801      	ldr	r1, [r0, #0]
 8008260:	6883      	ldr	r3, [r0, #8]
 8008262:	6900      	ldr	r0, [r0, #16]
 8008264:	68ca      	ldr	r2, [r1, #12]
 8008266:	4303      	orrs	r3, r0
 8008268:	6968      	ldr	r0, [r5, #20]
 800826a:	4303      	orrs	r3, r0
 800826c:	69e8      	ldr	r0, [r5, #28]
 800826e:	f422 4216 	bic.w	r2, r2, #38400	; 0x9600
 8008272:	f022 020c 	bic.w	r2, r2, #12
 8008276:	4303      	orrs	r3, r0
 8008278:	4313      	orrs	r3, r2
 800827a:	60cb      	str	r3, [r1, #12]
 800827c:	682a      	ldr	r2, [r5, #0]
 800827e:	69a9      	ldr	r1, [r5, #24]
 8008280:	6953      	ldr	r3, [r2, #20]
 8008282:	f423 7340 	bic.w	r3, r3, #768	; 0x300
 8008286:	430b      	orrs	r3, r1
 8008288:	6153      	str	r3, [r2, #20]
 800828a:	682b      	ldr	r3, [r5, #0]
 800828c:	4a1f      	ldr	r2, [pc, #124]	; (800830c <UART_SetConfig+0xc0>)
 800828e:	4293      	cmp	r3, r2
 8008290:	d003      	beq.n	800829a <UART_SetConfig+0x4e>
 8008292:	f502 6280 	add.w	r2, r2, #1024	; 0x400
 8008296:	4293      	cmp	r3, r2
 8008298:	d124      	bne.n	80082e4 <UART_SetConfig+0x98>
 800829a:	f7ff f86f 	bl	800737c <HAL_RCC_GetPCLK2Freq>
 800829e:	69ea      	ldr	r2, [r5, #28]
 80082a0:	2319      	movs	r3, #25
 80082a2:	f5b2 4f00 	cmp.w	r2, #32768	; 0x8000
 80082a6:	fba0 0103 	umull	r0, r1, r0, r3
 80082aa:	e9d5 4300 	ldrd	r4, r3, [r5]
 80082ae:	d11c      	bne.n	80082ea <UART_SetConfig+0x9e>
 80082b0:	461a      	mov	r2, r3
 80082b2:	1892      	adds	r2, r2, r2
 80082b4:	f04f 0300 	mov.w	r3, #0
 80082b8:	415b      	adcs	r3, r3
 80082ba:	f7f8 fcf5 	bl	8000ca8 <__aeabi_uldivmod>
 80082be:	2164      	movs	r1, #100	; 0x64
 80082c0:	fbb0 f5f1 	udiv	r5, r0, r1
 80082c4:	fb01 0315 	mls	r3, r1, r5, r0
 80082c8:	00db      	lsls	r3, r3, #3
 80082ca:	3332      	adds	r3, #50	; 0x32
 80082cc:	fbb3 f3f1 	udiv	r3, r3, r1
 80082d0:	f003 0207 	and.w	r2, r3, #7
 80082d4:	005b      	lsls	r3, r3, #1
 80082d6:	eb02 1205 	add.w	r2, r2, r5, lsl #4
 80082da:	f403 73f8 	and.w	r3, r3, #496	; 0x1f0
 80082de:	4413      	add	r3, r2
 80082e0:	60a3      	str	r3, [r4, #8]
 80082e2:	bd38      	pop	{r3, r4, r5, pc}
 80082e4:	f7ff f83a 	bl	800735c <HAL_RCC_GetPCLK1Freq>
 80082e8:	e7d9      	b.n	800829e <UART_SetConfig+0x52>
 80082ea:	009a      	lsls	r2, r3, #2
 80082ec:	0f9b      	lsrs	r3, r3, #30
 80082ee:	f7f8 fcdb 	bl	8000ca8 <__aeabi_uldivmod>
 80082f2:	2264      	movs	r2, #100	; 0x64
 80082f4:	fbb0 f1f2 	udiv	r1, r0, r2
 80082f8:	fb02 0311 	mls	r3, r2, r1, r0
 80082fc:	011b      	lsls	r3, r3, #4
 80082fe:	3332      	adds	r3, #50	; 0x32
 8008300:	fbb3 f3f2 	udiv	r3, r3, r2
 8008304:	eb03 1301 	add.w	r3, r3, r1, lsl #4
 8008308:	e7ea      	b.n	80082e0 <UART_SetConfig+0x94>
 800830a:	bf00      	nop
 800830c:	40011000 	.word	0x40011000

08008310 <UART_WaitOnFlagUntilTimeout.constprop.0>:
 8008310:	b5f8      	push	{r3, r4, r5, r6, r7, lr}
 8008312:	4604      	mov	r4, r0
 8008314:	460e      	mov	r6, r1
 8008316:	4617      	mov	r7, r2
 8008318:	461d      	mov	r5, r3
 800831a:	6822      	ldr	r2, [r4, #0]
 800831c:	6813      	ldr	r3, [r2, #0]
 800831e:	ea36 0303 	bics.w	r3, r6, r3
 8008322:	d101      	bne.n	8008328 <UART_WaitOnFlagUntilTimeout.constprop.0+0x18>
 8008324:	2000      	movs	r0, #0
 8008326:	e015      	b.n	8008354 <UART_WaitOnFlagUntilTimeout.constprop.0+0x44>
 8008328:	1c6b      	adds	r3, r5, #1
 800832a:	d0f7      	beq.n	800831c <UART_WaitOnFlagUntilTimeout.constprop.0+0xc>
 800832c:	b99d      	cbnz	r5, 8008356 <UART_WaitOnFlagUntilTimeout.constprop.0+0x46>
 800832e:	6822      	ldr	r2, [r4, #0]
 8008330:	68d3      	ldr	r3, [r2, #12]
 8008332:	f423 73d0 	bic.w	r3, r3, #416	; 0x1a0
 8008336:	60d3      	str	r3, [r2, #12]
 8008338:	6822      	ldr	r2, [r4, #0]
 800833a:	6953      	ldr	r3, [r2, #20]
 800833c:	f023 0301 	bic.w	r3, r3, #1
 8008340:	6153      	str	r3, [r2, #20]
 8008342:	2320      	movs	r3, #32
 8008344:	f884 303d 	strb.w	r3, [r4, #61]	; 0x3d
 8008348:	f884 303e 	strb.w	r3, [r4, #62]	; 0x3e
 800834c:	2300      	movs	r3, #0
 800834e:	f884 303c 	strb.w	r3, [r4, #60]	; 0x3c
 8008352:	2003      	movs	r0, #3
 8008354:	bdf8      	pop	{r3, r4, r5, r6, r7, pc}
 8008356:	f7fc ff85 	bl	8005264 <HAL_GetTick>
 800835a:	1bc0      	subs	r0, r0, r7
 800835c:	4285      	cmp	r5, r0
 800835e:	d2dc      	bcs.n	800831a <UART_WaitOnFlagUntilTimeout.constprop.0+0xa>
 8008360:	e7e5      	b.n	800832e <UART_WaitOnFlagUntilTimeout.constprop.0+0x1e>

08008362 <HAL_UART_Init>:
 8008362:	b510      	push	{r4, lr}
 8008364:	4604      	mov	r4, r0
 8008366:	b350      	cbz	r0, 80083be <HAL_UART_Init+0x5c>
 8008368:	f890 303d 	ldrb.w	r3, [r0, #61]	; 0x3d
 800836c:	f003 02ff 	and.w	r2, r3, #255	; 0xff
 8008370:	b91b      	cbnz	r3, 800837a <HAL_UART_Init+0x18>
 8008372:	f880 203c 	strb.w	r2, [r0, #60]	; 0x3c
 8008376:	f7fc fd87 	bl	8004e88 <HAL_UART_MspInit>
 800837a:	6822      	ldr	r2, [r4, #0]
 800837c:	2324      	movs	r3, #36	; 0x24
 800837e:	f884 303d 	strb.w	r3, [r4, #61]	; 0x3d
 8008382:	68d3      	ldr	r3, [r2, #12]
 8008384:	f423 5300 	bic.w	r3, r3, #8192	; 0x2000
 8008388:	60d3      	str	r3, [r2, #12]
 800838a:	4620      	mov	r0, r4
 800838c:	f7ff ff5e 	bl	800824c <UART_SetConfig>
 8008390:	6822      	ldr	r2, [r4, #0]
 8008392:	6913      	ldr	r3, [r2, #16]
 8008394:	f423 4390 	bic.w	r3, r3, #18432	; 0x4800
 8008398:	6113      	str	r3, [r2, #16]
 800839a:	6822      	ldr	r2, [r4, #0]
 800839c:	6953      	ldr	r3, [r2, #20]
 800839e:	f023 032a 	bic.w	r3, r3, #42	; 0x2a
 80083a2:	6153      	str	r3, [r2, #20]
 80083a4:	6822      	ldr	r2, [r4, #0]
 80083a6:	68d3      	ldr	r3, [r2, #12]
 80083a8:	f443 5300 	orr.w	r3, r3, #8192	; 0x2000
 80083ac:	60d3      	str	r3, [r2, #12]
 80083ae:	2000      	movs	r0, #0
 80083b0:	2320      	movs	r3, #32
 80083b2:	6420      	str	r0, [r4, #64]	; 0x40
 80083b4:	f884 303d 	strb.w	r3, [r4, #61]	; 0x3d
 80083b8:	f884 303e 	strb.w	r3, [r4, #62]	; 0x3e
 80083bc:	bd10      	pop	{r4, pc}
 80083be:	2001      	movs	r0, #1
 80083c0:	e7fc      	b.n	80083bc <HAL_UART_Init+0x5a>

080083c2 <HAL_UART_Transmit>:
 80083c2:	b5f7      	push	{r0, r1, r2, r4, r5, r6, r7, lr}
 80083c4:	4617      	mov	r7, r2
 80083c6:	f890 203d 	ldrb.w	r2, [r0, #61]	; 0x3d
 80083ca:	9300      	str	r3, [sp, #0]
 80083cc:	2a20      	cmp	r2, #32
 80083ce:	4604      	mov	r4, r0
 80083d0:	460e      	mov	r6, r1
 80083d2:	d149      	bne.n	8008468 <HAL_UART_Transmit+0xa6>
 80083d4:	2900      	cmp	r1, #0
 80083d6:	d045      	beq.n	8008464 <HAL_UART_Transmit+0xa2>
 80083d8:	2f00      	cmp	r7, #0
 80083da:	d043      	beq.n	8008464 <HAL_UART_Transmit+0xa2>
 80083dc:	f890 203c 	ldrb.w	r2, [r0, #60]	; 0x3c
 80083e0:	2a01      	cmp	r2, #1
 80083e2:	d041      	beq.n	8008468 <HAL_UART_Transmit+0xa6>
 80083e4:	2201      	movs	r2, #1
 80083e6:	f880 203c 	strb.w	r2, [r0, #60]	; 0x3c
 80083ea:	2500      	movs	r5, #0
 80083ec:	2221      	movs	r2, #33	; 0x21
 80083ee:	6405      	str	r5, [r0, #64]	; 0x40
 80083f0:	f880 203d 	strb.w	r2, [r0, #61]	; 0x3d
 80083f4:	f7fc ff36 	bl	8005264 <HAL_GetTick>
 80083f8:	68a1      	ldr	r1, [r4, #8]
 80083fa:	9b00      	ldr	r3, [sp, #0]
 80083fc:	84a7      	strh	r7, [r4, #36]	; 0x24
 80083fe:	f5b1 5f80 	cmp.w	r1, #4096	; 0x1000
 8008402:	4602      	mov	r2, r0
 8008404:	84e7      	strh	r7, [r4, #38]	; 0x26
 8008406:	d103      	bne.n	8008410 <HAL_UART_Transmit+0x4e>
 8008408:	6921      	ldr	r1, [r4, #16]
 800840a:	b909      	cbnz	r1, 8008410 <HAL_UART_Transmit+0x4e>
 800840c:	4635      	mov	r5, r6
 800840e:	460e      	mov	r6, r1
 8008410:	2100      	movs	r1, #0
 8008412:	f884 103c 	strb.w	r1, [r4, #60]	; 0x3c
 8008416:	8ce1      	ldrh	r1, [r4, #38]	; 0x26
 8008418:	b289      	uxth	r1, r1
 800841a:	b941      	cbnz	r1, 800842e <HAL_UART_Transmit+0x6c>
 800841c:	2140      	movs	r1, #64	; 0x40
 800841e:	4620      	mov	r0, r4
 8008420:	f7ff ff76 	bl	8008310 <UART_WaitOnFlagUntilTimeout.constprop.0>
 8008424:	b960      	cbnz	r0, 8008440 <HAL_UART_Transmit+0x7e>
 8008426:	2320      	movs	r3, #32
 8008428:	f884 303d 	strb.w	r3, [r4, #61]	; 0x3d
 800842c:	e009      	b.n	8008442 <HAL_UART_Transmit+0x80>
 800842e:	2180      	movs	r1, #128	; 0x80
 8008430:	4620      	mov	r0, r4
 8008432:	e9cd 2300 	strd	r2, r3, [sp]
 8008436:	f7ff ff6b 	bl	8008310 <UART_WaitOnFlagUntilTimeout.constprop.0>
 800843a:	e9dd 2300 	ldrd	r2, r3, [sp]
 800843e:	b110      	cbz	r0, 8008446 <HAL_UART_Transmit+0x84>
 8008440:	2003      	movs	r0, #3
 8008442:	b003      	add	sp, #12
 8008444:	bdf0      	pop	{r4, r5, r6, r7, pc}
 8008446:	6820      	ldr	r0, [r4, #0]
 8008448:	b94e      	cbnz	r6, 800845e <HAL_UART_Transmit+0x9c>
 800844a:	f835 1b02 	ldrh.w	r1, [r5], #2
 800844e:	f3c1 0108 	ubfx	r1, r1, #0, #9
 8008452:	6041      	str	r1, [r0, #4]
 8008454:	8ce1      	ldrh	r1, [r4, #38]	; 0x26
 8008456:	3901      	subs	r1, #1
 8008458:	b289      	uxth	r1, r1
 800845a:	84e1      	strh	r1, [r4, #38]	; 0x26
 800845c:	e7db      	b.n	8008416 <HAL_UART_Transmit+0x54>
 800845e:	f816 1b01 	ldrb.w	r1, [r6], #1
 8008462:	e7f6      	b.n	8008452 <HAL_UART_Transmit+0x90>
 8008464:	2001      	movs	r0, #1
 8008466:	e7ec      	b.n	8008442 <HAL_UART_Transmit+0x80>
 8008468:	2002      	movs	r0, #2
 800846a:	e7ea      	b.n	8008442 <HAL_UART_Transmit+0x80>

0800846c <HAL_UART_DMAStop>:
 800846c:	b510      	push	{r4, lr}
 800846e:	6803      	ldr	r3, [r0, #0]
 8008470:	695a      	ldr	r2, [r3, #20]
 8008472:	f890 103d 	ldrb.w	r1, [r0, #61]	; 0x3d
 8008476:	2921      	cmp	r1, #33	; 0x21
 8008478:	4604      	mov	r4, r0
 800847a:	d111      	bne.n	80084a0 <HAL_UART_DMAStop+0x34>
 800847c:	0611      	lsls	r1, r2, #24
 800847e:	d50f      	bpl.n	80084a0 <HAL_UART_DMAStop+0x34>
 8008480:	695a      	ldr	r2, [r3, #20]
 8008482:	f022 0280 	bic.w	r2, r2, #128	; 0x80
 8008486:	615a      	str	r2, [r3, #20]
 8008488:	6b40      	ldr	r0, [r0, #52]	; 0x34
 800848a:	b108      	cbz	r0, 8008490 <HAL_UART_DMAStop+0x24>
 800848c:	f7fd fb47 	bl	8005b1e <HAL_DMA_Abort>
 8008490:	6822      	ldr	r2, [r4, #0]
 8008492:	68d3      	ldr	r3, [r2, #12]
 8008494:	f023 03c0 	bic.w	r3, r3, #192	; 0xc0
 8008498:	60d3      	str	r3, [r2, #12]
 800849a:	2320      	movs	r3, #32
 800849c:	f884 303d 	strb.w	r3, [r4, #61]	; 0x3d
 80084a0:	6823      	ldr	r3, [r4, #0]
 80084a2:	695a      	ldr	r2, [r3, #20]
 80084a4:	f894 103e 	ldrb.w	r1, [r4, #62]	; 0x3e
 80084a8:	2922      	cmp	r1, #34	; 0x22
 80084aa:	d10c      	bne.n	80084c6 <HAL_UART_DMAStop+0x5a>
 80084ac:	0652      	lsls	r2, r2, #25
 80084ae:	d50a      	bpl.n	80084c6 <HAL_UART_DMAStop+0x5a>
 80084b0:	695a      	ldr	r2, [r3, #20]
 80084b2:	f022 0240 	bic.w	r2, r2, #64	; 0x40
 80084b6:	615a      	str	r2, [r3, #20]
 80084b8:	6ba0      	ldr	r0, [r4, #56]	; 0x38
 80084ba:	b108      	cbz	r0, 80084c0 <HAL_UART_DMAStop+0x54>
 80084bc:	f7fd fb2f 	bl	8005b1e <HAL_DMA_Abort>
 80084c0:	4620      	mov	r0, r4
 80084c2:	f7ff feab 	bl	800821c <UART_EndRxTransfer>
 80084c6:	2000      	movs	r0, #0
 80084c8:	bd10      	pop	{r4, pc}

080084ca <HAL_UART_RxCpltCallback>:
 80084ca:	4770      	bx	lr

080084cc <HAL_UART_RxHalfCpltCallback>:
 80084cc:	4770      	bx	lr

080084ce <HAL_UART_ErrorCallback>:
 80084ce:	4770      	bx	lr

080084d0 <UART_DMAError>:
 80084d0:	b508      	push	{r3, lr}
 80084d2:	6b80      	ldr	r0, [r0, #56]	; 0x38
 80084d4:	6803      	ldr	r3, [r0, #0]
 80084d6:	695a      	ldr	r2, [r3, #20]
 80084d8:	f890 103d 	ldrb.w	r1, [r0, #61]	; 0x3d
 80084dc:	2921      	cmp	r1, #33	; 0x21
 80084de:	d10a      	bne.n	80084f6 <UART_DMAError+0x26>
 80084e0:	0612      	lsls	r2, r2, #24
 80084e2:	d508      	bpl.n	80084f6 <UART_DMAError+0x26>
 80084e4:	2200      	movs	r2, #0
 80084e6:	84c2      	strh	r2, [r0, #38]	; 0x26
 80084e8:	68da      	ldr	r2, [r3, #12]
 80084ea:	f022 02c0 	bic.w	r2, r2, #192	; 0xc0
 80084ee:	60da      	str	r2, [r3, #12]
 80084f0:	2320      	movs	r3, #32
 80084f2:	f880 303d 	strb.w	r3, [r0, #61]	; 0x3d
 80084f6:	6803      	ldr	r3, [r0, #0]
 80084f8:	695b      	ldr	r3, [r3, #20]
 80084fa:	f890 203e 	ldrb.w	r2, [r0, #62]	; 0x3e
 80084fe:	2a22      	cmp	r2, #34	; 0x22
 8008500:	d105      	bne.n	800850e <UART_DMAError+0x3e>
 8008502:	065b      	lsls	r3, r3, #25
 8008504:	d503      	bpl.n	800850e <UART_DMAError+0x3e>
 8008506:	2300      	movs	r3, #0
 8008508:	85c3      	strh	r3, [r0, #46]	; 0x2e
 800850a:	f7ff fe87 	bl	800821c <UART_EndRxTransfer>
 800850e:	6c03      	ldr	r3, [r0, #64]	; 0x40
 8008510:	f043 0310 	orr.w	r3, r3, #16
 8008514:	6403      	str	r3, [r0, #64]	; 0x40
 8008516:	f7ff ffda 	bl	80084ce <HAL_UART_ErrorCallback>
 800851a:	bd08      	pop	{r3, pc}

0800851c <UART_DMAAbortOnError>:
 800851c:	b508      	push	{r3, lr}
 800851e:	6b80      	ldr	r0, [r0, #56]	; 0x38
 8008520:	2300      	movs	r3, #0
 8008522:	85c3      	strh	r3, [r0, #46]	; 0x2e
 8008524:	84c3      	strh	r3, [r0, #38]	; 0x26
 8008526:	f7ff ffd2 	bl	80084ce <HAL_UART_ErrorCallback>
 800852a:	bd08      	pop	{r3, pc}

0800852c <HAL_UARTEx_RxEventCallback>:
 800852c:	4770      	bx	lr

0800852e <UART_Receive_IT>:
 800852e:	b510      	push	{r4, lr}
 8008530:	f890 303e 	ldrb.w	r3, [r0, #62]	; 0x3e
 8008534:	2b22      	cmp	r3, #34	; 0x22
 8008536:	4604      	mov	r4, r0
 8008538:	d147      	bne.n	80085ca <UART_Receive_IT+0x9c>
 800853a:	6881      	ldr	r1, [r0, #8]
 800853c:	6a82      	ldr	r2, [r0, #40]	; 0x28
 800853e:	6803      	ldr	r3, [r0, #0]
 8008540:	f5b1 5f80 	cmp.w	r1, #4096	; 0x1000
 8008544:	d130      	bne.n	80085a8 <UART_Receive_IT+0x7a>
 8008546:	6901      	ldr	r1, [r0, #16]
 8008548:	2900      	cmp	r1, #0
 800854a:	d130      	bne.n	80085ae <UART_Receive_IT+0x80>
 800854c:	685b      	ldr	r3, [r3, #4]
 800854e:	f3c3 0308 	ubfx	r3, r3, #0, #9
 8008552:	8013      	strh	r3, [r2, #0]
 8008554:	6a83      	ldr	r3, [r0, #40]	; 0x28
 8008556:	3302      	adds	r3, #2
 8008558:	62a3      	str	r3, [r4, #40]	; 0x28
 800855a:	8de3      	ldrh	r3, [r4, #46]	; 0x2e
 800855c:	3b01      	subs	r3, #1
 800855e:	b29b      	uxth	r3, r3
 8008560:	85e3      	strh	r3, [r4, #46]	; 0x2e
 8008562:	2b00      	cmp	r3, #0
 8008564:	d133      	bne.n	80085ce <UART_Receive_IT+0xa0>
 8008566:	6822      	ldr	r2, [r4, #0]
 8008568:	68d3      	ldr	r3, [r2, #12]
 800856a:	f023 0320 	bic.w	r3, r3, #32
 800856e:	60d3      	str	r3, [r2, #12]
 8008570:	6822      	ldr	r2, [r4, #0]
 8008572:	68d3      	ldr	r3, [r2, #12]
 8008574:	f423 7380 	bic.w	r3, r3, #256	; 0x100
 8008578:	60d3      	str	r3, [r2, #12]
 800857a:	6822      	ldr	r2, [r4, #0]
 800857c:	6953      	ldr	r3, [r2, #20]
 800857e:	f023 0301 	bic.w	r3, r3, #1
 8008582:	6153      	str	r3, [r2, #20]
 8008584:	2320      	movs	r3, #32
 8008586:	f884 303e 	strb.w	r3, [r4, #62]	; 0x3e
 800858a:	6b23      	ldr	r3, [r4, #48]	; 0x30
 800858c:	2b01      	cmp	r3, #1
 800858e:	d118      	bne.n	80085c2 <UART_Receive_IT+0x94>
 8008590:	6822      	ldr	r2, [r4, #0]
 8008592:	68d3      	ldr	r3, [r2, #12]
 8008594:	f023 0310 	bic.w	r3, r3, #16
 8008598:	60d3      	str	r3, [r2, #12]
 800859a:	8da1      	ldrh	r1, [r4, #44]	; 0x2c
 800859c:	4620      	mov	r0, r4
 800859e:	f7ff ffc5 	bl	800852c <HAL_UARTEx_RxEventCallback>
 80085a2:	2000      	movs	r0, #0
 80085a4:	6320      	str	r0, [r4, #48]	; 0x30
 80085a6:	bd10      	pop	{r4, pc}
 80085a8:	b939      	cbnz	r1, 80085ba <UART_Receive_IT+0x8c>
 80085aa:	6901      	ldr	r1, [r0, #16]
 80085ac:	b929      	cbnz	r1, 80085ba <UART_Receive_IT+0x8c>
 80085ae:	685b      	ldr	r3, [r3, #4]
 80085b0:	b2db      	uxtb	r3, r3
 80085b2:	7013      	strb	r3, [r2, #0]
 80085b4:	6aa3      	ldr	r3, [r4, #40]	; 0x28
 80085b6:	3301      	adds	r3, #1
 80085b8:	e7ce      	b.n	8008558 <UART_Receive_IT+0x2a>
 80085ba:	685b      	ldr	r3, [r3, #4]
 80085bc:	f003 037f 	and.w	r3, r3, #127	; 0x7f
 80085c0:	e7f7      	b.n	80085b2 <UART_Receive_IT+0x84>
 80085c2:	4620      	mov	r0, r4
 80085c4:	f7ff ff81 	bl	80084ca <HAL_UART_RxCpltCallback>
 80085c8:	e7eb      	b.n	80085a2 <UART_Receive_IT+0x74>
 80085ca:	2002      	movs	r0, #2
 80085cc:	e7eb      	b.n	80085a6 <UART_Receive_IT+0x78>
 80085ce:	2000      	movs	r0, #0
 80085d0:	e7e9      	b.n	80085a6 <UART_Receive_IT+0x78>
	...

080085d4 <HAL_UART_IRQHandler>:
 80085d4:	b537      	push	{r0, r1, r2, r4, r5, lr}
 80085d6:	6803      	ldr	r3, [r0, #0]
 80085d8:	681a      	ldr	r2, [r3, #0]
 80085da:	68d9      	ldr	r1, [r3, #12]
 80085dc:	695d      	ldr	r5, [r3, #20]
 80085de:	f012 0f0f 	tst.w	r2, #15
 80085e2:	4604      	mov	r4, r0
 80085e4:	d108      	bne.n	80085f8 <HAL_UART_IRQHandler+0x24>
 80085e6:	0695      	lsls	r5, r2, #26
 80085e8:	d560      	bpl.n	80086ac <HAL_UART_IRQHandler+0xd8>
 80085ea:	068d      	lsls	r5, r1, #26
 80085ec:	d55e      	bpl.n	80086ac <HAL_UART_IRQHandler+0xd8>
 80085ee:	b003      	add	sp, #12
 80085f0:	e8bd 4030 	ldmia.w	sp!, {r4, r5, lr}
 80085f4:	f7ff bf9b 	b.w	800852e <UART_Receive_IT>
 80085f8:	f005 0001 	and.w	r0, r5, #1
 80085fc:	f401 7590 	and.w	r5, r1, #288	; 0x120
 8008600:	4305      	orrs	r5, r0
 8008602:	d053      	beq.n	80086ac <HAL_UART_IRQHandler+0xd8>
 8008604:	07d5      	lsls	r5, r2, #31
 8008606:	d505      	bpl.n	8008614 <HAL_UART_IRQHandler+0x40>
 8008608:	05cb      	lsls	r3, r1, #23
 800860a:	bf42      	ittt	mi
 800860c:	6c23      	ldrmi	r3, [r4, #64]	; 0x40
 800860e:	f043 0301 	orrmi.w	r3, r3, #1
 8008612:	6423      	strmi	r3, [r4, #64]	; 0x40
 8008614:	0755      	lsls	r5, r2, #29
 8008616:	d504      	bpl.n	8008622 <HAL_UART_IRQHandler+0x4e>
 8008618:	b118      	cbz	r0, 8008622 <HAL_UART_IRQHandler+0x4e>
 800861a:	6c23      	ldr	r3, [r4, #64]	; 0x40
 800861c:	f043 0302 	orr.w	r3, r3, #2
 8008620:	6423      	str	r3, [r4, #64]	; 0x40
 8008622:	0793      	lsls	r3, r2, #30
 8008624:	d504      	bpl.n	8008630 <HAL_UART_IRQHandler+0x5c>
 8008626:	b118      	cbz	r0, 8008630 <HAL_UART_IRQHandler+0x5c>
 8008628:	6c23      	ldr	r3, [r4, #64]	; 0x40
 800862a:	f043 0304 	orr.w	r3, r3, #4
 800862e:	6423      	str	r3, [r4, #64]	; 0x40
 8008630:	0715      	lsls	r5, r2, #28
 8008632:	d507      	bpl.n	8008644 <HAL_UART_IRQHandler+0x70>
 8008634:	f001 0320 	and.w	r3, r1, #32
 8008638:	4303      	orrs	r3, r0
 800863a:	bf1e      	ittt	ne
 800863c:	6c23      	ldrne	r3, [r4, #64]	; 0x40
 800863e:	f043 0308 	orrne.w	r3, r3, #8
 8008642:	6423      	strne	r3, [r4, #64]	; 0x40
 8008644:	6c23      	ldr	r3, [r4, #64]	; 0x40
 8008646:	b35b      	cbz	r3, 80086a0 <HAL_UART_IRQHandler+0xcc>
 8008648:	0692      	lsls	r2, r2, #26
 800864a:	d504      	bpl.n	8008656 <HAL_UART_IRQHandler+0x82>
 800864c:	068b      	lsls	r3, r1, #26
 800864e:	d502      	bpl.n	8008656 <HAL_UART_IRQHandler+0x82>
 8008650:	4620      	mov	r0, r4
 8008652:	f7ff ff6c 	bl	800852e <UART_Receive_IT>
 8008656:	6823      	ldr	r3, [r4, #0]
 8008658:	695b      	ldr	r3, [r3, #20]
 800865a:	6c25      	ldr	r5, [r4, #64]	; 0x40
 800865c:	f003 0340 	and.w	r3, r3, #64	; 0x40
 8008660:	f005 0508 	and.w	r5, r5, #8
 8008664:	431d      	orrs	r5, r3
 8008666:	4620      	mov	r0, r4
 8008668:	d01c      	beq.n	80086a4 <HAL_UART_IRQHandler+0xd0>
 800866a:	f7ff fdd7 	bl	800821c <UART_EndRxTransfer>
 800866e:	6823      	ldr	r3, [r4, #0]
 8008670:	695a      	ldr	r2, [r3, #20]
 8008672:	0655      	lsls	r5, r2, #25
 8008674:	d511      	bpl.n	800869a <HAL_UART_IRQHandler+0xc6>
 8008676:	695a      	ldr	r2, [r3, #20]
 8008678:	f022 0240 	bic.w	r2, r2, #64	; 0x40
 800867c:	615a      	str	r2, [r3, #20]
 800867e:	6ba3      	ldr	r3, [r4, #56]	; 0x38
 8008680:	b15b      	cbz	r3, 800869a <HAL_UART_IRQHandler+0xc6>
 8008682:	4a59      	ldr	r2, [pc, #356]	; (80087e8 <HAL_UART_IRQHandler+0x214>)
 8008684:	651a      	str	r2, [r3, #80]	; 0x50
 8008686:	6ba0      	ldr	r0, [r4, #56]	; 0x38
 8008688:	f7fd fa90 	bl	8005bac <HAL_DMA_Abort_IT>
 800868c:	b140      	cbz	r0, 80086a0 <HAL_UART_IRQHandler+0xcc>
 800868e:	6ba0      	ldr	r0, [r4, #56]	; 0x38
 8008690:	6d03      	ldr	r3, [r0, #80]	; 0x50
 8008692:	b003      	add	sp, #12
 8008694:	e8bd 4030 	ldmia.w	sp!, {r4, r5, lr}
 8008698:	4718      	bx	r3
 800869a:	4620      	mov	r0, r4
 800869c:	f7ff ff17 	bl	80084ce <HAL_UART_ErrorCallback>
 80086a0:	b003      	add	sp, #12
 80086a2:	bd30      	pop	{r4, r5, pc}
 80086a4:	f7ff ff13 	bl	80084ce <HAL_UART_ErrorCallback>
 80086a8:	6425      	str	r5, [r4, #64]	; 0x40
 80086aa:	e7f9      	b.n	80086a0 <HAL_UART_IRQHandler+0xcc>
 80086ac:	6b20      	ldr	r0, [r4, #48]	; 0x30
 80086ae:	2801      	cmp	r0, #1
 80086b0:	d15c      	bne.n	800876c <HAL_UART_IRQHandler+0x198>
 80086b2:	06d0      	lsls	r0, r2, #27
 80086b4:	d55a      	bpl.n	800876c <HAL_UART_IRQHandler+0x198>
 80086b6:	06cd      	lsls	r5, r1, #27
 80086b8:	d558      	bpl.n	800876c <HAL_UART_IRQHandler+0x198>
 80086ba:	2100      	movs	r1, #0
 80086bc:	9101      	str	r1, [sp, #4]
 80086be:	681a      	ldr	r2, [r3, #0]
 80086c0:	9201      	str	r2, [sp, #4]
 80086c2:	685a      	ldr	r2, [r3, #4]
 80086c4:	9201      	str	r2, [sp, #4]
 80086c6:	9a01      	ldr	r2, [sp, #4]
 80086c8:	695a      	ldr	r2, [r3, #20]
 80086ca:	f012 0240 	ands.w	r2, r2, #64	; 0x40
 80086ce:	d02f      	beq.n	8008730 <HAL_UART_IRQHandler+0x15c>
 80086d0:	6ba0      	ldr	r0, [r4, #56]	; 0x38
 80086d2:	6802      	ldr	r2, [r0, #0]
 80086d4:	6852      	ldr	r2, [r2, #4]
 80086d6:	b292      	uxth	r2, r2
 80086d8:	2a00      	cmp	r2, #0
 80086da:	d0e1      	beq.n	80086a0 <HAL_UART_IRQHandler+0xcc>
 80086dc:	8da5      	ldrh	r5, [r4, #44]	; 0x2c
 80086de:	4295      	cmp	r5, r2
 80086e0:	d9de      	bls.n	80086a0 <HAL_UART_IRQHandler+0xcc>
 80086e2:	85e2      	strh	r2, [r4, #46]	; 0x2e
 80086e4:	69c2      	ldr	r2, [r0, #28]
 80086e6:	f5b2 7f80 	cmp.w	r2, #256	; 0x100
 80086ea:	d019      	beq.n	8008720 <HAL_UART_IRQHandler+0x14c>
 80086ec:	68da      	ldr	r2, [r3, #12]
 80086ee:	f422 7280 	bic.w	r2, r2, #256	; 0x100
 80086f2:	60da      	str	r2, [r3, #12]
 80086f4:	6822      	ldr	r2, [r4, #0]
 80086f6:	6953      	ldr	r3, [r2, #20]
 80086f8:	f023 0301 	bic.w	r3, r3, #1
 80086fc:	6153      	str	r3, [r2, #20]
 80086fe:	6822      	ldr	r2, [r4, #0]
 8008700:	6953      	ldr	r3, [r2, #20]
 8008702:	f023 0340 	bic.w	r3, r3, #64	; 0x40
 8008706:	6153      	str	r3, [r2, #20]
 8008708:	6822      	ldr	r2, [r4, #0]
 800870a:	2320      	movs	r3, #32
 800870c:	f884 303e 	strb.w	r3, [r4, #62]	; 0x3e
 8008710:	6321      	str	r1, [r4, #48]	; 0x30
 8008712:	68d3      	ldr	r3, [r2, #12]
 8008714:	f023 0310 	bic.w	r3, r3, #16
 8008718:	60d3      	str	r3, [r2, #12]
 800871a:	6ba0      	ldr	r0, [r4, #56]	; 0x38
 800871c:	f7fd f9ff 	bl	8005b1e <HAL_DMA_Abort>
 8008720:	8de3      	ldrh	r3, [r4, #46]	; 0x2e
 8008722:	8da1      	ldrh	r1, [r4, #44]	; 0x2c
 8008724:	1ac9      	subs	r1, r1, r3
 8008726:	b289      	uxth	r1, r1
 8008728:	4620      	mov	r0, r4
 800872a:	f7ff feff 	bl	800852c <HAL_UARTEx_RxEventCallback>
 800872e:	e7b7      	b.n	80086a0 <HAL_UART_IRQHandler+0xcc>
 8008730:	8de1      	ldrh	r1, [r4, #46]	; 0x2e
 8008732:	b288      	uxth	r0, r1
 8008734:	8de1      	ldrh	r1, [r4, #46]	; 0x2e
 8008736:	b289      	uxth	r1, r1
 8008738:	2900      	cmp	r1, #0
 800873a:	d0b1      	beq.n	80086a0 <HAL_UART_IRQHandler+0xcc>
 800873c:	8da1      	ldrh	r1, [r4, #44]	; 0x2c
 800873e:	1a09      	subs	r1, r1, r0
 8008740:	b289      	uxth	r1, r1
 8008742:	2900      	cmp	r1, #0
 8008744:	d0ac      	beq.n	80086a0 <HAL_UART_IRQHandler+0xcc>
 8008746:	68d8      	ldr	r0, [r3, #12]
 8008748:	f420 7090 	bic.w	r0, r0, #288	; 0x120
 800874c:	60d8      	str	r0, [r3, #12]
 800874e:	6820      	ldr	r0, [r4, #0]
 8008750:	6943      	ldr	r3, [r0, #20]
 8008752:	f023 0301 	bic.w	r3, r3, #1
 8008756:	6143      	str	r3, [r0, #20]
 8008758:	2320      	movs	r3, #32
 800875a:	f884 303e 	strb.w	r3, [r4, #62]	; 0x3e
 800875e:	6322      	str	r2, [r4, #48]	; 0x30
 8008760:	6822      	ldr	r2, [r4, #0]
 8008762:	68d3      	ldr	r3, [r2, #12]
 8008764:	f023 0310 	bic.w	r3, r3, #16
 8008768:	60d3      	str	r3, [r2, #12]
 800876a:	e7dd      	b.n	8008728 <HAL_UART_IRQHandler+0x154>
 800876c:	0610      	lsls	r0, r2, #24
 800876e:	d52a      	bpl.n	80087c6 <HAL_UART_IRQHandler+0x1f2>
 8008770:	060d      	lsls	r5, r1, #24
 8008772:	d528      	bpl.n	80087c6 <HAL_UART_IRQHandler+0x1f2>
 8008774:	f894 203d 	ldrb.w	r2, [r4, #61]	; 0x3d
 8008778:	2a21      	cmp	r2, #33	; 0x21
 800877a:	d191      	bne.n	80086a0 <HAL_UART_IRQHandler+0xcc>
 800877c:	68a1      	ldr	r1, [r4, #8]
 800877e:	6a22      	ldr	r2, [r4, #32]
 8008780:	f5b1 5f80 	cmp.w	r1, #4096	; 0x1000
 8008784:	d11a      	bne.n	80087bc <HAL_UART_IRQHandler+0x1e8>
 8008786:	6921      	ldr	r1, [r4, #16]
 8008788:	b9c1      	cbnz	r1, 80087bc <HAL_UART_IRQHandler+0x1e8>
 800878a:	8812      	ldrh	r2, [r2, #0]
 800878c:	f3c2 0208 	ubfx	r2, r2, #0, #9
 8008790:	605a      	str	r2, [r3, #4]
 8008792:	6a23      	ldr	r3, [r4, #32]
 8008794:	3302      	adds	r3, #2
 8008796:	6223      	str	r3, [r4, #32]
 8008798:	8ce3      	ldrh	r3, [r4, #38]	; 0x26
 800879a:	3b01      	subs	r3, #1
 800879c:	b29b      	uxth	r3, r3
 800879e:	84e3      	strh	r3, [r4, #38]	; 0x26
 80087a0:	2b00      	cmp	r3, #0
 80087a2:	f47f af7d 	bne.w	80086a0 <HAL_UART_IRQHandler+0xcc>
 80087a6:	6822      	ldr	r2, [r4, #0]
 80087a8:	68d3      	ldr	r3, [r2, #12]
 80087aa:	f023 0380 	bic.w	r3, r3, #128	; 0x80
 80087ae:	60d3      	str	r3, [r2, #12]
 80087b0:	6822      	ldr	r2, [r4, #0]
 80087b2:	68d3      	ldr	r3, [r2, #12]
 80087b4:	f043 0340 	orr.w	r3, r3, #64	; 0x40
 80087b8:	60d3      	str	r3, [r2, #12]
 80087ba:	e771      	b.n	80086a0 <HAL_UART_IRQHandler+0xcc>
 80087bc:	1c51      	adds	r1, r2, #1
 80087be:	6221      	str	r1, [r4, #32]
 80087c0:	7812      	ldrb	r2, [r2, #0]
 80087c2:	605a      	str	r2, [r3, #4]
 80087c4:	e7e8      	b.n	8008798 <HAL_UART_IRQHandler+0x1c4>
 80087c6:	0650      	lsls	r0, r2, #25
 80087c8:	f57f af6a 	bpl.w	80086a0 <HAL_UART_IRQHandler+0xcc>
 80087cc:	064a      	lsls	r2, r1, #25
 80087ce:	f57f af67 	bpl.w	80086a0 <HAL_UART_IRQHandler+0xcc>
 80087d2:	68da      	ldr	r2, [r3, #12]
 80087d4:	f022 0240 	bic.w	r2, r2, #64	; 0x40
 80087d8:	60da      	str	r2, [r3, #12]
 80087da:	2320      	movs	r3, #32
 80087dc:	f884 303d 	strb.w	r3, [r4, #61]	; 0x3d
 80087e0:	4620      	mov	r0, r4
 80087e2:	f7fb ff19 	bl	8004618 <HAL_UART_TxCpltCallback>
 80087e6:	e75b      	b.n	80086a0 <HAL_UART_IRQHandler+0xcc>
 80087e8:	0800851d 	.word	0x0800851d

080087ec <UART_DMARxHalfCplt>:
 80087ec:	b508      	push	{r3, lr}
 80087ee:	6b80      	ldr	r0, [r0, #56]	; 0x38
 80087f0:	6b03      	ldr	r3, [r0, #48]	; 0x30
 80087f2:	2b01      	cmp	r3, #1
 80087f4:	d104      	bne.n	8008800 <UART_DMARxHalfCplt+0x14>
 80087f6:	8d81      	ldrh	r1, [r0, #44]	; 0x2c
 80087f8:	0849      	lsrs	r1, r1, #1
 80087fa:	f7ff fe97 	bl	800852c <HAL_UARTEx_RxEventCallback>
 80087fe:	bd08      	pop	{r3, pc}
 8008800:	f7ff fe64 	bl	80084cc <HAL_UART_RxHalfCpltCallback>
 8008804:	e7fb      	b.n	80087fe <UART_DMARxHalfCplt+0x12>

08008806 <UART_DMAReceiveCplt>:
 8008806:	b508      	push	{r3, lr}
 8008808:	4603      	mov	r3, r0
 800880a:	6b80      	ldr	r0, [r0, #56]	; 0x38
 800880c:	681b      	ldr	r3, [r3, #0]
 800880e:	681b      	ldr	r3, [r3, #0]
 8008810:	f413 7380 	ands.w	r3, r3, #256	; 0x100
 8008814:	d11a      	bne.n	800884c <UART_DMAReceiveCplt+0x46>
 8008816:	6802      	ldr	r2, [r0, #0]
 8008818:	85c3      	strh	r3, [r0, #46]	; 0x2e
 800881a:	68d3      	ldr	r3, [r2, #12]
 800881c:	f423 7380 	bic.w	r3, r3, #256	; 0x100
 8008820:	60d3      	str	r3, [r2, #12]
 8008822:	6802      	ldr	r2, [r0, #0]
 8008824:	6953      	ldr	r3, [r2, #20]
 8008826:	f023 0301 	bic.w	r3, r3, #1
 800882a:	6153      	str	r3, [r2, #20]
 800882c:	6802      	ldr	r2, [r0, #0]
 800882e:	6953      	ldr	r3, [r2, #20]
 8008830:	f023 0340 	bic.w	r3, r3, #64	; 0x40
 8008834:	6153      	str	r3, [r2, #20]
 8008836:	2320      	movs	r3, #32
 8008838:	f880 303e 	strb.w	r3, [r0, #62]	; 0x3e
 800883c:	6b03      	ldr	r3, [r0, #48]	; 0x30
 800883e:	2b01      	cmp	r3, #1
 8008840:	bf01      	itttt	eq
 8008842:	6802      	ldreq	r2, [r0, #0]
 8008844:	68d3      	ldreq	r3, [r2, #12]
 8008846:	f023 0310 	biceq.w	r3, r3, #16
 800884a:	60d3      	streq	r3, [r2, #12]
 800884c:	6b03      	ldr	r3, [r0, #48]	; 0x30
 800884e:	2b01      	cmp	r3, #1
 8008850:	d103      	bne.n	800885a <UART_DMAReceiveCplt+0x54>
 8008852:	8d81      	ldrh	r1, [r0, #44]	; 0x2c
 8008854:	f7ff fe6a 	bl	800852c <HAL_UARTEx_RxEventCallback>
 8008858:	bd08      	pop	{r3, pc}
 800885a:	f7ff fe36 	bl	80084ca <HAL_UART_RxCpltCallback>
 800885e:	e7fb      	b.n	8008858 <UART_DMAReceiveCplt+0x52>

08008860 <UART_Start_Receive_DMA>:
 8008860:	b537      	push	{r0, r1, r2, r4, r5, lr}
 8008862:	2322      	movs	r3, #34	; 0x22
 8008864:	2500      	movs	r5, #0
 8008866:	6405      	str	r5, [r0, #64]	; 0x40
 8008868:	f880 303e 	strb.w	r3, [r0, #62]	; 0x3e
 800886c:	6b83      	ldr	r3, [r0, #56]	; 0x38
 800886e:	6281      	str	r1, [r0, #40]	; 0x28
 8008870:	8582      	strh	r2, [r0, #44]	; 0x2c
 8008872:	4604      	mov	r4, r0
 8008874:	4815      	ldr	r0, [pc, #84]	; (80088cc <UART_Start_Receive_DMA+0x6c>)
 8008876:	63d8      	str	r0, [r3, #60]	; 0x3c
 8008878:	6ba3      	ldr	r3, [r4, #56]	; 0x38
 800887a:	4815      	ldr	r0, [pc, #84]	; (80088d0 <UART_Start_Receive_DMA+0x70>)
 800887c:	6418      	str	r0, [r3, #64]	; 0x40
 800887e:	6ba3      	ldr	r3, [r4, #56]	; 0x38
 8008880:	4814      	ldr	r0, [pc, #80]	; (80088d4 <UART_Start_Receive_DMA+0x74>)
 8008882:	64d8      	str	r0, [r3, #76]	; 0x4c
 8008884:	6ba3      	ldr	r3, [r4, #56]	; 0x38
 8008886:	651d      	str	r5, [r3, #80]	; 0x50
 8008888:	6820      	ldr	r0, [r4, #0]
 800888a:	4613      	mov	r3, r2
 800888c:	460a      	mov	r2, r1
 800888e:	1d01      	adds	r1, r0, #4
 8008890:	6ba0      	ldr	r0, [r4, #56]	; 0x38
 8008892:	f7fd f903 	bl	8005a9c <HAL_DMA_Start_IT>
 8008896:	6823      	ldr	r3, [r4, #0]
 8008898:	9501      	str	r5, [sp, #4]
 800889a:	681a      	ldr	r2, [r3, #0]
 800889c:	9201      	str	r2, [sp, #4]
 800889e:	685a      	ldr	r2, [r3, #4]
 80088a0:	9201      	str	r2, [sp, #4]
 80088a2:	f884 503c 	strb.w	r5, [r4, #60]	; 0x3c
 80088a6:	9a01      	ldr	r2, [sp, #4]
 80088a8:	68da      	ldr	r2, [r3, #12]
 80088aa:	f442 7280 	orr.w	r2, r2, #256	; 0x100
 80088ae:	60da      	str	r2, [r3, #12]
 80088b0:	6822      	ldr	r2, [r4, #0]
 80088b2:	6953      	ldr	r3, [r2, #20]
 80088b4:	f043 0301 	orr.w	r3, r3, #1
 80088b8:	6153      	str	r3, [r2, #20]
 80088ba:	6822      	ldr	r2, [r4, #0]
 80088bc:	6953      	ldr	r3, [r2, #20]
 80088be:	4628      	mov	r0, r5
 80088c0:	f043 0340 	orr.w	r3, r3, #64	; 0x40
 80088c4:	6153      	str	r3, [r2, #20]
 80088c6:	b003      	add	sp, #12
 80088c8:	bd30      	pop	{r4, r5, pc}
 80088ca:	bf00      	nop
 80088cc:	08008807 	.word	0x08008807
 80088d0:	080087ed 	.word	0x080087ed
 80088d4:	080084d1 	.word	0x080084d1

080088d8 <HAL_UART_Receive_DMA>:
 80088d8:	b470      	push	{r4, r5, r6}
 80088da:	f890 603e 	ldrb.w	r6, [r0, #62]	; 0x3e
 80088de:	2e20      	cmp	r6, #32
 80088e0:	d110      	bne.n	8008904 <HAL_UART_Receive_DMA+0x2c>
 80088e2:	b161      	cbz	r1, 80088fe <HAL_UART_Receive_DMA+0x26>
 80088e4:	b15a      	cbz	r2, 80088fe <HAL_UART_Receive_DMA+0x26>
 80088e6:	f890 403c 	ldrb.w	r4, [r0, #60]	; 0x3c
 80088ea:	2c01      	cmp	r4, #1
 80088ec:	d00a      	beq.n	8008904 <HAL_UART_Receive_DMA+0x2c>
 80088ee:	2401      	movs	r4, #1
 80088f0:	f880 403c 	strb.w	r4, [r0, #60]	; 0x3c
 80088f4:	2400      	movs	r4, #0
 80088f6:	6304      	str	r4, [r0, #48]	; 0x30
 80088f8:	bc70      	pop	{r4, r5, r6}
 80088fa:	f7ff bfb1 	b.w	8008860 <UART_Start_Receive_DMA>
 80088fe:	2001      	movs	r0, #1
 8008900:	bc70      	pop	{r4, r5, r6}
 8008902:	4770      	bx	lr
 8008904:	2002      	movs	r0, #2
 8008906:	e7fb      	b.n	8008900 <HAL_UART_Receive_DMA+0x28>

08008908 <arm_fir_init_f32>:
 8008908:	b570      	push	{r4, r5, r6, lr}
 800890a:	9c04      	ldr	r4, [sp, #16]
 800890c:	6082      	str	r2, [r0, #8]
 800890e:	f104 4480 	add.w	r4, r4, #1073741824	; 0x40000000
 8008912:	3c01      	subs	r4, #1
 8008914:	4605      	mov	r5, r0
 8008916:	440c      	add	r4, r1
 8008918:	8001      	strh	r1, [r0, #0]
 800891a:	461e      	mov	r6, r3
 800891c:	00a2      	lsls	r2, r4, #2
 800891e:	4618      	mov	r0, r3
 8008920:	2100      	movs	r1, #0
 8008922:	f000 fb87 	bl	8009034 <memset>
 8008926:	606e      	str	r6, [r5, #4]
 8008928:	bd70      	pop	{r4, r5, r6, pc}
 800892a:	bf00      	nop

0800892c <arm_fir_f32>:
 800892c:	e92d 4ff0 	stmdb	sp!, {r4, r5, r6, r7, r8, r9, sl, fp, lr}
 8008930:	ed2d 8b10 	vpush	{d8-d15}
 8008934:	b089      	sub	sp, #36	; 0x24
 8008936:	4605      	mov	r5, r0
 8008938:	9003      	str	r0, [sp, #12]
 800893a:	8800      	ldrh	r0, [r0, #0]
 800893c:	9304      	str	r3, [sp, #16]
 800893e:	461e      	mov	r6, r3
 8008940:	f8d5 c004 	ldr.w	ip, [r5, #4]
 8008944:	9001      	str	r0, [sp, #4]
 8008946:	f100 4380 	add.w	r3, r0, #1073741824	; 0x40000000
 800894a:	3b01      	subs	r3, #1
 800894c:	eb0c 0483 	add.w	r4, ip, r3, lsl #2
 8008950:	08f3      	lsrs	r3, r6, #3
 8008952:	f8d5 8008 	ldr.w	r8, [r5, #8]
 8008956:	9400      	str	r4, [sp, #0]
 8008958:	9302      	str	r3, [sp, #8]
 800895a:	f000 81ef 	beq.w	8008d3c <arm_fir_f32+0x410>
 800895e:	ea4f 09d0 	mov.w	r9, r0, lsr #3
 8008962:	469e      	mov	lr, r3
 8008964:	ea4f 1349 	mov.w	r3, r9, lsl #5
 8008968:	1f1e      	subs	r6, r3, #4
 800896a:	4625      	mov	r5, r4
 800896c:	9605      	str	r6, [sp, #20]
 800896e:	4604      	mov	r4, r0
 8008970:	eb08 0003 	add.w	r0, r8, r3
 8008974:	f004 0a07 	and.w	sl, r4, #7
 8008978:	4613      	mov	r3, r2
 800897a:	f10c 0420 	add.w	r4, ip, #32
 800897e:	f8cd c018 	str.w	ip, [sp, #24]
 8008982:	4684      	mov	ip, r0
 8008984:	4648      	mov	r0, r9
 8008986:	f8dd 9014 	ldr.w	r9, [sp, #20]
 800898a:	9107      	str	r1, [sp, #28]
 800898c:	f105 0720 	add.w	r7, r5, #32
 8008990:	f101 0620 	add.w	r6, r1, #32
 8008994:	f102 0520 	add.w	r5, r2, #32
 8008998:	4652      	mov	r2, sl
 800899a:	469a      	mov	sl, r3
 800899c:	f856 3c20 	ldr.w	r3, [r6, #-32]
 80089a0:	f847 3c20 	str.w	r3, [r7, #-32]
 80089a4:	f856 3c1c 	ldr.w	r3, [r6, #-28]
 80089a8:	f847 3c1c 	str.w	r3, [r7, #-28]
 80089ac:	f856 3c18 	ldr.w	r3, [r6, #-24]
 80089b0:	f847 3c18 	str.w	r3, [r7, #-24]
 80089b4:	f856 3c14 	ldr.w	r3, [r6, #-20]
 80089b8:	f847 3c14 	str.w	r3, [r7, #-20]
 80089bc:	f856 3c10 	ldr.w	r3, [r6, #-16]
 80089c0:	f847 3c10 	str.w	r3, [r7, #-16]
 80089c4:	f856 3c0c 	ldr.w	r3, [r6, #-12]
 80089c8:	f847 3c0c 	str.w	r3, [r7, #-12]
 80089cc:	f856 3c08 	ldr.w	r3, [r6, #-8]
 80089d0:	f847 3c08 	str.w	r3, [r7, #-8]
 80089d4:	eddf 3af1 	vldr	s7, [pc, #964]	; 8008d9c <arm_fir_f32+0x470>
 80089d8:	f856 3c04 	ldr.w	r3, [r6, #-4]
 80089dc:	f847 3c04 	str.w	r3, [r7, #-4]
 80089e0:	ed14 3a08 	vldr	s6, [r4, #-32]	; 0xffffffe0
 80089e4:	ed54 2a07 	vldr	s5, [r4, #-28]	; 0xffffffe4
 80089e8:	ed14 2a06 	vldr	s4, [r4, #-24]	; 0xffffffe8
 80089ec:	ed54 1a05 	vldr	s3, [r4, #-20]	; 0xffffffec
 80089f0:	ed14 1a04 	vldr	s2, [r4, #-16]
 80089f4:	ed54 0a03 	vldr	s1, [r4, #-12]
 80089f8:	ed14 0a02 	vldr	s0, [r4, #-8]
 80089fc:	1f21      	subs	r1, r4, #4
 80089fe:	eef0 8a63 	vmov.f32	s17, s7
 8008a02:	eef0 9a63 	vmov.f32	s19, s7
 8008a06:	eef0 aa63 	vmov.f32	s21, s7
 8008a0a:	eef0 ba63 	vmov.f32	s23, s7
 8008a0e:	eeb0 ca63 	vmov.f32	s24, s7
 8008a12:	eef0 ca63 	vmov.f32	s25, s7
 8008a16:	eeb0 da63 	vmov.f32	s26, s7
 8008a1a:	2800      	cmp	r0, #0
 8008a1c:	f000 81e8 	beq.w	8008df0 <arm_fir_f32+0x4c4>
 8008a20:	f108 0120 	add.w	r1, r8, #32
 8008a24:	f104 031c 	add.w	r3, r4, #28
 8008a28:	4683      	mov	fp, r0
 8008a2a:	ed11 4a08 	vldr	s8, [r1, #-32]	; 0xffffffe0
 8008a2e:	ed13 8a08 	vldr	s16, [r3, #-32]	; 0xffffffe0
 8008a32:	ed51 4a07 	vldr	s9, [r1, #-28]	; 0xffffffe4
 8008a36:	ed11 5a06 	vldr	s10, [r1, #-24]	; 0xffffffe8
 8008a3a:	ed51 5a05 	vldr	s11, [r1, #-20]	; 0xffffffec
 8008a3e:	ed11 6a04 	vldr	s12, [r1, #-16]
 8008a42:	ed51 6a03 	vldr	s13, [r1, #-12]
 8008a46:	ed11 7a02 	vldr	s14, [r1, #-8]
 8008a4a:	ed51 7a01 	vldr	s15, [r1, #-4]
 8008a4e:	ee24 fa03 	vmul.f32	s30, s8, s6
 8008a52:	ee64 ea22 	vmul.f32	s29, s8, s5
 8008a56:	ed13 3a07 	vldr	s6, [r3, #-28]	; 0xffffffe4
 8008a5a:	ee24 ea02 	vmul.f32	s28, s8, s4
 8008a5e:	ee64 da21 	vmul.f32	s27, s8, s3
 8008a62:	ee24 ba01 	vmul.f32	s22, s8, s2
 8008a66:	ee24 aa20 	vmul.f32	s20, s8, s1
 8008a6a:	ee24 9a00 	vmul.f32	s18, s8, s0
 8008a6e:	ee24 4a08 	vmul.f32	s8, s8, s16
 8008a72:	ee3f da0d 	vadd.f32	s26, s30, s26
 8008a76:	ee74 3a23 	vadd.f32	s7, s8, s7
 8008a7a:	ee24 faa2 	vmul.f32	s30, s9, s5
 8008a7e:	ee7e caac 	vadd.f32	s25, s29, s25
 8008a82:	ed53 2a06 	vldr	s5, [r3, #-24]	; 0xffffffe8
 8008a86:	ee64 ea82 	vmul.f32	s29, s9, s4
 8008a8a:	ee3e ca0c 	vadd.f32	s24, s28, s24
 8008a8e:	ee7d baab 	vadd.f32	s23, s27, s23
 8008a92:	ee24 eaa1 	vmul.f32	s28, s9, s3
 8008a96:	ee64 da81 	vmul.f32	s27, s9, s2
 8008a9a:	ee7b aa2a 	vadd.f32	s21, s22, s21
 8008a9e:	ee7a 9a29 	vadd.f32	s19, s20, s19
 8008aa2:	ee24 baa0 	vmul.f32	s22, s9, s1
 8008aa6:	ee24 aa80 	vmul.f32	s20, s9, s0
 8008aaa:	ee79 8a28 	vadd.f32	s17, s18, s17
 8008aae:	ee28 9a24 	vmul.f32	s18, s16, s9
 8008ab2:	ee64 4a83 	vmul.f32	s9, s9, s6
 8008ab6:	ee25 4a02 	vmul.f32	s8, s10, s4
 8008aba:	ee74 4aa3 	vadd.f32	s9, s9, s7
 8008abe:	ed13 2a05 	vldr	s4, [r3, #-20]	; 0xffffffec
 8008ac2:	ee7e caac 	vadd.f32	s25, s29, s25
 8008ac6:	ee3e ca0c 	vadd.f32	s24, s28, s24
 8008aca:	ee65 ea21 	vmul.f32	s29, s10, s3
 8008ace:	ee25 ea01 	vmul.f32	s28, s10, s2
 8008ad2:	ee7d baab 	vadd.f32	s23, s27, s23
 8008ad6:	ee7b aa2a 	vadd.f32	s21, s22, s21
 8008ada:	ee65 da20 	vmul.f32	s27, s10, s1
 8008ade:	ee25 ba00 	vmul.f32	s22, s10, s0
 8008ae2:	ee7a 9a29 	vadd.f32	s19, s20, s19
 8008ae6:	ee79 8a28 	vadd.f32	s17, s18, s17
 8008aea:	ee28 aa05 	vmul.f32	s20, s16, s10
 8008aee:	ee23 9a05 	vmul.f32	s18, s6, s10
 8008af2:	ee3d da0f 	vadd.f32	s26, s26, s30
 8008af6:	ee25 5a22 	vmul.f32	s10, s10, s5
 8008afa:	ee65 3aa1 	vmul.f32	s7, s11, s3
 8008afe:	ee35 5a24 	vadd.f32	s10, s10, s9
 8008b02:	ed53 1a04 	vldr	s3, [r3, #-16]
 8008b06:	ee7e caac 	vadd.f32	s25, s29, s25
 8008b0a:	ee3e ca0c 	vadd.f32	s24, s28, s24
 8008b0e:	ee65 ea81 	vmul.f32	s29, s11, s2
 8008b12:	ee25 eaa0 	vmul.f32	s28, s11, s1
 8008b16:	ee7d baab 	vadd.f32	s23, s27, s23
 8008b1a:	ee7b aa2a 	vadd.f32	s21, s22, s21
 8008b1e:	ee65 da80 	vmul.f32	s27, s11, s0
 8008b22:	ee28 ba25 	vmul.f32	s22, s16, s11
 8008b26:	ee7a 9a29 	vadd.f32	s19, s20, s19
 8008b2a:	ee79 8a28 	vadd.f32	s17, s18, s17
 8008b2e:	ee23 aa25 	vmul.f32	s20, s6, s11
 8008b32:	ee22 9aa5 	vmul.f32	s18, s5, s11
 8008b36:	ee3d da04 	vadd.f32	s26, s26, s8
 8008b3a:	ee65 5a82 	vmul.f32	s11, s11, s4
 8008b3e:	ee66 4a01 	vmul.f32	s9, s12, s2
 8008b42:	ee7a 9a29 	vadd.f32	s19, s20, s19
 8008b46:	ed13 1a03 	vldr	s2, [r3, #-12]
 8008b4a:	ee75 5a85 	vadd.f32	s11, s11, s10
 8008b4e:	ee3d da23 	vadd.f32	s26, s26, s7
 8008b52:	ee22 5a06 	vmul.f32	s10, s4, s12
 8008b56:	ee7e caac 	vadd.f32	s25, s29, s25
 8008b5a:	ee3e ca0c 	vadd.f32	s24, s28, s24
 8008b5e:	ee66 ea20 	vmul.f32	s29, s12, s1
 8008b62:	ee26 ea00 	vmul.f32	s28, s12, s0
 8008b66:	ee7d baab 	vadd.f32	s23, s27, s23
 8008b6a:	ee7b aa2a 	vadd.f32	s21, s22, s21
 8008b6e:	ee68 da06 	vmul.f32	s27, s16, s12
 8008b72:	ee23 ba06 	vmul.f32	s22, s6, s12
 8008b76:	ee22 aa86 	vmul.f32	s20, s5, s12
 8008b7a:	ee79 8a28 	vadd.f32	s17, s18, s17
 8008b7e:	ee26 6a21 	vmul.f32	s12, s12, s3
 8008b82:	ee26 9aa0 	vmul.f32	s18, s13, s1
 8008b86:	ee36 6a25 	vadd.f32	s12, s12, s11
 8008b8a:	ed53 0a02 	vldr	s1, [r3, #-8]
 8008b8e:	ee61 5aa6 	vmul.f32	s11, s3, s13
 8008b92:	ee3d da24 	vadd.f32	s26, s26, s9
 8008b96:	ee7e caac 	vadd.f32	s25, s29, s25
 8008b9a:	ee3e ca0c 	vadd.f32	s24, s28, s24
 8008b9e:	ee66 ea80 	vmul.f32	s29, s13, s0
 8008ba2:	ee28 ea26 	vmul.f32	s28, s16, s13
 8008ba6:	ee7d baab 	vadd.f32	s23, s27, s23
 8008baa:	ee7b aa2a 	vadd.f32	s21, s22, s21
 8008bae:	ee63 da26 	vmul.f32	s27, s6, s13
 8008bb2:	ee22 baa6 	vmul.f32	s22, s5, s13
 8008bb6:	ee3a aa29 	vadd.f32	s20, s20, s19
 8008bba:	ee75 8a28 	vadd.f32	s17, s10, s17
 8008bbe:	ee62 9a26 	vmul.f32	s19, s4, s13
 8008bc2:	ee66 6a81 	vmul.f32	s13, s13, s2
 8008bc6:	ee27 5a00 	vmul.f32	s10, s14, s0
 8008bca:	ee7b aa2a 	vadd.f32	s21, s22, s21
 8008bce:	ee75 8aa8 	vadd.f32	s17, s11, s17
 8008bd2:	ee7e caac 	vadd.f32	s25, s29, s25
 8008bd6:	ee3e ca0c 	vadd.f32	s24, s28, s24
 8008bda:	ee68 ea07 	vmul.f32	s29, s16, s14
 8008bde:	ee23 ea07 	vmul.f32	s28, s6, s14
 8008be2:	ee7d baab 	vadd.f32	s23, s27, s23
 8008be6:	ee22 ba07 	vmul.f32	s22, s4, s14
 8008bea:	ee62 da87 	vmul.f32	s27, s5, s14
 8008bee:	ee39 aa8a 	vadd.f32	s20, s19, s20
 8008bf2:	ee76 6a86 	vadd.f32	s13, s13, s12
 8008bf6:	ee61 9a87 	vmul.f32	s19, s3, s14
 8008bfa:	ee67 3a20 	vmul.f32	s7, s14, s1
 8008bfe:	ed13 0a01 	vldr	s0, [r3, #-4]
 8008c02:	ee3d da09 	vadd.f32	s26, s26, s18
 8008c06:	ee21 6a07 	vmul.f32	s12, s2, s14
 8008c0a:	ee3d da05 	vadd.f32	s26, s26, s10
 8008c0e:	ee28 8a27 	vmul.f32	s16, s16, s15
 8008c12:	ee63 5a27 	vmul.f32	s11, s6, s15
 8008c16:	ee22 5aa7 	vmul.f32	s10, s5, s15
 8008c1a:	ee62 4a27 	vmul.f32	s9, s4, s15
 8008c1e:	ee3b ba2a 	vadd.f32	s22, s22, s21
 8008c22:	ee39 aa8a 	vadd.f32	s20, s19, s20
 8008c26:	ee61 aaa7 	vmul.f32	s21, s3, s15
 8008c2a:	ee61 9a27 	vmul.f32	s19, s2, s15
 8008c2e:	ee36 7a28 	vadd.f32	s14, s12, s17
 8008c32:	ee7e caac 	vadd.f32	s25, s29, s25
 8008c36:	ee60 8aa7 	vmul.f32	s17, s1, s15
 8008c3a:	ee3e ca0c 	vadd.f32	s24, s28, s24
 8008c3e:	ee7d baab 	vadd.f32	s23, s27, s23
 8008c42:	ee73 3aa6 	vadd.f32	s7, s7, s13
 8008c46:	ee67 7a80 	vmul.f32	s15, s15, s0
 8008c4a:	f1bb 0b01 	subs.w	fp, fp, #1
 8008c4e:	f101 0120 	add.w	r1, r1, #32
 8008c52:	ee38 da0d 	vadd.f32	s26, s16, s26
 8008c56:	ee75 caac 	vadd.f32	s25, s11, s25
 8008c5a:	ee35 ca0c 	vadd.f32	s24, s10, s24
 8008c5e:	ee74 baab 	vadd.f32	s23, s9, s23
 8008c62:	ee7a aa8b 	vadd.f32	s21, s21, s22
 8008c66:	ee79 9a8a 	vadd.f32	s19, s19, s20
 8008c6a:	ee78 8a87 	vadd.f32	s17, s17, s14
 8008c6e:	ee77 3aa3 	vadd.f32	s7, s15, s7
 8008c72:	f103 0320 	add.w	r3, r3, #32
 8008c76:	f47f aed8 	bne.w	8008a2a <arm_fir_f32+0xfe>
 8008c7a:	eb09 0104 	add.w	r1, r9, r4
 8008c7e:	46e3      	mov	fp, ip
 8008c80:	b3a2      	cbz	r2, 8008cec <arm_fir_f32+0x3c0>
 8008c82:	4613      	mov	r3, r2
 8008c84:	ecbb 6a01 	vldmia	fp!, {s12}
 8008c88:	ecf1 7a01 	vldmia	r1!, {s15}
 8008c8c:	ee26 3a03 	vmul.f32	s6, s12, s6
 8008c90:	ee26 4a22 	vmul.f32	s8, s12, s5
 8008c94:	ee66 4a02 	vmul.f32	s9, s12, s4
 8008c98:	ee26 5a21 	vmul.f32	s10, s12, s3
 8008c9c:	ee66 5a01 	vmul.f32	s11, s12, s2
 8008ca0:	ee66 6a20 	vmul.f32	s13, s12, s1
 8008ca4:	ee26 7a00 	vmul.f32	s14, s12, s0
 8008ca8:	ee26 6a27 	vmul.f32	s12, s12, s15
 8008cac:	3b01      	subs	r3, #1
 8008cae:	ee3d da03 	vadd.f32	s26, s26, s6
 8008cb2:	ee7c ca84 	vadd.f32	s25, s25, s8
 8008cb6:	eeb0 3a62 	vmov.f32	s6, s5
 8008cba:	ee3c ca24 	vadd.f32	s24, s24, s9
 8008cbe:	eef0 2a42 	vmov.f32	s5, s4
 8008cc2:	ee7b ba85 	vadd.f32	s23, s23, s10
 8008cc6:	eeb0 2a61 	vmov.f32	s4, s3
 8008cca:	ee7a aaa5 	vadd.f32	s21, s21, s11
 8008cce:	eef0 1a41 	vmov.f32	s3, s2
 8008cd2:	ee79 9aa6 	vadd.f32	s19, s19, s13
 8008cd6:	eeb0 1a60 	vmov.f32	s2, s1
 8008cda:	ee78 8a87 	vadd.f32	s17, s17, s14
 8008cde:	eef0 0a40 	vmov.f32	s1, s0
 8008ce2:	ee73 3a86 	vadd.f32	s7, s7, s12
 8008ce6:	eeb0 0a67 	vmov.f32	s0, s15
 8008cea:	d1cb      	bne.n	8008c84 <arm_fir_f32+0x358>
 8008cec:	f1be 0e01 	subs.w	lr, lr, #1
 8008cf0:	ed05 da08 	vstr	s26, [r5, #-32]	; 0xffffffe0
 8008cf4:	ed45 ca07 	vstr	s25, [r5, #-28]	; 0xffffffe4
 8008cf8:	ed05 ca06 	vstr	s24, [r5, #-24]	; 0xffffffe8
 8008cfc:	ed45 ba05 	vstr	s23, [r5, #-20]	; 0xffffffec
 8008d00:	ed45 aa04 	vstr	s21, [r5, #-16]
 8008d04:	ed45 9a03 	vstr	s19, [r5, #-12]
 8008d08:	ed45 8a02 	vstr	s17, [r5, #-8]
 8008d0c:	ed45 3a01 	vstr	s7, [r5, #-4]
 8008d10:	f107 0720 	add.w	r7, r7, #32
 8008d14:	f106 0620 	add.w	r6, r6, #32
 8008d18:	f104 0420 	add.w	r4, r4, #32
 8008d1c:	f105 0520 	add.w	r5, r5, #32
 8008d20:	f47f ae3c 	bne.w	800899c <arm_fir_f32+0x70>
 8008d24:	9b02      	ldr	r3, [sp, #8]
 8008d26:	9800      	ldr	r0, [sp, #0]
 8008d28:	f8dd c018 	ldr.w	ip, [sp, #24]
 8008d2c:	9907      	ldr	r1, [sp, #28]
 8008d2e:	015b      	lsls	r3, r3, #5
 8008d30:	4652      	mov	r2, sl
 8008d32:	4418      	add	r0, r3
 8008d34:	9000      	str	r0, [sp, #0]
 8008d36:	4419      	add	r1, r3
 8008d38:	449c      	add	ip, r3
 8008d3a:	441a      	add	r2, r3
 8008d3c:	9b04      	ldr	r3, [sp, #16]
 8008d3e:	f013 0e07 	ands.w	lr, r3, #7
 8008d42:	d01f      	beq.n	8008d84 <arm_fir_f32+0x458>
 8008d44:	9f00      	ldr	r7, [sp, #0]
 8008d46:	f8dd 9004 	ldr.w	r9, [sp, #4]
 8008d4a:	4676      	mov	r6, lr
 8008d4c:	4665      	mov	r5, ip
 8008d4e:	f851 3b04 	ldr.w	r3, [r1], #4
 8008d52:	eddf 6a12 	vldr	s13, [pc, #72]	; 8008d9c <arm_fir_f32+0x470>
 8008d56:	f847 3b04 	str.w	r3, [r7], #4
 8008d5a:	4644      	mov	r4, r8
 8008d5c:	464b      	mov	r3, r9
 8008d5e:	4628      	mov	r0, r5
 8008d60:	ecb0 7a01 	vldmia	r0!, {s14}
 8008d64:	ecf4 7a01 	vldmia	r4!, {s15}
 8008d68:	ee67 7a27 	vmul.f32	s15, s14, s15
 8008d6c:	3b01      	subs	r3, #1
 8008d6e:	ee76 6aa7 	vadd.f32	s13, s13, s15
 8008d72:	d1f5      	bne.n	8008d60 <arm_fir_f32+0x434>
 8008d74:	3e01      	subs	r6, #1
 8008d76:	ece2 6a01 	vstmia	r2!, {s13}
 8008d7a:	f105 0504 	add.w	r5, r5, #4
 8008d7e:	d1e6      	bne.n	8008d4e <arm_fir_f32+0x422>
 8008d80:	eb0c 0c8e 	add.w	ip, ip, lr, lsl #2
 8008d84:	9b01      	ldr	r3, [sp, #4]
 8008d86:	1e59      	subs	r1, r3, #1
 8008d88:	9b03      	ldr	r3, [sp, #12]
 8008d8a:	088e      	lsrs	r6, r1, #2
 8008d8c:	685c      	ldr	r4, [r3, #4]
 8008d8e:	d020      	beq.n	8008dd2 <arm_fir_f32+0x4a6>
 8008d90:	f104 0210 	add.w	r2, r4, #16
 8008d94:	f10c 0310 	add.w	r3, ip, #16
 8008d98:	4630      	mov	r0, r6
 8008d9a:	e001      	b.n	8008da0 <arm_fir_f32+0x474>
 8008d9c:	00000000 	.word	0x00000000
 8008da0:	f853 5c10 	ldr.w	r5, [r3, #-16]
 8008da4:	f842 5c10 	str.w	r5, [r2, #-16]
 8008da8:	f853 5c0c 	ldr.w	r5, [r3, #-12]
 8008dac:	f842 5c0c 	str.w	r5, [r2, #-12]
 8008db0:	f853 5c08 	ldr.w	r5, [r3, #-8]
 8008db4:	f842 5c08 	str.w	r5, [r2, #-8]
 8008db8:	f853 5c04 	ldr.w	r5, [r3, #-4]
 8008dbc:	f842 5c04 	str.w	r5, [r2, #-4]
 8008dc0:	3801      	subs	r0, #1
 8008dc2:	f103 0310 	add.w	r3, r3, #16
 8008dc6:	f102 0210 	add.w	r2, r2, #16
 8008dca:	d1e9      	bne.n	8008da0 <arm_fir_f32+0x474>
 8008dcc:	0133      	lsls	r3, r6, #4
 8008dce:	441c      	add	r4, r3
 8008dd0:	449c      	add	ip, r3
 8008dd2:	f011 0303 	ands.w	r3, r1, #3
 8008dd6:	d006      	beq.n	8008de6 <arm_fir_f32+0x4ba>
 8008dd8:	4622      	mov	r2, r4
 8008dda:	f85c 1b04 	ldr.w	r1, [ip], #4
 8008dde:	f842 1b04 	str.w	r1, [r2], #4
 8008de2:	3b01      	subs	r3, #1
 8008de4:	d1f9      	bne.n	8008dda <arm_fir_f32+0x4ae>
 8008de6:	b009      	add	sp, #36	; 0x24
 8008de8:	ecbd 8b10 	vpop	{d8-d15}
 8008dec:	e8bd 8ff0 	ldmia.w	sp!, {r4, r5, r6, r7, r8, r9, sl, fp, pc}
 8008df0:	46c3      	mov	fp, r8
 8008df2:	e745      	b.n	8008c80 <arm_fir_f32+0x354>

08008df4 <arm_cmplx_mag_f32>:
 8008df4:	e92d 41f0 	stmdb	sp!, {r4, r5, r6, r7, r8, lr}
 8008df8:	ea5f 0892 	movs.w	r8, r2, lsr #2
 8008dfc:	b084      	sub	sp, #16
 8008dfe:	d07f      	beq.n	8008f00 <arm_cmplx_mag_f32+0x10c>
 8008e00:	2700      	movs	r7, #0
 8008e02:	f100 0420 	add.w	r4, r0, #32
 8008e06:	f101 0510 	add.w	r5, r1, #16
 8008e0a:	4646      	mov	r6, r8
 8008e0c:	e05a      	b.n	8008ec4 <arm_cmplx_mag_f32+0xd0>
 8008e0e:	eeb1 0ae7 	vsqrt.f32	s0, s15
 8008e12:	eeb4 0a40 	vcmp.f32	s0, s0
 8008e16:	eef1 fa10 	vmrs	APSR_nzcv, fpscr
 8008e1a:	f040 80a4 	bne.w	8008f66 <arm_cmplx_mag_f32+0x172>
 8008e1e:	ed05 0a04 	vstr	s0, [r5, #-16]
 8008e22:	ed54 7a06 	vldr	s15, [r4, #-24]	; 0xffffffe8
 8008e26:	ed14 0a05 	vldr	s0, [r4, #-20]	; 0xffffffec
 8008e2a:	ee67 7aa7 	vmul.f32	s15, s15, s15
 8008e2e:	ee20 0a00 	vmul.f32	s0, s0, s0
 8008e32:	ee77 7a80 	vadd.f32	s15, s15, s0
 8008e36:	eef5 7ac0 	vcmpe.f32	s15, #0.0
 8008e3a:	eef1 fa10 	vmrs	APSR_nzcv, fpscr
 8008e3e:	f2c0 808f 	blt.w	8008f60 <arm_cmplx_mag_f32+0x16c>
 8008e42:	eeb1 0ae7 	vsqrt.f32	s0, s15
 8008e46:	eeb4 0a40 	vcmp.f32	s0, s0
 8008e4a:	eef1 fa10 	vmrs	APSR_nzcv, fpscr
 8008e4e:	f040 80af 	bne.w	8008fb0 <arm_cmplx_mag_f32+0x1bc>
 8008e52:	ed05 0a03 	vstr	s0, [r5, #-12]
 8008e56:	ed54 7a04 	vldr	s15, [r4, #-16]
 8008e5a:	ed14 0a03 	vldr	s0, [r4, #-12]
 8008e5e:	ee67 7aa7 	vmul.f32	s15, s15, s15
 8008e62:	ee20 0a00 	vmul.f32	s0, s0, s0
 8008e66:	ee77 7a80 	vadd.f32	s15, s15, s0
 8008e6a:	eef5 7ac0 	vcmpe.f32	s15, #0.0
 8008e6e:	eef1 fa10 	vmrs	APSR_nzcv, fpscr
 8008e72:	db72      	blt.n	8008f5a <arm_cmplx_mag_f32+0x166>
 8008e74:	eeb1 0ae7 	vsqrt.f32	s0, s15
 8008e78:	eeb4 0a40 	vcmp.f32	s0, s0
 8008e7c:	eef1 fa10 	vmrs	APSR_nzcv, fpscr
 8008e80:	f040 808c 	bne.w	8008f9c <arm_cmplx_mag_f32+0x1a8>
 8008e84:	ed05 0a02 	vstr	s0, [r5, #-8]
 8008e88:	ed54 7a02 	vldr	s15, [r4, #-8]
 8008e8c:	ed14 0a01 	vldr	s0, [r4, #-4]
 8008e90:	ee67 7aa7 	vmul.f32	s15, s15, s15
 8008e94:	ee20 0a00 	vmul.f32	s0, s0, s0
 8008e98:	ee77 7a80 	vadd.f32	s15, s15, s0
 8008e9c:	eef5 7ac0 	vcmpe.f32	s15, #0.0
 8008ea0:	eef1 fa10 	vmrs	APSR_nzcv, fpscr
 8008ea4:	db20      	blt.n	8008ee8 <arm_cmplx_mag_f32+0xf4>
 8008ea6:	eeb1 0ae7 	vsqrt.f32	s0, s15
 8008eaa:	eeb4 0a40 	vcmp.f32	s0, s0
 8008eae:	eef1 fa10 	vmrs	APSR_nzcv, fpscr
 8008eb2:	d169      	bne.n	8008f88 <arm_cmplx_mag_f32+0x194>
 8008eb4:	3e01      	subs	r6, #1
 8008eb6:	ed05 0a01 	vstr	s0, [r5, #-4]
 8008eba:	f104 0420 	add.w	r4, r4, #32
 8008ebe:	f105 0510 	add.w	r5, r5, #16
 8008ec2:	d019      	beq.n	8008ef8 <arm_cmplx_mag_f32+0x104>
 8008ec4:	ed54 7a08 	vldr	s15, [r4, #-32]	; 0xffffffe0
 8008ec8:	ed14 0a07 	vldr	s0, [r4, #-28]	; 0xffffffe4
 8008ecc:	ee67 7aa7 	vmul.f32	s15, s15, s15
 8008ed0:	ee20 0a00 	vmul.f32	s0, s0, s0
 8008ed4:	ee77 7a80 	vadd.f32	s15, s15, s0
 8008ed8:	eef5 7ac0 	vcmpe.f32	s15, #0.0
 8008edc:	eef1 fa10 	vmrs	APSR_nzcv, fpscr
 8008ee0:	da95      	bge.n	8008e0e <arm_cmplx_mag_f32+0x1a>
 8008ee2:	f845 7c10 	str.w	r7, [r5, #-16]
 8008ee6:	e79c      	b.n	8008e22 <arm_cmplx_mag_f32+0x2e>
 8008ee8:	3e01      	subs	r6, #1
 8008eea:	f845 7c04 	str.w	r7, [r5, #-4]
 8008eee:	f104 0420 	add.w	r4, r4, #32
 8008ef2:	f105 0510 	add.w	r5, r5, #16
 8008ef6:	d1e5      	bne.n	8008ec4 <arm_cmplx_mag_f32+0xd0>
 8008ef8:	eb00 1048 	add.w	r0, r0, r8, lsl #5
 8008efc:	eb01 1108 	add.w	r1, r1, r8, lsl #4
 8008f00:	f012 0503 	ands.w	r5, r2, #3
 8008f04:	d026      	beq.n	8008f54 <arm_cmplx_mag_f32+0x160>
 8008f06:	2600      	movs	r6, #0
 8008f08:	f100 0408 	add.w	r4, r0, #8
 8008f0c:	e00c      	b.n	8008f28 <arm_cmplx_mag_f32+0x134>
 8008f0e:	eeb1 0ae7 	vsqrt.f32	s0, s15
 8008f12:	eeb4 0a40 	vcmp.f32	s0, s0
 8008f16:	eef1 fa10 	vmrs	APSR_nzcv, fpscr
 8008f1a:	d12e      	bne.n	8008f7a <arm_cmplx_mag_f32+0x186>
 8008f1c:	3d01      	subs	r5, #1
 8008f1e:	ed01 0a01 	vstr	s0, [r1, #-4]
 8008f22:	f104 0408 	add.w	r4, r4, #8
 8008f26:	d015      	beq.n	8008f54 <arm_cmplx_mag_f32+0x160>
 8008f28:	ed54 7a02 	vldr	s15, [r4, #-8]
 8008f2c:	ed14 0a01 	vldr	s0, [r4, #-4]
 8008f30:	ee67 7aa7 	vmul.f32	s15, s15, s15
 8008f34:	ee20 0a00 	vmul.f32	s0, s0, s0
 8008f38:	3104      	adds	r1, #4
 8008f3a:	ee77 7a80 	vadd.f32	s15, s15, s0
 8008f3e:	eef5 7ac0 	vcmpe.f32	s15, #0.0
 8008f42:	eef1 fa10 	vmrs	APSR_nzcv, fpscr
 8008f46:	dae2      	bge.n	8008f0e <arm_cmplx_mag_f32+0x11a>
 8008f48:	3d01      	subs	r5, #1
 8008f4a:	f841 6c04 	str.w	r6, [r1, #-4]
 8008f4e:	f104 0408 	add.w	r4, r4, #8
 8008f52:	d1e9      	bne.n	8008f28 <arm_cmplx_mag_f32+0x134>
 8008f54:	b004      	add	sp, #16
 8008f56:	e8bd 81f0 	ldmia.w	sp!, {r4, r5, r6, r7, r8, pc}
 8008f5a:	f845 7c08 	str.w	r7, [r5, #-8]
 8008f5e:	e793      	b.n	8008e88 <arm_cmplx_mag_f32+0x94>
 8008f60:	f845 7c0c 	str.w	r7, [r5, #-12]
 8008f64:	e777      	b.n	8008e56 <arm_cmplx_mag_f32+0x62>
 8008f66:	eeb0 0a67 	vmov.f32	s0, s15
 8008f6a:	9203      	str	r2, [sp, #12]
 8008f6c:	9102      	str	r1, [sp, #8]
 8008f6e:	9001      	str	r0, [sp, #4]
 8008f70:	f005 f90c 	bl	800e18c <sqrtf>
 8008f74:	a801      	add	r0, sp, #4
 8008f76:	c807      	ldmia	r0, {r0, r1, r2}
 8008f78:	e751      	b.n	8008e1e <arm_cmplx_mag_f32+0x2a>
 8008f7a:	eeb0 0a67 	vmov.f32	s0, s15
 8008f7e:	9101      	str	r1, [sp, #4]
 8008f80:	f005 f904 	bl	800e18c <sqrtf>
 8008f84:	9901      	ldr	r1, [sp, #4]
 8008f86:	e7c9      	b.n	8008f1c <arm_cmplx_mag_f32+0x128>
 8008f88:	eeb0 0a67 	vmov.f32	s0, s15
 8008f8c:	9203      	str	r2, [sp, #12]
 8008f8e:	9102      	str	r1, [sp, #8]
 8008f90:	9001      	str	r0, [sp, #4]
 8008f92:	f005 f8fb 	bl	800e18c <sqrtf>
 8008f96:	a801      	add	r0, sp, #4
 8008f98:	c807      	ldmia	r0, {r0, r1, r2}
 8008f9a:	e78b      	b.n	8008eb4 <arm_cmplx_mag_f32+0xc0>
 8008f9c:	eeb0 0a67 	vmov.f32	s0, s15
 8008fa0:	9203      	str	r2, [sp, #12]
 8008fa2:	9102      	str	r1, [sp, #8]
 8008fa4:	9001      	str	r0, [sp, #4]
 8008fa6:	f005 f8f1 	bl	800e18c <sqrtf>
 8008faa:	a801      	add	r0, sp, #4
 8008fac:	c807      	ldmia	r0, {r0, r1, r2}
 8008fae:	e769      	b.n	8008e84 <arm_cmplx_mag_f32+0x90>
 8008fb0:	eeb0 0a67 	vmov.f32	s0, s15
 8008fb4:	9203      	str	r2, [sp, #12]
 8008fb6:	9102      	str	r1, [sp, #8]
 8008fb8:	9001      	str	r0, [sp, #4]
 8008fba:	f005 f8e7 	bl	800e18c <sqrtf>
 8008fbe:	a801      	add	r0, sp, #4
 8008fc0:	c807      	ldmia	r0, {r0, r1, r2}
 8008fc2:	e746      	b.n	8008e52 <arm_cmplx_mag_f32+0x5e>

08008fc4 <__errno>:
 8008fc4:	4b01      	ldr	r3, [pc, #4]	; (8008fcc <__errno+0x8>)
 8008fc6:	6818      	ldr	r0, [r3, #0]
 8008fc8:	4770      	bx	lr
 8008fca:	bf00      	nop
 8008fcc:	200001a8 	.word	0x200001a8

08008fd0 <__libc_init_array>:
 8008fd0:	b570      	push	{r4, r5, r6, lr}
 8008fd2:	4d0d      	ldr	r5, [pc, #52]	; (8009008 <__libc_init_array+0x38>)
 8008fd4:	4c0d      	ldr	r4, [pc, #52]	; (800900c <__libc_init_array+0x3c>)
 8008fd6:	1b64      	subs	r4, r4, r5
 8008fd8:	10a4      	asrs	r4, r4, #2
 8008fda:	2600      	movs	r6, #0
 8008fdc:	42a6      	cmp	r6, r4
 8008fde:	d109      	bne.n	8008ff4 <__libc_init_array+0x24>
 8008fe0:	4d0b      	ldr	r5, [pc, #44]	; (8009010 <__libc_init_array+0x40>)
 8008fe2:	4c0c      	ldr	r4, [pc, #48]	; (8009014 <__libc_init_array+0x44>)
 8008fe4:	f005 fb72 	bl	800e6cc <_init>
 8008fe8:	1b64      	subs	r4, r4, r5
 8008fea:	10a4      	asrs	r4, r4, #2
 8008fec:	2600      	movs	r6, #0
 8008fee:	42a6      	cmp	r6, r4
 8008ff0:	d105      	bne.n	8008ffe <__libc_init_array+0x2e>
 8008ff2:	bd70      	pop	{r4, r5, r6, pc}
 8008ff4:	f855 3b04 	ldr.w	r3, [r5], #4
 8008ff8:	4798      	blx	r3
 8008ffa:	3601      	adds	r6, #1
 8008ffc:	e7ee      	b.n	8008fdc <__libc_init_array+0xc>
 8008ffe:	f855 3b04 	ldr.w	r3, [r5], #4
 8009002:	4798      	blx	r3
 8009004:	3601      	adds	r6, #1
 8009006:	e7f2      	b.n	8008fee <__libc_init_array+0x1e>
 8009008:	08010020 	.word	0x08010020
 800900c:	08010020 	.word	0x08010020
 8009010:	08010020 	.word	0x08010020
 8009014:	08010024 	.word	0x08010024

08009018 <memcpy>:
 8009018:	440a      	add	r2, r1
 800901a:	4291      	cmp	r1, r2
 800901c:	f100 33ff 	add.w	r3, r0, #4294967295
 8009020:	d100      	bne.n	8009024 <memcpy+0xc>
 8009022:	4770      	bx	lr
 8009024:	b510      	push	{r4, lr}
 8009026:	f811 4b01 	ldrb.w	r4, [r1], #1
 800902a:	f803 4f01 	strb.w	r4, [r3, #1]!
 800902e:	4291      	cmp	r1, r2
 8009030:	d1f9      	bne.n	8009026 <memcpy+0xe>
 8009032:	bd10      	pop	{r4, pc}

08009034 <memset>:
 8009034:	4402      	add	r2, r0
 8009036:	4603      	mov	r3, r0
 8009038:	4293      	cmp	r3, r2
 800903a:	d100      	bne.n	800903e <memset+0xa>
 800903c:	4770      	bx	lr
 800903e:	f803 1b01 	strb.w	r1, [r3], #1
 8009042:	e7f9      	b.n	8009038 <memset+0x4>

08009044 <__cvt>:
 8009044:	e92d 47ff 	stmdb	sp!, {r0, r1, r2, r3, r4, r5, r6, r7, r8, r9, sl, lr}
 8009048:	ec55 4b10 	vmov	r4, r5, d0
 800904c:	2d00      	cmp	r5, #0
 800904e:	460e      	mov	r6, r1
 8009050:	4619      	mov	r1, r3
 8009052:	462b      	mov	r3, r5
 8009054:	bfbb      	ittet	lt
 8009056:	f105 4300 	addlt.w	r3, r5, #2147483648	; 0x80000000
 800905a:	461d      	movlt	r5, r3
 800905c:	2300      	movge	r3, #0
 800905e:	232d      	movlt	r3, #45	; 0x2d
 8009060:	700b      	strb	r3, [r1, #0]
 8009062:	9b0d      	ldr	r3, [sp, #52]	; 0x34
 8009064:	f8dd a030 	ldr.w	sl, [sp, #48]	; 0x30
 8009068:	4691      	mov	r9, r2
 800906a:	f023 0820 	bic.w	r8, r3, #32
 800906e:	bfbc      	itt	lt
 8009070:	4622      	movlt	r2, r4
 8009072:	4614      	movlt	r4, r2
 8009074:	f1b8 0f46 	cmp.w	r8, #70	; 0x46
 8009078:	d005      	beq.n	8009086 <__cvt+0x42>
 800907a:	f1b8 0f45 	cmp.w	r8, #69	; 0x45
 800907e:	d100      	bne.n	8009082 <__cvt+0x3e>
 8009080:	3601      	adds	r6, #1
 8009082:	2102      	movs	r1, #2
 8009084:	e000      	b.n	8009088 <__cvt+0x44>
 8009086:	2103      	movs	r1, #3
 8009088:	ab03      	add	r3, sp, #12
 800908a:	9301      	str	r3, [sp, #4]
 800908c:	ab02      	add	r3, sp, #8
 800908e:	9300      	str	r3, [sp, #0]
 8009090:	ec45 4b10 	vmov	d0, r4, r5
 8009094:	4653      	mov	r3, sl
 8009096:	4632      	mov	r2, r6
 8009098:	f001 fe62 	bl	800ad60 <_dtoa_r>
 800909c:	f1b8 0f47 	cmp.w	r8, #71	; 0x47
 80090a0:	4607      	mov	r7, r0
 80090a2:	d102      	bne.n	80090aa <__cvt+0x66>
 80090a4:	f019 0f01 	tst.w	r9, #1
 80090a8:	d022      	beq.n	80090f0 <__cvt+0xac>
 80090aa:	f1b8 0f46 	cmp.w	r8, #70	; 0x46
 80090ae:	eb07 0906 	add.w	r9, r7, r6
 80090b2:	d110      	bne.n	80090d6 <__cvt+0x92>
 80090b4:	783b      	ldrb	r3, [r7, #0]
 80090b6:	2b30      	cmp	r3, #48	; 0x30
 80090b8:	d10a      	bne.n	80090d0 <__cvt+0x8c>
 80090ba:	2200      	movs	r2, #0
 80090bc:	2300      	movs	r3, #0
 80090be:	4620      	mov	r0, r4
 80090c0:	4629      	mov	r1, r5
 80090c2:	f7f7 fd11 	bl	8000ae8 <__aeabi_dcmpeq>
 80090c6:	b918      	cbnz	r0, 80090d0 <__cvt+0x8c>
 80090c8:	f1c6 0601 	rsb	r6, r6, #1
 80090cc:	f8ca 6000 	str.w	r6, [sl]
 80090d0:	f8da 3000 	ldr.w	r3, [sl]
 80090d4:	4499      	add	r9, r3
 80090d6:	2200      	movs	r2, #0
 80090d8:	2300      	movs	r3, #0
 80090da:	4620      	mov	r0, r4
 80090dc:	4629      	mov	r1, r5
 80090de:	f7f7 fd03 	bl	8000ae8 <__aeabi_dcmpeq>
 80090e2:	b108      	cbz	r0, 80090e8 <__cvt+0xa4>
 80090e4:	f8cd 900c 	str.w	r9, [sp, #12]
 80090e8:	2230      	movs	r2, #48	; 0x30
 80090ea:	9b03      	ldr	r3, [sp, #12]
 80090ec:	454b      	cmp	r3, r9
 80090ee:	d307      	bcc.n	8009100 <__cvt+0xbc>
 80090f0:	9b03      	ldr	r3, [sp, #12]
 80090f2:	9a0e      	ldr	r2, [sp, #56]	; 0x38
 80090f4:	1bdb      	subs	r3, r3, r7
 80090f6:	4638      	mov	r0, r7
 80090f8:	6013      	str	r3, [r2, #0]
 80090fa:	b004      	add	sp, #16
 80090fc:	e8bd 87f0 	ldmia.w	sp!, {r4, r5, r6, r7, r8, r9, sl, pc}
 8009100:	1c59      	adds	r1, r3, #1
 8009102:	9103      	str	r1, [sp, #12]
 8009104:	701a      	strb	r2, [r3, #0]
 8009106:	e7f0      	b.n	80090ea <__cvt+0xa6>

08009108 <__exponent>:
 8009108:	b5f7      	push	{r0, r1, r2, r4, r5, r6, r7, lr}
 800910a:	4603      	mov	r3, r0
 800910c:	2900      	cmp	r1, #0
 800910e:	bfb8      	it	lt
 8009110:	4249      	neglt	r1, r1
 8009112:	f803 2b02 	strb.w	r2, [r3], #2
 8009116:	bfb4      	ite	lt
 8009118:	222d      	movlt	r2, #45	; 0x2d
 800911a:	222b      	movge	r2, #43	; 0x2b
 800911c:	2909      	cmp	r1, #9
 800911e:	7042      	strb	r2, [r0, #1]
 8009120:	dd2a      	ble.n	8009178 <__exponent+0x70>
 8009122:	f10d 0407 	add.w	r4, sp, #7
 8009126:	46a4      	mov	ip, r4
 8009128:	270a      	movs	r7, #10
 800912a:	46a6      	mov	lr, r4
 800912c:	460a      	mov	r2, r1
 800912e:	fb91 f6f7 	sdiv	r6, r1, r7
 8009132:	fb07 1516 	mls	r5, r7, r6, r1
 8009136:	3530      	adds	r5, #48	; 0x30
 8009138:	2a63      	cmp	r2, #99	; 0x63
 800913a:	f104 34ff 	add.w	r4, r4, #4294967295
 800913e:	f80e 5c01 	strb.w	r5, [lr, #-1]
 8009142:	4631      	mov	r1, r6
 8009144:	dcf1      	bgt.n	800912a <__exponent+0x22>
 8009146:	3130      	adds	r1, #48	; 0x30
 8009148:	f1ae 0502 	sub.w	r5, lr, #2
 800914c:	f804 1c01 	strb.w	r1, [r4, #-1]
 8009150:	1c44      	adds	r4, r0, #1
 8009152:	4629      	mov	r1, r5
 8009154:	4561      	cmp	r1, ip
 8009156:	d30a      	bcc.n	800916e <__exponent+0x66>
 8009158:	f10d 0209 	add.w	r2, sp, #9
 800915c:	eba2 020e 	sub.w	r2, r2, lr
 8009160:	4565      	cmp	r5, ip
 8009162:	bf88      	it	hi
 8009164:	2200      	movhi	r2, #0
 8009166:	4413      	add	r3, r2
 8009168:	1a18      	subs	r0, r3, r0
 800916a:	b003      	add	sp, #12
 800916c:	bdf0      	pop	{r4, r5, r6, r7, pc}
 800916e:	f811 2b01 	ldrb.w	r2, [r1], #1
 8009172:	f804 2f01 	strb.w	r2, [r4, #1]!
 8009176:	e7ed      	b.n	8009154 <__exponent+0x4c>
 8009178:	2330      	movs	r3, #48	; 0x30
 800917a:	3130      	adds	r1, #48	; 0x30
 800917c:	7083      	strb	r3, [r0, #2]
 800917e:	70c1      	strb	r1, [r0, #3]
 8009180:	1d03      	adds	r3, r0, #4
 8009182:	e7f1      	b.n	8009168 <__exponent+0x60>

08009184 <_printf_float>:
 8009184:	e92d 4ff0 	stmdb	sp!, {r4, r5, r6, r7, r8, r9, sl, fp, lr}
 8009188:	ed2d 8b02 	vpush	{d8}
 800918c:	b08d      	sub	sp, #52	; 0x34
 800918e:	460c      	mov	r4, r1
 8009190:	f8dd 8060 	ldr.w	r8, [sp, #96]	; 0x60
 8009194:	4616      	mov	r6, r2
 8009196:	461f      	mov	r7, r3
 8009198:	4605      	mov	r5, r0
 800919a:	f002 ff3d 	bl	800c018 <_localeconv_r>
 800919e:	f8d0 a000 	ldr.w	sl, [r0]
 80091a2:	4650      	mov	r0, sl
 80091a4:	f7f7 f81e 	bl	80001e4 <strlen>
 80091a8:	2300      	movs	r3, #0
 80091aa:	930a      	str	r3, [sp, #40]	; 0x28
 80091ac:	6823      	ldr	r3, [r4, #0]
 80091ae:	9305      	str	r3, [sp, #20]
 80091b0:	f8d8 3000 	ldr.w	r3, [r8]
 80091b4:	f894 b018 	ldrb.w	fp, [r4, #24]
 80091b8:	3307      	adds	r3, #7
 80091ba:	f023 0307 	bic.w	r3, r3, #7
 80091be:	f103 0208 	add.w	r2, r3, #8
 80091c2:	f8c8 2000 	str.w	r2, [r8]
 80091c6:	e9d3 2300 	ldrd	r2, r3, [r3]
 80091ca:	e9c4 2312 	strd	r2, r3, [r4, #72]	; 0x48
 80091ce:	e9d4 8912 	ldrd	r8, r9, [r4, #72]	; 0x48
 80091d2:	f029 4300 	bic.w	r3, r9, #2147483648	; 0x80000000
 80091d6:	9307      	str	r3, [sp, #28]
 80091d8:	f8cd 8018 	str.w	r8, [sp, #24]
 80091dc:	ee08 0a10 	vmov	s16, r0
 80091e0:	4b9f      	ldr	r3, [pc, #636]	; (8009460 <_printf_float+0x2dc>)
 80091e2:	e9dd 0106 	ldrd	r0, r1, [sp, #24]
 80091e6:	f04f 32ff 	mov.w	r2, #4294967295
 80091ea:	f7f7 fcaf 	bl	8000b4c <__aeabi_dcmpun>
 80091ee:	bb88      	cbnz	r0, 8009254 <_printf_float+0xd0>
 80091f0:	e9dd 0106 	ldrd	r0, r1, [sp, #24]
 80091f4:	4b9a      	ldr	r3, [pc, #616]	; (8009460 <_printf_float+0x2dc>)
 80091f6:	f04f 32ff 	mov.w	r2, #4294967295
 80091fa:	f7f7 fc89 	bl	8000b10 <__aeabi_dcmple>
 80091fe:	bb48      	cbnz	r0, 8009254 <_printf_float+0xd0>
 8009200:	2200      	movs	r2, #0
 8009202:	2300      	movs	r3, #0
 8009204:	4640      	mov	r0, r8
 8009206:	4649      	mov	r1, r9
 8009208:	f7f7 fc78 	bl	8000afc <__aeabi_dcmplt>
 800920c:	b110      	cbz	r0, 8009214 <_printf_float+0x90>
 800920e:	232d      	movs	r3, #45	; 0x2d
 8009210:	f884 3043 	strb.w	r3, [r4, #67]	; 0x43
 8009214:	4b93      	ldr	r3, [pc, #588]	; (8009464 <_printf_float+0x2e0>)
 8009216:	4894      	ldr	r0, [pc, #592]	; (8009468 <_printf_float+0x2e4>)
 8009218:	f1bb 0f47 	cmp.w	fp, #71	; 0x47
 800921c:	bf94      	ite	ls
 800921e:	4698      	movls	r8, r3
 8009220:	4680      	movhi	r8, r0
 8009222:	2303      	movs	r3, #3
 8009224:	6123      	str	r3, [r4, #16]
 8009226:	9b05      	ldr	r3, [sp, #20]
 8009228:	f023 0204 	bic.w	r2, r3, #4
 800922c:	6022      	str	r2, [r4, #0]
 800922e:	f04f 0900 	mov.w	r9, #0
 8009232:	9700      	str	r7, [sp, #0]
 8009234:	4633      	mov	r3, r6
 8009236:	aa0b      	add	r2, sp, #44	; 0x2c
 8009238:	4621      	mov	r1, r4
 800923a:	4628      	mov	r0, r5
 800923c:	f000 f9d8 	bl	80095f0 <_printf_common>
 8009240:	3001      	adds	r0, #1
 8009242:	f040 8090 	bne.w	8009366 <_printf_float+0x1e2>
 8009246:	f04f 30ff 	mov.w	r0, #4294967295
 800924a:	b00d      	add	sp, #52	; 0x34
 800924c:	ecbd 8b02 	vpop	{d8}
 8009250:	e8bd 8ff0 	ldmia.w	sp!, {r4, r5, r6, r7, r8, r9, sl, fp, pc}
 8009254:	4642      	mov	r2, r8
 8009256:	464b      	mov	r3, r9
 8009258:	4640      	mov	r0, r8
 800925a:	4649      	mov	r1, r9
 800925c:	f7f7 fc76 	bl	8000b4c <__aeabi_dcmpun>
 8009260:	b140      	cbz	r0, 8009274 <_printf_float+0xf0>
 8009262:	464b      	mov	r3, r9
 8009264:	2b00      	cmp	r3, #0
 8009266:	bfbc      	itt	lt
 8009268:	232d      	movlt	r3, #45	; 0x2d
 800926a:	f884 3043 	strblt.w	r3, [r4, #67]	; 0x43
 800926e:	487f      	ldr	r0, [pc, #508]	; (800946c <_printf_float+0x2e8>)
 8009270:	4b7f      	ldr	r3, [pc, #508]	; (8009470 <_printf_float+0x2ec>)
 8009272:	e7d1      	b.n	8009218 <_printf_float+0x94>
 8009274:	6863      	ldr	r3, [r4, #4]
 8009276:	f00b 02df 	and.w	r2, fp, #223	; 0xdf
 800927a:	9206      	str	r2, [sp, #24]
 800927c:	1c5a      	adds	r2, r3, #1
 800927e:	d13f      	bne.n	8009300 <_printf_float+0x17c>
 8009280:	2306      	movs	r3, #6
 8009282:	6063      	str	r3, [r4, #4]
 8009284:	9b05      	ldr	r3, [sp, #20]
 8009286:	6861      	ldr	r1, [r4, #4]
 8009288:	f443 6280 	orr.w	r2, r3, #1024	; 0x400
 800928c:	2300      	movs	r3, #0
 800928e:	9303      	str	r3, [sp, #12]
 8009290:	ab0a      	add	r3, sp, #40	; 0x28
 8009292:	e9cd b301 	strd	fp, r3, [sp, #4]
 8009296:	ab09      	add	r3, sp, #36	; 0x24
 8009298:	ec49 8b10 	vmov	d0, r8, r9
 800929c:	9300      	str	r3, [sp, #0]
 800929e:	6022      	str	r2, [r4, #0]
 80092a0:	f10d 0323 	add.w	r3, sp, #35	; 0x23
 80092a4:	4628      	mov	r0, r5
 80092a6:	f7ff fecd 	bl	8009044 <__cvt>
 80092aa:	9b06      	ldr	r3, [sp, #24]
 80092ac:	9909      	ldr	r1, [sp, #36]	; 0x24
 80092ae:	2b47      	cmp	r3, #71	; 0x47
 80092b0:	4680      	mov	r8, r0
 80092b2:	d108      	bne.n	80092c6 <_printf_float+0x142>
 80092b4:	1cc8      	adds	r0, r1, #3
 80092b6:	db02      	blt.n	80092be <_printf_float+0x13a>
 80092b8:	6863      	ldr	r3, [r4, #4]
 80092ba:	4299      	cmp	r1, r3
 80092bc:	dd41      	ble.n	8009342 <_printf_float+0x1be>
 80092be:	f1ab 0b02 	sub.w	fp, fp, #2
 80092c2:	fa5f fb8b 	uxtb.w	fp, fp
 80092c6:	f1bb 0f65 	cmp.w	fp, #101	; 0x65
 80092ca:	d820      	bhi.n	800930e <_printf_float+0x18a>
 80092cc:	3901      	subs	r1, #1
 80092ce:	465a      	mov	r2, fp
 80092d0:	f104 0050 	add.w	r0, r4, #80	; 0x50
 80092d4:	9109      	str	r1, [sp, #36]	; 0x24
 80092d6:	f7ff ff17 	bl	8009108 <__exponent>
 80092da:	9a0a      	ldr	r2, [sp, #40]	; 0x28
 80092dc:	1813      	adds	r3, r2, r0
 80092de:	2a01      	cmp	r2, #1
 80092e0:	4681      	mov	r9, r0
 80092e2:	6123      	str	r3, [r4, #16]
 80092e4:	dc02      	bgt.n	80092ec <_printf_float+0x168>
 80092e6:	6822      	ldr	r2, [r4, #0]
 80092e8:	07d2      	lsls	r2, r2, #31
 80092ea:	d501      	bpl.n	80092f0 <_printf_float+0x16c>
 80092ec:	3301      	adds	r3, #1
 80092ee:	6123      	str	r3, [r4, #16]
 80092f0:	f89d 3023 	ldrb.w	r3, [sp, #35]	; 0x23
 80092f4:	2b00      	cmp	r3, #0
 80092f6:	d09c      	beq.n	8009232 <_printf_float+0xae>
 80092f8:	232d      	movs	r3, #45	; 0x2d
 80092fa:	f884 3043 	strb.w	r3, [r4, #67]	; 0x43
 80092fe:	e798      	b.n	8009232 <_printf_float+0xae>
 8009300:	9a06      	ldr	r2, [sp, #24]
 8009302:	2a47      	cmp	r2, #71	; 0x47
 8009304:	d1be      	bne.n	8009284 <_printf_float+0x100>
 8009306:	2b00      	cmp	r3, #0
 8009308:	d1bc      	bne.n	8009284 <_printf_float+0x100>
 800930a:	2301      	movs	r3, #1
 800930c:	e7b9      	b.n	8009282 <_printf_float+0xfe>
 800930e:	f1bb 0f66 	cmp.w	fp, #102	; 0x66
 8009312:	d118      	bne.n	8009346 <_printf_float+0x1c2>
 8009314:	2900      	cmp	r1, #0
 8009316:	6863      	ldr	r3, [r4, #4]
 8009318:	dd0b      	ble.n	8009332 <_printf_float+0x1ae>
 800931a:	6121      	str	r1, [r4, #16]
 800931c:	b913      	cbnz	r3, 8009324 <_printf_float+0x1a0>
 800931e:	6822      	ldr	r2, [r4, #0]
 8009320:	07d0      	lsls	r0, r2, #31
 8009322:	d502      	bpl.n	800932a <_printf_float+0x1a6>
 8009324:	3301      	adds	r3, #1
 8009326:	440b      	add	r3, r1
 8009328:	6123      	str	r3, [r4, #16]
 800932a:	65a1      	str	r1, [r4, #88]	; 0x58
 800932c:	f04f 0900 	mov.w	r9, #0
 8009330:	e7de      	b.n	80092f0 <_printf_float+0x16c>
 8009332:	b913      	cbnz	r3, 800933a <_printf_float+0x1b6>
 8009334:	6822      	ldr	r2, [r4, #0]
 8009336:	07d2      	lsls	r2, r2, #31
 8009338:	d501      	bpl.n	800933e <_printf_float+0x1ba>
 800933a:	3302      	adds	r3, #2
 800933c:	e7f4      	b.n	8009328 <_printf_float+0x1a4>
 800933e:	2301      	movs	r3, #1
 8009340:	e7f2      	b.n	8009328 <_printf_float+0x1a4>
 8009342:	f04f 0b67 	mov.w	fp, #103	; 0x67
 8009346:	9b0a      	ldr	r3, [sp, #40]	; 0x28
 8009348:	4299      	cmp	r1, r3
 800934a:	db05      	blt.n	8009358 <_printf_float+0x1d4>
 800934c:	6823      	ldr	r3, [r4, #0]
 800934e:	6121      	str	r1, [r4, #16]
 8009350:	07d8      	lsls	r0, r3, #31
 8009352:	d5ea      	bpl.n	800932a <_printf_float+0x1a6>
 8009354:	1c4b      	adds	r3, r1, #1
 8009356:	e7e7      	b.n	8009328 <_printf_float+0x1a4>
 8009358:	2900      	cmp	r1, #0
 800935a:	bfd4      	ite	le
 800935c:	f1c1 0202 	rsble	r2, r1, #2
 8009360:	2201      	movgt	r2, #1
 8009362:	4413      	add	r3, r2
 8009364:	e7e0      	b.n	8009328 <_printf_float+0x1a4>
 8009366:	6823      	ldr	r3, [r4, #0]
 8009368:	055a      	lsls	r2, r3, #21
 800936a:	d407      	bmi.n	800937c <_printf_float+0x1f8>
 800936c:	6923      	ldr	r3, [r4, #16]
 800936e:	4642      	mov	r2, r8
 8009370:	4631      	mov	r1, r6
 8009372:	4628      	mov	r0, r5
 8009374:	47b8      	blx	r7
 8009376:	3001      	adds	r0, #1
 8009378:	d12c      	bne.n	80093d4 <_printf_float+0x250>
 800937a:	e764      	b.n	8009246 <_printf_float+0xc2>
 800937c:	f1bb 0f65 	cmp.w	fp, #101	; 0x65
 8009380:	f240 80e0 	bls.w	8009544 <_printf_float+0x3c0>
 8009384:	e9d4 0112 	ldrd	r0, r1, [r4, #72]	; 0x48
 8009388:	2200      	movs	r2, #0
 800938a:	2300      	movs	r3, #0
 800938c:	f7f7 fbac 	bl	8000ae8 <__aeabi_dcmpeq>
 8009390:	2800      	cmp	r0, #0
 8009392:	d034      	beq.n	80093fe <_printf_float+0x27a>
 8009394:	4a37      	ldr	r2, [pc, #220]	; (8009474 <_printf_float+0x2f0>)
 8009396:	2301      	movs	r3, #1
 8009398:	4631      	mov	r1, r6
 800939a:	4628      	mov	r0, r5
 800939c:	47b8      	blx	r7
 800939e:	3001      	adds	r0, #1
 80093a0:	f43f af51 	beq.w	8009246 <_printf_float+0xc2>
 80093a4:	e9dd 2309 	ldrd	r2, r3, [sp, #36]	; 0x24
 80093a8:	429a      	cmp	r2, r3
 80093aa:	db02      	blt.n	80093b2 <_printf_float+0x22e>
 80093ac:	6823      	ldr	r3, [r4, #0]
 80093ae:	07d8      	lsls	r0, r3, #31
 80093b0:	d510      	bpl.n	80093d4 <_printf_float+0x250>
 80093b2:	ee18 3a10 	vmov	r3, s16
 80093b6:	4652      	mov	r2, sl
 80093b8:	4631      	mov	r1, r6
 80093ba:	4628      	mov	r0, r5
 80093bc:	47b8      	blx	r7
 80093be:	3001      	adds	r0, #1
 80093c0:	f43f af41 	beq.w	8009246 <_printf_float+0xc2>
 80093c4:	f04f 0800 	mov.w	r8, #0
 80093c8:	f104 091a 	add.w	r9, r4, #26
 80093cc:	9b0a      	ldr	r3, [sp, #40]	; 0x28
 80093ce:	3b01      	subs	r3, #1
 80093d0:	4543      	cmp	r3, r8
 80093d2:	dc09      	bgt.n	80093e8 <_printf_float+0x264>
 80093d4:	6823      	ldr	r3, [r4, #0]
 80093d6:	079b      	lsls	r3, r3, #30
 80093d8:	f100 8105 	bmi.w	80095e6 <_printf_float+0x462>
 80093dc:	68e0      	ldr	r0, [r4, #12]
 80093de:	9b0b      	ldr	r3, [sp, #44]	; 0x2c
 80093e0:	4298      	cmp	r0, r3
 80093e2:	bfb8      	it	lt
 80093e4:	4618      	movlt	r0, r3
 80093e6:	e730      	b.n	800924a <_printf_float+0xc6>
 80093e8:	2301      	movs	r3, #1
 80093ea:	464a      	mov	r2, r9
 80093ec:	4631      	mov	r1, r6
 80093ee:	4628      	mov	r0, r5
 80093f0:	47b8      	blx	r7
 80093f2:	3001      	adds	r0, #1
 80093f4:	f43f af27 	beq.w	8009246 <_printf_float+0xc2>
 80093f8:	f108 0801 	add.w	r8, r8, #1
 80093fc:	e7e6      	b.n	80093cc <_printf_float+0x248>
 80093fe:	9b09      	ldr	r3, [sp, #36]	; 0x24
 8009400:	2b00      	cmp	r3, #0
 8009402:	dc39      	bgt.n	8009478 <_printf_float+0x2f4>
 8009404:	4a1b      	ldr	r2, [pc, #108]	; (8009474 <_printf_float+0x2f0>)
 8009406:	2301      	movs	r3, #1
 8009408:	4631      	mov	r1, r6
 800940a:	4628      	mov	r0, r5
 800940c:	47b8      	blx	r7
 800940e:	3001      	adds	r0, #1
 8009410:	f43f af19 	beq.w	8009246 <_printf_float+0xc2>
 8009414:	e9dd 2309 	ldrd	r2, r3, [sp, #36]	; 0x24
 8009418:	4313      	orrs	r3, r2
 800941a:	d102      	bne.n	8009422 <_printf_float+0x29e>
 800941c:	6823      	ldr	r3, [r4, #0]
 800941e:	07d9      	lsls	r1, r3, #31
 8009420:	d5d8      	bpl.n	80093d4 <_printf_float+0x250>
 8009422:	ee18 3a10 	vmov	r3, s16
 8009426:	4652      	mov	r2, sl
 8009428:	4631      	mov	r1, r6
 800942a:	4628      	mov	r0, r5
 800942c:	47b8      	blx	r7
 800942e:	3001      	adds	r0, #1
 8009430:	f43f af09 	beq.w	8009246 <_printf_float+0xc2>
 8009434:	f04f 0900 	mov.w	r9, #0
 8009438:	f104 0a1a 	add.w	sl, r4, #26
 800943c:	9b09      	ldr	r3, [sp, #36]	; 0x24
 800943e:	425b      	negs	r3, r3
 8009440:	454b      	cmp	r3, r9
 8009442:	dc01      	bgt.n	8009448 <_printf_float+0x2c4>
 8009444:	9b0a      	ldr	r3, [sp, #40]	; 0x28
 8009446:	e792      	b.n	800936e <_printf_float+0x1ea>
 8009448:	2301      	movs	r3, #1
 800944a:	4652      	mov	r2, sl
 800944c:	4631      	mov	r1, r6
 800944e:	4628      	mov	r0, r5
 8009450:	47b8      	blx	r7
 8009452:	3001      	adds	r0, #1
 8009454:	f43f aef7 	beq.w	8009246 <_printf_float+0xc2>
 8009458:	f109 0901 	add.w	r9, r9, #1
 800945c:	e7ee      	b.n	800943c <_printf_float+0x2b8>
 800945e:	bf00      	nop
 8009460:	7fefffff 	.word	0x7fefffff
 8009464:	0800fbe0 	.word	0x0800fbe0
 8009468:	0800fbe4 	.word	0x0800fbe4
 800946c:	0800fbec 	.word	0x0800fbec
 8009470:	0800fbe8 	.word	0x0800fbe8
 8009474:	0800fef1 	.word	0x0800fef1
 8009478:	9a0a      	ldr	r2, [sp, #40]	; 0x28
 800947a:	6da3      	ldr	r3, [r4, #88]	; 0x58
 800947c:	429a      	cmp	r2, r3
 800947e:	bfa8      	it	ge
 8009480:	461a      	movge	r2, r3
 8009482:	2a00      	cmp	r2, #0
 8009484:	4691      	mov	r9, r2
 8009486:	dc37      	bgt.n	80094f8 <_printf_float+0x374>
 8009488:	f04f 0b00 	mov.w	fp, #0
 800948c:	ea29 79e9 	bic.w	r9, r9, r9, asr #31
 8009490:	f104 021a 	add.w	r2, r4, #26
 8009494:	6da3      	ldr	r3, [r4, #88]	; 0x58
 8009496:	9305      	str	r3, [sp, #20]
 8009498:	eba3 0309 	sub.w	r3, r3, r9
 800949c:	455b      	cmp	r3, fp
 800949e:	dc33      	bgt.n	8009508 <_printf_float+0x384>
 80094a0:	e9dd 2309 	ldrd	r2, r3, [sp, #36]	; 0x24
 80094a4:	429a      	cmp	r2, r3
 80094a6:	db3b      	blt.n	8009520 <_printf_float+0x39c>
 80094a8:	6823      	ldr	r3, [r4, #0]
 80094aa:	07da      	lsls	r2, r3, #31
 80094ac:	d438      	bmi.n	8009520 <_printf_float+0x39c>
 80094ae:	9a0a      	ldr	r2, [sp, #40]	; 0x28
 80094b0:	9b05      	ldr	r3, [sp, #20]
 80094b2:	9909      	ldr	r1, [sp, #36]	; 0x24
 80094b4:	1ad3      	subs	r3, r2, r3
 80094b6:	eba2 0901 	sub.w	r9, r2, r1
 80094ba:	4599      	cmp	r9, r3
 80094bc:	bfa8      	it	ge
 80094be:	4699      	movge	r9, r3
 80094c0:	f1b9 0f00 	cmp.w	r9, #0
 80094c4:	dc35      	bgt.n	8009532 <_printf_float+0x3ae>
 80094c6:	f04f 0800 	mov.w	r8, #0
 80094ca:	ea29 79e9 	bic.w	r9, r9, r9, asr #31
 80094ce:	f104 0a1a 	add.w	sl, r4, #26
 80094d2:	e9dd 2309 	ldrd	r2, r3, [sp, #36]	; 0x24
 80094d6:	1a9b      	subs	r3, r3, r2
 80094d8:	eba3 0309 	sub.w	r3, r3, r9
 80094dc:	4543      	cmp	r3, r8
 80094de:	f77f af79 	ble.w	80093d4 <_printf_float+0x250>
 80094e2:	2301      	movs	r3, #1
 80094e4:	4652      	mov	r2, sl
 80094e6:	4631      	mov	r1, r6
 80094e8:	4628      	mov	r0, r5
 80094ea:	47b8      	blx	r7
 80094ec:	3001      	adds	r0, #1
 80094ee:	f43f aeaa 	beq.w	8009246 <_printf_float+0xc2>
 80094f2:	f108 0801 	add.w	r8, r8, #1
 80094f6:	e7ec      	b.n	80094d2 <_printf_float+0x34e>
 80094f8:	4613      	mov	r3, r2
 80094fa:	4631      	mov	r1, r6
 80094fc:	4642      	mov	r2, r8
 80094fe:	4628      	mov	r0, r5
 8009500:	47b8      	blx	r7
 8009502:	3001      	adds	r0, #1
 8009504:	d1c0      	bne.n	8009488 <_printf_float+0x304>
 8009506:	e69e      	b.n	8009246 <_printf_float+0xc2>
 8009508:	2301      	movs	r3, #1
 800950a:	4631      	mov	r1, r6
 800950c:	4628      	mov	r0, r5
 800950e:	9205      	str	r2, [sp, #20]
 8009510:	47b8      	blx	r7
 8009512:	3001      	adds	r0, #1
 8009514:	f43f ae97 	beq.w	8009246 <_printf_float+0xc2>
 8009518:	9a05      	ldr	r2, [sp, #20]
 800951a:	f10b 0b01 	add.w	fp, fp, #1
 800951e:	e7b9      	b.n	8009494 <_printf_float+0x310>
 8009520:	ee18 3a10 	vmov	r3, s16
 8009524:	4652      	mov	r2, sl
 8009526:	4631      	mov	r1, r6
 8009528:	4628      	mov	r0, r5
 800952a:	47b8      	blx	r7
 800952c:	3001      	adds	r0, #1
 800952e:	d1be      	bne.n	80094ae <_printf_float+0x32a>
 8009530:	e689      	b.n	8009246 <_printf_float+0xc2>
 8009532:	9a05      	ldr	r2, [sp, #20]
 8009534:	464b      	mov	r3, r9
 8009536:	4442      	add	r2, r8
 8009538:	4631      	mov	r1, r6
 800953a:	4628      	mov	r0, r5
 800953c:	47b8      	blx	r7
 800953e:	3001      	adds	r0, #1
 8009540:	d1c1      	bne.n	80094c6 <_printf_float+0x342>
 8009542:	e680      	b.n	8009246 <_printf_float+0xc2>
 8009544:	9a0a      	ldr	r2, [sp, #40]	; 0x28
 8009546:	2a01      	cmp	r2, #1
 8009548:	dc01      	bgt.n	800954e <_printf_float+0x3ca>
 800954a:	07db      	lsls	r3, r3, #31
 800954c:	d538      	bpl.n	80095c0 <_printf_float+0x43c>
 800954e:	2301      	movs	r3, #1
 8009550:	4642      	mov	r2, r8
 8009552:	4631      	mov	r1, r6
 8009554:	4628      	mov	r0, r5
 8009556:	47b8      	blx	r7
 8009558:	3001      	adds	r0, #1
 800955a:	f43f ae74 	beq.w	8009246 <_printf_float+0xc2>
 800955e:	ee18 3a10 	vmov	r3, s16
 8009562:	4652      	mov	r2, sl
 8009564:	4631      	mov	r1, r6
 8009566:	4628      	mov	r0, r5
 8009568:	47b8      	blx	r7
 800956a:	3001      	adds	r0, #1
 800956c:	f43f ae6b 	beq.w	8009246 <_printf_float+0xc2>
 8009570:	e9d4 0112 	ldrd	r0, r1, [r4, #72]	; 0x48
 8009574:	2200      	movs	r2, #0
 8009576:	2300      	movs	r3, #0
 8009578:	f7f7 fab6 	bl	8000ae8 <__aeabi_dcmpeq>
 800957c:	b9d8      	cbnz	r0, 80095b6 <_printf_float+0x432>
 800957e:	9b0a      	ldr	r3, [sp, #40]	; 0x28
 8009580:	f108 0201 	add.w	r2, r8, #1
 8009584:	3b01      	subs	r3, #1
 8009586:	4631      	mov	r1, r6
 8009588:	4628      	mov	r0, r5
 800958a:	47b8      	blx	r7
 800958c:	3001      	adds	r0, #1
 800958e:	d10e      	bne.n	80095ae <_printf_float+0x42a>
 8009590:	e659      	b.n	8009246 <_printf_float+0xc2>
 8009592:	2301      	movs	r3, #1
 8009594:	4652      	mov	r2, sl
 8009596:	4631      	mov	r1, r6
 8009598:	4628      	mov	r0, r5
 800959a:	47b8      	blx	r7
 800959c:	3001      	adds	r0, #1
 800959e:	f43f ae52 	beq.w	8009246 <_printf_float+0xc2>
 80095a2:	f108 0801 	add.w	r8, r8, #1
 80095a6:	9b0a      	ldr	r3, [sp, #40]	; 0x28
 80095a8:	3b01      	subs	r3, #1
 80095aa:	4543      	cmp	r3, r8
 80095ac:	dcf1      	bgt.n	8009592 <_printf_float+0x40e>
 80095ae:	464b      	mov	r3, r9
 80095b0:	f104 0250 	add.w	r2, r4, #80	; 0x50
 80095b4:	e6dc      	b.n	8009370 <_printf_float+0x1ec>
 80095b6:	f04f 0800 	mov.w	r8, #0
 80095ba:	f104 0a1a 	add.w	sl, r4, #26
 80095be:	e7f2      	b.n	80095a6 <_printf_float+0x422>
 80095c0:	2301      	movs	r3, #1
 80095c2:	4642      	mov	r2, r8
 80095c4:	e7df      	b.n	8009586 <_printf_float+0x402>
 80095c6:	2301      	movs	r3, #1
 80095c8:	464a      	mov	r2, r9
 80095ca:	4631      	mov	r1, r6
 80095cc:	4628      	mov	r0, r5
 80095ce:	47b8      	blx	r7
 80095d0:	3001      	adds	r0, #1
 80095d2:	f43f ae38 	beq.w	8009246 <_printf_float+0xc2>
 80095d6:	f108 0801 	add.w	r8, r8, #1
 80095da:	68e3      	ldr	r3, [r4, #12]
 80095dc:	990b      	ldr	r1, [sp, #44]	; 0x2c
 80095de:	1a5b      	subs	r3, r3, r1
 80095e0:	4543      	cmp	r3, r8
 80095e2:	dcf0      	bgt.n	80095c6 <_printf_float+0x442>
 80095e4:	e6fa      	b.n	80093dc <_printf_float+0x258>
 80095e6:	f04f 0800 	mov.w	r8, #0
 80095ea:	f104 0919 	add.w	r9, r4, #25
 80095ee:	e7f4      	b.n	80095da <_printf_float+0x456>

080095f0 <_printf_common>:
 80095f0:	e92d 47f0 	stmdb	sp!, {r4, r5, r6, r7, r8, r9, sl, lr}
 80095f4:	4616      	mov	r6, r2
 80095f6:	4699      	mov	r9, r3
 80095f8:	688a      	ldr	r2, [r1, #8]
 80095fa:	690b      	ldr	r3, [r1, #16]
 80095fc:	f8dd 8020 	ldr.w	r8, [sp, #32]
 8009600:	4293      	cmp	r3, r2
 8009602:	bfb8      	it	lt
 8009604:	4613      	movlt	r3, r2
 8009606:	6033      	str	r3, [r6, #0]
 8009608:	f891 2043 	ldrb.w	r2, [r1, #67]	; 0x43
 800960c:	4607      	mov	r7, r0
 800960e:	460c      	mov	r4, r1
 8009610:	b10a      	cbz	r2, 8009616 <_printf_common+0x26>
 8009612:	3301      	adds	r3, #1
 8009614:	6033      	str	r3, [r6, #0]
 8009616:	6823      	ldr	r3, [r4, #0]
 8009618:	0699      	lsls	r1, r3, #26
 800961a:	bf42      	ittt	mi
 800961c:	6833      	ldrmi	r3, [r6, #0]
 800961e:	3302      	addmi	r3, #2
 8009620:	6033      	strmi	r3, [r6, #0]
 8009622:	6825      	ldr	r5, [r4, #0]
 8009624:	f015 0506 	ands.w	r5, r5, #6
 8009628:	d106      	bne.n	8009638 <_printf_common+0x48>
 800962a:	f104 0a19 	add.w	sl, r4, #25
 800962e:	68e3      	ldr	r3, [r4, #12]
 8009630:	6832      	ldr	r2, [r6, #0]
 8009632:	1a9b      	subs	r3, r3, r2
 8009634:	42ab      	cmp	r3, r5
 8009636:	dc26      	bgt.n	8009686 <_printf_common+0x96>
 8009638:	f894 2043 	ldrb.w	r2, [r4, #67]	; 0x43
 800963c:	1e13      	subs	r3, r2, #0
 800963e:	6822      	ldr	r2, [r4, #0]
 8009640:	bf18      	it	ne
 8009642:	2301      	movne	r3, #1
 8009644:	0692      	lsls	r2, r2, #26
 8009646:	d42b      	bmi.n	80096a0 <_printf_common+0xb0>
 8009648:	f104 0243 	add.w	r2, r4, #67	; 0x43
 800964c:	4649      	mov	r1, r9
 800964e:	4638      	mov	r0, r7
 8009650:	47c0      	blx	r8
 8009652:	3001      	adds	r0, #1
 8009654:	d01e      	beq.n	8009694 <_printf_common+0xa4>
 8009656:	6823      	ldr	r3, [r4, #0]
 8009658:	68e5      	ldr	r5, [r4, #12]
 800965a:	6832      	ldr	r2, [r6, #0]
 800965c:	f003 0306 	and.w	r3, r3, #6
 8009660:	2b04      	cmp	r3, #4
 8009662:	bf08      	it	eq
 8009664:	1aad      	subeq	r5, r5, r2
 8009666:	68a3      	ldr	r3, [r4, #8]
 8009668:	6922      	ldr	r2, [r4, #16]
 800966a:	bf0c      	ite	eq
 800966c:	ea25 75e5 	biceq.w	r5, r5, r5, asr #31
 8009670:	2500      	movne	r5, #0
 8009672:	4293      	cmp	r3, r2
 8009674:	bfc4      	itt	gt
 8009676:	1a9b      	subgt	r3, r3, r2
 8009678:	18ed      	addgt	r5, r5, r3
 800967a:	2600      	movs	r6, #0
 800967c:	341a      	adds	r4, #26
 800967e:	42b5      	cmp	r5, r6
 8009680:	d11a      	bne.n	80096b8 <_printf_common+0xc8>
 8009682:	2000      	movs	r0, #0
 8009684:	e008      	b.n	8009698 <_printf_common+0xa8>
 8009686:	2301      	movs	r3, #1
 8009688:	4652      	mov	r2, sl
 800968a:	4649      	mov	r1, r9
 800968c:	4638      	mov	r0, r7
 800968e:	47c0      	blx	r8
 8009690:	3001      	adds	r0, #1
 8009692:	d103      	bne.n	800969c <_printf_common+0xac>
 8009694:	f04f 30ff 	mov.w	r0, #4294967295
 8009698:	e8bd 87f0 	ldmia.w	sp!, {r4, r5, r6, r7, r8, r9, sl, pc}
 800969c:	3501      	adds	r5, #1
 800969e:	e7c6      	b.n	800962e <_printf_common+0x3e>
 80096a0:	18e1      	adds	r1, r4, r3
 80096a2:	1c5a      	adds	r2, r3, #1
 80096a4:	2030      	movs	r0, #48	; 0x30
 80096a6:	f881 0043 	strb.w	r0, [r1, #67]	; 0x43
 80096aa:	4422      	add	r2, r4
 80096ac:	f894 1045 	ldrb.w	r1, [r4, #69]	; 0x45
 80096b0:	f882 1043 	strb.w	r1, [r2, #67]	; 0x43
 80096b4:	3302      	adds	r3, #2
 80096b6:	e7c7      	b.n	8009648 <_printf_common+0x58>
 80096b8:	2301      	movs	r3, #1
 80096ba:	4622      	mov	r2, r4
 80096bc:	4649      	mov	r1, r9
 80096be:	4638      	mov	r0, r7
 80096c0:	47c0      	blx	r8
 80096c2:	3001      	adds	r0, #1
 80096c4:	d0e6      	beq.n	8009694 <_printf_common+0xa4>
 80096c6:	3601      	adds	r6, #1
 80096c8:	e7d9      	b.n	800967e <_printf_common+0x8e>
	...

080096cc <_printf_i>:
 80096cc:	e92d 47ff 	stmdb	sp!, {r0, r1, r2, r3, r4, r5, r6, r7, r8, r9, sl, lr}
 80096d0:	460c      	mov	r4, r1
 80096d2:	4691      	mov	r9, r2
 80096d4:	7e27      	ldrb	r7, [r4, #24]
 80096d6:	990c      	ldr	r1, [sp, #48]	; 0x30
 80096d8:	2f78      	cmp	r7, #120	; 0x78
 80096da:	4680      	mov	r8, r0
 80096dc:	469a      	mov	sl, r3
 80096de:	f104 0243 	add.w	r2, r4, #67	; 0x43
 80096e2:	d807      	bhi.n	80096f4 <_printf_i+0x28>
 80096e4:	2f62      	cmp	r7, #98	; 0x62
 80096e6:	d80a      	bhi.n	80096fe <_printf_i+0x32>
 80096e8:	2f00      	cmp	r7, #0
 80096ea:	f000 80d8 	beq.w	800989e <_printf_i+0x1d2>
 80096ee:	2f58      	cmp	r7, #88	; 0x58
 80096f0:	f000 80a3 	beq.w	800983a <_printf_i+0x16e>
 80096f4:	f104 0642 	add.w	r6, r4, #66	; 0x42
 80096f8:	f884 7042 	strb.w	r7, [r4, #66]	; 0x42
 80096fc:	e03a      	b.n	8009774 <_printf_i+0xa8>
 80096fe:	f1a7 0363 	sub.w	r3, r7, #99	; 0x63
 8009702:	2b15      	cmp	r3, #21
 8009704:	d8f6      	bhi.n	80096f4 <_printf_i+0x28>
 8009706:	a001      	add	r0, pc, #4	; (adr r0, 800970c <_printf_i+0x40>)
 8009708:	f850 f023 	ldr.w	pc, [r0, r3, lsl #2]
 800970c:	08009765 	.word	0x08009765
 8009710:	08009779 	.word	0x08009779
 8009714:	080096f5 	.word	0x080096f5
 8009718:	080096f5 	.word	0x080096f5
 800971c:	080096f5 	.word	0x080096f5
 8009720:	080096f5 	.word	0x080096f5
 8009724:	08009779 	.word	0x08009779
 8009728:	080096f5 	.word	0x080096f5
 800972c:	080096f5 	.word	0x080096f5
 8009730:	080096f5 	.word	0x080096f5
 8009734:	080096f5 	.word	0x080096f5
 8009738:	08009885 	.word	0x08009885
 800973c:	080097a9 	.word	0x080097a9
 8009740:	08009867 	.word	0x08009867
 8009744:	080096f5 	.word	0x080096f5
 8009748:	080096f5 	.word	0x080096f5
 800974c:	080098a7 	.word	0x080098a7
 8009750:	080096f5 	.word	0x080096f5
 8009754:	080097a9 	.word	0x080097a9
 8009758:	080096f5 	.word	0x080096f5
 800975c:	080096f5 	.word	0x080096f5
 8009760:	0800986f 	.word	0x0800986f
 8009764:	680b      	ldr	r3, [r1, #0]
 8009766:	1d1a      	adds	r2, r3, #4
 8009768:	681b      	ldr	r3, [r3, #0]
 800976a:	600a      	str	r2, [r1, #0]
 800976c:	f104 0642 	add.w	r6, r4, #66	; 0x42
 8009770:	f884 3042 	strb.w	r3, [r4, #66]	; 0x42
 8009774:	2301      	movs	r3, #1
 8009776:	e0a3      	b.n	80098c0 <_printf_i+0x1f4>
 8009778:	6825      	ldr	r5, [r4, #0]
 800977a:	6808      	ldr	r0, [r1, #0]
 800977c:	062e      	lsls	r6, r5, #24
 800977e:	f100 0304 	add.w	r3, r0, #4
 8009782:	d50a      	bpl.n	800979a <_printf_i+0xce>
 8009784:	6805      	ldr	r5, [r0, #0]
 8009786:	600b      	str	r3, [r1, #0]
 8009788:	2d00      	cmp	r5, #0
 800978a:	da03      	bge.n	8009794 <_printf_i+0xc8>
 800978c:	232d      	movs	r3, #45	; 0x2d
 800978e:	426d      	negs	r5, r5
 8009790:	f884 3043 	strb.w	r3, [r4, #67]	; 0x43
 8009794:	485e      	ldr	r0, [pc, #376]	; (8009910 <_printf_i+0x244>)
 8009796:	230a      	movs	r3, #10
 8009798:	e019      	b.n	80097ce <_printf_i+0x102>
 800979a:	f015 0f40 	tst.w	r5, #64	; 0x40
 800979e:	6805      	ldr	r5, [r0, #0]
 80097a0:	600b      	str	r3, [r1, #0]
 80097a2:	bf18      	it	ne
 80097a4:	b22d      	sxthne	r5, r5
 80097a6:	e7ef      	b.n	8009788 <_printf_i+0xbc>
 80097a8:	680b      	ldr	r3, [r1, #0]
 80097aa:	6825      	ldr	r5, [r4, #0]
 80097ac:	1d18      	adds	r0, r3, #4
 80097ae:	6008      	str	r0, [r1, #0]
 80097b0:	0628      	lsls	r0, r5, #24
 80097b2:	d501      	bpl.n	80097b8 <_printf_i+0xec>
 80097b4:	681d      	ldr	r5, [r3, #0]
 80097b6:	e002      	b.n	80097be <_printf_i+0xf2>
 80097b8:	0669      	lsls	r1, r5, #25
 80097ba:	d5fb      	bpl.n	80097b4 <_printf_i+0xe8>
 80097bc:	881d      	ldrh	r5, [r3, #0]
 80097be:	4854      	ldr	r0, [pc, #336]	; (8009910 <_printf_i+0x244>)
 80097c0:	2f6f      	cmp	r7, #111	; 0x6f
 80097c2:	bf0c      	ite	eq
 80097c4:	2308      	moveq	r3, #8
 80097c6:	230a      	movne	r3, #10
 80097c8:	2100      	movs	r1, #0
 80097ca:	f884 1043 	strb.w	r1, [r4, #67]	; 0x43
 80097ce:	6866      	ldr	r6, [r4, #4]
 80097d0:	60a6      	str	r6, [r4, #8]
 80097d2:	2e00      	cmp	r6, #0
 80097d4:	bfa2      	ittt	ge
 80097d6:	6821      	ldrge	r1, [r4, #0]
 80097d8:	f021 0104 	bicge.w	r1, r1, #4
 80097dc:	6021      	strge	r1, [r4, #0]
 80097de:	b90d      	cbnz	r5, 80097e4 <_printf_i+0x118>
 80097e0:	2e00      	cmp	r6, #0
 80097e2:	d04d      	beq.n	8009880 <_printf_i+0x1b4>
 80097e4:	4616      	mov	r6, r2
 80097e6:	fbb5 f1f3 	udiv	r1, r5, r3
 80097ea:	fb03 5711 	mls	r7, r3, r1, r5
 80097ee:	5dc7      	ldrb	r7, [r0, r7]
 80097f0:	f806 7d01 	strb.w	r7, [r6, #-1]!
 80097f4:	462f      	mov	r7, r5
 80097f6:	42bb      	cmp	r3, r7
 80097f8:	460d      	mov	r5, r1
 80097fa:	d9f4      	bls.n	80097e6 <_printf_i+0x11a>
 80097fc:	2b08      	cmp	r3, #8
 80097fe:	d10b      	bne.n	8009818 <_printf_i+0x14c>
 8009800:	6823      	ldr	r3, [r4, #0]
 8009802:	07df      	lsls	r7, r3, #31
 8009804:	d508      	bpl.n	8009818 <_printf_i+0x14c>
 8009806:	6923      	ldr	r3, [r4, #16]
 8009808:	6861      	ldr	r1, [r4, #4]
 800980a:	4299      	cmp	r1, r3
 800980c:	bfde      	ittt	le
 800980e:	2330      	movle	r3, #48	; 0x30
 8009810:	f806 3c01 	strble.w	r3, [r6, #-1]
 8009814:	f106 36ff 	addle.w	r6, r6, #4294967295
 8009818:	1b92      	subs	r2, r2, r6
 800981a:	6122      	str	r2, [r4, #16]
 800981c:	f8cd a000 	str.w	sl, [sp]
 8009820:	464b      	mov	r3, r9
 8009822:	aa03      	add	r2, sp, #12
 8009824:	4621      	mov	r1, r4
 8009826:	4640      	mov	r0, r8
 8009828:	f7ff fee2 	bl	80095f0 <_printf_common>
 800982c:	3001      	adds	r0, #1
 800982e:	d14c      	bne.n	80098ca <_printf_i+0x1fe>
 8009830:	f04f 30ff 	mov.w	r0, #4294967295
 8009834:	b004      	add	sp, #16
 8009836:	e8bd 87f0 	ldmia.w	sp!, {r4, r5, r6, r7, r8, r9, sl, pc}
 800983a:	4835      	ldr	r0, [pc, #212]	; (8009910 <_printf_i+0x244>)
 800983c:	f884 7045 	strb.w	r7, [r4, #69]	; 0x45
 8009840:	6823      	ldr	r3, [r4, #0]
 8009842:	680e      	ldr	r6, [r1, #0]
 8009844:	061f      	lsls	r7, r3, #24
 8009846:	f856 5b04 	ldr.w	r5, [r6], #4
 800984a:	600e      	str	r6, [r1, #0]
 800984c:	d514      	bpl.n	8009878 <_printf_i+0x1ac>
 800984e:	07d9      	lsls	r1, r3, #31
 8009850:	bf44      	itt	mi
 8009852:	f043 0320 	orrmi.w	r3, r3, #32
 8009856:	6023      	strmi	r3, [r4, #0]
 8009858:	b91d      	cbnz	r5, 8009862 <_printf_i+0x196>
 800985a:	6823      	ldr	r3, [r4, #0]
 800985c:	f023 0320 	bic.w	r3, r3, #32
 8009860:	6023      	str	r3, [r4, #0]
 8009862:	2310      	movs	r3, #16
 8009864:	e7b0      	b.n	80097c8 <_printf_i+0xfc>
 8009866:	6823      	ldr	r3, [r4, #0]
 8009868:	f043 0320 	orr.w	r3, r3, #32
 800986c:	6023      	str	r3, [r4, #0]
 800986e:	2378      	movs	r3, #120	; 0x78
 8009870:	4828      	ldr	r0, [pc, #160]	; (8009914 <_printf_i+0x248>)
 8009872:	f884 3045 	strb.w	r3, [r4, #69]	; 0x45
 8009876:	e7e3      	b.n	8009840 <_printf_i+0x174>
 8009878:	065e      	lsls	r6, r3, #25
 800987a:	bf48      	it	mi
 800987c:	b2ad      	uxthmi	r5, r5
 800987e:	e7e6      	b.n	800984e <_printf_i+0x182>
 8009880:	4616      	mov	r6, r2
 8009882:	e7bb      	b.n	80097fc <_printf_i+0x130>
 8009884:	680b      	ldr	r3, [r1, #0]
 8009886:	6826      	ldr	r6, [r4, #0]
 8009888:	6960      	ldr	r0, [r4, #20]
 800988a:	1d1d      	adds	r5, r3, #4
 800988c:	600d      	str	r5, [r1, #0]
 800988e:	0635      	lsls	r5, r6, #24
 8009890:	681b      	ldr	r3, [r3, #0]
 8009892:	d501      	bpl.n	8009898 <_printf_i+0x1cc>
 8009894:	6018      	str	r0, [r3, #0]
 8009896:	e002      	b.n	800989e <_printf_i+0x1d2>
 8009898:	0671      	lsls	r1, r6, #25
 800989a:	d5fb      	bpl.n	8009894 <_printf_i+0x1c8>
 800989c:	8018      	strh	r0, [r3, #0]
 800989e:	2300      	movs	r3, #0
 80098a0:	6123      	str	r3, [r4, #16]
 80098a2:	4616      	mov	r6, r2
 80098a4:	e7ba      	b.n	800981c <_printf_i+0x150>
 80098a6:	680b      	ldr	r3, [r1, #0]
 80098a8:	1d1a      	adds	r2, r3, #4
 80098aa:	600a      	str	r2, [r1, #0]
 80098ac:	681e      	ldr	r6, [r3, #0]
 80098ae:	6862      	ldr	r2, [r4, #4]
 80098b0:	2100      	movs	r1, #0
 80098b2:	4630      	mov	r0, r6
 80098b4:	f7f6 fca4 	bl	8000200 <memchr>
 80098b8:	b108      	cbz	r0, 80098be <_printf_i+0x1f2>
 80098ba:	1b80      	subs	r0, r0, r6
 80098bc:	6060      	str	r0, [r4, #4]
 80098be:	6863      	ldr	r3, [r4, #4]
 80098c0:	6123      	str	r3, [r4, #16]
 80098c2:	2300      	movs	r3, #0
 80098c4:	f884 3043 	strb.w	r3, [r4, #67]	; 0x43
 80098c8:	e7a8      	b.n	800981c <_printf_i+0x150>
 80098ca:	6923      	ldr	r3, [r4, #16]
 80098cc:	4632      	mov	r2, r6
 80098ce:	4649      	mov	r1, r9
 80098d0:	4640      	mov	r0, r8
 80098d2:	47d0      	blx	sl
 80098d4:	3001      	adds	r0, #1
 80098d6:	d0ab      	beq.n	8009830 <_printf_i+0x164>
 80098d8:	6823      	ldr	r3, [r4, #0]
 80098da:	079b      	lsls	r3, r3, #30
 80098dc:	d413      	bmi.n	8009906 <_printf_i+0x23a>
 80098de:	68e0      	ldr	r0, [r4, #12]
 80098e0:	9b03      	ldr	r3, [sp, #12]
 80098e2:	4298      	cmp	r0, r3
 80098e4:	bfb8      	it	lt
 80098e6:	4618      	movlt	r0, r3
 80098e8:	e7a4      	b.n	8009834 <_printf_i+0x168>
 80098ea:	2301      	movs	r3, #1
 80098ec:	4632      	mov	r2, r6
 80098ee:	4649      	mov	r1, r9
 80098f0:	4640      	mov	r0, r8
 80098f2:	47d0      	blx	sl
 80098f4:	3001      	adds	r0, #1
 80098f6:	d09b      	beq.n	8009830 <_printf_i+0x164>
 80098f8:	3501      	adds	r5, #1
 80098fa:	68e3      	ldr	r3, [r4, #12]
 80098fc:	9903      	ldr	r1, [sp, #12]
 80098fe:	1a5b      	subs	r3, r3, r1
 8009900:	42ab      	cmp	r3, r5
 8009902:	dcf2      	bgt.n	80098ea <_printf_i+0x21e>
 8009904:	e7eb      	b.n	80098de <_printf_i+0x212>
 8009906:	2500      	movs	r5, #0
 8009908:	f104 0619 	add.w	r6, r4, #25
 800990c:	e7f5      	b.n	80098fa <_printf_i+0x22e>
 800990e:	bf00      	nop
 8009910:	0800fbf0 	.word	0x0800fbf0
 8009914:	0800fc01 	.word	0x0800fc01

08009918 <_scanf_float>:
 8009918:	e92d 4ff0 	stmdb	sp!, {r4, r5, r6, r7, r8, r9, sl, fp, lr}
 800991c:	b087      	sub	sp, #28
 800991e:	4617      	mov	r7, r2
 8009920:	9303      	str	r3, [sp, #12]
 8009922:	688b      	ldr	r3, [r1, #8]
 8009924:	1e5a      	subs	r2, r3, #1
 8009926:	f5b2 7fae 	cmp.w	r2, #348	; 0x15c
 800992a:	bf83      	ittte	hi
 800992c:	f46f 75ae 	mvnhi.w	r5, #348	; 0x15c
 8009930:	195b      	addhi	r3, r3, r5
 8009932:	9302      	strhi	r3, [sp, #8]
 8009934:	2300      	movls	r3, #0
 8009936:	bf86      	itte	hi
 8009938:	f240 135d 	movwhi	r3, #349	; 0x15d
 800993c:	608b      	strhi	r3, [r1, #8]
 800993e:	9302      	strls	r3, [sp, #8]
 8009940:	680b      	ldr	r3, [r1, #0]
 8009942:	468b      	mov	fp, r1
 8009944:	2500      	movs	r5, #0
 8009946:	f443 63f0 	orr.w	r3, r3, #1920	; 0x780
 800994a:	f84b 3b1c 	str.w	r3, [fp], #28
 800994e:	e9cd 5504 	strd	r5, r5, [sp, #16]
 8009952:	4680      	mov	r8, r0
 8009954:	460c      	mov	r4, r1
 8009956:	465e      	mov	r6, fp
 8009958:	46aa      	mov	sl, r5
 800995a:	46a9      	mov	r9, r5
 800995c:	9501      	str	r5, [sp, #4]
 800995e:	68a2      	ldr	r2, [r4, #8]
 8009960:	b152      	cbz	r2, 8009978 <_scanf_float+0x60>
 8009962:	683b      	ldr	r3, [r7, #0]
 8009964:	781b      	ldrb	r3, [r3, #0]
 8009966:	2b4e      	cmp	r3, #78	; 0x4e
 8009968:	d864      	bhi.n	8009a34 <_scanf_float+0x11c>
 800996a:	2b40      	cmp	r3, #64	; 0x40
 800996c:	d83c      	bhi.n	80099e8 <_scanf_float+0xd0>
 800996e:	f1a3 012b 	sub.w	r1, r3, #43	; 0x2b
 8009972:	b2c8      	uxtb	r0, r1
 8009974:	280e      	cmp	r0, #14
 8009976:	d93a      	bls.n	80099ee <_scanf_float+0xd6>
 8009978:	f1b9 0f00 	cmp.w	r9, #0
 800997c:	d003      	beq.n	8009986 <_scanf_float+0x6e>
 800997e:	6823      	ldr	r3, [r4, #0]
 8009980:	f423 7380 	bic.w	r3, r3, #256	; 0x100
 8009984:	6023      	str	r3, [r4, #0]
 8009986:	f10a 3aff 	add.w	sl, sl, #4294967295
 800998a:	f1ba 0f01 	cmp.w	sl, #1
 800998e:	f200 8113 	bhi.w	8009bb8 <_scanf_float+0x2a0>
 8009992:	455e      	cmp	r6, fp
 8009994:	f200 8105 	bhi.w	8009ba2 <_scanf_float+0x28a>
 8009998:	2501      	movs	r5, #1
 800999a:	4628      	mov	r0, r5
 800999c:	b007      	add	sp, #28
 800999e:	e8bd 8ff0 	ldmia.w	sp!, {r4, r5, r6, r7, r8, r9, sl, fp, pc}
 80099a2:	f1a3 0261 	sub.w	r2, r3, #97	; 0x61
 80099a6:	2a0d      	cmp	r2, #13
 80099a8:	d8e6      	bhi.n	8009978 <_scanf_float+0x60>
 80099aa:	a101      	add	r1, pc, #4	; (adr r1, 80099b0 <_scanf_float+0x98>)
 80099ac:	f851 f022 	ldr.w	pc, [r1, r2, lsl #2]
 80099b0:	08009aef 	.word	0x08009aef
 80099b4:	08009979 	.word	0x08009979
 80099b8:	08009979 	.word	0x08009979
 80099bc:	08009979 	.word	0x08009979
 80099c0:	08009b4f 	.word	0x08009b4f
 80099c4:	08009b27 	.word	0x08009b27
 80099c8:	08009979 	.word	0x08009979
 80099cc:	08009979 	.word	0x08009979
 80099d0:	08009afd 	.word	0x08009afd
 80099d4:	08009979 	.word	0x08009979
 80099d8:	08009979 	.word	0x08009979
 80099dc:	08009979 	.word	0x08009979
 80099e0:	08009979 	.word	0x08009979
 80099e4:	08009ab5 	.word	0x08009ab5
 80099e8:	f1a3 0241 	sub.w	r2, r3, #65	; 0x41
 80099ec:	e7db      	b.n	80099a6 <_scanf_float+0x8e>
 80099ee:	290e      	cmp	r1, #14
 80099f0:	d8c2      	bhi.n	8009978 <_scanf_float+0x60>
 80099f2:	a001      	add	r0, pc, #4	; (adr r0, 80099f8 <_scanf_float+0xe0>)
 80099f4:	f850 f021 	ldr.w	pc, [r0, r1, lsl #2]
 80099f8:	08009aa7 	.word	0x08009aa7
 80099fc:	08009979 	.word	0x08009979
 8009a00:	08009aa7 	.word	0x08009aa7
 8009a04:	08009b3b 	.word	0x08009b3b
 8009a08:	08009979 	.word	0x08009979
 8009a0c:	08009a55 	.word	0x08009a55
 8009a10:	08009a91 	.word	0x08009a91
 8009a14:	08009a91 	.word	0x08009a91
 8009a18:	08009a91 	.word	0x08009a91
 8009a1c:	08009a91 	.word	0x08009a91
 8009a20:	08009a91 	.word	0x08009a91
 8009a24:	08009a91 	.word	0x08009a91
 8009a28:	08009a91 	.word	0x08009a91
 8009a2c:	08009a91 	.word	0x08009a91
 8009a30:	08009a91 	.word	0x08009a91
 8009a34:	2b6e      	cmp	r3, #110	; 0x6e
 8009a36:	d809      	bhi.n	8009a4c <_scanf_float+0x134>
 8009a38:	2b60      	cmp	r3, #96	; 0x60
 8009a3a:	d8b2      	bhi.n	80099a2 <_scanf_float+0x8a>
 8009a3c:	2b54      	cmp	r3, #84	; 0x54
 8009a3e:	d077      	beq.n	8009b30 <_scanf_float+0x218>
 8009a40:	2b59      	cmp	r3, #89	; 0x59
 8009a42:	d199      	bne.n	8009978 <_scanf_float+0x60>
 8009a44:	2d07      	cmp	r5, #7
 8009a46:	d197      	bne.n	8009978 <_scanf_float+0x60>
 8009a48:	2508      	movs	r5, #8
 8009a4a:	e029      	b.n	8009aa0 <_scanf_float+0x188>
 8009a4c:	2b74      	cmp	r3, #116	; 0x74
 8009a4e:	d06f      	beq.n	8009b30 <_scanf_float+0x218>
 8009a50:	2b79      	cmp	r3, #121	; 0x79
 8009a52:	e7f6      	b.n	8009a42 <_scanf_float+0x12a>
 8009a54:	6821      	ldr	r1, [r4, #0]
 8009a56:	05c8      	lsls	r0, r1, #23
 8009a58:	d51a      	bpl.n	8009a90 <_scanf_float+0x178>
 8009a5a:	9b02      	ldr	r3, [sp, #8]
 8009a5c:	f021 0180 	bic.w	r1, r1, #128	; 0x80
 8009a60:	6021      	str	r1, [r4, #0]
 8009a62:	f109 0901 	add.w	r9, r9, #1
 8009a66:	b11b      	cbz	r3, 8009a70 <_scanf_float+0x158>
 8009a68:	3b01      	subs	r3, #1
 8009a6a:	3201      	adds	r2, #1
 8009a6c:	9302      	str	r3, [sp, #8]
 8009a6e:	60a2      	str	r2, [r4, #8]
 8009a70:	68a3      	ldr	r3, [r4, #8]
 8009a72:	3b01      	subs	r3, #1
 8009a74:	60a3      	str	r3, [r4, #8]
 8009a76:	6923      	ldr	r3, [r4, #16]
 8009a78:	3301      	adds	r3, #1
 8009a7a:	6123      	str	r3, [r4, #16]
 8009a7c:	687b      	ldr	r3, [r7, #4]
 8009a7e:	3b01      	subs	r3, #1
 8009a80:	2b00      	cmp	r3, #0
 8009a82:	607b      	str	r3, [r7, #4]
 8009a84:	f340 8084 	ble.w	8009b90 <_scanf_float+0x278>
 8009a88:	683b      	ldr	r3, [r7, #0]
 8009a8a:	3301      	adds	r3, #1
 8009a8c:	603b      	str	r3, [r7, #0]
 8009a8e:	e766      	b.n	800995e <_scanf_float+0x46>
 8009a90:	eb1a 0f05 	cmn.w	sl, r5
 8009a94:	f47f af70 	bne.w	8009978 <_scanf_float+0x60>
 8009a98:	6822      	ldr	r2, [r4, #0]
 8009a9a:	f422 72c0 	bic.w	r2, r2, #384	; 0x180
 8009a9e:	6022      	str	r2, [r4, #0]
 8009aa0:	f806 3b01 	strb.w	r3, [r6], #1
 8009aa4:	e7e4      	b.n	8009a70 <_scanf_float+0x158>
 8009aa6:	6822      	ldr	r2, [r4, #0]
 8009aa8:	0610      	lsls	r0, r2, #24
 8009aaa:	f57f af65 	bpl.w	8009978 <_scanf_float+0x60>
 8009aae:	f022 0280 	bic.w	r2, r2, #128	; 0x80
 8009ab2:	e7f4      	b.n	8009a9e <_scanf_float+0x186>
 8009ab4:	f1ba 0f00 	cmp.w	sl, #0
 8009ab8:	d10e      	bne.n	8009ad8 <_scanf_float+0x1c0>
 8009aba:	f1b9 0f00 	cmp.w	r9, #0
 8009abe:	d10e      	bne.n	8009ade <_scanf_float+0x1c6>
 8009ac0:	6822      	ldr	r2, [r4, #0]
 8009ac2:	f402 61e0 	and.w	r1, r2, #1792	; 0x700
 8009ac6:	f5b1 6fe0 	cmp.w	r1, #1792	; 0x700
 8009aca:	d108      	bne.n	8009ade <_scanf_float+0x1c6>
 8009acc:	f422 62f0 	bic.w	r2, r2, #1920	; 0x780
 8009ad0:	6022      	str	r2, [r4, #0]
 8009ad2:	f04f 0a01 	mov.w	sl, #1
 8009ad6:	e7e3      	b.n	8009aa0 <_scanf_float+0x188>
 8009ad8:	f1ba 0f02 	cmp.w	sl, #2
 8009adc:	d055      	beq.n	8009b8a <_scanf_float+0x272>
 8009ade:	2d01      	cmp	r5, #1
 8009ae0:	d002      	beq.n	8009ae8 <_scanf_float+0x1d0>
 8009ae2:	2d04      	cmp	r5, #4
 8009ae4:	f47f af48 	bne.w	8009978 <_scanf_float+0x60>
 8009ae8:	3501      	adds	r5, #1
 8009aea:	b2ed      	uxtb	r5, r5
 8009aec:	e7d8      	b.n	8009aa0 <_scanf_float+0x188>
 8009aee:	f1ba 0f01 	cmp.w	sl, #1
 8009af2:	f47f af41 	bne.w	8009978 <_scanf_float+0x60>
 8009af6:	f04f 0a02 	mov.w	sl, #2
 8009afa:	e7d1      	b.n	8009aa0 <_scanf_float+0x188>
 8009afc:	b97d      	cbnz	r5, 8009b1e <_scanf_float+0x206>
 8009afe:	f1b9 0f00 	cmp.w	r9, #0
 8009b02:	f47f af3c 	bne.w	800997e <_scanf_float+0x66>
 8009b06:	6822      	ldr	r2, [r4, #0]
 8009b08:	f402 61e0 	and.w	r1, r2, #1792	; 0x700
 8009b0c:	f5b1 6fe0 	cmp.w	r1, #1792	; 0x700
 8009b10:	f47f af39 	bne.w	8009986 <_scanf_float+0x6e>
 8009b14:	f422 62f0 	bic.w	r2, r2, #1920	; 0x780
 8009b18:	6022      	str	r2, [r4, #0]
 8009b1a:	2501      	movs	r5, #1
 8009b1c:	e7c0      	b.n	8009aa0 <_scanf_float+0x188>
 8009b1e:	2d03      	cmp	r5, #3
 8009b20:	d0e2      	beq.n	8009ae8 <_scanf_float+0x1d0>
 8009b22:	2d05      	cmp	r5, #5
 8009b24:	e7de      	b.n	8009ae4 <_scanf_float+0x1cc>
 8009b26:	2d02      	cmp	r5, #2
 8009b28:	f47f af26 	bne.w	8009978 <_scanf_float+0x60>
 8009b2c:	2503      	movs	r5, #3
 8009b2e:	e7b7      	b.n	8009aa0 <_scanf_float+0x188>
 8009b30:	2d06      	cmp	r5, #6
 8009b32:	f47f af21 	bne.w	8009978 <_scanf_float+0x60>
 8009b36:	2507      	movs	r5, #7
 8009b38:	e7b2      	b.n	8009aa0 <_scanf_float+0x188>
 8009b3a:	6822      	ldr	r2, [r4, #0]
 8009b3c:	0591      	lsls	r1, r2, #22
 8009b3e:	f57f af1b 	bpl.w	8009978 <_scanf_float+0x60>
 8009b42:	f422 7220 	bic.w	r2, r2, #640	; 0x280
 8009b46:	6022      	str	r2, [r4, #0]
 8009b48:	f8cd 9004 	str.w	r9, [sp, #4]
 8009b4c:	e7a8      	b.n	8009aa0 <_scanf_float+0x188>
 8009b4e:	6822      	ldr	r2, [r4, #0]
 8009b50:	f402 61a0 	and.w	r1, r2, #1280	; 0x500
 8009b54:	f5b1 6f80 	cmp.w	r1, #1024	; 0x400
 8009b58:	d006      	beq.n	8009b68 <_scanf_float+0x250>
 8009b5a:	0550      	lsls	r0, r2, #21
 8009b5c:	f57f af0c 	bpl.w	8009978 <_scanf_float+0x60>
 8009b60:	f1b9 0f00 	cmp.w	r9, #0
 8009b64:	f43f af0f 	beq.w	8009986 <_scanf_float+0x6e>
 8009b68:	0591      	lsls	r1, r2, #22
 8009b6a:	bf58      	it	pl
 8009b6c:	9901      	ldrpl	r1, [sp, #4]
 8009b6e:	f422 62f0 	bic.w	r2, r2, #1920	; 0x780
 8009b72:	bf58      	it	pl
 8009b74:	eba9 0101 	subpl.w	r1, r9, r1
 8009b78:	f442 72c0 	orr.w	r2, r2, #384	; 0x180
 8009b7c:	bf58      	it	pl
 8009b7e:	e9cd 1604 	strdpl	r1, r6, [sp, #16]
 8009b82:	6022      	str	r2, [r4, #0]
 8009b84:	f04f 0900 	mov.w	r9, #0
 8009b88:	e78a      	b.n	8009aa0 <_scanf_float+0x188>
 8009b8a:	f04f 0a03 	mov.w	sl, #3
 8009b8e:	e787      	b.n	8009aa0 <_scanf_float+0x188>
 8009b90:	f8d4 3180 	ldr.w	r3, [r4, #384]	; 0x180
 8009b94:	4639      	mov	r1, r7
 8009b96:	4640      	mov	r0, r8
 8009b98:	4798      	blx	r3
 8009b9a:	2800      	cmp	r0, #0
 8009b9c:	f43f aedf 	beq.w	800995e <_scanf_float+0x46>
 8009ba0:	e6ea      	b.n	8009978 <_scanf_float+0x60>
 8009ba2:	f8d4 317c 	ldr.w	r3, [r4, #380]	; 0x17c
 8009ba6:	f816 1d01 	ldrb.w	r1, [r6, #-1]!
 8009baa:	463a      	mov	r2, r7
 8009bac:	4640      	mov	r0, r8
 8009bae:	4798      	blx	r3
 8009bb0:	6923      	ldr	r3, [r4, #16]
 8009bb2:	3b01      	subs	r3, #1
 8009bb4:	6123      	str	r3, [r4, #16]
 8009bb6:	e6ec      	b.n	8009992 <_scanf_float+0x7a>
 8009bb8:	1e6b      	subs	r3, r5, #1
 8009bba:	2b06      	cmp	r3, #6
 8009bbc:	d825      	bhi.n	8009c0a <_scanf_float+0x2f2>
 8009bbe:	2d02      	cmp	r5, #2
 8009bc0:	d836      	bhi.n	8009c30 <_scanf_float+0x318>
 8009bc2:	455e      	cmp	r6, fp
 8009bc4:	f67f aee8 	bls.w	8009998 <_scanf_float+0x80>
 8009bc8:	f8d4 317c 	ldr.w	r3, [r4, #380]	; 0x17c
 8009bcc:	f816 1d01 	ldrb.w	r1, [r6, #-1]!
 8009bd0:	463a      	mov	r2, r7
 8009bd2:	4640      	mov	r0, r8
 8009bd4:	4798      	blx	r3
 8009bd6:	6923      	ldr	r3, [r4, #16]
 8009bd8:	3b01      	subs	r3, #1
 8009bda:	6123      	str	r3, [r4, #16]
 8009bdc:	e7f1      	b.n	8009bc2 <_scanf_float+0x2aa>
 8009bde:	9802      	ldr	r0, [sp, #8]
 8009be0:	f8d4 317c 	ldr.w	r3, [r4, #380]	; 0x17c
 8009be4:	f810 1d01 	ldrb.w	r1, [r0, #-1]!
 8009be8:	9002      	str	r0, [sp, #8]
 8009bea:	463a      	mov	r2, r7
 8009bec:	4640      	mov	r0, r8
 8009bee:	4798      	blx	r3
 8009bf0:	6923      	ldr	r3, [r4, #16]
 8009bf2:	3b01      	subs	r3, #1
 8009bf4:	6123      	str	r3, [r4, #16]
 8009bf6:	f10a 3aff 	add.w	sl, sl, #4294967295
 8009bfa:	fa5f fa8a 	uxtb.w	sl, sl
 8009bfe:	f1ba 0f02 	cmp.w	sl, #2
 8009c02:	d1ec      	bne.n	8009bde <_scanf_float+0x2c6>
 8009c04:	3d03      	subs	r5, #3
 8009c06:	b2ed      	uxtb	r5, r5
 8009c08:	1b76      	subs	r6, r6, r5
 8009c0a:	6823      	ldr	r3, [r4, #0]
 8009c0c:	05da      	lsls	r2, r3, #23
 8009c0e:	d52f      	bpl.n	8009c70 <_scanf_float+0x358>
 8009c10:	055b      	lsls	r3, r3, #21
 8009c12:	d510      	bpl.n	8009c36 <_scanf_float+0x31e>
 8009c14:	455e      	cmp	r6, fp
 8009c16:	f67f aebf 	bls.w	8009998 <_scanf_float+0x80>
 8009c1a:	f8d4 317c 	ldr.w	r3, [r4, #380]	; 0x17c
 8009c1e:	f816 1d01 	ldrb.w	r1, [r6, #-1]!
 8009c22:	463a      	mov	r2, r7
 8009c24:	4640      	mov	r0, r8
 8009c26:	4798      	blx	r3
 8009c28:	6923      	ldr	r3, [r4, #16]
 8009c2a:	3b01      	subs	r3, #1
 8009c2c:	6123      	str	r3, [r4, #16]
 8009c2e:	e7f1      	b.n	8009c14 <_scanf_float+0x2fc>
 8009c30:	46aa      	mov	sl, r5
 8009c32:	9602      	str	r6, [sp, #8]
 8009c34:	e7df      	b.n	8009bf6 <_scanf_float+0x2de>
 8009c36:	f816 1c01 	ldrb.w	r1, [r6, #-1]
 8009c3a:	6923      	ldr	r3, [r4, #16]
 8009c3c:	2965      	cmp	r1, #101	; 0x65
 8009c3e:	f103 33ff 	add.w	r3, r3, #4294967295
 8009c42:	f106 35ff 	add.w	r5, r6, #4294967295
 8009c46:	6123      	str	r3, [r4, #16]
 8009c48:	d00c      	beq.n	8009c64 <_scanf_float+0x34c>
 8009c4a:	2945      	cmp	r1, #69	; 0x45
 8009c4c:	d00a      	beq.n	8009c64 <_scanf_float+0x34c>
 8009c4e:	f8d4 317c 	ldr.w	r3, [r4, #380]	; 0x17c
 8009c52:	463a      	mov	r2, r7
 8009c54:	4640      	mov	r0, r8
 8009c56:	4798      	blx	r3
 8009c58:	6923      	ldr	r3, [r4, #16]
 8009c5a:	f816 1c02 	ldrb.w	r1, [r6, #-2]
 8009c5e:	3b01      	subs	r3, #1
 8009c60:	1eb5      	subs	r5, r6, #2
 8009c62:	6123      	str	r3, [r4, #16]
 8009c64:	f8d4 317c 	ldr.w	r3, [r4, #380]	; 0x17c
 8009c68:	463a      	mov	r2, r7
 8009c6a:	4640      	mov	r0, r8
 8009c6c:	4798      	blx	r3
 8009c6e:	462e      	mov	r6, r5
 8009c70:	6825      	ldr	r5, [r4, #0]
 8009c72:	f015 0510 	ands.w	r5, r5, #16
 8009c76:	d158      	bne.n	8009d2a <_scanf_float+0x412>
 8009c78:	7035      	strb	r5, [r6, #0]
 8009c7a:	6823      	ldr	r3, [r4, #0]
 8009c7c:	f403 63c0 	and.w	r3, r3, #1536	; 0x600
 8009c80:	f5b3 6f80 	cmp.w	r3, #1024	; 0x400
 8009c84:	d11c      	bne.n	8009cc0 <_scanf_float+0x3a8>
 8009c86:	9b01      	ldr	r3, [sp, #4]
 8009c88:	454b      	cmp	r3, r9
 8009c8a:	eba3 0209 	sub.w	r2, r3, r9
 8009c8e:	d124      	bne.n	8009cda <_scanf_float+0x3c2>
 8009c90:	2200      	movs	r2, #0
 8009c92:	4659      	mov	r1, fp
 8009c94:	4640      	mov	r0, r8
 8009c96:	f000 ff29 	bl	800aaec <_strtod_r>
 8009c9a:	9b03      	ldr	r3, [sp, #12]
 8009c9c:	6821      	ldr	r1, [r4, #0]
 8009c9e:	681b      	ldr	r3, [r3, #0]
 8009ca0:	f011 0f02 	tst.w	r1, #2
 8009ca4:	ec57 6b10 	vmov	r6, r7, d0
 8009ca8:	f103 0204 	add.w	r2, r3, #4
 8009cac:	d020      	beq.n	8009cf0 <_scanf_float+0x3d8>
 8009cae:	9903      	ldr	r1, [sp, #12]
 8009cb0:	600a      	str	r2, [r1, #0]
 8009cb2:	681b      	ldr	r3, [r3, #0]
 8009cb4:	e9c3 6700 	strd	r6, r7, [r3]
 8009cb8:	68e3      	ldr	r3, [r4, #12]
 8009cba:	3301      	adds	r3, #1
 8009cbc:	60e3      	str	r3, [r4, #12]
 8009cbe:	e66c      	b.n	800999a <_scanf_float+0x82>
 8009cc0:	9b04      	ldr	r3, [sp, #16]
 8009cc2:	2b00      	cmp	r3, #0
 8009cc4:	d0e4      	beq.n	8009c90 <_scanf_float+0x378>
 8009cc6:	9905      	ldr	r1, [sp, #20]
 8009cc8:	230a      	movs	r3, #10
 8009cca:	462a      	mov	r2, r5
 8009ccc:	3101      	adds	r1, #1
 8009cce:	4640      	mov	r0, r8
 8009cd0:	f000 ff96 	bl	800ac00 <_strtol_r>
 8009cd4:	9b04      	ldr	r3, [sp, #16]
 8009cd6:	9e05      	ldr	r6, [sp, #20]
 8009cd8:	1ac2      	subs	r2, r0, r3
 8009cda:	f204 136f 	addw	r3, r4, #367	; 0x16f
 8009cde:	429e      	cmp	r6, r3
 8009ce0:	bf28      	it	cs
 8009ce2:	f504 76b7 	addcs.w	r6, r4, #366	; 0x16e
 8009ce6:	4912      	ldr	r1, [pc, #72]	; (8009d30 <_scanf_float+0x418>)
 8009ce8:	4630      	mov	r0, r6
 8009cea:	f000 f82b 	bl	8009d44 <siprintf>
 8009cee:	e7cf      	b.n	8009c90 <_scanf_float+0x378>
 8009cf0:	f011 0f04 	tst.w	r1, #4
 8009cf4:	9903      	ldr	r1, [sp, #12]
 8009cf6:	600a      	str	r2, [r1, #0]
 8009cf8:	d1db      	bne.n	8009cb2 <_scanf_float+0x39a>
 8009cfa:	f8d3 8000 	ldr.w	r8, [r3]
 8009cfe:	ee10 2a10 	vmov	r2, s0
 8009d02:	ee10 0a10 	vmov	r0, s0
 8009d06:	463b      	mov	r3, r7
 8009d08:	4639      	mov	r1, r7
 8009d0a:	f7f6 ff1f 	bl	8000b4c <__aeabi_dcmpun>
 8009d0e:	b128      	cbz	r0, 8009d1c <_scanf_float+0x404>
 8009d10:	4808      	ldr	r0, [pc, #32]	; (8009d34 <_scanf_float+0x41c>)
 8009d12:	f000 f811 	bl	8009d38 <nanf>
 8009d16:	ed88 0a00 	vstr	s0, [r8]
 8009d1a:	e7cd      	b.n	8009cb8 <_scanf_float+0x3a0>
 8009d1c:	4630      	mov	r0, r6
 8009d1e:	4639      	mov	r1, r7
 8009d20:	f7f6 ff72 	bl	8000c08 <__aeabi_d2f>
 8009d24:	f8c8 0000 	str.w	r0, [r8]
 8009d28:	e7c6      	b.n	8009cb8 <_scanf_float+0x3a0>
 8009d2a:	2500      	movs	r5, #0
 8009d2c:	e635      	b.n	800999a <_scanf_float+0x82>
 8009d2e:	bf00      	nop
 8009d30:	0800fc12 	.word	0x0800fc12
 8009d34:	0800ed7b 	.word	0x0800ed7b

08009d38 <nanf>:
 8009d38:	ed9f 0a01 	vldr	s0, [pc, #4]	; 8009d40 <nanf+0x8>
 8009d3c:	4770      	bx	lr
 8009d3e:	bf00      	nop
 8009d40:	7fc00000 	.word	0x7fc00000

08009d44 <siprintf>:
 8009d44:	b40e      	push	{r1, r2, r3}
 8009d46:	b500      	push	{lr}
 8009d48:	b09c      	sub	sp, #112	; 0x70
 8009d4a:	ab1d      	add	r3, sp, #116	; 0x74
 8009d4c:	9002      	str	r0, [sp, #8]
 8009d4e:	9006      	str	r0, [sp, #24]
 8009d50:	f06f 4100 	mvn.w	r1, #2147483648	; 0x80000000
 8009d54:	4809      	ldr	r0, [pc, #36]	; (8009d7c <siprintf+0x38>)
 8009d56:	9107      	str	r1, [sp, #28]
 8009d58:	9104      	str	r1, [sp, #16]
 8009d5a:	4909      	ldr	r1, [pc, #36]	; (8009d80 <siprintf+0x3c>)
 8009d5c:	f853 2b04 	ldr.w	r2, [r3], #4
 8009d60:	9105      	str	r1, [sp, #20]
 8009d62:	6800      	ldr	r0, [r0, #0]
 8009d64:	9301      	str	r3, [sp, #4]
 8009d66:	a902      	add	r1, sp, #8
 8009d68:	f002 ff56 	bl	800cc18 <_svfiprintf_r>
 8009d6c:	9b02      	ldr	r3, [sp, #8]
 8009d6e:	2200      	movs	r2, #0
 8009d70:	701a      	strb	r2, [r3, #0]
 8009d72:	b01c      	add	sp, #112	; 0x70
 8009d74:	f85d eb04 	ldr.w	lr, [sp], #4
 8009d78:	b003      	add	sp, #12
 8009d7a:	4770      	bx	lr
 8009d7c:	200001a8 	.word	0x200001a8
 8009d80:	ffff0208 	.word	0xffff0208

08009d84 <siscanf>:
 8009d84:	b40e      	push	{r1, r2, r3}
 8009d86:	b510      	push	{r4, lr}
 8009d88:	b09f      	sub	sp, #124	; 0x7c
 8009d8a:	ac21      	add	r4, sp, #132	; 0x84
 8009d8c:	f44f 7101 	mov.w	r1, #516	; 0x204
 8009d90:	f854 2b04 	ldr.w	r2, [r4], #4
 8009d94:	9201      	str	r2, [sp, #4]
 8009d96:	f8ad 101c 	strh.w	r1, [sp, #28]
 8009d9a:	9004      	str	r0, [sp, #16]
 8009d9c:	9008      	str	r0, [sp, #32]
 8009d9e:	f7f6 fa21 	bl	80001e4 <strlen>
 8009da2:	4b0c      	ldr	r3, [pc, #48]	; (8009dd4 <siscanf+0x50>)
 8009da4:	9005      	str	r0, [sp, #20]
 8009da6:	9009      	str	r0, [sp, #36]	; 0x24
 8009da8:	930d      	str	r3, [sp, #52]	; 0x34
 8009daa:	480b      	ldr	r0, [pc, #44]	; (8009dd8 <siscanf+0x54>)
 8009dac:	9a01      	ldr	r2, [sp, #4]
 8009dae:	6800      	ldr	r0, [r0, #0]
 8009db0:	9403      	str	r4, [sp, #12]
 8009db2:	2300      	movs	r3, #0
 8009db4:	9311      	str	r3, [sp, #68]	; 0x44
 8009db6:	9316      	str	r3, [sp, #88]	; 0x58
 8009db8:	f64f 73ff 	movw	r3, #65535	; 0xffff
 8009dbc:	f8ad 301e 	strh.w	r3, [sp, #30]
 8009dc0:	a904      	add	r1, sp, #16
 8009dc2:	4623      	mov	r3, r4
 8009dc4:	f003 f882 	bl	800cecc <__ssvfiscanf_r>
 8009dc8:	b01f      	add	sp, #124	; 0x7c
 8009dca:	e8bd 4010 	ldmia.w	sp!, {r4, lr}
 8009dce:	b003      	add	sp, #12
 8009dd0:	4770      	bx	lr
 8009dd2:	bf00      	nop
 8009dd4:	08009dff 	.word	0x08009dff
 8009dd8:	200001a8 	.word	0x200001a8

08009ddc <__sread>:
 8009ddc:	b510      	push	{r4, lr}
 8009dde:	460c      	mov	r4, r1
 8009de0:	f9b1 100e 	ldrsh.w	r1, [r1, #14]
 8009de4:	f003 fb36 	bl	800d454 <_read_r>
 8009de8:	2800      	cmp	r0, #0
 8009dea:	bfab      	itete	ge
 8009dec:	6d63      	ldrge	r3, [r4, #84]	; 0x54
 8009dee:	89a3      	ldrhlt	r3, [r4, #12]
 8009df0:	181b      	addge	r3, r3, r0
 8009df2:	f423 5380 	biclt.w	r3, r3, #4096	; 0x1000
 8009df6:	bfac      	ite	ge
 8009df8:	6563      	strge	r3, [r4, #84]	; 0x54
 8009dfa:	81a3      	strhlt	r3, [r4, #12]
 8009dfc:	bd10      	pop	{r4, pc}

08009dfe <__seofread>:
 8009dfe:	2000      	movs	r0, #0
 8009e00:	4770      	bx	lr

08009e02 <__swrite>:
 8009e02:	e92d 41f0 	stmdb	sp!, {r4, r5, r6, r7, r8, lr}
 8009e06:	461f      	mov	r7, r3
 8009e08:	898b      	ldrh	r3, [r1, #12]
 8009e0a:	05db      	lsls	r3, r3, #23
 8009e0c:	4605      	mov	r5, r0
 8009e0e:	460c      	mov	r4, r1
 8009e10:	4616      	mov	r6, r2
 8009e12:	d505      	bpl.n	8009e20 <__swrite+0x1e>
 8009e14:	f9b1 100e 	ldrsh.w	r1, [r1, #14]
 8009e18:	2302      	movs	r3, #2
 8009e1a:	2200      	movs	r2, #0
 8009e1c:	f002 f900 	bl	800c020 <_lseek_r>
 8009e20:	89a3      	ldrh	r3, [r4, #12]
 8009e22:	f9b4 100e 	ldrsh.w	r1, [r4, #14]
 8009e26:	f423 5380 	bic.w	r3, r3, #4096	; 0x1000
 8009e2a:	81a3      	strh	r3, [r4, #12]
 8009e2c:	4632      	mov	r2, r6
 8009e2e:	463b      	mov	r3, r7
 8009e30:	4628      	mov	r0, r5
 8009e32:	e8bd 41f0 	ldmia.w	sp!, {r4, r5, r6, r7, r8, lr}
 8009e36:	f000 bee5 	b.w	800ac04 <_write_r>

08009e3a <__sseek>:
 8009e3a:	b510      	push	{r4, lr}
 8009e3c:	460c      	mov	r4, r1
 8009e3e:	f9b1 100e 	ldrsh.w	r1, [r1, #14]
 8009e42:	f002 f8ed 	bl	800c020 <_lseek_r>
 8009e46:	1c43      	adds	r3, r0, #1
 8009e48:	89a3      	ldrh	r3, [r4, #12]
 8009e4a:	bf15      	itete	ne
 8009e4c:	6560      	strne	r0, [r4, #84]	; 0x54
 8009e4e:	f423 5380 	biceq.w	r3, r3, #4096	; 0x1000
 8009e52:	f443 5380 	orrne.w	r3, r3, #4096	; 0x1000
 8009e56:	81a3      	strheq	r3, [r4, #12]
 8009e58:	bf18      	it	ne
 8009e5a:	81a3      	strhne	r3, [r4, #12]
 8009e5c:	bd10      	pop	{r4, pc}

08009e5e <__sclose>:
 8009e5e:	f9b1 100e 	ldrsh.w	r1, [r1, #14]
 8009e62:	f000 bee1 	b.w	800ac28 <_close_r>

08009e66 <strcpy>:
 8009e66:	4603      	mov	r3, r0
 8009e68:	f811 2b01 	ldrb.w	r2, [r1], #1
 8009e6c:	f803 2b01 	strb.w	r2, [r3], #1
 8009e70:	2a00      	cmp	r2, #0
 8009e72:	d1f9      	bne.n	8009e68 <strcpy+0x2>
 8009e74:	4770      	bx	lr

08009e76 <strncmp>:
 8009e76:	b510      	push	{r4, lr}
 8009e78:	b16a      	cbz	r2, 8009e96 <strncmp+0x20>
 8009e7a:	3901      	subs	r1, #1
 8009e7c:	1884      	adds	r4, r0, r2
 8009e7e:	f810 3b01 	ldrb.w	r3, [r0], #1
 8009e82:	f811 2f01 	ldrb.w	r2, [r1, #1]!
 8009e86:	4293      	cmp	r3, r2
 8009e88:	d103      	bne.n	8009e92 <strncmp+0x1c>
 8009e8a:	42a0      	cmp	r0, r4
 8009e8c:	d001      	beq.n	8009e92 <strncmp+0x1c>
 8009e8e:	2b00      	cmp	r3, #0
 8009e90:	d1f5      	bne.n	8009e7e <strncmp+0x8>
 8009e92:	1a98      	subs	r0, r3, r2
 8009e94:	bd10      	pop	{r4, pc}
 8009e96:	4610      	mov	r0, r2
 8009e98:	e7fc      	b.n	8009e94 <strncmp+0x1e>

08009e9a <sulp>:
 8009e9a:	b570      	push	{r4, r5, r6, lr}
 8009e9c:	4604      	mov	r4, r0
 8009e9e:	460d      	mov	r5, r1
 8009ea0:	ec45 4b10 	vmov	d0, r4, r5
 8009ea4:	4616      	mov	r6, r2
 8009ea6:	f002 fc53 	bl	800c750 <__ulp>
 8009eaa:	ec51 0b10 	vmov	r0, r1, d0
 8009eae:	b17e      	cbz	r6, 8009ed0 <sulp+0x36>
 8009eb0:	f3c5 530a 	ubfx	r3, r5, #20, #11
 8009eb4:	f1c3 036b 	rsb	r3, r3, #107	; 0x6b
 8009eb8:	2b00      	cmp	r3, #0
 8009eba:	dd09      	ble.n	8009ed0 <sulp+0x36>
 8009ebc:	051b      	lsls	r3, r3, #20
 8009ebe:	f103 557f 	add.w	r5, r3, #1069547520	; 0x3fc00000
 8009ec2:	2400      	movs	r4, #0
 8009ec4:	f505 1540 	add.w	r5, r5, #3145728	; 0x300000
 8009ec8:	4622      	mov	r2, r4
 8009eca:	462b      	mov	r3, r5
 8009ecc:	f7f6 fba4 	bl	8000618 <__aeabi_dmul>
 8009ed0:	bd70      	pop	{r4, r5, r6, pc}
 8009ed2:	0000      	movs	r0, r0
 8009ed4:	0000      	movs	r0, r0
	...

08009ed8 <_strtod_l>:
 8009ed8:	e92d 4ff0 	stmdb	sp!, {r4, r5, r6, r7, r8, r9, sl, fp, lr}
 8009edc:	b0a3      	sub	sp, #140	; 0x8c
 8009ede:	461f      	mov	r7, r3
 8009ee0:	2300      	movs	r3, #0
 8009ee2:	931e      	str	r3, [sp, #120]	; 0x78
 8009ee4:	4ba4      	ldr	r3, [pc, #656]	; (800a178 <_strtod_l+0x2a0>)
 8009ee6:	9219      	str	r2, [sp, #100]	; 0x64
 8009ee8:	681b      	ldr	r3, [r3, #0]
 8009eea:	9307      	str	r3, [sp, #28]
 8009eec:	4604      	mov	r4, r0
 8009eee:	4618      	mov	r0, r3
 8009ef0:	4688      	mov	r8, r1
 8009ef2:	f7f6 f977 	bl	80001e4 <strlen>
 8009ef6:	f04f 0a00 	mov.w	sl, #0
 8009efa:	4605      	mov	r5, r0
 8009efc:	f04f 0b00 	mov.w	fp, #0
 8009f00:	f8cd 8074 	str.w	r8, [sp, #116]	; 0x74
 8009f04:	9b1d      	ldr	r3, [sp, #116]	; 0x74
 8009f06:	781a      	ldrb	r2, [r3, #0]
 8009f08:	2a2b      	cmp	r2, #43	; 0x2b
 8009f0a:	d04c      	beq.n	8009fa6 <_strtod_l+0xce>
 8009f0c:	d839      	bhi.n	8009f82 <_strtod_l+0xaa>
 8009f0e:	2a0d      	cmp	r2, #13
 8009f10:	d832      	bhi.n	8009f78 <_strtod_l+0xa0>
 8009f12:	2a08      	cmp	r2, #8
 8009f14:	d832      	bhi.n	8009f7c <_strtod_l+0xa4>
 8009f16:	2a00      	cmp	r2, #0
 8009f18:	d03c      	beq.n	8009f94 <_strtod_l+0xbc>
 8009f1a:	2300      	movs	r3, #0
 8009f1c:	930e      	str	r3, [sp, #56]	; 0x38
 8009f1e:	9e1d      	ldr	r6, [sp, #116]	; 0x74
 8009f20:	7833      	ldrb	r3, [r6, #0]
 8009f22:	2b30      	cmp	r3, #48	; 0x30
 8009f24:	f040 80b4 	bne.w	800a090 <_strtod_l+0x1b8>
 8009f28:	7873      	ldrb	r3, [r6, #1]
 8009f2a:	f003 03df 	and.w	r3, r3, #223	; 0xdf
 8009f2e:	2b58      	cmp	r3, #88	; 0x58
 8009f30:	d16c      	bne.n	800a00c <_strtod_l+0x134>
 8009f32:	9b0e      	ldr	r3, [sp, #56]	; 0x38
 8009f34:	9301      	str	r3, [sp, #4]
 8009f36:	ab1e      	add	r3, sp, #120	; 0x78
 8009f38:	9702      	str	r7, [sp, #8]
 8009f3a:	9300      	str	r3, [sp, #0]
 8009f3c:	4a8f      	ldr	r2, [pc, #572]	; (800a17c <_strtod_l+0x2a4>)
 8009f3e:	ab1f      	add	r3, sp, #124	; 0x7c
 8009f40:	a91d      	add	r1, sp, #116	; 0x74
 8009f42:	4620      	mov	r0, r4
 8009f44:	f001 fd60 	bl	800ba08 <__gethex>
 8009f48:	f010 0707 	ands.w	r7, r0, #7
 8009f4c:	4605      	mov	r5, r0
 8009f4e:	d005      	beq.n	8009f5c <_strtod_l+0x84>
 8009f50:	2f06      	cmp	r7, #6
 8009f52:	d12a      	bne.n	8009faa <_strtod_l+0xd2>
 8009f54:	3601      	adds	r6, #1
 8009f56:	2300      	movs	r3, #0
 8009f58:	961d      	str	r6, [sp, #116]	; 0x74
 8009f5a:	930e      	str	r3, [sp, #56]	; 0x38
 8009f5c:	9b19      	ldr	r3, [sp, #100]	; 0x64
 8009f5e:	2b00      	cmp	r3, #0
 8009f60:	f040 8596 	bne.w	800aa90 <_strtod_l+0xbb8>
 8009f64:	9b0e      	ldr	r3, [sp, #56]	; 0x38
 8009f66:	b1db      	cbz	r3, 8009fa0 <_strtod_l+0xc8>
 8009f68:	4652      	mov	r2, sl
 8009f6a:	f10b 4300 	add.w	r3, fp, #2147483648	; 0x80000000
 8009f6e:	ec43 2b10 	vmov	d0, r2, r3
 8009f72:	b023      	add	sp, #140	; 0x8c
 8009f74:	e8bd 8ff0 	ldmia.w	sp!, {r4, r5, r6, r7, r8, r9, sl, fp, pc}
 8009f78:	2a20      	cmp	r2, #32
 8009f7a:	d1ce      	bne.n	8009f1a <_strtod_l+0x42>
 8009f7c:	3301      	adds	r3, #1
 8009f7e:	931d      	str	r3, [sp, #116]	; 0x74
 8009f80:	e7c0      	b.n	8009f04 <_strtod_l+0x2c>
 8009f82:	2a2d      	cmp	r2, #45	; 0x2d
 8009f84:	d1c9      	bne.n	8009f1a <_strtod_l+0x42>
 8009f86:	2201      	movs	r2, #1
 8009f88:	920e      	str	r2, [sp, #56]	; 0x38
 8009f8a:	1c5a      	adds	r2, r3, #1
 8009f8c:	921d      	str	r2, [sp, #116]	; 0x74
 8009f8e:	785b      	ldrb	r3, [r3, #1]
 8009f90:	2b00      	cmp	r3, #0
 8009f92:	d1c4      	bne.n	8009f1e <_strtod_l+0x46>
 8009f94:	9b19      	ldr	r3, [sp, #100]	; 0x64
 8009f96:	f8cd 8074 	str.w	r8, [sp, #116]	; 0x74
 8009f9a:	2b00      	cmp	r3, #0
 8009f9c:	f040 8576 	bne.w	800aa8c <_strtod_l+0xbb4>
 8009fa0:	4652      	mov	r2, sl
 8009fa2:	465b      	mov	r3, fp
 8009fa4:	e7e3      	b.n	8009f6e <_strtod_l+0x96>
 8009fa6:	2200      	movs	r2, #0
 8009fa8:	e7ee      	b.n	8009f88 <_strtod_l+0xb0>
 8009faa:	9a1e      	ldr	r2, [sp, #120]	; 0x78
 8009fac:	b13a      	cbz	r2, 8009fbe <_strtod_l+0xe6>
 8009fae:	2135      	movs	r1, #53	; 0x35
 8009fb0:	a820      	add	r0, sp, #128	; 0x80
 8009fb2:	f002 fcd8 	bl	800c966 <__copybits>
 8009fb6:	991e      	ldr	r1, [sp, #120]	; 0x78
 8009fb8:	4620      	mov	r0, r4
 8009fba:	f002 f89d 	bl	800c0f8 <_Bfree>
 8009fbe:	3f01      	subs	r7, #1
 8009fc0:	2f05      	cmp	r7, #5
 8009fc2:	d807      	bhi.n	8009fd4 <_strtod_l+0xfc>
 8009fc4:	e8df f007 	tbb	[pc, r7]
 8009fc8:	1d180b0e 	.word	0x1d180b0e
 8009fcc:	030e      	.short	0x030e
 8009fce:	f04f 0b00 	mov.w	fp, #0
 8009fd2:	46da      	mov	sl, fp
 8009fd4:	0728      	lsls	r0, r5, #28
 8009fd6:	d5c1      	bpl.n	8009f5c <_strtod_l+0x84>
 8009fd8:	f04b 4b00 	orr.w	fp, fp, #2147483648	; 0x80000000
 8009fdc:	e7be      	b.n	8009f5c <_strtod_l+0x84>
 8009fde:	e9dd ab20 	ldrd	sl, fp, [sp, #128]	; 0x80
 8009fe2:	e7f7      	b.n	8009fd4 <_strtod_l+0xfc>
 8009fe4:	e9dd a320 	ldrd	sl, r3, [sp, #128]	; 0x80
 8009fe8:	9a1f      	ldr	r2, [sp, #124]	; 0x7c
 8009fea:	f423 1380 	bic.w	r3, r3, #1048576	; 0x100000
 8009fee:	f202 4233 	addw	r2, r2, #1075	; 0x433
 8009ff2:	ea43 5b02 	orr.w	fp, r3, r2, lsl #20
 8009ff6:	e7ed      	b.n	8009fd4 <_strtod_l+0xfc>
 8009ff8:	f8df b184 	ldr.w	fp, [pc, #388]	; 800a180 <_strtod_l+0x2a8>
 8009ffc:	f04f 0a00 	mov.w	sl, #0
 800a000:	e7e8      	b.n	8009fd4 <_strtod_l+0xfc>
 800a002:	f06f 4b00 	mvn.w	fp, #2147483648	; 0x80000000
 800a006:	f04f 3aff 	mov.w	sl, #4294967295
 800a00a:	e7e3      	b.n	8009fd4 <_strtod_l+0xfc>
 800a00c:	9b1d      	ldr	r3, [sp, #116]	; 0x74
 800a00e:	1c5a      	adds	r2, r3, #1
 800a010:	921d      	str	r2, [sp, #116]	; 0x74
 800a012:	785b      	ldrb	r3, [r3, #1]
 800a014:	2b30      	cmp	r3, #48	; 0x30
 800a016:	d0f9      	beq.n	800a00c <_strtod_l+0x134>
 800a018:	2b00      	cmp	r3, #0
 800a01a:	d09f      	beq.n	8009f5c <_strtod_l+0x84>
 800a01c:	2301      	movs	r3, #1
 800a01e:	f04f 0900 	mov.w	r9, #0
 800a022:	9304      	str	r3, [sp, #16]
 800a024:	9b1d      	ldr	r3, [sp, #116]	; 0x74
 800a026:	930a      	str	r3, [sp, #40]	; 0x28
 800a028:	f8cd 9024 	str.w	r9, [sp, #36]	; 0x24
 800a02c:	464f      	mov	r7, r9
 800a02e:	220a      	movs	r2, #10
 800a030:	981d      	ldr	r0, [sp, #116]	; 0x74
 800a032:	7806      	ldrb	r6, [r0, #0]
 800a034:	f1a6 0330 	sub.w	r3, r6, #48	; 0x30
 800a038:	b2d9      	uxtb	r1, r3
 800a03a:	2909      	cmp	r1, #9
 800a03c:	d92a      	bls.n	800a094 <_strtod_l+0x1bc>
 800a03e:	9907      	ldr	r1, [sp, #28]
 800a040:	462a      	mov	r2, r5
 800a042:	f7ff ff18 	bl	8009e76 <strncmp>
 800a046:	b398      	cbz	r0, 800a0b0 <_strtod_l+0x1d8>
 800a048:	2000      	movs	r0, #0
 800a04a:	4633      	mov	r3, r6
 800a04c:	463d      	mov	r5, r7
 800a04e:	9007      	str	r0, [sp, #28]
 800a050:	4602      	mov	r2, r0
 800a052:	2b65      	cmp	r3, #101	; 0x65
 800a054:	d001      	beq.n	800a05a <_strtod_l+0x182>
 800a056:	2b45      	cmp	r3, #69	; 0x45
 800a058:	d118      	bne.n	800a08c <_strtod_l+0x1b4>
 800a05a:	b91d      	cbnz	r5, 800a064 <_strtod_l+0x18c>
 800a05c:	9b04      	ldr	r3, [sp, #16]
 800a05e:	4303      	orrs	r3, r0
 800a060:	d098      	beq.n	8009f94 <_strtod_l+0xbc>
 800a062:	2500      	movs	r5, #0
 800a064:	f8dd 8074 	ldr.w	r8, [sp, #116]	; 0x74
 800a068:	f108 0301 	add.w	r3, r8, #1
 800a06c:	931d      	str	r3, [sp, #116]	; 0x74
 800a06e:	f898 3001 	ldrb.w	r3, [r8, #1]
 800a072:	2b2b      	cmp	r3, #43	; 0x2b
 800a074:	d075      	beq.n	800a162 <_strtod_l+0x28a>
 800a076:	2b2d      	cmp	r3, #45	; 0x2d
 800a078:	d07b      	beq.n	800a172 <_strtod_l+0x29a>
 800a07a:	f04f 0c00 	mov.w	ip, #0
 800a07e:	f1a3 0130 	sub.w	r1, r3, #48	; 0x30
 800a082:	2909      	cmp	r1, #9
 800a084:	f240 8082 	bls.w	800a18c <_strtod_l+0x2b4>
 800a088:	f8cd 8074 	str.w	r8, [sp, #116]	; 0x74
 800a08c:	2600      	movs	r6, #0
 800a08e:	e09d      	b.n	800a1cc <_strtod_l+0x2f4>
 800a090:	2300      	movs	r3, #0
 800a092:	e7c4      	b.n	800a01e <_strtod_l+0x146>
 800a094:	2f08      	cmp	r7, #8
 800a096:	bfd8      	it	le
 800a098:	9909      	ldrle	r1, [sp, #36]	; 0x24
 800a09a:	f100 0001 	add.w	r0, r0, #1
 800a09e:	bfda      	itte	le
 800a0a0:	fb02 3301 	mlale	r3, r2, r1, r3
 800a0a4:	9309      	strle	r3, [sp, #36]	; 0x24
 800a0a6:	fb02 3909 	mlagt	r9, r2, r9, r3
 800a0aa:	3701      	adds	r7, #1
 800a0ac:	901d      	str	r0, [sp, #116]	; 0x74
 800a0ae:	e7bf      	b.n	800a030 <_strtod_l+0x158>
 800a0b0:	9b1d      	ldr	r3, [sp, #116]	; 0x74
 800a0b2:	195a      	adds	r2, r3, r5
 800a0b4:	921d      	str	r2, [sp, #116]	; 0x74
 800a0b6:	5d5b      	ldrb	r3, [r3, r5]
 800a0b8:	2f00      	cmp	r7, #0
 800a0ba:	d037      	beq.n	800a12c <_strtod_l+0x254>
 800a0bc:	9007      	str	r0, [sp, #28]
 800a0be:	463d      	mov	r5, r7
 800a0c0:	f1a3 0230 	sub.w	r2, r3, #48	; 0x30
 800a0c4:	2a09      	cmp	r2, #9
 800a0c6:	d912      	bls.n	800a0ee <_strtod_l+0x216>
 800a0c8:	2201      	movs	r2, #1
 800a0ca:	e7c2      	b.n	800a052 <_strtod_l+0x17a>
 800a0cc:	9b1d      	ldr	r3, [sp, #116]	; 0x74
 800a0ce:	1c5a      	adds	r2, r3, #1
 800a0d0:	921d      	str	r2, [sp, #116]	; 0x74
 800a0d2:	785b      	ldrb	r3, [r3, #1]
 800a0d4:	3001      	adds	r0, #1
 800a0d6:	2b30      	cmp	r3, #48	; 0x30
 800a0d8:	d0f8      	beq.n	800a0cc <_strtod_l+0x1f4>
 800a0da:	f1a3 0231 	sub.w	r2, r3, #49	; 0x31
 800a0de:	2a08      	cmp	r2, #8
 800a0e0:	f200 84db 	bhi.w	800aa9a <_strtod_l+0xbc2>
 800a0e4:	9a1d      	ldr	r2, [sp, #116]	; 0x74
 800a0e6:	9007      	str	r0, [sp, #28]
 800a0e8:	2000      	movs	r0, #0
 800a0ea:	920a      	str	r2, [sp, #40]	; 0x28
 800a0ec:	4605      	mov	r5, r0
 800a0ee:	3b30      	subs	r3, #48	; 0x30
 800a0f0:	f100 0201 	add.w	r2, r0, #1
 800a0f4:	d014      	beq.n	800a120 <_strtod_l+0x248>
 800a0f6:	9907      	ldr	r1, [sp, #28]
 800a0f8:	4411      	add	r1, r2
 800a0fa:	9107      	str	r1, [sp, #28]
 800a0fc:	462a      	mov	r2, r5
 800a0fe:	eb00 0e05 	add.w	lr, r0, r5
 800a102:	210a      	movs	r1, #10
 800a104:	4572      	cmp	r2, lr
 800a106:	d113      	bne.n	800a130 <_strtod_l+0x258>
 800a108:	182a      	adds	r2, r5, r0
 800a10a:	2a08      	cmp	r2, #8
 800a10c:	f105 0501 	add.w	r5, r5, #1
 800a110:	4405      	add	r5, r0
 800a112:	dc1c      	bgt.n	800a14e <_strtod_l+0x276>
 800a114:	9909      	ldr	r1, [sp, #36]	; 0x24
 800a116:	220a      	movs	r2, #10
 800a118:	fb02 3301 	mla	r3, r2, r1, r3
 800a11c:	9309      	str	r3, [sp, #36]	; 0x24
 800a11e:	2200      	movs	r2, #0
 800a120:	9b1d      	ldr	r3, [sp, #116]	; 0x74
 800a122:	1c59      	adds	r1, r3, #1
 800a124:	911d      	str	r1, [sp, #116]	; 0x74
 800a126:	785b      	ldrb	r3, [r3, #1]
 800a128:	4610      	mov	r0, r2
 800a12a:	e7c9      	b.n	800a0c0 <_strtod_l+0x1e8>
 800a12c:	4638      	mov	r0, r7
 800a12e:	e7d2      	b.n	800a0d6 <_strtod_l+0x1fe>
 800a130:	2a08      	cmp	r2, #8
 800a132:	dc04      	bgt.n	800a13e <_strtod_l+0x266>
 800a134:	9e09      	ldr	r6, [sp, #36]	; 0x24
 800a136:	434e      	muls	r6, r1
 800a138:	9609      	str	r6, [sp, #36]	; 0x24
 800a13a:	3201      	adds	r2, #1
 800a13c:	e7e2      	b.n	800a104 <_strtod_l+0x22c>
 800a13e:	f102 0c01 	add.w	ip, r2, #1
 800a142:	f1bc 0f10 	cmp.w	ip, #16
 800a146:	bfd8      	it	le
 800a148:	fb01 f909 	mulle.w	r9, r1, r9
 800a14c:	e7f5      	b.n	800a13a <_strtod_l+0x262>
 800a14e:	2d10      	cmp	r5, #16
 800a150:	bfdc      	itt	le
 800a152:	220a      	movle	r2, #10
 800a154:	fb02 3909 	mlale	r9, r2, r9, r3
 800a158:	e7e1      	b.n	800a11e <_strtod_l+0x246>
 800a15a:	2300      	movs	r3, #0
 800a15c:	9307      	str	r3, [sp, #28]
 800a15e:	2201      	movs	r2, #1
 800a160:	e77c      	b.n	800a05c <_strtod_l+0x184>
 800a162:	f04f 0c00 	mov.w	ip, #0
 800a166:	f108 0302 	add.w	r3, r8, #2
 800a16a:	931d      	str	r3, [sp, #116]	; 0x74
 800a16c:	f898 3002 	ldrb.w	r3, [r8, #2]
 800a170:	e785      	b.n	800a07e <_strtod_l+0x1a6>
 800a172:	f04f 0c01 	mov.w	ip, #1
 800a176:	e7f6      	b.n	800a166 <_strtod_l+0x28e>
 800a178:	0800fd68 	.word	0x0800fd68
 800a17c:	0800fc18 	.word	0x0800fc18
 800a180:	7ff00000 	.word	0x7ff00000
 800a184:	9b1d      	ldr	r3, [sp, #116]	; 0x74
 800a186:	1c59      	adds	r1, r3, #1
 800a188:	911d      	str	r1, [sp, #116]	; 0x74
 800a18a:	785b      	ldrb	r3, [r3, #1]
 800a18c:	2b30      	cmp	r3, #48	; 0x30
 800a18e:	d0f9      	beq.n	800a184 <_strtod_l+0x2ac>
 800a190:	f1a3 0131 	sub.w	r1, r3, #49	; 0x31
 800a194:	2908      	cmp	r1, #8
 800a196:	f63f af79 	bhi.w	800a08c <_strtod_l+0x1b4>
 800a19a:	f1a3 0e30 	sub.w	lr, r3, #48	; 0x30
 800a19e:	9b1d      	ldr	r3, [sp, #116]	; 0x74
 800a1a0:	9308      	str	r3, [sp, #32]
 800a1a2:	9b1d      	ldr	r3, [sp, #116]	; 0x74
 800a1a4:	1c59      	adds	r1, r3, #1
 800a1a6:	911d      	str	r1, [sp, #116]	; 0x74
 800a1a8:	785b      	ldrb	r3, [r3, #1]
 800a1aa:	f1a3 0630 	sub.w	r6, r3, #48	; 0x30
 800a1ae:	2e09      	cmp	r6, #9
 800a1b0:	d937      	bls.n	800a222 <_strtod_l+0x34a>
 800a1b2:	9e08      	ldr	r6, [sp, #32]
 800a1b4:	1b89      	subs	r1, r1, r6
 800a1b6:	2908      	cmp	r1, #8
 800a1b8:	f644 661f 	movw	r6, #19999	; 0x4e1f
 800a1bc:	dc02      	bgt.n	800a1c4 <_strtod_l+0x2ec>
 800a1be:	4576      	cmp	r6, lr
 800a1c0:	bfa8      	it	ge
 800a1c2:	4676      	movge	r6, lr
 800a1c4:	f1bc 0f00 	cmp.w	ip, #0
 800a1c8:	d000      	beq.n	800a1cc <_strtod_l+0x2f4>
 800a1ca:	4276      	negs	r6, r6
 800a1cc:	2d00      	cmp	r5, #0
 800a1ce:	d14f      	bne.n	800a270 <_strtod_l+0x398>
 800a1d0:	9904      	ldr	r1, [sp, #16]
 800a1d2:	4301      	orrs	r1, r0
 800a1d4:	f47f aec2 	bne.w	8009f5c <_strtod_l+0x84>
 800a1d8:	2a00      	cmp	r2, #0
 800a1da:	f47f aedb 	bne.w	8009f94 <_strtod_l+0xbc>
 800a1de:	2b69      	cmp	r3, #105	; 0x69
 800a1e0:	d027      	beq.n	800a232 <_strtod_l+0x35a>
 800a1e2:	dc24      	bgt.n	800a22e <_strtod_l+0x356>
 800a1e4:	2b49      	cmp	r3, #73	; 0x49
 800a1e6:	d024      	beq.n	800a232 <_strtod_l+0x35a>
 800a1e8:	2b4e      	cmp	r3, #78	; 0x4e
 800a1ea:	f47f aed3 	bne.w	8009f94 <_strtod_l+0xbc>
 800a1ee:	499e      	ldr	r1, [pc, #632]	; (800a468 <_strtod_l+0x590>)
 800a1f0:	a81d      	add	r0, sp, #116	; 0x74
 800a1f2:	f001 fe61 	bl	800beb8 <__match>
 800a1f6:	2800      	cmp	r0, #0
 800a1f8:	f43f aecc 	beq.w	8009f94 <_strtod_l+0xbc>
 800a1fc:	9b1d      	ldr	r3, [sp, #116]	; 0x74
 800a1fe:	781b      	ldrb	r3, [r3, #0]
 800a200:	2b28      	cmp	r3, #40	; 0x28
 800a202:	d12d      	bne.n	800a260 <_strtod_l+0x388>
 800a204:	4999      	ldr	r1, [pc, #612]	; (800a46c <_strtod_l+0x594>)
 800a206:	aa20      	add	r2, sp, #128	; 0x80
 800a208:	a81d      	add	r0, sp, #116	; 0x74
 800a20a:	f001 fe69 	bl	800bee0 <__hexnan>
 800a20e:	2805      	cmp	r0, #5
 800a210:	d126      	bne.n	800a260 <_strtod_l+0x388>
 800a212:	9b21      	ldr	r3, [sp, #132]	; 0x84
 800a214:	f8dd a080 	ldr.w	sl, [sp, #128]	; 0x80
 800a218:	f043 4bff 	orr.w	fp, r3, #2139095040	; 0x7f800000
 800a21c:	f44b 0be0 	orr.w	fp, fp, #7340032	; 0x700000
 800a220:	e69c      	b.n	8009f5c <_strtod_l+0x84>
 800a222:	210a      	movs	r1, #10
 800a224:	fb01 3e0e 	mla	lr, r1, lr, r3
 800a228:	f1ae 0e30 	sub.w	lr, lr, #48	; 0x30
 800a22c:	e7b9      	b.n	800a1a2 <_strtod_l+0x2ca>
 800a22e:	2b6e      	cmp	r3, #110	; 0x6e
 800a230:	e7db      	b.n	800a1ea <_strtod_l+0x312>
 800a232:	498f      	ldr	r1, [pc, #572]	; (800a470 <_strtod_l+0x598>)
 800a234:	a81d      	add	r0, sp, #116	; 0x74
 800a236:	f001 fe3f 	bl	800beb8 <__match>
 800a23a:	2800      	cmp	r0, #0
 800a23c:	f43f aeaa 	beq.w	8009f94 <_strtod_l+0xbc>
 800a240:	9b1d      	ldr	r3, [sp, #116]	; 0x74
 800a242:	498c      	ldr	r1, [pc, #560]	; (800a474 <_strtod_l+0x59c>)
 800a244:	3b01      	subs	r3, #1
 800a246:	a81d      	add	r0, sp, #116	; 0x74
 800a248:	931d      	str	r3, [sp, #116]	; 0x74
 800a24a:	f001 fe35 	bl	800beb8 <__match>
 800a24e:	b910      	cbnz	r0, 800a256 <_strtod_l+0x37e>
 800a250:	9b1d      	ldr	r3, [sp, #116]	; 0x74
 800a252:	3301      	adds	r3, #1
 800a254:	931d      	str	r3, [sp, #116]	; 0x74
 800a256:	f8df b22c 	ldr.w	fp, [pc, #556]	; 800a484 <_strtod_l+0x5ac>
 800a25a:	f04f 0a00 	mov.w	sl, #0
 800a25e:	e67d      	b.n	8009f5c <_strtod_l+0x84>
 800a260:	4885      	ldr	r0, [pc, #532]	; (800a478 <_strtod_l+0x5a0>)
 800a262:	f003 f909 	bl	800d478 <nan>
 800a266:	ed8d 0b04 	vstr	d0, [sp, #16]
 800a26a:	e9dd ab04 	ldrd	sl, fp, [sp, #16]
 800a26e:	e675      	b.n	8009f5c <_strtod_l+0x84>
 800a270:	9b07      	ldr	r3, [sp, #28]
 800a272:	9809      	ldr	r0, [sp, #36]	; 0x24
 800a274:	1af3      	subs	r3, r6, r3
 800a276:	2f00      	cmp	r7, #0
 800a278:	bf08      	it	eq
 800a27a:	462f      	moveq	r7, r5
 800a27c:	2d10      	cmp	r5, #16
 800a27e:	9308      	str	r3, [sp, #32]
 800a280:	46a8      	mov	r8, r5
 800a282:	bfa8      	it	ge
 800a284:	f04f 0810 	movge.w	r8, #16
 800a288:	f7f6 f94c 	bl	8000524 <__aeabi_ui2d>
 800a28c:	2d09      	cmp	r5, #9
 800a28e:	4682      	mov	sl, r0
 800a290:	468b      	mov	fp, r1
 800a292:	dd13      	ble.n	800a2bc <_strtod_l+0x3e4>
 800a294:	4b79      	ldr	r3, [pc, #484]	; (800a47c <_strtod_l+0x5a4>)
 800a296:	eb03 03c8 	add.w	r3, r3, r8, lsl #3
 800a29a:	e953 2312 	ldrd	r2, r3, [r3, #-72]	; 0x48
 800a29e:	f7f6 f9bb 	bl	8000618 <__aeabi_dmul>
 800a2a2:	4682      	mov	sl, r0
 800a2a4:	4648      	mov	r0, r9
 800a2a6:	468b      	mov	fp, r1
 800a2a8:	f7f6 f93c 	bl	8000524 <__aeabi_ui2d>
 800a2ac:	4602      	mov	r2, r0
 800a2ae:	460b      	mov	r3, r1
 800a2b0:	4650      	mov	r0, sl
 800a2b2:	4659      	mov	r1, fp
 800a2b4:	f7f5 fffa 	bl	80002ac <__adddf3>
 800a2b8:	4682      	mov	sl, r0
 800a2ba:	468b      	mov	fp, r1
 800a2bc:	2d0f      	cmp	r5, #15
 800a2be:	dc38      	bgt.n	800a332 <_strtod_l+0x45a>
 800a2c0:	9b08      	ldr	r3, [sp, #32]
 800a2c2:	2b00      	cmp	r3, #0
 800a2c4:	f43f ae4a 	beq.w	8009f5c <_strtod_l+0x84>
 800a2c8:	dd24      	ble.n	800a314 <_strtod_l+0x43c>
 800a2ca:	2b16      	cmp	r3, #22
 800a2cc:	dc0b      	bgt.n	800a2e6 <_strtod_l+0x40e>
 800a2ce:	4d6b      	ldr	r5, [pc, #428]	; (800a47c <_strtod_l+0x5a4>)
 800a2d0:	eb05 05c3 	add.w	r5, r5, r3, lsl #3
 800a2d4:	e9d5 0100 	ldrd	r0, r1, [r5]
 800a2d8:	4652      	mov	r2, sl
 800a2da:	465b      	mov	r3, fp
 800a2dc:	f7f6 f99c 	bl	8000618 <__aeabi_dmul>
 800a2e0:	4682      	mov	sl, r0
 800a2e2:	468b      	mov	fp, r1
 800a2e4:	e63a      	b.n	8009f5c <_strtod_l+0x84>
 800a2e6:	9a08      	ldr	r2, [sp, #32]
 800a2e8:	f1c5 0325 	rsb	r3, r5, #37	; 0x25
 800a2ec:	4293      	cmp	r3, r2
 800a2ee:	db20      	blt.n	800a332 <_strtod_l+0x45a>
 800a2f0:	4c62      	ldr	r4, [pc, #392]	; (800a47c <_strtod_l+0x5a4>)
 800a2f2:	f1c5 050f 	rsb	r5, r5, #15
 800a2f6:	eb04 01c5 	add.w	r1, r4, r5, lsl #3
 800a2fa:	4652      	mov	r2, sl
 800a2fc:	465b      	mov	r3, fp
 800a2fe:	e9d1 0100 	ldrd	r0, r1, [r1]
 800a302:	f7f6 f989 	bl	8000618 <__aeabi_dmul>
 800a306:	9b08      	ldr	r3, [sp, #32]
 800a308:	1b5d      	subs	r5, r3, r5
 800a30a:	eb04 04c5 	add.w	r4, r4, r5, lsl #3
 800a30e:	e9d4 2300 	ldrd	r2, r3, [r4]
 800a312:	e7e3      	b.n	800a2dc <_strtod_l+0x404>
 800a314:	9b08      	ldr	r3, [sp, #32]
 800a316:	3316      	adds	r3, #22
 800a318:	db0b      	blt.n	800a332 <_strtod_l+0x45a>
 800a31a:	9b07      	ldr	r3, [sp, #28]
 800a31c:	4a57      	ldr	r2, [pc, #348]	; (800a47c <_strtod_l+0x5a4>)
 800a31e:	1b9e      	subs	r6, r3, r6
 800a320:	eb02 06c6 	add.w	r6, r2, r6, lsl #3
 800a324:	e9d6 2300 	ldrd	r2, r3, [r6]
 800a328:	4650      	mov	r0, sl
 800a32a:	4659      	mov	r1, fp
 800a32c:	f7f6 fa9e 	bl	800086c <__aeabi_ddiv>
 800a330:	e7d6      	b.n	800a2e0 <_strtod_l+0x408>
 800a332:	9b08      	ldr	r3, [sp, #32]
 800a334:	eba5 0808 	sub.w	r8, r5, r8
 800a338:	4498      	add	r8, r3
 800a33a:	f1b8 0f00 	cmp.w	r8, #0
 800a33e:	dd71      	ble.n	800a424 <_strtod_l+0x54c>
 800a340:	f018 030f 	ands.w	r3, r8, #15
 800a344:	d00a      	beq.n	800a35c <_strtod_l+0x484>
 800a346:	494d      	ldr	r1, [pc, #308]	; (800a47c <_strtod_l+0x5a4>)
 800a348:	eb01 01c3 	add.w	r1, r1, r3, lsl #3
 800a34c:	4652      	mov	r2, sl
 800a34e:	465b      	mov	r3, fp
 800a350:	e9d1 0100 	ldrd	r0, r1, [r1]
 800a354:	f7f6 f960 	bl	8000618 <__aeabi_dmul>
 800a358:	4682      	mov	sl, r0
 800a35a:	468b      	mov	fp, r1
 800a35c:	f038 080f 	bics.w	r8, r8, #15
 800a360:	d04d      	beq.n	800a3fe <_strtod_l+0x526>
 800a362:	f5b8 7f9a 	cmp.w	r8, #308	; 0x134
 800a366:	dd22      	ble.n	800a3ae <_strtod_l+0x4d6>
 800a368:	2500      	movs	r5, #0
 800a36a:	462e      	mov	r6, r5
 800a36c:	9509      	str	r5, [sp, #36]	; 0x24
 800a36e:	9507      	str	r5, [sp, #28]
 800a370:	2322      	movs	r3, #34	; 0x22
 800a372:	f8df b110 	ldr.w	fp, [pc, #272]	; 800a484 <_strtod_l+0x5ac>
 800a376:	6023      	str	r3, [r4, #0]
 800a378:	f04f 0a00 	mov.w	sl, #0
 800a37c:	9b09      	ldr	r3, [sp, #36]	; 0x24
 800a37e:	2b00      	cmp	r3, #0
 800a380:	f43f adec 	beq.w	8009f5c <_strtod_l+0x84>
 800a384:	991e      	ldr	r1, [sp, #120]	; 0x78
 800a386:	4620      	mov	r0, r4
 800a388:	f001 feb6 	bl	800c0f8 <_Bfree>
 800a38c:	9907      	ldr	r1, [sp, #28]
 800a38e:	4620      	mov	r0, r4
 800a390:	f001 feb2 	bl	800c0f8 <_Bfree>
 800a394:	4631      	mov	r1, r6
 800a396:	4620      	mov	r0, r4
 800a398:	f001 feae 	bl	800c0f8 <_Bfree>
 800a39c:	9909      	ldr	r1, [sp, #36]	; 0x24
 800a39e:	4620      	mov	r0, r4
 800a3a0:	f001 feaa 	bl	800c0f8 <_Bfree>
 800a3a4:	4629      	mov	r1, r5
 800a3a6:	4620      	mov	r0, r4
 800a3a8:	f001 fea6 	bl	800c0f8 <_Bfree>
 800a3ac:	e5d6      	b.n	8009f5c <_strtod_l+0x84>
 800a3ae:	2300      	movs	r3, #0
 800a3b0:	ea4f 1828 	mov.w	r8, r8, asr #4
 800a3b4:	4650      	mov	r0, sl
 800a3b6:	4659      	mov	r1, fp
 800a3b8:	4699      	mov	r9, r3
 800a3ba:	f1b8 0f01 	cmp.w	r8, #1
 800a3be:	dc21      	bgt.n	800a404 <_strtod_l+0x52c>
 800a3c0:	b10b      	cbz	r3, 800a3c6 <_strtod_l+0x4ee>
 800a3c2:	4682      	mov	sl, r0
 800a3c4:	468b      	mov	fp, r1
 800a3c6:	4b2e      	ldr	r3, [pc, #184]	; (800a480 <_strtod_l+0x5a8>)
 800a3c8:	f1ab 7b54 	sub.w	fp, fp, #55574528	; 0x3500000
 800a3cc:	eb03 09c9 	add.w	r9, r3, r9, lsl #3
 800a3d0:	4652      	mov	r2, sl
 800a3d2:	465b      	mov	r3, fp
 800a3d4:	e9d9 0100 	ldrd	r0, r1, [r9]
 800a3d8:	f7f6 f91e 	bl	8000618 <__aeabi_dmul>
 800a3dc:	4b29      	ldr	r3, [pc, #164]	; (800a484 <_strtod_l+0x5ac>)
 800a3de:	460a      	mov	r2, r1
 800a3e0:	400b      	ands	r3, r1
 800a3e2:	4929      	ldr	r1, [pc, #164]	; (800a488 <_strtod_l+0x5b0>)
 800a3e4:	428b      	cmp	r3, r1
 800a3e6:	4682      	mov	sl, r0
 800a3e8:	d8be      	bhi.n	800a368 <_strtod_l+0x490>
 800a3ea:	f5a1 1180 	sub.w	r1, r1, #1048576	; 0x100000
 800a3ee:	428b      	cmp	r3, r1
 800a3f0:	bf86      	itte	hi
 800a3f2:	f8df b098 	ldrhi.w	fp, [pc, #152]	; 800a48c <_strtod_l+0x5b4>
 800a3f6:	f04f 3aff 	movhi.w	sl, #4294967295
 800a3fa:	f102 7b54 	addls.w	fp, r2, #55574528	; 0x3500000
 800a3fe:	2300      	movs	r3, #0
 800a400:	9304      	str	r3, [sp, #16]
 800a402:	e081      	b.n	800a508 <_strtod_l+0x630>
 800a404:	f018 0f01 	tst.w	r8, #1
 800a408:	d007      	beq.n	800a41a <_strtod_l+0x542>
 800a40a:	4b1d      	ldr	r3, [pc, #116]	; (800a480 <_strtod_l+0x5a8>)
 800a40c:	eb03 03c9 	add.w	r3, r3, r9, lsl #3
 800a410:	e9d3 2300 	ldrd	r2, r3, [r3]
 800a414:	f7f6 f900 	bl	8000618 <__aeabi_dmul>
 800a418:	2301      	movs	r3, #1
 800a41a:	f109 0901 	add.w	r9, r9, #1
 800a41e:	ea4f 0868 	mov.w	r8, r8, asr #1
 800a422:	e7ca      	b.n	800a3ba <_strtod_l+0x4e2>
 800a424:	d0eb      	beq.n	800a3fe <_strtod_l+0x526>
 800a426:	f1c8 0800 	rsb	r8, r8, #0
 800a42a:	f018 020f 	ands.w	r2, r8, #15
 800a42e:	d00a      	beq.n	800a446 <_strtod_l+0x56e>
 800a430:	4b12      	ldr	r3, [pc, #72]	; (800a47c <_strtod_l+0x5a4>)
 800a432:	eb03 03c2 	add.w	r3, r3, r2, lsl #3
 800a436:	4650      	mov	r0, sl
 800a438:	4659      	mov	r1, fp
 800a43a:	e9d3 2300 	ldrd	r2, r3, [r3]
 800a43e:	f7f6 fa15 	bl	800086c <__aeabi_ddiv>
 800a442:	4682      	mov	sl, r0
 800a444:	468b      	mov	fp, r1
 800a446:	ea5f 1828 	movs.w	r8, r8, asr #4
 800a44a:	d0d8      	beq.n	800a3fe <_strtod_l+0x526>
 800a44c:	f1b8 0f1f 	cmp.w	r8, #31
 800a450:	dd1e      	ble.n	800a490 <_strtod_l+0x5b8>
 800a452:	2500      	movs	r5, #0
 800a454:	462e      	mov	r6, r5
 800a456:	9509      	str	r5, [sp, #36]	; 0x24
 800a458:	9507      	str	r5, [sp, #28]
 800a45a:	2322      	movs	r3, #34	; 0x22
 800a45c:	f04f 0a00 	mov.w	sl, #0
 800a460:	f04f 0b00 	mov.w	fp, #0
 800a464:	6023      	str	r3, [r4, #0]
 800a466:	e789      	b.n	800a37c <_strtod_l+0x4a4>
 800a468:	0800fbed 	.word	0x0800fbed
 800a46c:	0800fc2c 	.word	0x0800fc2c
 800a470:	0800fbe5 	.word	0x0800fbe5
 800a474:	0800fc6b 	.word	0x0800fc6b
 800a478:	0800ed7b 	.word	0x0800ed7b
 800a47c:	0800fe08 	.word	0x0800fe08
 800a480:	0800fde0 	.word	0x0800fde0
 800a484:	7ff00000 	.word	0x7ff00000
 800a488:	7ca00000 	.word	0x7ca00000
 800a48c:	7fefffff 	.word	0x7fefffff
 800a490:	f018 0310 	ands.w	r3, r8, #16
 800a494:	bf18      	it	ne
 800a496:	236a      	movne	r3, #106	; 0x6a
 800a498:	f8df 93b4 	ldr.w	r9, [pc, #948]	; 800a850 <_strtod_l+0x978>
 800a49c:	9304      	str	r3, [sp, #16]
 800a49e:	4650      	mov	r0, sl
 800a4a0:	4659      	mov	r1, fp
 800a4a2:	2300      	movs	r3, #0
 800a4a4:	f018 0f01 	tst.w	r8, #1
 800a4a8:	d004      	beq.n	800a4b4 <_strtod_l+0x5dc>
 800a4aa:	e9d9 2300 	ldrd	r2, r3, [r9]
 800a4ae:	f7f6 f8b3 	bl	8000618 <__aeabi_dmul>
 800a4b2:	2301      	movs	r3, #1
 800a4b4:	ea5f 0868 	movs.w	r8, r8, asr #1
 800a4b8:	f109 0908 	add.w	r9, r9, #8
 800a4bc:	d1f2      	bne.n	800a4a4 <_strtod_l+0x5cc>
 800a4be:	b10b      	cbz	r3, 800a4c4 <_strtod_l+0x5ec>
 800a4c0:	4682      	mov	sl, r0
 800a4c2:	468b      	mov	fp, r1
 800a4c4:	9b04      	ldr	r3, [sp, #16]
 800a4c6:	b1bb      	cbz	r3, 800a4f8 <_strtod_l+0x620>
 800a4c8:	f3cb 530a 	ubfx	r3, fp, #20, #11
 800a4cc:	f1c3 036b 	rsb	r3, r3, #107	; 0x6b
 800a4d0:	2b00      	cmp	r3, #0
 800a4d2:	4659      	mov	r1, fp
 800a4d4:	dd10      	ble.n	800a4f8 <_strtod_l+0x620>
 800a4d6:	2b1f      	cmp	r3, #31
 800a4d8:	f340 8128 	ble.w	800a72c <_strtod_l+0x854>
 800a4dc:	2b34      	cmp	r3, #52	; 0x34
 800a4de:	bfde      	ittt	le
 800a4e0:	3b20      	suble	r3, #32
 800a4e2:	f04f 32ff 	movle.w	r2, #4294967295
 800a4e6:	fa02 f303 	lslle.w	r3, r2, r3
 800a4ea:	f04f 0a00 	mov.w	sl, #0
 800a4ee:	bfcc      	ite	gt
 800a4f0:	f04f 7b5c 	movgt.w	fp, #57671680	; 0x3700000
 800a4f4:	ea03 0b01 	andle.w	fp, r3, r1
 800a4f8:	2200      	movs	r2, #0
 800a4fa:	2300      	movs	r3, #0
 800a4fc:	4650      	mov	r0, sl
 800a4fe:	4659      	mov	r1, fp
 800a500:	f7f6 faf2 	bl	8000ae8 <__aeabi_dcmpeq>
 800a504:	2800      	cmp	r0, #0
 800a506:	d1a4      	bne.n	800a452 <_strtod_l+0x57a>
 800a508:	9b09      	ldr	r3, [sp, #36]	; 0x24
 800a50a:	9300      	str	r3, [sp, #0]
 800a50c:	990a      	ldr	r1, [sp, #40]	; 0x28
 800a50e:	462b      	mov	r3, r5
 800a510:	463a      	mov	r2, r7
 800a512:	4620      	mov	r0, r4
 800a514:	f001 fe5c 	bl	800c1d0 <__s2b>
 800a518:	9009      	str	r0, [sp, #36]	; 0x24
 800a51a:	2800      	cmp	r0, #0
 800a51c:	f43f af24 	beq.w	800a368 <_strtod_l+0x490>
 800a520:	9b07      	ldr	r3, [sp, #28]
 800a522:	1b9e      	subs	r6, r3, r6
 800a524:	9b08      	ldr	r3, [sp, #32]
 800a526:	2b00      	cmp	r3, #0
 800a528:	bfb4      	ite	lt
 800a52a:	4633      	movlt	r3, r6
 800a52c:	2300      	movge	r3, #0
 800a52e:	9310      	str	r3, [sp, #64]	; 0x40
 800a530:	9b08      	ldr	r3, [sp, #32]
 800a532:	2500      	movs	r5, #0
 800a534:	ea23 73e3 	bic.w	r3, r3, r3, asr #31
 800a538:	9318      	str	r3, [sp, #96]	; 0x60
 800a53a:	462e      	mov	r6, r5
 800a53c:	9b09      	ldr	r3, [sp, #36]	; 0x24
 800a53e:	4620      	mov	r0, r4
 800a540:	6859      	ldr	r1, [r3, #4]
 800a542:	f001 fd99 	bl	800c078 <_Balloc>
 800a546:	9007      	str	r0, [sp, #28]
 800a548:	2800      	cmp	r0, #0
 800a54a:	f43f af11 	beq.w	800a370 <_strtod_l+0x498>
 800a54e:	9b09      	ldr	r3, [sp, #36]	; 0x24
 800a550:	691a      	ldr	r2, [r3, #16]
 800a552:	3202      	adds	r2, #2
 800a554:	f103 010c 	add.w	r1, r3, #12
 800a558:	0092      	lsls	r2, r2, #2
 800a55a:	300c      	adds	r0, #12
 800a55c:	f7fe fd5c 	bl	8009018 <memcpy>
 800a560:	ec4b ab10 	vmov	d0, sl, fp
 800a564:	aa20      	add	r2, sp, #128	; 0x80
 800a566:	a91f      	add	r1, sp, #124	; 0x7c
 800a568:	4620      	mov	r0, r4
 800a56a:	e9cd ab0a 	strd	sl, fp, [sp, #40]	; 0x28
 800a56e:	f002 f96b 	bl	800c848 <__d2b>
 800a572:	901e      	str	r0, [sp, #120]	; 0x78
 800a574:	2800      	cmp	r0, #0
 800a576:	f43f aefb 	beq.w	800a370 <_strtod_l+0x498>
 800a57a:	2101      	movs	r1, #1
 800a57c:	4620      	mov	r0, r4
 800a57e:	f001 fec1 	bl	800c304 <__i2b>
 800a582:	4606      	mov	r6, r0
 800a584:	2800      	cmp	r0, #0
 800a586:	f43f aef3 	beq.w	800a370 <_strtod_l+0x498>
 800a58a:	9b1f      	ldr	r3, [sp, #124]	; 0x7c
 800a58c:	9904      	ldr	r1, [sp, #16]
 800a58e:	2b00      	cmp	r3, #0
 800a590:	bfab      	itete	ge
 800a592:	9a10      	ldrge	r2, [sp, #64]	; 0x40
 800a594:	9a18      	ldrlt	r2, [sp, #96]	; 0x60
 800a596:	9f18      	ldrge	r7, [sp, #96]	; 0x60
 800a598:	f8dd 9040 	ldrlt.w	r9, [sp, #64]	; 0x40
 800a59c:	bfac      	ite	ge
 800a59e:	eb03 0902 	addge.w	r9, r3, r2
 800a5a2:	1ad7      	sublt	r7, r2, r3
 800a5a4:	9a20      	ldr	r2, [sp, #128]	; 0x80
 800a5a6:	eba3 0801 	sub.w	r8, r3, r1
 800a5aa:	4490      	add	r8, r2
 800a5ac:	4ba3      	ldr	r3, [pc, #652]	; (800a83c <_strtod_l+0x964>)
 800a5ae:	f108 38ff 	add.w	r8, r8, #4294967295
 800a5b2:	4598      	cmp	r8, r3
 800a5b4:	f1c2 0236 	rsb	r2, r2, #54	; 0x36
 800a5b8:	f280 80cc 	bge.w	800a754 <_strtod_l+0x87c>
 800a5bc:	eba3 0308 	sub.w	r3, r3, r8
 800a5c0:	2b1f      	cmp	r3, #31
 800a5c2:	eba2 0203 	sub.w	r2, r2, r3
 800a5c6:	f04f 0101 	mov.w	r1, #1
 800a5ca:	f300 80b6 	bgt.w	800a73a <_strtod_l+0x862>
 800a5ce:	fa01 f303 	lsl.w	r3, r1, r3
 800a5d2:	9311      	str	r3, [sp, #68]	; 0x44
 800a5d4:	2300      	movs	r3, #0
 800a5d6:	930c      	str	r3, [sp, #48]	; 0x30
 800a5d8:	eb09 0802 	add.w	r8, r9, r2
 800a5dc:	9b04      	ldr	r3, [sp, #16]
 800a5de:	45c1      	cmp	r9, r8
 800a5e0:	4417      	add	r7, r2
 800a5e2:	441f      	add	r7, r3
 800a5e4:	464b      	mov	r3, r9
 800a5e6:	bfa8      	it	ge
 800a5e8:	4643      	movge	r3, r8
 800a5ea:	42bb      	cmp	r3, r7
 800a5ec:	bfa8      	it	ge
 800a5ee:	463b      	movge	r3, r7
 800a5f0:	2b00      	cmp	r3, #0
 800a5f2:	bfc2      	ittt	gt
 800a5f4:	eba8 0803 	subgt.w	r8, r8, r3
 800a5f8:	1aff      	subgt	r7, r7, r3
 800a5fa:	eba9 0903 	subgt.w	r9, r9, r3
 800a5fe:	9b10      	ldr	r3, [sp, #64]	; 0x40
 800a600:	2b00      	cmp	r3, #0
 800a602:	dd17      	ble.n	800a634 <_strtod_l+0x75c>
 800a604:	4631      	mov	r1, r6
 800a606:	461a      	mov	r2, r3
 800a608:	4620      	mov	r0, r4
 800a60a:	f001 ff37 	bl	800c47c <__pow5mult>
 800a60e:	4606      	mov	r6, r0
 800a610:	2800      	cmp	r0, #0
 800a612:	f43f aead 	beq.w	800a370 <_strtod_l+0x498>
 800a616:	4601      	mov	r1, r0
 800a618:	9a1e      	ldr	r2, [sp, #120]	; 0x78
 800a61a:	4620      	mov	r0, r4
 800a61c:	f001 fe88 	bl	800c330 <__multiply>
 800a620:	900f      	str	r0, [sp, #60]	; 0x3c
 800a622:	2800      	cmp	r0, #0
 800a624:	f43f aea4 	beq.w	800a370 <_strtod_l+0x498>
 800a628:	991e      	ldr	r1, [sp, #120]	; 0x78
 800a62a:	4620      	mov	r0, r4
 800a62c:	f001 fd64 	bl	800c0f8 <_Bfree>
 800a630:	9b0f      	ldr	r3, [sp, #60]	; 0x3c
 800a632:	931e      	str	r3, [sp, #120]	; 0x78
 800a634:	f1b8 0f00 	cmp.w	r8, #0
 800a638:	f300 8091 	bgt.w	800a75e <_strtod_l+0x886>
 800a63c:	9b08      	ldr	r3, [sp, #32]
 800a63e:	2b00      	cmp	r3, #0
 800a640:	dd08      	ble.n	800a654 <_strtod_l+0x77c>
 800a642:	9a18      	ldr	r2, [sp, #96]	; 0x60
 800a644:	9907      	ldr	r1, [sp, #28]
 800a646:	4620      	mov	r0, r4
 800a648:	f001 ff18 	bl	800c47c <__pow5mult>
 800a64c:	9007      	str	r0, [sp, #28]
 800a64e:	2800      	cmp	r0, #0
 800a650:	f43f ae8e 	beq.w	800a370 <_strtod_l+0x498>
 800a654:	2f00      	cmp	r7, #0
 800a656:	dd08      	ble.n	800a66a <_strtod_l+0x792>
 800a658:	9907      	ldr	r1, [sp, #28]
 800a65a:	463a      	mov	r2, r7
 800a65c:	4620      	mov	r0, r4
 800a65e:	f001 ff67 	bl	800c530 <__lshift>
 800a662:	9007      	str	r0, [sp, #28]
 800a664:	2800      	cmp	r0, #0
 800a666:	f43f ae83 	beq.w	800a370 <_strtod_l+0x498>
 800a66a:	f1b9 0f00 	cmp.w	r9, #0
 800a66e:	dd08      	ble.n	800a682 <_strtod_l+0x7aa>
 800a670:	4631      	mov	r1, r6
 800a672:	464a      	mov	r2, r9
 800a674:	4620      	mov	r0, r4
 800a676:	f001 ff5b 	bl	800c530 <__lshift>
 800a67a:	4606      	mov	r6, r0
 800a67c:	2800      	cmp	r0, #0
 800a67e:	f43f ae77 	beq.w	800a370 <_strtod_l+0x498>
 800a682:	9a07      	ldr	r2, [sp, #28]
 800a684:	991e      	ldr	r1, [sp, #120]	; 0x78
 800a686:	4620      	mov	r0, r4
 800a688:	f001 ffda 	bl	800c640 <__mdiff>
 800a68c:	4605      	mov	r5, r0
 800a68e:	2800      	cmp	r0, #0
 800a690:	f43f ae6e 	beq.w	800a370 <_strtod_l+0x498>
 800a694:	68c3      	ldr	r3, [r0, #12]
 800a696:	930f      	str	r3, [sp, #60]	; 0x3c
 800a698:	2300      	movs	r3, #0
 800a69a:	60c3      	str	r3, [r0, #12]
 800a69c:	4631      	mov	r1, r6
 800a69e:	f001 ffb3 	bl	800c608 <__mcmp>
 800a6a2:	2800      	cmp	r0, #0
 800a6a4:	da65      	bge.n	800a772 <_strtod_l+0x89a>
 800a6a6:	9b0f      	ldr	r3, [sp, #60]	; 0x3c
 800a6a8:	ea53 030a 	orrs.w	r3, r3, sl
 800a6ac:	f040 8087 	bne.w	800a7be <_strtod_l+0x8e6>
 800a6b0:	f3cb 0313 	ubfx	r3, fp, #0, #20
 800a6b4:	2b00      	cmp	r3, #0
 800a6b6:	f040 8082 	bne.w	800a7be <_strtod_l+0x8e6>
 800a6ba:	f02b 4300 	bic.w	r3, fp, #2147483648	; 0x80000000
 800a6be:	0d1b      	lsrs	r3, r3, #20
 800a6c0:	051b      	lsls	r3, r3, #20
 800a6c2:	f1b3 6fd6 	cmp.w	r3, #112197632	; 0x6b00000
 800a6c6:	d97a      	bls.n	800a7be <_strtod_l+0x8e6>
 800a6c8:	696b      	ldr	r3, [r5, #20]
 800a6ca:	b913      	cbnz	r3, 800a6d2 <_strtod_l+0x7fa>
 800a6cc:	692b      	ldr	r3, [r5, #16]
 800a6ce:	2b01      	cmp	r3, #1
 800a6d0:	dd75      	ble.n	800a7be <_strtod_l+0x8e6>
 800a6d2:	4629      	mov	r1, r5
 800a6d4:	2201      	movs	r2, #1
 800a6d6:	4620      	mov	r0, r4
 800a6d8:	f001 ff2a 	bl	800c530 <__lshift>
 800a6dc:	4631      	mov	r1, r6
 800a6de:	4605      	mov	r5, r0
 800a6e0:	f001 ff92 	bl	800c608 <__mcmp>
 800a6e4:	2800      	cmp	r0, #0
 800a6e6:	dd6a      	ble.n	800a7be <_strtod_l+0x8e6>
 800a6e8:	9904      	ldr	r1, [sp, #16]
 800a6ea:	4a55      	ldr	r2, [pc, #340]	; (800a840 <_strtod_l+0x968>)
 800a6ec:	465b      	mov	r3, fp
 800a6ee:	2900      	cmp	r1, #0
 800a6f0:	f000 8085 	beq.w	800a7fe <_strtod_l+0x926>
 800a6f4:	ea02 010b 	and.w	r1, r2, fp
 800a6f8:	f1b1 6fd6 	cmp.w	r1, #112197632	; 0x6b00000
 800a6fc:	dc7f      	bgt.n	800a7fe <_strtod_l+0x926>
 800a6fe:	f1b1 7f5c 	cmp.w	r1, #57671680	; 0x3700000
 800a702:	f77f aeaa 	ble.w	800a45a <_strtod_l+0x582>
 800a706:	4a4f      	ldr	r2, [pc, #316]	; (800a844 <_strtod_l+0x96c>)
 800a708:	2300      	movs	r3, #0
 800a70a:	e9cd 3216 	strd	r3, r2, [sp, #88]	; 0x58
 800a70e:	4650      	mov	r0, sl
 800a710:	e9dd 2316 	ldrd	r2, r3, [sp, #88]	; 0x58
 800a714:	4659      	mov	r1, fp
 800a716:	f7f5 ff7f 	bl	8000618 <__aeabi_dmul>
 800a71a:	460b      	mov	r3, r1
 800a71c:	4303      	orrs	r3, r0
 800a71e:	bf08      	it	eq
 800a720:	2322      	moveq	r3, #34	; 0x22
 800a722:	4682      	mov	sl, r0
 800a724:	468b      	mov	fp, r1
 800a726:	bf08      	it	eq
 800a728:	6023      	streq	r3, [r4, #0]
 800a72a:	e62b      	b.n	800a384 <_strtod_l+0x4ac>
 800a72c:	f04f 32ff 	mov.w	r2, #4294967295
 800a730:	fa02 f303 	lsl.w	r3, r2, r3
 800a734:	ea03 0a0a 	and.w	sl, r3, sl
 800a738:	e6de      	b.n	800a4f8 <_strtod_l+0x620>
 800a73a:	f1c8 487f 	rsb	r8, r8, #4278190080	; 0xff000000
 800a73e:	f508 087f 	add.w	r8, r8, #16711680	; 0xff0000
 800a742:	f508 487b 	add.w	r8, r8, #64256	; 0xfb00
 800a746:	f108 08e2 	add.w	r8, r8, #226	; 0xe2
 800a74a:	fa01 f308 	lsl.w	r3, r1, r8
 800a74e:	930c      	str	r3, [sp, #48]	; 0x30
 800a750:	9111      	str	r1, [sp, #68]	; 0x44
 800a752:	e741      	b.n	800a5d8 <_strtod_l+0x700>
 800a754:	2300      	movs	r3, #0
 800a756:	930c      	str	r3, [sp, #48]	; 0x30
 800a758:	2301      	movs	r3, #1
 800a75a:	9311      	str	r3, [sp, #68]	; 0x44
 800a75c:	e73c      	b.n	800a5d8 <_strtod_l+0x700>
 800a75e:	991e      	ldr	r1, [sp, #120]	; 0x78
 800a760:	4642      	mov	r2, r8
 800a762:	4620      	mov	r0, r4
 800a764:	f001 fee4 	bl	800c530 <__lshift>
 800a768:	901e      	str	r0, [sp, #120]	; 0x78
 800a76a:	2800      	cmp	r0, #0
 800a76c:	f47f af66 	bne.w	800a63c <_strtod_l+0x764>
 800a770:	e5fe      	b.n	800a370 <_strtod_l+0x498>
 800a772:	465f      	mov	r7, fp
 800a774:	d16e      	bne.n	800a854 <_strtod_l+0x97c>
 800a776:	9a0f      	ldr	r2, [sp, #60]	; 0x3c
 800a778:	f3cb 0313 	ubfx	r3, fp, #0, #20
 800a77c:	b342      	cbz	r2, 800a7d0 <_strtod_l+0x8f8>
 800a77e:	4a32      	ldr	r2, [pc, #200]	; (800a848 <_strtod_l+0x970>)
 800a780:	4293      	cmp	r3, r2
 800a782:	d128      	bne.n	800a7d6 <_strtod_l+0x8fe>
 800a784:	9b04      	ldr	r3, [sp, #16]
 800a786:	4650      	mov	r0, sl
 800a788:	b1eb      	cbz	r3, 800a7c6 <_strtod_l+0x8ee>
 800a78a:	4a2d      	ldr	r2, [pc, #180]	; (800a840 <_strtod_l+0x968>)
 800a78c:	403a      	ands	r2, r7
 800a78e:	f1b2 6fd4 	cmp.w	r2, #111149056	; 0x6a00000
 800a792:	f04f 31ff 	mov.w	r1, #4294967295
 800a796:	d819      	bhi.n	800a7cc <_strtod_l+0x8f4>
 800a798:	0d12      	lsrs	r2, r2, #20
 800a79a:	f1c2 036b 	rsb	r3, r2, #107	; 0x6b
 800a79e:	fa01 f303 	lsl.w	r3, r1, r3
 800a7a2:	4298      	cmp	r0, r3
 800a7a4:	d117      	bne.n	800a7d6 <_strtod_l+0x8fe>
 800a7a6:	4b29      	ldr	r3, [pc, #164]	; (800a84c <_strtod_l+0x974>)
 800a7a8:	429f      	cmp	r7, r3
 800a7aa:	d102      	bne.n	800a7b2 <_strtod_l+0x8da>
 800a7ac:	3001      	adds	r0, #1
 800a7ae:	f43f addf 	beq.w	800a370 <_strtod_l+0x498>
 800a7b2:	4b23      	ldr	r3, [pc, #140]	; (800a840 <_strtod_l+0x968>)
 800a7b4:	403b      	ands	r3, r7
 800a7b6:	f503 1b80 	add.w	fp, r3, #1048576	; 0x100000
 800a7ba:	f04f 0a00 	mov.w	sl, #0
 800a7be:	9b04      	ldr	r3, [sp, #16]
 800a7c0:	2b00      	cmp	r3, #0
 800a7c2:	d1a0      	bne.n	800a706 <_strtod_l+0x82e>
 800a7c4:	e5de      	b.n	800a384 <_strtod_l+0x4ac>
 800a7c6:	f04f 33ff 	mov.w	r3, #4294967295
 800a7ca:	e7ea      	b.n	800a7a2 <_strtod_l+0x8ca>
 800a7cc:	460b      	mov	r3, r1
 800a7ce:	e7e8      	b.n	800a7a2 <_strtod_l+0x8ca>
 800a7d0:	ea53 030a 	orrs.w	r3, r3, sl
 800a7d4:	d088      	beq.n	800a6e8 <_strtod_l+0x810>
 800a7d6:	9b0c      	ldr	r3, [sp, #48]	; 0x30
 800a7d8:	b1db      	cbz	r3, 800a812 <_strtod_l+0x93a>
 800a7da:	423b      	tst	r3, r7
 800a7dc:	d0ef      	beq.n	800a7be <_strtod_l+0x8e6>
 800a7de:	9b0f      	ldr	r3, [sp, #60]	; 0x3c
 800a7e0:	9a04      	ldr	r2, [sp, #16]
 800a7e2:	4650      	mov	r0, sl
 800a7e4:	4659      	mov	r1, fp
 800a7e6:	b1c3      	cbz	r3, 800a81a <_strtod_l+0x942>
 800a7e8:	f7ff fb57 	bl	8009e9a <sulp>
 800a7ec:	4602      	mov	r2, r0
 800a7ee:	460b      	mov	r3, r1
 800a7f0:	e9dd 010a 	ldrd	r0, r1, [sp, #40]	; 0x28
 800a7f4:	f7f5 fd5a 	bl	80002ac <__adddf3>
 800a7f8:	4682      	mov	sl, r0
 800a7fa:	468b      	mov	fp, r1
 800a7fc:	e7df      	b.n	800a7be <_strtod_l+0x8e6>
 800a7fe:	4013      	ands	r3, r2
 800a800:	f5a3 1380 	sub.w	r3, r3, #1048576	; 0x100000
 800a804:	ea6f 5b13 	mvn.w	fp, r3, lsr #20
 800a808:	ea6f 5b0b 	mvn.w	fp, fp, lsl #20
 800a80c:	f04f 3aff 	mov.w	sl, #4294967295
 800a810:	e7d5      	b.n	800a7be <_strtod_l+0x8e6>
 800a812:	9b11      	ldr	r3, [sp, #68]	; 0x44
 800a814:	ea13 0f0a 	tst.w	r3, sl
 800a818:	e7e0      	b.n	800a7dc <_strtod_l+0x904>
 800a81a:	f7ff fb3e 	bl	8009e9a <sulp>
 800a81e:	4602      	mov	r2, r0
 800a820:	460b      	mov	r3, r1
 800a822:	e9dd 010a 	ldrd	r0, r1, [sp, #40]	; 0x28
 800a826:	f7f5 fd3f 	bl	80002a8 <__aeabi_dsub>
 800a82a:	2200      	movs	r2, #0
 800a82c:	2300      	movs	r3, #0
 800a82e:	4682      	mov	sl, r0
 800a830:	468b      	mov	fp, r1
 800a832:	f7f6 f959 	bl	8000ae8 <__aeabi_dcmpeq>
 800a836:	2800      	cmp	r0, #0
 800a838:	d0c1      	beq.n	800a7be <_strtod_l+0x8e6>
 800a83a:	e60e      	b.n	800a45a <_strtod_l+0x582>
 800a83c:	fffffc02 	.word	0xfffffc02
 800a840:	7ff00000 	.word	0x7ff00000
 800a844:	39500000 	.word	0x39500000
 800a848:	000fffff 	.word	0x000fffff
 800a84c:	7fefffff 	.word	0x7fefffff
 800a850:	0800fc40 	.word	0x0800fc40
 800a854:	4631      	mov	r1, r6
 800a856:	4628      	mov	r0, r5
 800a858:	f002 f852 	bl	800c900 <__ratio>
 800a85c:	ec59 8b10 	vmov	r8, r9, d0
 800a860:	ee10 0a10 	vmov	r0, s0
 800a864:	2200      	movs	r2, #0
 800a866:	f04f 4380 	mov.w	r3, #1073741824	; 0x40000000
 800a86a:	4649      	mov	r1, r9
 800a86c:	f7f6 f950 	bl	8000b10 <__aeabi_dcmple>
 800a870:	2800      	cmp	r0, #0
 800a872:	d07c      	beq.n	800a96e <_strtod_l+0xa96>
 800a874:	9b0f      	ldr	r3, [sp, #60]	; 0x3c
 800a876:	2b00      	cmp	r3, #0
 800a878:	d04c      	beq.n	800a914 <_strtod_l+0xa3c>
 800a87a:	4b95      	ldr	r3, [pc, #596]	; (800aad0 <_strtod_l+0xbf8>)
 800a87c:	2200      	movs	r2, #0
 800a87e:	e9cd 230c 	strd	r2, r3, [sp, #48]	; 0x30
 800a882:	f8df 924c 	ldr.w	r9, [pc, #588]	; 800aad0 <_strtod_l+0xbf8>
 800a886:	f04f 0800 	mov.w	r8, #0
 800a88a:	4b92      	ldr	r3, [pc, #584]	; (800aad4 <_strtod_l+0xbfc>)
 800a88c:	403b      	ands	r3, r7
 800a88e:	9311      	str	r3, [sp, #68]	; 0x44
 800a890:	9a11      	ldr	r2, [sp, #68]	; 0x44
 800a892:	4b91      	ldr	r3, [pc, #580]	; (800aad8 <_strtod_l+0xc00>)
 800a894:	429a      	cmp	r2, r3
 800a896:	f040 80b2 	bne.w	800a9fe <_strtod_l+0xb26>
 800a89a:	e9dd 230a 	ldrd	r2, r3, [sp, #40]	; 0x28
 800a89e:	e9dd 010c 	ldrd	r0, r1, [sp, #48]	; 0x30
 800a8a2:	f1a7 7b54 	sub.w	fp, r7, #55574528	; 0x3500000
 800a8a6:	ec4b ab10 	vmov	d0, sl, fp
 800a8aa:	e9cd 2316 	strd	r2, r3, [sp, #88]	; 0x58
 800a8ae:	e9cd 010c 	strd	r0, r1, [sp, #48]	; 0x30
 800a8b2:	f001 ff4d 	bl	800c750 <__ulp>
 800a8b6:	e9dd 010c 	ldrd	r0, r1, [sp, #48]	; 0x30
 800a8ba:	ec53 2b10 	vmov	r2, r3, d0
 800a8be:	f7f5 feab 	bl	8000618 <__aeabi_dmul>
 800a8c2:	4652      	mov	r2, sl
 800a8c4:	465b      	mov	r3, fp
 800a8c6:	f7f5 fcf1 	bl	80002ac <__adddf3>
 800a8ca:	460b      	mov	r3, r1
 800a8cc:	4981      	ldr	r1, [pc, #516]	; (800aad4 <_strtod_l+0xbfc>)
 800a8ce:	4a83      	ldr	r2, [pc, #524]	; (800aadc <_strtod_l+0xc04>)
 800a8d0:	4019      	ands	r1, r3
 800a8d2:	4291      	cmp	r1, r2
 800a8d4:	4682      	mov	sl, r0
 800a8d6:	d95e      	bls.n	800a996 <_strtod_l+0xabe>
 800a8d8:	9b0b      	ldr	r3, [sp, #44]	; 0x2c
 800a8da:	f102 7254 	add.w	r2, r2, #55574528	; 0x3500000
 800a8de:	4293      	cmp	r3, r2
 800a8e0:	d103      	bne.n	800a8ea <_strtod_l+0xa12>
 800a8e2:	9b0a      	ldr	r3, [sp, #40]	; 0x28
 800a8e4:	3301      	adds	r3, #1
 800a8e6:	f43f ad43 	beq.w	800a370 <_strtod_l+0x498>
 800a8ea:	f8df b1fc 	ldr.w	fp, [pc, #508]	; 800aae8 <_strtod_l+0xc10>
 800a8ee:	f04f 3aff 	mov.w	sl, #4294967295
 800a8f2:	991e      	ldr	r1, [sp, #120]	; 0x78
 800a8f4:	4620      	mov	r0, r4
 800a8f6:	f001 fbff 	bl	800c0f8 <_Bfree>
 800a8fa:	9907      	ldr	r1, [sp, #28]
 800a8fc:	4620      	mov	r0, r4
 800a8fe:	f001 fbfb 	bl	800c0f8 <_Bfree>
 800a902:	4631      	mov	r1, r6
 800a904:	4620      	mov	r0, r4
 800a906:	f001 fbf7 	bl	800c0f8 <_Bfree>
 800a90a:	4629      	mov	r1, r5
 800a90c:	4620      	mov	r0, r4
 800a90e:	f001 fbf3 	bl	800c0f8 <_Bfree>
 800a912:	e613      	b.n	800a53c <_strtod_l+0x664>
 800a914:	f1ba 0f00 	cmp.w	sl, #0
 800a918:	d11b      	bne.n	800a952 <_strtod_l+0xa7a>
 800a91a:	f3cb 0313 	ubfx	r3, fp, #0, #20
 800a91e:	b9f3      	cbnz	r3, 800a95e <_strtod_l+0xa86>
 800a920:	4b6b      	ldr	r3, [pc, #428]	; (800aad0 <_strtod_l+0xbf8>)
 800a922:	2200      	movs	r2, #0
 800a924:	4640      	mov	r0, r8
 800a926:	4649      	mov	r1, r9
 800a928:	f7f6 f8e8 	bl	8000afc <__aeabi_dcmplt>
 800a92c:	b9d0      	cbnz	r0, 800a964 <_strtod_l+0xa8c>
 800a92e:	4640      	mov	r0, r8
 800a930:	4649      	mov	r1, r9
 800a932:	4b6b      	ldr	r3, [pc, #428]	; (800aae0 <_strtod_l+0xc08>)
 800a934:	2200      	movs	r2, #0
 800a936:	f7f5 fe6f 	bl	8000618 <__aeabi_dmul>
 800a93a:	4680      	mov	r8, r0
 800a93c:	4689      	mov	r9, r1
 800a93e:	f109 4300 	add.w	r3, r9, #2147483648	; 0x80000000
 800a942:	f8cd 8068 	str.w	r8, [sp, #104]	; 0x68
 800a946:	931b      	str	r3, [sp, #108]	; 0x6c
 800a948:	e9dd 231a 	ldrd	r2, r3, [sp, #104]	; 0x68
 800a94c:	e9cd 230c 	strd	r2, r3, [sp, #48]	; 0x30
 800a950:	e79b      	b.n	800a88a <_strtod_l+0x9b2>
 800a952:	f1ba 0f01 	cmp.w	sl, #1
 800a956:	d102      	bne.n	800a95e <_strtod_l+0xa86>
 800a958:	2f00      	cmp	r7, #0
 800a95a:	f43f ad7e 	beq.w	800a45a <_strtod_l+0x582>
 800a95e:	4b61      	ldr	r3, [pc, #388]	; (800aae4 <_strtod_l+0xc0c>)
 800a960:	2200      	movs	r2, #0
 800a962:	e78c      	b.n	800a87e <_strtod_l+0x9a6>
 800a964:	f8df 9178 	ldr.w	r9, [pc, #376]	; 800aae0 <_strtod_l+0xc08>
 800a968:	f04f 0800 	mov.w	r8, #0
 800a96c:	e7e7      	b.n	800a93e <_strtod_l+0xa66>
 800a96e:	4b5c      	ldr	r3, [pc, #368]	; (800aae0 <_strtod_l+0xc08>)
 800a970:	4640      	mov	r0, r8
 800a972:	4649      	mov	r1, r9
 800a974:	2200      	movs	r2, #0
 800a976:	f7f5 fe4f 	bl	8000618 <__aeabi_dmul>
 800a97a:	9b0f      	ldr	r3, [sp, #60]	; 0x3c
 800a97c:	4680      	mov	r8, r0
 800a97e:	4689      	mov	r9, r1
 800a980:	b933      	cbnz	r3, 800a990 <_strtod_l+0xab8>
 800a982:	f101 4300 	add.w	r3, r1, #2147483648	; 0x80000000
 800a986:	9012      	str	r0, [sp, #72]	; 0x48
 800a988:	9313      	str	r3, [sp, #76]	; 0x4c
 800a98a:	e9dd 2312 	ldrd	r2, r3, [sp, #72]	; 0x48
 800a98e:	e7dd      	b.n	800a94c <_strtod_l+0xa74>
 800a990:	e9cd 8912 	strd	r8, r9, [sp, #72]	; 0x48
 800a994:	e7f9      	b.n	800a98a <_strtod_l+0xab2>
 800a996:	f103 7b54 	add.w	fp, r3, #55574528	; 0x3500000
 800a99a:	9b04      	ldr	r3, [sp, #16]
 800a99c:	2b00      	cmp	r3, #0
 800a99e:	d1a8      	bne.n	800a8f2 <_strtod_l+0xa1a>
 800a9a0:	f02b 4300 	bic.w	r3, fp, #2147483648	; 0x80000000
 800a9a4:	9a11      	ldr	r2, [sp, #68]	; 0x44
 800a9a6:	0d1b      	lsrs	r3, r3, #20
 800a9a8:	051b      	lsls	r3, r3, #20
 800a9aa:	429a      	cmp	r2, r3
 800a9ac:	d1a1      	bne.n	800a8f2 <_strtod_l+0xa1a>
 800a9ae:	4640      	mov	r0, r8
 800a9b0:	4649      	mov	r1, r9
 800a9b2:	f7f6 f991 	bl	8000cd8 <__aeabi_d2lz>
 800a9b6:	f7f5 fe01 	bl	80005bc <__aeabi_l2d>
 800a9ba:	4602      	mov	r2, r0
 800a9bc:	460b      	mov	r3, r1
 800a9be:	4640      	mov	r0, r8
 800a9c0:	4649      	mov	r1, r9
 800a9c2:	f7f5 fc71 	bl	80002a8 <__aeabi_dsub>
 800a9c6:	9a0f      	ldr	r2, [sp, #60]	; 0x3c
 800a9c8:	f3cb 0313 	ubfx	r3, fp, #0, #20
 800a9cc:	ea43 030a 	orr.w	r3, r3, sl
 800a9d0:	4313      	orrs	r3, r2
 800a9d2:	4680      	mov	r8, r0
 800a9d4:	4689      	mov	r9, r1
 800a9d6:	d053      	beq.n	800aa80 <_strtod_l+0xba8>
 800a9d8:	a335      	add	r3, pc, #212	; (adr r3, 800aab0 <_strtod_l+0xbd8>)
 800a9da:	e9d3 2300 	ldrd	r2, r3, [r3]
 800a9de:	f7f6 f88d 	bl	8000afc <__aeabi_dcmplt>
 800a9e2:	2800      	cmp	r0, #0
 800a9e4:	f47f acce 	bne.w	800a384 <_strtod_l+0x4ac>
 800a9e8:	a333      	add	r3, pc, #204	; (adr r3, 800aab8 <_strtod_l+0xbe0>)
 800a9ea:	e9d3 2300 	ldrd	r2, r3, [r3]
 800a9ee:	4640      	mov	r0, r8
 800a9f0:	4649      	mov	r1, r9
 800a9f2:	f7f6 f8a1 	bl	8000b38 <__aeabi_dcmpgt>
 800a9f6:	2800      	cmp	r0, #0
 800a9f8:	f43f af7b 	beq.w	800a8f2 <_strtod_l+0xa1a>
 800a9fc:	e4c2      	b.n	800a384 <_strtod_l+0x4ac>
 800a9fe:	9b04      	ldr	r3, [sp, #16]
 800aa00:	b333      	cbz	r3, 800aa50 <_strtod_l+0xb78>
 800aa02:	9b11      	ldr	r3, [sp, #68]	; 0x44
 800aa04:	f1b3 6fd4 	cmp.w	r3, #111149056	; 0x6a00000
 800aa08:	d822      	bhi.n	800aa50 <_strtod_l+0xb78>
 800aa0a:	a32d      	add	r3, pc, #180	; (adr r3, 800aac0 <_strtod_l+0xbe8>)
 800aa0c:	e9d3 2300 	ldrd	r2, r3, [r3]
 800aa10:	4640      	mov	r0, r8
 800aa12:	4649      	mov	r1, r9
 800aa14:	f7f6 f87c 	bl	8000b10 <__aeabi_dcmple>
 800aa18:	b1a0      	cbz	r0, 800aa44 <_strtod_l+0xb6c>
 800aa1a:	4649      	mov	r1, r9
 800aa1c:	4640      	mov	r0, r8
 800aa1e:	f7f6 f8d3 	bl	8000bc8 <__aeabi_d2uiz>
 800aa22:	2801      	cmp	r0, #1
 800aa24:	bf38      	it	cc
 800aa26:	2001      	movcc	r0, #1
 800aa28:	f7f5 fd7c 	bl	8000524 <__aeabi_ui2d>
 800aa2c:	9b0f      	ldr	r3, [sp, #60]	; 0x3c
 800aa2e:	4680      	mov	r8, r0
 800aa30:	4689      	mov	r9, r1
 800aa32:	bb13      	cbnz	r3, 800aa7a <_strtod_l+0xba2>
 800aa34:	f101 4300 	add.w	r3, r1, #2147483648	; 0x80000000
 800aa38:	9014      	str	r0, [sp, #80]	; 0x50
 800aa3a:	9315      	str	r3, [sp, #84]	; 0x54
 800aa3c:	e9dd 2314 	ldrd	r2, r3, [sp, #80]	; 0x50
 800aa40:	e9cd 230c 	strd	r2, r3, [sp, #48]	; 0x30
 800aa44:	9b0d      	ldr	r3, [sp, #52]	; 0x34
 800aa46:	9a11      	ldr	r2, [sp, #68]	; 0x44
 800aa48:	f103 63d6 	add.w	r3, r3, #112197632	; 0x6b00000
 800aa4c:	1a9b      	subs	r3, r3, r2
 800aa4e:	930d      	str	r3, [sp, #52]	; 0x34
 800aa50:	e9dd 010c 	ldrd	r0, r1, [sp, #48]	; 0x30
 800aa54:	ed9d 0b0a 	vldr	d0, [sp, #40]	; 0x28
 800aa58:	e9cd 010c 	strd	r0, r1, [sp, #48]	; 0x30
 800aa5c:	f001 fe78 	bl	800c750 <__ulp>
 800aa60:	e9dd 010c 	ldrd	r0, r1, [sp, #48]	; 0x30
 800aa64:	ec53 2b10 	vmov	r2, r3, d0
 800aa68:	f7f5 fdd6 	bl	8000618 <__aeabi_dmul>
 800aa6c:	e9dd 230a 	ldrd	r2, r3, [sp, #40]	; 0x28
 800aa70:	f7f5 fc1c 	bl	80002ac <__adddf3>
 800aa74:	4682      	mov	sl, r0
 800aa76:	468b      	mov	fp, r1
 800aa78:	e78f      	b.n	800a99a <_strtod_l+0xac2>
 800aa7a:	e9cd 8914 	strd	r8, r9, [sp, #80]	; 0x50
 800aa7e:	e7dd      	b.n	800aa3c <_strtod_l+0xb64>
 800aa80:	a311      	add	r3, pc, #68	; (adr r3, 800aac8 <_strtod_l+0xbf0>)
 800aa82:	e9d3 2300 	ldrd	r2, r3, [r3]
 800aa86:	f7f6 f839 	bl	8000afc <__aeabi_dcmplt>
 800aa8a:	e7b4      	b.n	800a9f6 <_strtod_l+0xb1e>
 800aa8c:	2300      	movs	r3, #0
 800aa8e:	930e      	str	r3, [sp, #56]	; 0x38
 800aa90:	9a19      	ldr	r2, [sp, #100]	; 0x64
 800aa92:	9b1d      	ldr	r3, [sp, #116]	; 0x74
 800aa94:	6013      	str	r3, [r2, #0]
 800aa96:	f7ff ba65 	b.w	8009f64 <_strtod_l+0x8c>
 800aa9a:	2b65      	cmp	r3, #101	; 0x65
 800aa9c:	f43f ab5d 	beq.w	800a15a <_strtod_l+0x282>
 800aaa0:	2b45      	cmp	r3, #69	; 0x45
 800aaa2:	f43f ab5a 	beq.w	800a15a <_strtod_l+0x282>
 800aaa6:	2201      	movs	r2, #1
 800aaa8:	f7ff bb92 	b.w	800a1d0 <_strtod_l+0x2f8>
 800aaac:	f3af 8000 	nop.w
 800aab0:	94a03595 	.word	0x94a03595
 800aab4:	3fdfffff 	.word	0x3fdfffff
 800aab8:	35afe535 	.word	0x35afe535
 800aabc:	3fe00000 	.word	0x3fe00000
 800aac0:	ffc00000 	.word	0xffc00000
 800aac4:	41dfffff 	.word	0x41dfffff
 800aac8:	94a03595 	.word	0x94a03595
 800aacc:	3fcfffff 	.word	0x3fcfffff
 800aad0:	3ff00000 	.word	0x3ff00000
 800aad4:	7ff00000 	.word	0x7ff00000
 800aad8:	7fe00000 	.word	0x7fe00000
 800aadc:	7c9fffff 	.word	0x7c9fffff
 800aae0:	3fe00000 	.word	0x3fe00000
 800aae4:	bff00000 	.word	0xbff00000
 800aae8:	7fefffff 	.word	0x7fefffff

0800aaec <_strtod_r>:
 800aaec:	4b01      	ldr	r3, [pc, #4]	; (800aaf4 <_strtod_r+0x8>)
 800aaee:	f7ff b9f3 	b.w	8009ed8 <_strtod_l>
 800aaf2:	bf00      	nop
 800aaf4:	20000210 	.word	0x20000210

0800aaf8 <_strtol_l.isra.0>:
 800aaf8:	2b01      	cmp	r3, #1
 800aafa:	e92d 47f0 	stmdb	sp!, {r4, r5, r6, r7, r8, r9, sl, lr}
 800aafe:	d001      	beq.n	800ab04 <_strtol_l.isra.0+0xc>
 800ab00:	2b24      	cmp	r3, #36	; 0x24
 800ab02:	d906      	bls.n	800ab12 <_strtol_l.isra.0+0x1a>
 800ab04:	f7fe fa5e 	bl	8008fc4 <__errno>
 800ab08:	2316      	movs	r3, #22
 800ab0a:	6003      	str	r3, [r0, #0]
 800ab0c:	2000      	movs	r0, #0
 800ab0e:	e8bd 87f0 	ldmia.w	sp!, {r4, r5, r6, r7, r8, r9, sl, pc}
 800ab12:	4f3a      	ldr	r7, [pc, #232]	; (800abfc <_strtol_l.isra.0+0x104>)
 800ab14:	468e      	mov	lr, r1
 800ab16:	4676      	mov	r6, lr
 800ab18:	f81e 4b01 	ldrb.w	r4, [lr], #1
 800ab1c:	5de5      	ldrb	r5, [r4, r7]
 800ab1e:	f015 0508 	ands.w	r5, r5, #8
 800ab22:	d1f8      	bne.n	800ab16 <_strtol_l.isra.0+0x1e>
 800ab24:	2c2d      	cmp	r4, #45	; 0x2d
 800ab26:	d134      	bne.n	800ab92 <_strtol_l.isra.0+0x9a>
 800ab28:	f89e 4000 	ldrb.w	r4, [lr]
 800ab2c:	f04f 0801 	mov.w	r8, #1
 800ab30:	f106 0e02 	add.w	lr, r6, #2
 800ab34:	2b00      	cmp	r3, #0
 800ab36:	d05c      	beq.n	800abf2 <_strtol_l.isra.0+0xfa>
 800ab38:	2b10      	cmp	r3, #16
 800ab3a:	d10c      	bne.n	800ab56 <_strtol_l.isra.0+0x5e>
 800ab3c:	2c30      	cmp	r4, #48	; 0x30
 800ab3e:	d10a      	bne.n	800ab56 <_strtol_l.isra.0+0x5e>
 800ab40:	f89e 4000 	ldrb.w	r4, [lr]
 800ab44:	f004 04df 	and.w	r4, r4, #223	; 0xdf
 800ab48:	2c58      	cmp	r4, #88	; 0x58
 800ab4a:	d14d      	bne.n	800abe8 <_strtol_l.isra.0+0xf0>
 800ab4c:	f89e 4001 	ldrb.w	r4, [lr, #1]
 800ab50:	2310      	movs	r3, #16
 800ab52:	f10e 0e02 	add.w	lr, lr, #2
 800ab56:	f108 4c00 	add.w	ip, r8, #2147483648	; 0x80000000
 800ab5a:	f10c 3cff 	add.w	ip, ip, #4294967295
 800ab5e:	2600      	movs	r6, #0
 800ab60:	fbbc f9f3 	udiv	r9, ip, r3
 800ab64:	4635      	mov	r5, r6
 800ab66:	fb03 ca19 	mls	sl, r3, r9, ip
 800ab6a:	f1a4 0730 	sub.w	r7, r4, #48	; 0x30
 800ab6e:	2f09      	cmp	r7, #9
 800ab70:	d818      	bhi.n	800aba4 <_strtol_l.isra.0+0xac>
 800ab72:	463c      	mov	r4, r7
 800ab74:	42a3      	cmp	r3, r4
 800ab76:	dd24      	ble.n	800abc2 <_strtol_l.isra.0+0xca>
 800ab78:	2e00      	cmp	r6, #0
 800ab7a:	db1f      	blt.n	800abbc <_strtol_l.isra.0+0xc4>
 800ab7c:	45a9      	cmp	r9, r5
 800ab7e:	d31d      	bcc.n	800abbc <_strtol_l.isra.0+0xc4>
 800ab80:	d101      	bne.n	800ab86 <_strtol_l.isra.0+0x8e>
 800ab82:	45a2      	cmp	sl, r4
 800ab84:	db1a      	blt.n	800abbc <_strtol_l.isra.0+0xc4>
 800ab86:	fb05 4503 	mla	r5, r5, r3, r4
 800ab8a:	2601      	movs	r6, #1
 800ab8c:	f81e 4b01 	ldrb.w	r4, [lr], #1
 800ab90:	e7eb      	b.n	800ab6a <_strtol_l.isra.0+0x72>
 800ab92:	2c2b      	cmp	r4, #43	; 0x2b
 800ab94:	bf08      	it	eq
 800ab96:	f89e 4000 	ldrbeq.w	r4, [lr]
 800ab9a:	46a8      	mov	r8, r5
 800ab9c:	bf08      	it	eq
 800ab9e:	f106 0e02 	addeq.w	lr, r6, #2
 800aba2:	e7c7      	b.n	800ab34 <_strtol_l.isra.0+0x3c>
 800aba4:	f1a4 0741 	sub.w	r7, r4, #65	; 0x41
 800aba8:	2f19      	cmp	r7, #25
 800abaa:	d801      	bhi.n	800abb0 <_strtol_l.isra.0+0xb8>
 800abac:	3c37      	subs	r4, #55	; 0x37
 800abae:	e7e1      	b.n	800ab74 <_strtol_l.isra.0+0x7c>
 800abb0:	f1a4 0761 	sub.w	r7, r4, #97	; 0x61
 800abb4:	2f19      	cmp	r7, #25
 800abb6:	d804      	bhi.n	800abc2 <_strtol_l.isra.0+0xca>
 800abb8:	3c57      	subs	r4, #87	; 0x57
 800abba:	e7db      	b.n	800ab74 <_strtol_l.isra.0+0x7c>
 800abbc:	f04f 36ff 	mov.w	r6, #4294967295
 800abc0:	e7e4      	b.n	800ab8c <_strtol_l.isra.0+0x94>
 800abc2:	2e00      	cmp	r6, #0
 800abc4:	da05      	bge.n	800abd2 <_strtol_l.isra.0+0xda>
 800abc6:	2322      	movs	r3, #34	; 0x22
 800abc8:	6003      	str	r3, [r0, #0]
 800abca:	4665      	mov	r5, ip
 800abcc:	b942      	cbnz	r2, 800abe0 <_strtol_l.isra.0+0xe8>
 800abce:	4628      	mov	r0, r5
 800abd0:	e79d      	b.n	800ab0e <_strtol_l.isra.0+0x16>
 800abd2:	f1b8 0f00 	cmp.w	r8, #0
 800abd6:	d000      	beq.n	800abda <_strtol_l.isra.0+0xe2>
 800abd8:	426d      	negs	r5, r5
 800abda:	2a00      	cmp	r2, #0
 800abdc:	d0f7      	beq.n	800abce <_strtol_l.isra.0+0xd6>
 800abde:	b10e      	cbz	r6, 800abe4 <_strtol_l.isra.0+0xec>
 800abe0:	f10e 31ff 	add.w	r1, lr, #4294967295
 800abe4:	6011      	str	r1, [r2, #0]
 800abe6:	e7f2      	b.n	800abce <_strtol_l.isra.0+0xd6>
 800abe8:	2430      	movs	r4, #48	; 0x30
 800abea:	2b00      	cmp	r3, #0
 800abec:	d1b3      	bne.n	800ab56 <_strtol_l.isra.0+0x5e>
 800abee:	2308      	movs	r3, #8
 800abf0:	e7b1      	b.n	800ab56 <_strtol_l.isra.0+0x5e>
 800abf2:	2c30      	cmp	r4, #48	; 0x30
 800abf4:	d0a4      	beq.n	800ab40 <_strtol_l.isra.0+0x48>
 800abf6:	230a      	movs	r3, #10
 800abf8:	e7ad      	b.n	800ab56 <_strtol_l.isra.0+0x5e>
 800abfa:	bf00      	nop
 800abfc:	0800fad9 	.word	0x0800fad9

0800ac00 <_strtol_r>:
 800ac00:	f7ff bf7a 	b.w	800aaf8 <_strtol_l.isra.0>

0800ac04 <_write_r>:
 800ac04:	b538      	push	{r3, r4, r5, lr}
 800ac06:	4d07      	ldr	r5, [pc, #28]	; (800ac24 <_write_r+0x20>)
 800ac08:	4604      	mov	r4, r0
 800ac0a:	4608      	mov	r0, r1
 800ac0c:	4611      	mov	r1, r2
 800ac0e:	2200      	movs	r2, #0
 800ac10:	602a      	str	r2, [r5, #0]
 800ac12:	461a      	mov	r2, r3
 800ac14:	f7fa fa59 	bl	80050ca <_write>
 800ac18:	1c43      	adds	r3, r0, #1
 800ac1a:	d102      	bne.n	800ac22 <_write_r+0x1e>
 800ac1c:	682b      	ldr	r3, [r5, #0]
 800ac1e:	b103      	cbz	r3, 800ac22 <_write_r+0x1e>
 800ac20:	6023      	str	r3, [r4, #0]
 800ac22:	bd38      	pop	{r3, r4, r5, pc}
 800ac24:	20002038 	.word	0x20002038

0800ac28 <_close_r>:
 800ac28:	b538      	push	{r3, r4, r5, lr}
 800ac2a:	4d06      	ldr	r5, [pc, #24]	; (800ac44 <_close_r+0x1c>)
 800ac2c:	2300      	movs	r3, #0
 800ac2e:	4604      	mov	r4, r0
 800ac30:	4608      	mov	r0, r1
 800ac32:	602b      	str	r3, [r5, #0]
 800ac34:	f7fa fa56 	bl	80050e4 <_close>
 800ac38:	1c43      	adds	r3, r0, #1
 800ac3a:	d102      	bne.n	800ac42 <_close_r+0x1a>
 800ac3c:	682b      	ldr	r3, [r5, #0]
 800ac3e:	b103      	cbz	r3, 800ac42 <_close_r+0x1a>
 800ac40:	6023      	str	r3, [r4, #0]
 800ac42:	bd38      	pop	{r3, r4, r5, pc}
 800ac44:	20002038 	.word	0x20002038

0800ac48 <quorem>:
 800ac48:	e92d 4ff7 	stmdb	sp!, {r0, r1, r2, r4, r5, r6, r7, r8, r9, sl, fp, lr}
 800ac4c:	6903      	ldr	r3, [r0, #16]
 800ac4e:	690c      	ldr	r4, [r1, #16]
 800ac50:	42a3      	cmp	r3, r4
 800ac52:	4607      	mov	r7, r0
 800ac54:	f2c0 8081 	blt.w	800ad5a <quorem+0x112>
 800ac58:	3c01      	subs	r4, #1
 800ac5a:	f101 0814 	add.w	r8, r1, #20
 800ac5e:	f100 0514 	add.w	r5, r0, #20
 800ac62:	eb05 0384 	add.w	r3, r5, r4, lsl #2
 800ac66:	9301      	str	r3, [sp, #4]
 800ac68:	f858 3024 	ldr.w	r3, [r8, r4, lsl #2]
 800ac6c:	f855 2024 	ldr.w	r2, [r5, r4, lsl #2]
 800ac70:	3301      	adds	r3, #1
 800ac72:	429a      	cmp	r2, r3
 800ac74:	ea4f 0b84 	mov.w	fp, r4, lsl #2
 800ac78:	eb08 0984 	add.w	r9, r8, r4, lsl #2
 800ac7c:	fbb2 f6f3 	udiv	r6, r2, r3
 800ac80:	d331      	bcc.n	800ace6 <quorem+0x9e>
 800ac82:	f04f 0e00 	mov.w	lr, #0
 800ac86:	4640      	mov	r0, r8
 800ac88:	46ac      	mov	ip, r5
 800ac8a:	46f2      	mov	sl, lr
 800ac8c:	f850 2b04 	ldr.w	r2, [r0], #4
 800ac90:	b293      	uxth	r3, r2
 800ac92:	fb06 e303 	mla	r3, r6, r3, lr
 800ac96:	ea4f 4e13 	mov.w	lr, r3, lsr #16
 800ac9a:	b29b      	uxth	r3, r3
 800ac9c:	ebaa 0303 	sub.w	r3, sl, r3
 800aca0:	0c12      	lsrs	r2, r2, #16
 800aca2:	f8dc a000 	ldr.w	sl, [ip]
 800aca6:	fb06 e202 	mla	r2, r6, r2, lr
 800acaa:	fa13 f38a 	uxtah	r3, r3, sl
 800acae:	ea4f 4e12 	mov.w	lr, r2, lsr #16
 800acb2:	fa1f fa82 	uxth.w	sl, r2
 800acb6:	f8dc 2000 	ldr.w	r2, [ip]
 800acba:	ebca 4212 	rsb	r2, sl, r2, lsr #16
 800acbe:	eb02 4223 	add.w	r2, r2, r3, asr #16
 800acc2:	b29b      	uxth	r3, r3
 800acc4:	ea43 4302 	orr.w	r3, r3, r2, lsl #16
 800acc8:	4581      	cmp	r9, r0
 800acca:	f84c 3b04 	str.w	r3, [ip], #4
 800acce:	ea4f 4a22 	mov.w	sl, r2, asr #16
 800acd2:	d2db      	bcs.n	800ac8c <quorem+0x44>
 800acd4:	f855 300b 	ldr.w	r3, [r5, fp]
 800acd8:	b92b      	cbnz	r3, 800ace6 <quorem+0x9e>
 800acda:	9b01      	ldr	r3, [sp, #4]
 800acdc:	3b04      	subs	r3, #4
 800acde:	429d      	cmp	r5, r3
 800ace0:	461a      	mov	r2, r3
 800ace2:	d32e      	bcc.n	800ad42 <quorem+0xfa>
 800ace4:	613c      	str	r4, [r7, #16]
 800ace6:	4638      	mov	r0, r7
 800ace8:	f001 fc8e 	bl	800c608 <__mcmp>
 800acec:	2800      	cmp	r0, #0
 800acee:	db24      	blt.n	800ad3a <quorem+0xf2>
 800acf0:	3601      	adds	r6, #1
 800acf2:	4628      	mov	r0, r5
 800acf4:	f04f 0c00 	mov.w	ip, #0
 800acf8:	f858 2b04 	ldr.w	r2, [r8], #4
 800acfc:	f8d0 e000 	ldr.w	lr, [r0]
 800ad00:	b293      	uxth	r3, r2
 800ad02:	ebac 0303 	sub.w	r3, ip, r3
 800ad06:	0c12      	lsrs	r2, r2, #16
 800ad08:	fa13 f38e 	uxtah	r3, r3, lr
 800ad0c:	ebc2 421e 	rsb	r2, r2, lr, lsr #16
 800ad10:	eb02 4223 	add.w	r2, r2, r3, asr #16
 800ad14:	b29b      	uxth	r3, r3
 800ad16:	ea43 4302 	orr.w	r3, r3, r2, lsl #16
 800ad1a:	45c1      	cmp	r9, r8
 800ad1c:	f840 3b04 	str.w	r3, [r0], #4
 800ad20:	ea4f 4c22 	mov.w	ip, r2, asr #16
 800ad24:	d2e8      	bcs.n	800acf8 <quorem+0xb0>
 800ad26:	f855 2024 	ldr.w	r2, [r5, r4, lsl #2]
 800ad2a:	eb05 0384 	add.w	r3, r5, r4, lsl #2
 800ad2e:	b922      	cbnz	r2, 800ad3a <quorem+0xf2>
 800ad30:	3b04      	subs	r3, #4
 800ad32:	429d      	cmp	r5, r3
 800ad34:	461a      	mov	r2, r3
 800ad36:	d30a      	bcc.n	800ad4e <quorem+0x106>
 800ad38:	613c      	str	r4, [r7, #16]
 800ad3a:	4630      	mov	r0, r6
 800ad3c:	b003      	add	sp, #12
 800ad3e:	e8bd 8ff0 	ldmia.w	sp!, {r4, r5, r6, r7, r8, r9, sl, fp, pc}
 800ad42:	6812      	ldr	r2, [r2, #0]
 800ad44:	3b04      	subs	r3, #4
 800ad46:	2a00      	cmp	r2, #0
 800ad48:	d1cc      	bne.n	800ace4 <quorem+0x9c>
 800ad4a:	3c01      	subs	r4, #1
 800ad4c:	e7c7      	b.n	800acde <quorem+0x96>
 800ad4e:	6812      	ldr	r2, [r2, #0]
 800ad50:	3b04      	subs	r3, #4
 800ad52:	2a00      	cmp	r2, #0
 800ad54:	d1f0      	bne.n	800ad38 <quorem+0xf0>
 800ad56:	3c01      	subs	r4, #1
 800ad58:	e7eb      	b.n	800ad32 <quorem+0xea>
 800ad5a:	2000      	movs	r0, #0
 800ad5c:	e7ee      	b.n	800ad3c <quorem+0xf4>
	...

0800ad60 <_dtoa_r>:
 800ad60:	e92d 4ff0 	stmdb	sp!, {r4, r5, r6, r7, r8, r9, sl, fp, lr}
 800ad64:	ed2d 8b02 	vpush	{d8}
 800ad68:	ec57 6b10 	vmov	r6, r7, d0
 800ad6c:	b095      	sub	sp, #84	; 0x54
 800ad6e:	6a45      	ldr	r5, [r0, #36]	; 0x24
 800ad70:	f8dd 8080 	ldr.w	r8, [sp, #128]	; 0x80
 800ad74:	9105      	str	r1, [sp, #20]
 800ad76:	e9cd 6702 	strd	r6, r7, [sp, #8]
 800ad7a:	4604      	mov	r4, r0
 800ad7c:	9209      	str	r2, [sp, #36]	; 0x24
 800ad7e:	930f      	str	r3, [sp, #60]	; 0x3c
 800ad80:	b975      	cbnz	r5, 800ada0 <_dtoa_r+0x40>
 800ad82:	2010      	movs	r0, #16
 800ad84:	f001 f95e 	bl	800c044 <malloc>
 800ad88:	4602      	mov	r2, r0
 800ad8a:	6260      	str	r0, [r4, #36]	; 0x24
 800ad8c:	b920      	cbnz	r0, 800ad98 <_dtoa_r+0x38>
 800ad8e:	4bb2      	ldr	r3, [pc, #712]	; (800b058 <_dtoa_r+0x2f8>)
 800ad90:	21ea      	movs	r1, #234	; 0xea
 800ad92:	48b2      	ldr	r0, [pc, #712]	; (800b05c <_dtoa_r+0x2fc>)
 800ad94:	f002 fc88 	bl	800d6a8 <__assert_func>
 800ad98:	e9c0 5501 	strd	r5, r5, [r0, #4]
 800ad9c:	6005      	str	r5, [r0, #0]
 800ad9e:	60c5      	str	r5, [r0, #12]
 800ada0:	6a63      	ldr	r3, [r4, #36]	; 0x24
 800ada2:	6819      	ldr	r1, [r3, #0]
 800ada4:	b151      	cbz	r1, 800adbc <_dtoa_r+0x5c>
 800ada6:	685a      	ldr	r2, [r3, #4]
 800ada8:	604a      	str	r2, [r1, #4]
 800adaa:	2301      	movs	r3, #1
 800adac:	4093      	lsls	r3, r2
 800adae:	608b      	str	r3, [r1, #8]
 800adb0:	4620      	mov	r0, r4
 800adb2:	f001 f9a1 	bl	800c0f8 <_Bfree>
 800adb6:	6a63      	ldr	r3, [r4, #36]	; 0x24
 800adb8:	2200      	movs	r2, #0
 800adba:	601a      	str	r2, [r3, #0]
 800adbc:	1e3b      	subs	r3, r7, #0
 800adbe:	bfb9      	ittee	lt
 800adc0:	f023 4300 	biclt.w	r3, r3, #2147483648	; 0x80000000
 800adc4:	9303      	strlt	r3, [sp, #12]
 800adc6:	2300      	movge	r3, #0
 800adc8:	f8c8 3000 	strge.w	r3, [r8]
 800adcc:	f8dd 900c 	ldr.w	r9, [sp, #12]
 800add0:	4ba3      	ldr	r3, [pc, #652]	; (800b060 <_dtoa_r+0x300>)
 800add2:	bfbc      	itt	lt
 800add4:	2201      	movlt	r2, #1
 800add6:	f8c8 2000 	strlt.w	r2, [r8]
 800adda:	ea33 0309 	bics.w	r3, r3, r9
 800adde:	d11b      	bne.n	800ae18 <_dtoa_r+0xb8>
 800ade0:	9a0f      	ldr	r2, [sp, #60]	; 0x3c
 800ade2:	f242 730f 	movw	r3, #9999	; 0x270f
 800ade6:	6013      	str	r3, [r2, #0]
 800ade8:	f3c9 0313 	ubfx	r3, r9, #0, #20
 800adec:	4333      	orrs	r3, r6
 800adee:	f000 857a 	beq.w	800b8e6 <_dtoa_r+0xb86>
 800adf2:	9b21      	ldr	r3, [sp, #132]	; 0x84
 800adf4:	b963      	cbnz	r3, 800ae10 <_dtoa_r+0xb0>
 800adf6:	4b9b      	ldr	r3, [pc, #620]	; (800b064 <_dtoa_r+0x304>)
 800adf8:	e024      	b.n	800ae44 <_dtoa_r+0xe4>
 800adfa:	4b9b      	ldr	r3, [pc, #620]	; (800b068 <_dtoa_r+0x308>)
 800adfc:	9300      	str	r3, [sp, #0]
 800adfe:	3308      	adds	r3, #8
 800ae00:	9a21      	ldr	r2, [sp, #132]	; 0x84
 800ae02:	6013      	str	r3, [r2, #0]
 800ae04:	9800      	ldr	r0, [sp, #0]
 800ae06:	b015      	add	sp, #84	; 0x54
 800ae08:	ecbd 8b02 	vpop	{d8}
 800ae0c:	e8bd 8ff0 	ldmia.w	sp!, {r4, r5, r6, r7, r8, r9, sl, fp, pc}
 800ae10:	4b94      	ldr	r3, [pc, #592]	; (800b064 <_dtoa_r+0x304>)
 800ae12:	9300      	str	r3, [sp, #0]
 800ae14:	3303      	adds	r3, #3
 800ae16:	e7f3      	b.n	800ae00 <_dtoa_r+0xa0>
 800ae18:	ed9d 7b02 	vldr	d7, [sp, #8]
 800ae1c:	2200      	movs	r2, #0
 800ae1e:	ec51 0b17 	vmov	r0, r1, d7
 800ae22:	2300      	movs	r3, #0
 800ae24:	ed8d 7b0a 	vstr	d7, [sp, #40]	; 0x28
 800ae28:	f7f5 fe5e 	bl	8000ae8 <__aeabi_dcmpeq>
 800ae2c:	4680      	mov	r8, r0
 800ae2e:	b158      	cbz	r0, 800ae48 <_dtoa_r+0xe8>
 800ae30:	9a0f      	ldr	r2, [sp, #60]	; 0x3c
 800ae32:	2301      	movs	r3, #1
 800ae34:	6013      	str	r3, [r2, #0]
 800ae36:	9b21      	ldr	r3, [sp, #132]	; 0x84
 800ae38:	2b00      	cmp	r3, #0
 800ae3a:	f000 8551 	beq.w	800b8e0 <_dtoa_r+0xb80>
 800ae3e:	488b      	ldr	r0, [pc, #556]	; (800b06c <_dtoa_r+0x30c>)
 800ae40:	6018      	str	r0, [r3, #0]
 800ae42:	1e43      	subs	r3, r0, #1
 800ae44:	9300      	str	r3, [sp, #0]
 800ae46:	e7dd      	b.n	800ae04 <_dtoa_r+0xa4>
 800ae48:	ed9d 0b0a 	vldr	d0, [sp, #40]	; 0x28
 800ae4c:	aa12      	add	r2, sp, #72	; 0x48
 800ae4e:	a913      	add	r1, sp, #76	; 0x4c
 800ae50:	4620      	mov	r0, r4
 800ae52:	f001 fcf9 	bl	800c848 <__d2b>
 800ae56:	f3c9 550a 	ubfx	r5, r9, #20, #11
 800ae5a:	4683      	mov	fp, r0
 800ae5c:	2d00      	cmp	r5, #0
 800ae5e:	d07c      	beq.n	800af5a <_dtoa_r+0x1fa>
 800ae60:	9b0b      	ldr	r3, [sp, #44]	; 0x2c
 800ae62:	f8cd 8040 	str.w	r8, [sp, #64]	; 0x40
 800ae66:	f3c3 0313 	ubfx	r3, r3, #0, #20
 800ae6a:	e9dd 670a 	ldrd	r6, r7, [sp, #40]	; 0x28
 800ae6e:	f043 577f 	orr.w	r7, r3, #1069547520	; 0x3fc00000
 800ae72:	f447 1740 	orr.w	r7, r7, #3145728	; 0x300000
 800ae76:	f2a5 35ff 	subw	r5, r5, #1023	; 0x3ff
 800ae7a:	4b7d      	ldr	r3, [pc, #500]	; (800b070 <_dtoa_r+0x310>)
 800ae7c:	2200      	movs	r2, #0
 800ae7e:	4630      	mov	r0, r6
 800ae80:	4639      	mov	r1, r7
 800ae82:	f7f5 fa11 	bl	80002a8 <__aeabi_dsub>
 800ae86:	a36e      	add	r3, pc, #440	; (adr r3, 800b040 <_dtoa_r+0x2e0>)
 800ae88:	e9d3 2300 	ldrd	r2, r3, [r3]
 800ae8c:	f7f5 fbc4 	bl	8000618 <__aeabi_dmul>
 800ae90:	a36d      	add	r3, pc, #436	; (adr r3, 800b048 <_dtoa_r+0x2e8>)
 800ae92:	e9d3 2300 	ldrd	r2, r3, [r3]
 800ae96:	f7f5 fa09 	bl	80002ac <__adddf3>
 800ae9a:	4606      	mov	r6, r0
 800ae9c:	4628      	mov	r0, r5
 800ae9e:	460f      	mov	r7, r1
 800aea0:	f7f5 fb50 	bl	8000544 <__aeabi_i2d>
 800aea4:	a36a      	add	r3, pc, #424	; (adr r3, 800b050 <_dtoa_r+0x2f0>)
 800aea6:	e9d3 2300 	ldrd	r2, r3, [r3]
 800aeaa:	f7f5 fbb5 	bl	8000618 <__aeabi_dmul>
 800aeae:	4602      	mov	r2, r0
 800aeb0:	460b      	mov	r3, r1
 800aeb2:	4630      	mov	r0, r6
 800aeb4:	4639      	mov	r1, r7
 800aeb6:	f7f5 f9f9 	bl	80002ac <__adddf3>
 800aeba:	4606      	mov	r6, r0
 800aebc:	460f      	mov	r7, r1
 800aebe:	f7f5 fe5b 	bl	8000b78 <__aeabi_d2iz>
 800aec2:	2200      	movs	r2, #0
 800aec4:	4682      	mov	sl, r0
 800aec6:	2300      	movs	r3, #0
 800aec8:	4630      	mov	r0, r6
 800aeca:	4639      	mov	r1, r7
 800aecc:	f7f5 fe16 	bl	8000afc <__aeabi_dcmplt>
 800aed0:	b148      	cbz	r0, 800aee6 <_dtoa_r+0x186>
 800aed2:	4650      	mov	r0, sl
 800aed4:	f7f5 fb36 	bl	8000544 <__aeabi_i2d>
 800aed8:	4632      	mov	r2, r6
 800aeda:	463b      	mov	r3, r7
 800aedc:	f7f5 fe04 	bl	8000ae8 <__aeabi_dcmpeq>
 800aee0:	b908      	cbnz	r0, 800aee6 <_dtoa_r+0x186>
 800aee2:	f10a 3aff 	add.w	sl, sl, #4294967295
 800aee6:	f1ba 0f16 	cmp.w	sl, #22
 800aeea:	d854      	bhi.n	800af96 <_dtoa_r+0x236>
 800aeec:	4b61      	ldr	r3, [pc, #388]	; (800b074 <_dtoa_r+0x314>)
 800aeee:	eb03 03ca 	add.w	r3, r3, sl, lsl #3
 800aef2:	e9d3 2300 	ldrd	r2, r3, [r3]
 800aef6:	e9dd 010a 	ldrd	r0, r1, [sp, #40]	; 0x28
 800aefa:	f7f5 fdff 	bl	8000afc <__aeabi_dcmplt>
 800aefe:	2800      	cmp	r0, #0
 800af00:	d04b      	beq.n	800af9a <_dtoa_r+0x23a>
 800af02:	f10a 3aff 	add.w	sl, sl, #4294967295
 800af06:	2300      	movs	r3, #0
 800af08:	930e      	str	r3, [sp, #56]	; 0x38
 800af0a:	9b12      	ldr	r3, [sp, #72]	; 0x48
 800af0c:	1b5d      	subs	r5, r3, r5
 800af0e:	1e6b      	subs	r3, r5, #1
 800af10:	9304      	str	r3, [sp, #16]
 800af12:	bf43      	ittte	mi
 800af14:	2300      	movmi	r3, #0
 800af16:	f1c5 0801 	rsbmi	r8, r5, #1
 800af1a:	9304      	strmi	r3, [sp, #16]
 800af1c:	f04f 0800 	movpl.w	r8, #0
 800af20:	f1ba 0f00 	cmp.w	sl, #0
 800af24:	db3b      	blt.n	800af9e <_dtoa_r+0x23e>
 800af26:	9b04      	ldr	r3, [sp, #16]
 800af28:	f8cd a034 	str.w	sl, [sp, #52]	; 0x34
 800af2c:	4453      	add	r3, sl
 800af2e:	9304      	str	r3, [sp, #16]
 800af30:	2300      	movs	r3, #0
 800af32:	9306      	str	r3, [sp, #24]
 800af34:	9b05      	ldr	r3, [sp, #20]
 800af36:	2b09      	cmp	r3, #9
 800af38:	d869      	bhi.n	800b00e <_dtoa_r+0x2ae>
 800af3a:	2b05      	cmp	r3, #5
 800af3c:	bfc4      	itt	gt
 800af3e:	3b04      	subgt	r3, #4
 800af40:	9305      	strgt	r3, [sp, #20]
 800af42:	9b05      	ldr	r3, [sp, #20]
 800af44:	f1a3 0302 	sub.w	r3, r3, #2
 800af48:	bfcc      	ite	gt
 800af4a:	2500      	movgt	r5, #0
 800af4c:	2501      	movle	r5, #1
 800af4e:	2b03      	cmp	r3, #3
 800af50:	d869      	bhi.n	800b026 <_dtoa_r+0x2c6>
 800af52:	e8df f003 	tbb	[pc, r3]
 800af56:	4e2c      	.short	0x4e2c
 800af58:	5a4c      	.short	0x5a4c
 800af5a:	e9dd 5312 	ldrd	r5, r3, [sp, #72]	; 0x48
 800af5e:	441d      	add	r5, r3
 800af60:	f205 4332 	addw	r3, r5, #1074	; 0x432
 800af64:	2b20      	cmp	r3, #32
 800af66:	bfc1      	itttt	gt
 800af68:	f1c3 0340 	rsbgt	r3, r3, #64	; 0x40
 800af6c:	f205 4012 	addwgt	r0, r5, #1042	; 0x412
 800af70:	fa09 f303 	lslgt.w	r3, r9, r3
 800af74:	fa26 f000 	lsrgt.w	r0, r6, r0
 800af78:	bfda      	itte	le
 800af7a:	f1c3 0320 	rsble	r3, r3, #32
 800af7e:	fa06 f003 	lslle.w	r0, r6, r3
 800af82:	4318      	orrgt	r0, r3
 800af84:	f7f5 face 	bl	8000524 <__aeabi_ui2d>
 800af88:	2301      	movs	r3, #1
 800af8a:	4606      	mov	r6, r0
 800af8c:	f1a1 77f8 	sub.w	r7, r1, #32505856	; 0x1f00000
 800af90:	3d01      	subs	r5, #1
 800af92:	9310      	str	r3, [sp, #64]	; 0x40
 800af94:	e771      	b.n	800ae7a <_dtoa_r+0x11a>
 800af96:	2301      	movs	r3, #1
 800af98:	e7b6      	b.n	800af08 <_dtoa_r+0x1a8>
 800af9a:	900e      	str	r0, [sp, #56]	; 0x38
 800af9c:	e7b5      	b.n	800af0a <_dtoa_r+0x1aa>
 800af9e:	f1ca 0300 	rsb	r3, sl, #0
 800afa2:	9306      	str	r3, [sp, #24]
 800afa4:	2300      	movs	r3, #0
 800afa6:	eba8 080a 	sub.w	r8, r8, sl
 800afaa:	930d      	str	r3, [sp, #52]	; 0x34
 800afac:	e7c2      	b.n	800af34 <_dtoa_r+0x1d4>
 800afae:	2300      	movs	r3, #0
 800afb0:	9308      	str	r3, [sp, #32]
 800afb2:	9b09      	ldr	r3, [sp, #36]	; 0x24
 800afb4:	2b00      	cmp	r3, #0
 800afb6:	dc39      	bgt.n	800b02c <_dtoa_r+0x2cc>
 800afb8:	f04f 0901 	mov.w	r9, #1
 800afbc:	f8cd 9004 	str.w	r9, [sp, #4]
 800afc0:	464b      	mov	r3, r9
 800afc2:	f8cd 9024 	str.w	r9, [sp, #36]	; 0x24
 800afc6:	6a60      	ldr	r0, [r4, #36]	; 0x24
 800afc8:	2200      	movs	r2, #0
 800afca:	6042      	str	r2, [r0, #4]
 800afcc:	2204      	movs	r2, #4
 800afce:	f102 0614 	add.w	r6, r2, #20
 800afd2:	429e      	cmp	r6, r3
 800afd4:	6841      	ldr	r1, [r0, #4]
 800afd6:	d92f      	bls.n	800b038 <_dtoa_r+0x2d8>
 800afd8:	4620      	mov	r0, r4
 800afda:	f001 f84d 	bl	800c078 <_Balloc>
 800afde:	9000      	str	r0, [sp, #0]
 800afe0:	2800      	cmp	r0, #0
 800afe2:	d14b      	bne.n	800b07c <_dtoa_r+0x31c>
 800afe4:	4b24      	ldr	r3, [pc, #144]	; (800b078 <_dtoa_r+0x318>)
 800afe6:	4602      	mov	r2, r0
 800afe8:	f44f 71d5 	mov.w	r1, #426	; 0x1aa
 800afec:	e6d1      	b.n	800ad92 <_dtoa_r+0x32>
 800afee:	2301      	movs	r3, #1
 800aff0:	e7de      	b.n	800afb0 <_dtoa_r+0x250>
 800aff2:	2300      	movs	r3, #0
 800aff4:	9308      	str	r3, [sp, #32]
 800aff6:	9b09      	ldr	r3, [sp, #36]	; 0x24
 800aff8:	eb0a 0903 	add.w	r9, sl, r3
 800affc:	f109 0301 	add.w	r3, r9, #1
 800b000:	2b01      	cmp	r3, #1
 800b002:	9301      	str	r3, [sp, #4]
 800b004:	bfb8      	it	lt
 800b006:	2301      	movlt	r3, #1
 800b008:	e7dd      	b.n	800afc6 <_dtoa_r+0x266>
 800b00a:	2301      	movs	r3, #1
 800b00c:	e7f2      	b.n	800aff4 <_dtoa_r+0x294>
 800b00e:	2501      	movs	r5, #1
 800b010:	2300      	movs	r3, #0
 800b012:	9305      	str	r3, [sp, #20]
 800b014:	9508      	str	r5, [sp, #32]
 800b016:	f04f 39ff 	mov.w	r9, #4294967295
 800b01a:	2200      	movs	r2, #0
 800b01c:	f8cd 9004 	str.w	r9, [sp, #4]
 800b020:	2312      	movs	r3, #18
 800b022:	9209      	str	r2, [sp, #36]	; 0x24
 800b024:	e7cf      	b.n	800afc6 <_dtoa_r+0x266>
 800b026:	2301      	movs	r3, #1
 800b028:	9308      	str	r3, [sp, #32]
 800b02a:	e7f4      	b.n	800b016 <_dtoa_r+0x2b6>
 800b02c:	f8dd 9024 	ldr.w	r9, [sp, #36]	; 0x24
 800b030:	f8cd 9004 	str.w	r9, [sp, #4]
 800b034:	464b      	mov	r3, r9
 800b036:	e7c6      	b.n	800afc6 <_dtoa_r+0x266>
 800b038:	3101      	adds	r1, #1
 800b03a:	6041      	str	r1, [r0, #4]
 800b03c:	0052      	lsls	r2, r2, #1
 800b03e:	e7c6      	b.n	800afce <_dtoa_r+0x26e>
 800b040:	636f4361 	.word	0x636f4361
 800b044:	3fd287a7 	.word	0x3fd287a7
 800b048:	8b60c8b3 	.word	0x8b60c8b3
 800b04c:	3fc68a28 	.word	0x3fc68a28
 800b050:	509f79fb 	.word	0x509f79fb
 800b054:	3fd34413 	.word	0x3fd34413
 800b058:	0800fc75 	.word	0x0800fc75
 800b05c:	0800fc8c 	.word	0x0800fc8c
 800b060:	7ff00000 	.word	0x7ff00000
 800b064:	0800fc71 	.word	0x0800fc71
 800b068:	0800fc68 	.word	0x0800fc68
 800b06c:	0800fef2 	.word	0x0800fef2
 800b070:	3ff80000 	.word	0x3ff80000
 800b074:	0800fe08 	.word	0x0800fe08
 800b078:	0800fceb 	.word	0x0800fceb
 800b07c:	6a63      	ldr	r3, [r4, #36]	; 0x24
 800b07e:	9a00      	ldr	r2, [sp, #0]
 800b080:	601a      	str	r2, [r3, #0]
 800b082:	9b01      	ldr	r3, [sp, #4]
 800b084:	2b0e      	cmp	r3, #14
 800b086:	f200 80ad 	bhi.w	800b1e4 <_dtoa_r+0x484>
 800b08a:	2d00      	cmp	r5, #0
 800b08c:	f000 80aa 	beq.w	800b1e4 <_dtoa_r+0x484>
 800b090:	f1ba 0f00 	cmp.w	sl, #0
 800b094:	dd36      	ble.n	800b104 <_dtoa_r+0x3a4>
 800b096:	4ac3      	ldr	r2, [pc, #780]	; (800b3a4 <_dtoa_r+0x644>)
 800b098:	f00a 030f 	and.w	r3, sl, #15
 800b09c:	eb02 03c3 	add.w	r3, r2, r3, lsl #3
 800b0a0:	ed93 7b00 	vldr	d7, [r3]
 800b0a4:	f41a 7f80 	tst.w	sl, #256	; 0x100
 800b0a8:	ea4f 172a 	mov.w	r7, sl, asr #4
 800b0ac:	eeb0 8a47 	vmov.f32	s16, s14
 800b0b0:	eef0 8a67 	vmov.f32	s17, s15
 800b0b4:	d016      	beq.n	800b0e4 <_dtoa_r+0x384>
 800b0b6:	4bbc      	ldr	r3, [pc, #752]	; (800b3a8 <_dtoa_r+0x648>)
 800b0b8:	e9dd 010a 	ldrd	r0, r1, [sp, #40]	; 0x28
 800b0bc:	e9d3 2308 	ldrd	r2, r3, [r3, #32]
 800b0c0:	f7f5 fbd4 	bl	800086c <__aeabi_ddiv>
 800b0c4:	e9cd 0102 	strd	r0, r1, [sp, #8]
 800b0c8:	f007 070f 	and.w	r7, r7, #15
 800b0cc:	2503      	movs	r5, #3
 800b0ce:	4eb6      	ldr	r6, [pc, #728]	; (800b3a8 <_dtoa_r+0x648>)
 800b0d0:	b957      	cbnz	r7, 800b0e8 <_dtoa_r+0x388>
 800b0d2:	e9dd 0102 	ldrd	r0, r1, [sp, #8]
 800b0d6:	ec53 2b18 	vmov	r2, r3, d8
 800b0da:	f7f5 fbc7 	bl	800086c <__aeabi_ddiv>
 800b0de:	e9cd 0102 	strd	r0, r1, [sp, #8]
 800b0e2:	e029      	b.n	800b138 <_dtoa_r+0x3d8>
 800b0e4:	2502      	movs	r5, #2
 800b0e6:	e7f2      	b.n	800b0ce <_dtoa_r+0x36e>
 800b0e8:	07f9      	lsls	r1, r7, #31
 800b0ea:	d508      	bpl.n	800b0fe <_dtoa_r+0x39e>
 800b0ec:	ec51 0b18 	vmov	r0, r1, d8
 800b0f0:	e9d6 2300 	ldrd	r2, r3, [r6]
 800b0f4:	f7f5 fa90 	bl	8000618 <__aeabi_dmul>
 800b0f8:	ec41 0b18 	vmov	d8, r0, r1
 800b0fc:	3501      	adds	r5, #1
 800b0fe:	107f      	asrs	r7, r7, #1
 800b100:	3608      	adds	r6, #8
 800b102:	e7e5      	b.n	800b0d0 <_dtoa_r+0x370>
 800b104:	f000 80a6 	beq.w	800b254 <_dtoa_r+0x4f4>
 800b108:	f1ca 0600 	rsb	r6, sl, #0
 800b10c:	4ba5      	ldr	r3, [pc, #660]	; (800b3a4 <_dtoa_r+0x644>)
 800b10e:	4fa6      	ldr	r7, [pc, #664]	; (800b3a8 <_dtoa_r+0x648>)
 800b110:	f006 020f 	and.w	r2, r6, #15
 800b114:	eb03 03c2 	add.w	r3, r3, r2, lsl #3
 800b118:	e9d3 2300 	ldrd	r2, r3, [r3]
 800b11c:	e9dd 010a 	ldrd	r0, r1, [sp, #40]	; 0x28
 800b120:	f7f5 fa7a 	bl	8000618 <__aeabi_dmul>
 800b124:	e9cd 0102 	strd	r0, r1, [sp, #8]
 800b128:	1136      	asrs	r6, r6, #4
 800b12a:	2300      	movs	r3, #0
 800b12c:	2502      	movs	r5, #2
 800b12e:	2e00      	cmp	r6, #0
 800b130:	f040 8085 	bne.w	800b23e <_dtoa_r+0x4de>
 800b134:	2b00      	cmp	r3, #0
 800b136:	d1d2      	bne.n	800b0de <_dtoa_r+0x37e>
 800b138:	9b0e      	ldr	r3, [sp, #56]	; 0x38
 800b13a:	2b00      	cmp	r3, #0
 800b13c:	f000 808c 	beq.w	800b258 <_dtoa_r+0x4f8>
 800b140:	e9dd 6702 	ldrd	r6, r7, [sp, #8]
 800b144:	4b99      	ldr	r3, [pc, #612]	; (800b3ac <_dtoa_r+0x64c>)
 800b146:	2200      	movs	r2, #0
 800b148:	4630      	mov	r0, r6
 800b14a:	4639      	mov	r1, r7
 800b14c:	f7f5 fcd6 	bl	8000afc <__aeabi_dcmplt>
 800b150:	2800      	cmp	r0, #0
 800b152:	f000 8081 	beq.w	800b258 <_dtoa_r+0x4f8>
 800b156:	9b01      	ldr	r3, [sp, #4]
 800b158:	2b00      	cmp	r3, #0
 800b15a:	d07d      	beq.n	800b258 <_dtoa_r+0x4f8>
 800b15c:	f1b9 0f00 	cmp.w	r9, #0
 800b160:	dd3c      	ble.n	800b1dc <_dtoa_r+0x47c>
 800b162:	f10a 33ff 	add.w	r3, sl, #4294967295
 800b166:	9307      	str	r3, [sp, #28]
 800b168:	2200      	movs	r2, #0
 800b16a:	4b91      	ldr	r3, [pc, #580]	; (800b3b0 <_dtoa_r+0x650>)
 800b16c:	4630      	mov	r0, r6
 800b16e:	4639      	mov	r1, r7
 800b170:	f7f5 fa52 	bl	8000618 <__aeabi_dmul>
 800b174:	e9cd 0102 	strd	r0, r1, [sp, #8]
 800b178:	3501      	adds	r5, #1
 800b17a:	f8cd 9030 	str.w	r9, [sp, #48]	; 0x30
 800b17e:	e9dd 6702 	ldrd	r6, r7, [sp, #8]
 800b182:	4628      	mov	r0, r5
 800b184:	f7f5 f9de 	bl	8000544 <__aeabi_i2d>
 800b188:	4632      	mov	r2, r6
 800b18a:	463b      	mov	r3, r7
 800b18c:	f7f5 fa44 	bl	8000618 <__aeabi_dmul>
 800b190:	4b88      	ldr	r3, [pc, #544]	; (800b3b4 <_dtoa_r+0x654>)
 800b192:	2200      	movs	r2, #0
 800b194:	f7f5 f88a 	bl	80002ac <__adddf3>
 800b198:	f1a1 7350 	sub.w	r3, r1, #54525952	; 0x3400000
 800b19c:	e9cd 0102 	strd	r0, r1, [sp, #8]
 800b1a0:	9303      	str	r3, [sp, #12]
 800b1a2:	9b0c      	ldr	r3, [sp, #48]	; 0x30
 800b1a4:	2b00      	cmp	r3, #0
 800b1a6:	d15c      	bne.n	800b262 <_dtoa_r+0x502>
 800b1a8:	4b83      	ldr	r3, [pc, #524]	; (800b3b8 <_dtoa_r+0x658>)
 800b1aa:	2200      	movs	r2, #0
 800b1ac:	4630      	mov	r0, r6
 800b1ae:	4639      	mov	r1, r7
 800b1b0:	f7f5 f87a 	bl	80002a8 <__aeabi_dsub>
 800b1b4:	e9dd 2302 	ldrd	r2, r3, [sp, #8]
 800b1b8:	4606      	mov	r6, r0
 800b1ba:	460f      	mov	r7, r1
 800b1bc:	f7f5 fcbc 	bl	8000b38 <__aeabi_dcmpgt>
 800b1c0:	2800      	cmp	r0, #0
 800b1c2:	f040 8296 	bne.w	800b6f2 <_dtoa_r+0x992>
 800b1c6:	e9dd 2102 	ldrd	r2, r1, [sp, #8]
 800b1ca:	4630      	mov	r0, r6
 800b1cc:	f101 4300 	add.w	r3, r1, #2147483648	; 0x80000000
 800b1d0:	4639      	mov	r1, r7
 800b1d2:	f7f5 fc93 	bl	8000afc <__aeabi_dcmplt>
 800b1d6:	2800      	cmp	r0, #0
 800b1d8:	f040 8288 	bne.w	800b6ec <_dtoa_r+0x98c>
 800b1dc:	e9dd 230a 	ldrd	r2, r3, [sp, #40]	; 0x28
 800b1e0:	e9cd 2302 	strd	r2, r3, [sp, #8]
 800b1e4:	9b13      	ldr	r3, [sp, #76]	; 0x4c
 800b1e6:	2b00      	cmp	r3, #0
 800b1e8:	f2c0 8158 	blt.w	800b49c <_dtoa_r+0x73c>
 800b1ec:	f1ba 0f0e 	cmp.w	sl, #14
 800b1f0:	f300 8154 	bgt.w	800b49c <_dtoa_r+0x73c>
 800b1f4:	4b6b      	ldr	r3, [pc, #428]	; (800b3a4 <_dtoa_r+0x644>)
 800b1f6:	eb03 03ca 	add.w	r3, r3, sl, lsl #3
 800b1fa:	e9d3 8900 	ldrd	r8, r9, [r3]
 800b1fe:	9b09      	ldr	r3, [sp, #36]	; 0x24
 800b200:	2b00      	cmp	r3, #0
 800b202:	f280 80e3 	bge.w	800b3cc <_dtoa_r+0x66c>
 800b206:	9b01      	ldr	r3, [sp, #4]
 800b208:	2b00      	cmp	r3, #0
 800b20a:	f300 80df 	bgt.w	800b3cc <_dtoa_r+0x66c>
 800b20e:	f040 826d 	bne.w	800b6ec <_dtoa_r+0x98c>
 800b212:	4b69      	ldr	r3, [pc, #420]	; (800b3b8 <_dtoa_r+0x658>)
 800b214:	2200      	movs	r2, #0
 800b216:	4640      	mov	r0, r8
 800b218:	4649      	mov	r1, r9
 800b21a:	f7f5 f9fd 	bl	8000618 <__aeabi_dmul>
 800b21e:	e9dd 2302 	ldrd	r2, r3, [sp, #8]
 800b222:	f7f5 fc7f 	bl	8000b24 <__aeabi_dcmpge>
 800b226:	9e01      	ldr	r6, [sp, #4]
 800b228:	4637      	mov	r7, r6
 800b22a:	2800      	cmp	r0, #0
 800b22c:	f040 8243 	bne.w	800b6b6 <_dtoa_r+0x956>
 800b230:	9d00      	ldr	r5, [sp, #0]
 800b232:	2331      	movs	r3, #49	; 0x31
 800b234:	f805 3b01 	strb.w	r3, [r5], #1
 800b238:	f10a 0a01 	add.w	sl, sl, #1
 800b23c:	e23f      	b.n	800b6be <_dtoa_r+0x95e>
 800b23e:	07f2      	lsls	r2, r6, #31
 800b240:	d505      	bpl.n	800b24e <_dtoa_r+0x4ee>
 800b242:	e9d7 2300 	ldrd	r2, r3, [r7]
 800b246:	f7f5 f9e7 	bl	8000618 <__aeabi_dmul>
 800b24a:	3501      	adds	r5, #1
 800b24c:	2301      	movs	r3, #1
 800b24e:	1076      	asrs	r6, r6, #1
 800b250:	3708      	adds	r7, #8
 800b252:	e76c      	b.n	800b12e <_dtoa_r+0x3ce>
 800b254:	2502      	movs	r5, #2
 800b256:	e76f      	b.n	800b138 <_dtoa_r+0x3d8>
 800b258:	9b01      	ldr	r3, [sp, #4]
 800b25a:	f8cd a01c 	str.w	sl, [sp, #28]
 800b25e:	930c      	str	r3, [sp, #48]	; 0x30
 800b260:	e78d      	b.n	800b17e <_dtoa_r+0x41e>
 800b262:	9900      	ldr	r1, [sp, #0]
 800b264:	980c      	ldr	r0, [sp, #48]	; 0x30
 800b266:	9a0c      	ldr	r2, [sp, #48]	; 0x30
 800b268:	4b4e      	ldr	r3, [pc, #312]	; (800b3a4 <_dtoa_r+0x644>)
 800b26a:	ed9d 7b02 	vldr	d7, [sp, #8]
 800b26e:	4401      	add	r1, r0
 800b270:	9102      	str	r1, [sp, #8]
 800b272:	9908      	ldr	r1, [sp, #32]
 800b274:	eeb0 8a47 	vmov.f32	s16, s14
 800b278:	eef0 8a67 	vmov.f32	s17, s15
 800b27c:	eb03 03c2 	add.w	r3, r3, r2, lsl #3
 800b280:	e953 2302 	ldrd	r2, r3, [r3, #-8]
 800b284:	2900      	cmp	r1, #0
 800b286:	d045      	beq.n	800b314 <_dtoa_r+0x5b4>
 800b288:	494c      	ldr	r1, [pc, #304]	; (800b3bc <_dtoa_r+0x65c>)
 800b28a:	2000      	movs	r0, #0
 800b28c:	f7f5 faee 	bl	800086c <__aeabi_ddiv>
 800b290:	ec53 2b18 	vmov	r2, r3, d8
 800b294:	f7f5 f808 	bl	80002a8 <__aeabi_dsub>
 800b298:	9d00      	ldr	r5, [sp, #0]
 800b29a:	ec41 0b18 	vmov	d8, r0, r1
 800b29e:	4639      	mov	r1, r7
 800b2a0:	4630      	mov	r0, r6
 800b2a2:	f7f5 fc69 	bl	8000b78 <__aeabi_d2iz>
 800b2a6:	900c      	str	r0, [sp, #48]	; 0x30
 800b2a8:	f7f5 f94c 	bl	8000544 <__aeabi_i2d>
 800b2ac:	4602      	mov	r2, r0
 800b2ae:	460b      	mov	r3, r1
 800b2b0:	4630      	mov	r0, r6
 800b2b2:	4639      	mov	r1, r7
 800b2b4:	f7f4 fff8 	bl	80002a8 <__aeabi_dsub>
 800b2b8:	9b0c      	ldr	r3, [sp, #48]	; 0x30
 800b2ba:	3330      	adds	r3, #48	; 0x30
 800b2bc:	f805 3b01 	strb.w	r3, [r5], #1
 800b2c0:	ec53 2b18 	vmov	r2, r3, d8
 800b2c4:	4606      	mov	r6, r0
 800b2c6:	460f      	mov	r7, r1
 800b2c8:	f7f5 fc18 	bl	8000afc <__aeabi_dcmplt>
 800b2cc:	2800      	cmp	r0, #0
 800b2ce:	d165      	bne.n	800b39c <_dtoa_r+0x63c>
 800b2d0:	4632      	mov	r2, r6
 800b2d2:	463b      	mov	r3, r7
 800b2d4:	4935      	ldr	r1, [pc, #212]	; (800b3ac <_dtoa_r+0x64c>)
 800b2d6:	2000      	movs	r0, #0
 800b2d8:	f7f4 ffe6 	bl	80002a8 <__aeabi_dsub>
 800b2dc:	ec53 2b18 	vmov	r2, r3, d8
 800b2e0:	f7f5 fc0c 	bl	8000afc <__aeabi_dcmplt>
 800b2e4:	2800      	cmp	r0, #0
 800b2e6:	f040 80b9 	bne.w	800b45c <_dtoa_r+0x6fc>
 800b2ea:	9b02      	ldr	r3, [sp, #8]
 800b2ec:	429d      	cmp	r5, r3
 800b2ee:	f43f af75 	beq.w	800b1dc <_dtoa_r+0x47c>
 800b2f2:	4b2f      	ldr	r3, [pc, #188]	; (800b3b0 <_dtoa_r+0x650>)
 800b2f4:	ec51 0b18 	vmov	r0, r1, d8
 800b2f8:	2200      	movs	r2, #0
 800b2fa:	f7f5 f98d 	bl	8000618 <__aeabi_dmul>
 800b2fe:	4b2c      	ldr	r3, [pc, #176]	; (800b3b0 <_dtoa_r+0x650>)
 800b300:	ec41 0b18 	vmov	d8, r0, r1
 800b304:	2200      	movs	r2, #0
 800b306:	4630      	mov	r0, r6
 800b308:	4639      	mov	r1, r7
 800b30a:	f7f5 f985 	bl	8000618 <__aeabi_dmul>
 800b30e:	4606      	mov	r6, r0
 800b310:	460f      	mov	r7, r1
 800b312:	e7c4      	b.n	800b29e <_dtoa_r+0x53e>
 800b314:	ec51 0b17 	vmov	r0, r1, d7
 800b318:	f7f5 f97e 	bl	8000618 <__aeabi_dmul>
 800b31c:	9b02      	ldr	r3, [sp, #8]
 800b31e:	9d00      	ldr	r5, [sp, #0]
 800b320:	930c      	str	r3, [sp, #48]	; 0x30
 800b322:	ec41 0b18 	vmov	d8, r0, r1
 800b326:	4639      	mov	r1, r7
 800b328:	4630      	mov	r0, r6
 800b32a:	f7f5 fc25 	bl	8000b78 <__aeabi_d2iz>
 800b32e:	9011      	str	r0, [sp, #68]	; 0x44
 800b330:	f7f5 f908 	bl	8000544 <__aeabi_i2d>
 800b334:	4602      	mov	r2, r0
 800b336:	460b      	mov	r3, r1
 800b338:	4630      	mov	r0, r6
 800b33a:	4639      	mov	r1, r7
 800b33c:	f7f4 ffb4 	bl	80002a8 <__aeabi_dsub>
 800b340:	9b11      	ldr	r3, [sp, #68]	; 0x44
 800b342:	3330      	adds	r3, #48	; 0x30
 800b344:	f805 3b01 	strb.w	r3, [r5], #1
 800b348:	9b02      	ldr	r3, [sp, #8]
 800b34a:	429d      	cmp	r5, r3
 800b34c:	4606      	mov	r6, r0
 800b34e:	460f      	mov	r7, r1
 800b350:	f04f 0200 	mov.w	r2, #0
 800b354:	d134      	bne.n	800b3c0 <_dtoa_r+0x660>
 800b356:	4b19      	ldr	r3, [pc, #100]	; (800b3bc <_dtoa_r+0x65c>)
 800b358:	ec51 0b18 	vmov	r0, r1, d8
 800b35c:	f7f4 ffa6 	bl	80002ac <__adddf3>
 800b360:	4602      	mov	r2, r0
 800b362:	460b      	mov	r3, r1
 800b364:	4630      	mov	r0, r6
 800b366:	4639      	mov	r1, r7
 800b368:	f7f5 fbe6 	bl	8000b38 <__aeabi_dcmpgt>
 800b36c:	2800      	cmp	r0, #0
 800b36e:	d175      	bne.n	800b45c <_dtoa_r+0x6fc>
 800b370:	ec53 2b18 	vmov	r2, r3, d8
 800b374:	4911      	ldr	r1, [pc, #68]	; (800b3bc <_dtoa_r+0x65c>)
 800b376:	2000      	movs	r0, #0
 800b378:	f7f4 ff96 	bl	80002a8 <__aeabi_dsub>
 800b37c:	4602      	mov	r2, r0
 800b37e:	460b      	mov	r3, r1
 800b380:	4630      	mov	r0, r6
 800b382:	4639      	mov	r1, r7
 800b384:	f7f5 fbba 	bl	8000afc <__aeabi_dcmplt>
 800b388:	2800      	cmp	r0, #0
 800b38a:	f43f af27 	beq.w	800b1dc <_dtoa_r+0x47c>
 800b38e:	9d0c      	ldr	r5, [sp, #48]	; 0x30
 800b390:	1e6b      	subs	r3, r5, #1
 800b392:	930c      	str	r3, [sp, #48]	; 0x30
 800b394:	f815 3c01 	ldrb.w	r3, [r5, #-1]
 800b398:	2b30      	cmp	r3, #48	; 0x30
 800b39a:	d0f8      	beq.n	800b38e <_dtoa_r+0x62e>
 800b39c:	f8dd a01c 	ldr.w	sl, [sp, #28]
 800b3a0:	e04a      	b.n	800b438 <_dtoa_r+0x6d8>
 800b3a2:	bf00      	nop
 800b3a4:	0800fe08 	.word	0x0800fe08
 800b3a8:	0800fde0 	.word	0x0800fde0
 800b3ac:	3ff00000 	.word	0x3ff00000
 800b3b0:	40240000 	.word	0x40240000
 800b3b4:	401c0000 	.word	0x401c0000
 800b3b8:	40140000 	.word	0x40140000
 800b3bc:	3fe00000 	.word	0x3fe00000
 800b3c0:	4baf      	ldr	r3, [pc, #700]	; (800b680 <_dtoa_r+0x920>)
 800b3c2:	f7f5 f929 	bl	8000618 <__aeabi_dmul>
 800b3c6:	4606      	mov	r6, r0
 800b3c8:	460f      	mov	r7, r1
 800b3ca:	e7ac      	b.n	800b326 <_dtoa_r+0x5c6>
 800b3cc:	e9dd 6702 	ldrd	r6, r7, [sp, #8]
 800b3d0:	9d00      	ldr	r5, [sp, #0]
 800b3d2:	4642      	mov	r2, r8
 800b3d4:	464b      	mov	r3, r9
 800b3d6:	4630      	mov	r0, r6
 800b3d8:	4639      	mov	r1, r7
 800b3da:	f7f5 fa47 	bl	800086c <__aeabi_ddiv>
 800b3de:	f7f5 fbcb 	bl	8000b78 <__aeabi_d2iz>
 800b3e2:	9002      	str	r0, [sp, #8]
 800b3e4:	f7f5 f8ae 	bl	8000544 <__aeabi_i2d>
 800b3e8:	4642      	mov	r2, r8
 800b3ea:	464b      	mov	r3, r9
 800b3ec:	f7f5 f914 	bl	8000618 <__aeabi_dmul>
 800b3f0:	4602      	mov	r2, r0
 800b3f2:	460b      	mov	r3, r1
 800b3f4:	4630      	mov	r0, r6
 800b3f6:	4639      	mov	r1, r7
 800b3f8:	f7f4 ff56 	bl	80002a8 <__aeabi_dsub>
 800b3fc:	9e02      	ldr	r6, [sp, #8]
 800b3fe:	9f01      	ldr	r7, [sp, #4]
 800b400:	3630      	adds	r6, #48	; 0x30
 800b402:	f805 6b01 	strb.w	r6, [r5], #1
 800b406:	9e00      	ldr	r6, [sp, #0]
 800b408:	1bae      	subs	r6, r5, r6
 800b40a:	42b7      	cmp	r7, r6
 800b40c:	4602      	mov	r2, r0
 800b40e:	460b      	mov	r3, r1
 800b410:	d137      	bne.n	800b482 <_dtoa_r+0x722>
 800b412:	f7f4 ff4b 	bl	80002ac <__adddf3>
 800b416:	4642      	mov	r2, r8
 800b418:	464b      	mov	r3, r9
 800b41a:	4606      	mov	r6, r0
 800b41c:	460f      	mov	r7, r1
 800b41e:	f7f5 fb8b 	bl	8000b38 <__aeabi_dcmpgt>
 800b422:	b9c8      	cbnz	r0, 800b458 <_dtoa_r+0x6f8>
 800b424:	4642      	mov	r2, r8
 800b426:	464b      	mov	r3, r9
 800b428:	4630      	mov	r0, r6
 800b42a:	4639      	mov	r1, r7
 800b42c:	f7f5 fb5c 	bl	8000ae8 <__aeabi_dcmpeq>
 800b430:	b110      	cbz	r0, 800b438 <_dtoa_r+0x6d8>
 800b432:	9b02      	ldr	r3, [sp, #8]
 800b434:	07d9      	lsls	r1, r3, #31
 800b436:	d40f      	bmi.n	800b458 <_dtoa_r+0x6f8>
 800b438:	4620      	mov	r0, r4
 800b43a:	4659      	mov	r1, fp
 800b43c:	f000 fe5c 	bl	800c0f8 <_Bfree>
 800b440:	2300      	movs	r3, #0
 800b442:	702b      	strb	r3, [r5, #0]
 800b444:	9b0f      	ldr	r3, [sp, #60]	; 0x3c
 800b446:	f10a 0001 	add.w	r0, sl, #1
 800b44a:	6018      	str	r0, [r3, #0]
 800b44c:	9b21      	ldr	r3, [sp, #132]	; 0x84
 800b44e:	2b00      	cmp	r3, #0
 800b450:	f43f acd8 	beq.w	800ae04 <_dtoa_r+0xa4>
 800b454:	601d      	str	r5, [r3, #0]
 800b456:	e4d5      	b.n	800ae04 <_dtoa_r+0xa4>
 800b458:	f8cd a01c 	str.w	sl, [sp, #28]
 800b45c:	462b      	mov	r3, r5
 800b45e:	461d      	mov	r5, r3
 800b460:	f813 2d01 	ldrb.w	r2, [r3, #-1]!
 800b464:	2a39      	cmp	r2, #57	; 0x39
 800b466:	d108      	bne.n	800b47a <_dtoa_r+0x71a>
 800b468:	9a00      	ldr	r2, [sp, #0]
 800b46a:	429a      	cmp	r2, r3
 800b46c:	d1f7      	bne.n	800b45e <_dtoa_r+0x6fe>
 800b46e:	9a07      	ldr	r2, [sp, #28]
 800b470:	9900      	ldr	r1, [sp, #0]
 800b472:	3201      	adds	r2, #1
 800b474:	9207      	str	r2, [sp, #28]
 800b476:	2230      	movs	r2, #48	; 0x30
 800b478:	700a      	strb	r2, [r1, #0]
 800b47a:	781a      	ldrb	r2, [r3, #0]
 800b47c:	3201      	adds	r2, #1
 800b47e:	701a      	strb	r2, [r3, #0]
 800b480:	e78c      	b.n	800b39c <_dtoa_r+0x63c>
 800b482:	4b7f      	ldr	r3, [pc, #508]	; (800b680 <_dtoa_r+0x920>)
 800b484:	2200      	movs	r2, #0
 800b486:	f7f5 f8c7 	bl	8000618 <__aeabi_dmul>
 800b48a:	2200      	movs	r2, #0
 800b48c:	2300      	movs	r3, #0
 800b48e:	4606      	mov	r6, r0
 800b490:	460f      	mov	r7, r1
 800b492:	f7f5 fb29 	bl	8000ae8 <__aeabi_dcmpeq>
 800b496:	2800      	cmp	r0, #0
 800b498:	d09b      	beq.n	800b3d2 <_dtoa_r+0x672>
 800b49a:	e7cd      	b.n	800b438 <_dtoa_r+0x6d8>
 800b49c:	9a08      	ldr	r2, [sp, #32]
 800b49e:	2a00      	cmp	r2, #0
 800b4a0:	f000 80c4 	beq.w	800b62c <_dtoa_r+0x8cc>
 800b4a4:	9a05      	ldr	r2, [sp, #20]
 800b4a6:	2a01      	cmp	r2, #1
 800b4a8:	f300 80a8 	bgt.w	800b5fc <_dtoa_r+0x89c>
 800b4ac:	9a10      	ldr	r2, [sp, #64]	; 0x40
 800b4ae:	2a00      	cmp	r2, #0
 800b4b0:	f000 80a0 	beq.w	800b5f4 <_dtoa_r+0x894>
 800b4b4:	f203 4333 	addw	r3, r3, #1075	; 0x433
 800b4b8:	9e06      	ldr	r6, [sp, #24]
 800b4ba:	4645      	mov	r5, r8
 800b4bc:	9a04      	ldr	r2, [sp, #16]
 800b4be:	2101      	movs	r1, #1
 800b4c0:	441a      	add	r2, r3
 800b4c2:	4620      	mov	r0, r4
 800b4c4:	4498      	add	r8, r3
 800b4c6:	9204      	str	r2, [sp, #16]
 800b4c8:	f000 ff1c 	bl	800c304 <__i2b>
 800b4cc:	4607      	mov	r7, r0
 800b4ce:	2d00      	cmp	r5, #0
 800b4d0:	dd0b      	ble.n	800b4ea <_dtoa_r+0x78a>
 800b4d2:	9b04      	ldr	r3, [sp, #16]
 800b4d4:	2b00      	cmp	r3, #0
 800b4d6:	dd08      	ble.n	800b4ea <_dtoa_r+0x78a>
 800b4d8:	42ab      	cmp	r3, r5
 800b4da:	9a04      	ldr	r2, [sp, #16]
 800b4dc:	bfa8      	it	ge
 800b4de:	462b      	movge	r3, r5
 800b4e0:	eba8 0803 	sub.w	r8, r8, r3
 800b4e4:	1aed      	subs	r5, r5, r3
 800b4e6:	1ad3      	subs	r3, r2, r3
 800b4e8:	9304      	str	r3, [sp, #16]
 800b4ea:	9b06      	ldr	r3, [sp, #24]
 800b4ec:	b1fb      	cbz	r3, 800b52e <_dtoa_r+0x7ce>
 800b4ee:	9b08      	ldr	r3, [sp, #32]
 800b4f0:	2b00      	cmp	r3, #0
 800b4f2:	f000 809f 	beq.w	800b634 <_dtoa_r+0x8d4>
 800b4f6:	2e00      	cmp	r6, #0
 800b4f8:	dd11      	ble.n	800b51e <_dtoa_r+0x7be>
 800b4fa:	4639      	mov	r1, r7
 800b4fc:	4632      	mov	r2, r6
 800b4fe:	4620      	mov	r0, r4
 800b500:	f000 ffbc 	bl	800c47c <__pow5mult>
 800b504:	465a      	mov	r2, fp
 800b506:	4601      	mov	r1, r0
 800b508:	4607      	mov	r7, r0
 800b50a:	4620      	mov	r0, r4
 800b50c:	f000 ff10 	bl	800c330 <__multiply>
 800b510:	4659      	mov	r1, fp
 800b512:	9007      	str	r0, [sp, #28]
 800b514:	4620      	mov	r0, r4
 800b516:	f000 fdef 	bl	800c0f8 <_Bfree>
 800b51a:	9b07      	ldr	r3, [sp, #28]
 800b51c:	469b      	mov	fp, r3
 800b51e:	9b06      	ldr	r3, [sp, #24]
 800b520:	1b9a      	subs	r2, r3, r6
 800b522:	d004      	beq.n	800b52e <_dtoa_r+0x7ce>
 800b524:	4659      	mov	r1, fp
 800b526:	4620      	mov	r0, r4
 800b528:	f000 ffa8 	bl	800c47c <__pow5mult>
 800b52c:	4683      	mov	fp, r0
 800b52e:	2101      	movs	r1, #1
 800b530:	4620      	mov	r0, r4
 800b532:	f000 fee7 	bl	800c304 <__i2b>
 800b536:	9b0d      	ldr	r3, [sp, #52]	; 0x34
 800b538:	2b00      	cmp	r3, #0
 800b53a:	4606      	mov	r6, r0
 800b53c:	dd7c      	ble.n	800b638 <_dtoa_r+0x8d8>
 800b53e:	461a      	mov	r2, r3
 800b540:	4601      	mov	r1, r0
 800b542:	4620      	mov	r0, r4
 800b544:	f000 ff9a 	bl	800c47c <__pow5mult>
 800b548:	9b05      	ldr	r3, [sp, #20]
 800b54a:	2b01      	cmp	r3, #1
 800b54c:	4606      	mov	r6, r0
 800b54e:	dd76      	ble.n	800b63e <_dtoa_r+0x8de>
 800b550:	2300      	movs	r3, #0
 800b552:	9306      	str	r3, [sp, #24]
 800b554:	6933      	ldr	r3, [r6, #16]
 800b556:	eb06 0383 	add.w	r3, r6, r3, lsl #2
 800b55a:	6918      	ldr	r0, [r3, #16]
 800b55c:	f000 fe82 	bl	800c264 <__hi0bits>
 800b560:	f1c0 0020 	rsb	r0, r0, #32
 800b564:	9b04      	ldr	r3, [sp, #16]
 800b566:	4418      	add	r0, r3
 800b568:	f010 001f 	ands.w	r0, r0, #31
 800b56c:	f000 8086 	beq.w	800b67c <_dtoa_r+0x91c>
 800b570:	f1c0 0320 	rsb	r3, r0, #32
 800b574:	2b04      	cmp	r3, #4
 800b576:	dd7f      	ble.n	800b678 <_dtoa_r+0x918>
 800b578:	f1c0 001c 	rsb	r0, r0, #28
 800b57c:	9b04      	ldr	r3, [sp, #16]
 800b57e:	4403      	add	r3, r0
 800b580:	4480      	add	r8, r0
 800b582:	4405      	add	r5, r0
 800b584:	9304      	str	r3, [sp, #16]
 800b586:	f1b8 0f00 	cmp.w	r8, #0
 800b58a:	dd05      	ble.n	800b598 <_dtoa_r+0x838>
 800b58c:	4659      	mov	r1, fp
 800b58e:	4642      	mov	r2, r8
 800b590:	4620      	mov	r0, r4
 800b592:	f000 ffcd 	bl	800c530 <__lshift>
 800b596:	4683      	mov	fp, r0
 800b598:	9b04      	ldr	r3, [sp, #16]
 800b59a:	2b00      	cmp	r3, #0
 800b59c:	dd05      	ble.n	800b5aa <_dtoa_r+0x84a>
 800b59e:	4631      	mov	r1, r6
 800b5a0:	461a      	mov	r2, r3
 800b5a2:	4620      	mov	r0, r4
 800b5a4:	f000 ffc4 	bl	800c530 <__lshift>
 800b5a8:	4606      	mov	r6, r0
 800b5aa:	9b0e      	ldr	r3, [sp, #56]	; 0x38
 800b5ac:	2b00      	cmp	r3, #0
 800b5ae:	d069      	beq.n	800b684 <_dtoa_r+0x924>
 800b5b0:	4631      	mov	r1, r6
 800b5b2:	4658      	mov	r0, fp
 800b5b4:	f001 f828 	bl	800c608 <__mcmp>
 800b5b8:	2800      	cmp	r0, #0
 800b5ba:	da63      	bge.n	800b684 <_dtoa_r+0x924>
 800b5bc:	2300      	movs	r3, #0
 800b5be:	4659      	mov	r1, fp
 800b5c0:	220a      	movs	r2, #10
 800b5c2:	4620      	mov	r0, r4
 800b5c4:	f000 fdba 	bl	800c13c <__multadd>
 800b5c8:	9b08      	ldr	r3, [sp, #32]
 800b5ca:	f10a 3aff 	add.w	sl, sl, #4294967295
 800b5ce:	4683      	mov	fp, r0
 800b5d0:	2b00      	cmp	r3, #0
 800b5d2:	f000 818f 	beq.w	800b8f4 <_dtoa_r+0xb94>
 800b5d6:	4639      	mov	r1, r7
 800b5d8:	2300      	movs	r3, #0
 800b5da:	220a      	movs	r2, #10
 800b5dc:	4620      	mov	r0, r4
 800b5de:	f000 fdad 	bl	800c13c <__multadd>
 800b5e2:	f1b9 0f00 	cmp.w	r9, #0
 800b5e6:	4607      	mov	r7, r0
 800b5e8:	f300 808e 	bgt.w	800b708 <_dtoa_r+0x9a8>
 800b5ec:	9b05      	ldr	r3, [sp, #20]
 800b5ee:	2b02      	cmp	r3, #2
 800b5f0:	dc50      	bgt.n	800b694 <_dtoa_r+0x934>
 800b5f2:	e089      	b.n	800b708 <_dtoa_r+0x9a8>
 800b5f4:	9b12      	ldr	r3, [sp, #72]	; 0x48
 800b5f6:	f1c3 0336 	rsb	r3, r3, #54	; 0x36
 800b5fa:	e75d      	b.n	800b4b8 <_dtoa_r+0x758>
 800b5fc:	9b01      	ldr	r3, [sp, #4]
 800b5fe:	1e5e      	subs	r6, r3, #1
 800b600:	9b06      	ldr	r3, [sp, #24]
 800b602:	42b3      	cmp	r3, r6
 800b604:	bfbf      	itttt	lt
 800b606:	9b06      	ldrlt	r3, [sp, #24]
 800b608:	9606      	strlt	r6, [sp, #24]
 800b60a:	1af2      	sublt	r2, r6, r3
 800b60c:	9b0d      	ldrlt	r3, [sp, #52]	; 0x34
 800b60e:	bfb6      	itet	lt
 800b610:	189b      	addlt	r3, r3, r2
 800b612:	1b9e      	subge	r6, r3, r6
 800b614:	930d      	strlt	r3, [sp, #52]	; 0x34
 800b616:	9b01      	ldr	r3, [sp, #4]
 800b618:	bfb8      	it	lt
 800b61a:	2600      	movlt	r6, #0
 800b61c:	2b00      	cmp	r3, #0
 800b61e:	bfb5      	itete	lt
 800b620:	eba8 0503 	sublt.w	r5, r8, r3
 800b624:	9b01      	ldrge	r3, [sp, #4]
 800b626:	2300      	movlt	r3, #0
 800b628:	4645      	movge	r5, r8
 800b62a:	e747      	b.n	800b4bc <_dtoa_r+0x75c>
 800b62c:	9e06      	ldr	r6, [sp, #24]
 800b62e:	9f08      	ldr	r7, [sp, #32]
 800b630:	4645      	mov	r5, r8
 800b632:	e74c      	b.n	800b4ce <_dtoa_r+0x76e>
 800b634:	9a06      	ldr	r2, [sp, #24]
 800b636:	e775      	b.n	800b524 <_dtoa_r+0x7c4>
 800b638:	9b05      	ldr	r3, [sp, #20]
 800b63a:	2b01      	cmp	r3, #1
 800b63c:	dc18      	bgt.n	800b670 <_dtoa_r+0x910>
 800b63e:	9b02      	ldr	r3, [sp, #8]
 800b640:	b9b3      	cbnz	r3, 800b670 <_dtoa_r+0x910>
 800b642:	9b03      	ldr	r3, [sp, #12]
 800b644:	f3c3 0313 	ubfx	r3, r3, #0, #20
 800b648:	b9a3      	cbnz	r3, 800b674 <_dtoa_r+0x914>
 800b64a:	9b03      	ldr	r3, [sp, #12]
 800b64c:	f023 4300 	bic.w	r3, r3, #2147483648	; 0x80000000
 800b650:	0d1b      	lsrs	r3, r3, #20
 800b652:	051b      	lsls	r3, r3, #20
 800b654:	b12b      	cbz	r3, 800b662 <_dtoa_r+0x902>
 800b656:	9b04      	ldr	r3, [sp, #16]
 800b658:	3301      	adds	r3, #1
 800b65a:	9304      	str	r3, [sp, #16]
 800b65c:	f108 0801 	add.w	r8, r8, #1
 800b660:	2301      	movs	r3, #1
 800b662:	9306      	str	r3, [sp, #24]
 800b664:	9b0d      	ldr	r3, [sp, #52]	; 0x34
 800b666:	2b00      	cmp	r3, #0
 800b668:	f47f af74 	bne.w	800b554 <_dtoa_r+0x7f4>
 800b66c:	2001      	movs	r0, #1
 800b66e:	e779      	b.n	800b564 <_dtoa_r+0x804>
 800b670:	2300      	movs	r3, #0
 800b672:	e7f6      	b.n	800b662 <_dtoa_r+0x902>
 800b674:	9b02      	ldr	r3, [sp, #8]
 800b676:	e7f4      	b.n	800b662 <_dtoa_r+0x902>
 800b678:	d085      	beq.n	800b586 <_dtoa_r+0x826>
 800b67a:	4618      	mov	r0, r3
 800b67c:	301c      	adds	r0, #28
 800b67e:	e77d      	b.n	800b57c <_dtoa_r+0x81c>
 800b680:	40240000 	.word	0x40240000
 800b684:	9b01      	ldr	r3, [sp, #4]
 800b686:	2b00      	cmp	r3, #0
 800b688:	dc38      	bgt.n	800b6fc <_dtoa_r+0x99c>
 800b68a:	9b05      	ldr	r3, [sp, #20]
 800b68c:	2b02      	cmp	r3, #2
 800b68e:	dd35      	ble.n	800b6fc <_dtoa_r+0x99c>
 800b690:	f8dd 9004 	ldr.w	r9, [sp, #4]
 800b694:	f1b9 0f00 	cmp.w	r9, #0
 800b698:	d10d      	bne.n	800b6b6 <_dtoa_r+0x956>
 800b69a:	4631      	mov	r1, r6
 800b69c:	464b      	mov	r3, r9
 800b69e:	2205      	movs	r2, #5
 800b6a0:	4620      	mov	r0, r4
 800b6a2:	f000 fd4b 	bl	800c13c <__multadd>
 800b6a6:	4601      	mov	r1, r0
 800b6a8:	4606      	mov	r6, r0
 800b6aa:	4658      	mov	r0, fp
 800b6ac:	f000 ffac 	bl	800c608 <__mcmp>
 800b6b0:	2800      	cmp	r0, #0
 800b6b2:	f73f adbd 	bgt.w	800b230 <_dtoa_r+0x4d0>
 800b6b6:	9b09      	ldr	r3, [sp, #36]	; 0x24
 800b6b8:	9d00      	ldr	r5, [sp, #0]
 800b6ba:	ea6f 0a03 	mvn.w	sl, r3
 800b6be:	f04f 0800 	mov.w	r8, #0
 800b6c2:	4631      	mov	r1, r6
 800b6c4:	4620      	mov	r0, r4
 800b6c6:	f000 fd17 	bl	800c0f8 <_Bfree>
 800b6ca:	2f00      	cmp	r7, #0
 800b6cc:	f43f aeb4 	beq.w	800b438 <_dtoa_r+0x6d8>
 800b6d0:	f1b8 0f00 	cmp.w	r8, #0
 800b6d4:	d005      	beq.n	800b6e2 <_dtoa_r+0x982>
 800b6d6:	45b8      	cmp	r8, r7
 800b6d8:	d003      	beq.n	800b6e2 <_dtoa_r+0x982>
 800b6da:	4641      	mov	r1, r8
 800b6dc:	4620      	mov	r0, r4
 800b6de:	f000 fd0b 	bl	800c0f8 <_Bfree>
 800b6e2:	4639      	mov	r1, r7
 800b6e4:	4620      	mov	r0, r4
 800b6e6:	f000 fd07 	bl	800c0f8 <_Bfree>
 800b6ea:	e6a5      	b.n	800b438 <_dtoa_r+0x6d8>
 800b6ec:	2600      	movs	r6, #0
 800b6ee:	4637      	mov	r7, r6
 800b6f0:	e7e1      	b.n	800b6b6 <_dtoa_r+0x956>
 800b6f2:	9e0c      	ldr	r6, [sp, #48]	; 0x30
 800b6f4:	f8dd a01c 	ldr.w	sl, [sp, #28]
 800b6f8:	4637      	mov	r7, r6
 800b6fa:	e599      	b.n	800b230 <_dtoa_r+0x4d0>
 800b6fc:	9b08      	ldr	r3, [sp, #32]
 800b6fe:	f8dd 9004 	ldr.w	r9, [sp, #4]
 800b702:	2b00      	cmp	r3, #0
 800b704:	f000 80fd 	beq.w	800b902 <_dtoa_r+0xba2>
 800b708:	2d00      	cmp	r5, #0
 800b70a:	dd05      	ble.n	800b718 <_dtoa_r+0x9b8>
 800b70c:	4639      	mov	r1, r7
 800b70e:	462a      	mov	r2, r5
 800b710:	4620      	mov	r0, r4
 800b712:	f000 ff0d 	bl	800c530 <__lshift>
 800b716:	4607      	mov	r7, r0
 800b718:	9b06      	ldr	r3, [sp, #24]
 800b71a:	2b00      	cmp	r3, #0
 800b71c:	d05c      	beq.n	800b7d8 <_dtoa_r+0xa78>
 800b71e:	6879      	ldr	r1, [r7, #4]
 800b720:	4620      	mov	r0, r4
 800b722:	f000 fca9 	bl	800c078 <_Balloc>
 800b726:	4605      	mov	r5, r0
 800b728:	b928      	cbnz	r0, 800b736 <_dtoa_r+0x9d6>
 800b72a:	4b80      	ldr	r3, [pc, #512]	; (800b92c <_dtoa_r+0xbcc>)
 800b72c:	4602      	mov	r2, r0
 800b72e:	f240 21ea 	movw	r1, #746	; 0x2ea
 800b732:	f7ff bb2e 	b.w	800ad92 <_dtoa_r+0x32>
 800b736:	693a      	ldr	r2, [r7, #16]
 800b738:	3202      	adds	r2, #2
 800b73a:	0092      	lsls	r2, r2, #2
 800b73c:	f107 010c 	add.w	r1, r7, #12
 800b740:	300c      	adds	r0, #12
 800b742:	f7fd fc69 	bl	8009018 <memcpy>
 800b746:	2201      	movs	r2, #1
 800b748:	4629      	mov	r1, r5
 800b74a:	4620      	mov	r0, r4
 800b74c:	f000 fef0 	bl	800c530 <__lshift>
 800b750:	9b00      	ldr	r3, [sp, #0]
 800b752:	3301      	adds	r3, #1
 800b754:	9301      	str	r3, [sp, #4]
 800b756:	9b00      	ldr	r3, [sp, #0]
 800b758:	444b      	add	r3, r9
 800b75a:	9307      	str	r3, [sp, #28]
 800b75c:	9b02      	ldr	r3, [sp, #8]
 800b75e:	f003 0301 	and.w	r3, r3, #1
 800b762:	46b8      	mov	r8, r7
 800b764:	9306      	str	r3, [sp, #24]
 800b766:	4607      	mov	r7, r0
 800b768:	9b01      	ldr	r3, [sp, #4]
 800b76a:	4631      	mov	r1, r6
 800b76c:	3b01      	subs	r3, #1
 800b76e:	4658      	mov	r0, fp
 800b770:	9302      	str	r3, [sp, #8]
 800b772:	f7ff fa69 	bl	800ac48 <quorem>
 800b776:	4603      	mov	r3, r0
 800b778:	3330      	adds	r3, #48	; 0x30
 800b77a:	9004      	str	r0, [sp, #16]
 800b77c:	4641      	mov	r1, r8
 800b77e:	4658      	mov	r0, fp
 800b780:	9308      	str	r3, [sp, #32]
 800b782:	f000 ff41 	bl	800c608 <__mcmp>
 800b786:	463a      	mov	r2, r7
 800b788:	4681      	mov	r9, r0
 800b78a:	4631      	mov	r1, r6
 800b78c:	4620      	mov	r0, r4
 800b78e:	f000 ff57 	bl	800c640 <__mdiff>
 800b792:	68c2      	ldr	r2, [r0, #12]
 800b794:	9b08      	ldr	r3, [sp, #32]
 800b796:	4605      	mov	r5, r0
 800b798:	bb02      	cbnz	r2, 800b7dc <_dtoa_r+0xa7c>
 800b79a:	4601      	mov	r1, r0
 800b79c:	4658      	mov	r0, fp
 800b79e:	f000 ff33 	bl	800c608 <__mcmp>
 800b7a2:	9b08      	ldr	r3, [sp, #32]
 800b7a4:	4602      	mov	r2, r0
 800b7a6:	4629      	mov	r1, r5
 800b7a8:	4620      	mov	r0, r4
 800b7aa:	e9cd 3208 	strd	r3, r2, [sp, #32]
 800b7ae:	f000 fca3 	bl	800c0f8 <_Bfree>
 800b7b2:	9b05      	ldr	r3, [sp, #20]
 800b7b4:	9a09      	ldr	r2, [sp, #36]	; 0x24
 800b7b6:	9d01      	ldr	r5, [sp, #4]
 800b7b8:	ea43 0102 	orr.w	r1, r3, r2
 800b7bc:	9b06      	ldr	r3, [sp, #24]
 800b7be:	430b      	orrs	r3, r1
 800b7c0:	9b08      	ldr	r3, [sp, #32]
 800b7c2:	d10d      	bne.n	800b7e0 <_dtoa_r+0xa80>
 800b7c4:	2b39      	cmp	r3, #57	; 0x39
 800b7c6:	d029      	beq.n	800b81c <_dtoa_r+0xabc>
 800b7c8:	f1b9 0f00 	cmp.w	r9, #0
 800b7cc:	dd01      	ble.n	800b7d2 <_dtoa_r+0xa72>
 800b7ce:	9b04      	ldr	r3, [sp, #16]
 800b7d0:	3331      	adds	r3, #49	; 0x31
 800b7d2:	9a02      	ldr	r2, [sp, #8]
 800b7d4:	7013      	strb	r3, [r2, #0]
 800b7d6:	e774      	b.n	800b6c2 <_dtoa_r+0x962>
 800b7d8:	4638      	mov	r0, r7
 800b7da:	e7b9      	b.n	800b750 <_dtoa_r+0x9f0>
 800b7dc:	2201      	movs	r2, #1
 800b7de:	e7e2      	b.n	800b7a6 <_dtoa_r+0xa46>
 800b7e0:	f1b9 0f00 	cmp.w	r9, #0
 800b7e4:	db06      	blt.n	800b7f4 <_dtoa_r+0xa94>
 800b7e6:	9905      	ldr	r1, [sp, #20]
 800b7e8:	ea41 0909 	orr.w	r9, r1, r9
 800b7ec:	9906      	ldr	r1, [sp, #24]
 800b7ee:	ea59 0101 	orrs.w	r1, r9, r1
 800b7f2:	d120      	bne.n	800b836 <_dtoa_r+0xad6>
 800b7f4:	2a00      	cmp	r2, #0
 800b7f6:	ddec      	ble.n	800b7d2 <_dtoa_r+0xa72>
 800b7f8:	4659      	mov	r1, fp
 800b7fa:	2201      	movs	r2, #1
 800b7fc:	4620      	mov	r0, r4
 800b7fe:	9301      	str	r3, [sp, #4]
 800b800:	f000 fe96 	bl	800c530 <__lshift>
 800b804:	4631      	mov	r1, r6
 800b806:	4683      	mov	fp, r0
 800b808:	f000 fefe 	bl	800c608 <__mcmp>
 800b80c:	2800      	cmp	r0, #0
 800b80e:	9b01      	ldr	r3, [sp, #4]
 800b810:	dc02      	bgt.n	800b818 <_dtoa_r+0xab8>
 800b812:	d1de      	bne.n	800b7d2 <_dtoa_r+0xa72>
 800b814:	07da      	lsls	r2, r3, #31
 800b816:	d5dc      	bpl.n	800b7d2 <_dtoa_r+0xa72>
 800b818:	2b39      	cmp	r3, #57	; 0x39
 800b81a:	d1d8      	bne.n	800b7ce <_dtoa_r+0xa6e>
 800b81c:	9a02      	ldr	r2, [sp, #8]
 800b81e:	2339      	movs	r3, #57	; 0x39
 800b820:	7013      	strb	r3, [r2, #0]
 800b822:	462b      	mov	r3, r5
 800b824:	461d      	mov	r5, r3
 800b826:	3b01      	subs	r3, #1
 800b828:	f815 2c01 	ldrb.w	r2, [r5, #-1]
 800b82c:	2a39      	cmp	r2, #57	; 0x39
 800b82e:	d050      	beq.n	800b8d2 <_dtoa_r+0xb72>
 800b830:	3201      	adds	r2, #1
 800b832:	701a      	strb	r2, [r3, #0]
 800b834:	e745      	b.n	800b6c2 <_dtoa_r+0x962>
 800b836:	2a00      	cmp	r2, #0
 800b838:	dd03      	ble.n	800b842 <_dtoa_r+0xae2>
 800b83a:	2b39      	cmp	r3, #57	; 0x39
 800b83c:	d0ee      	beq.n	800b81c <_dtoa_r+0xabc>
 800b83e:	3301      	adds	r3, #1
 800b840:	e7c7      	b.n	800b7d2 <_dtoa_r+0xa72>
 800b842:	9a01      	ldr	r2, [sp, #4]
 800b844:	9907      	ldr	r1, [sp, #28]
 800b846:	f802 3c01 	strb.w	r3, [r2, #-1]
 800b84a:	428a      	cmp	r2, r1
 800b84c:	d02a      	beq.n	800b8a4 <_dtoa_r+0xb44>
 800b84e:	4659      	mov	r1, fp
 800b850:	2300      	movs	r3, #0
 800b852:	220a      	movs	r2, #10
 800b854:	4620      	mov	r0, r4
 800b856:	f000 fc71 	bl	800c13c <__multadd>
 800b85a:	45b8      	cmp	r8, r7
 800b85c:	4683      	mov	fp, r0
 800b85e:	f04f 0300 	mov.w	r3, #0
 800b862:	f04f 020a 	mov.w	r2, #10
 800b866:	4641      	mov	r1, r8
 800b868:	4620      	mov	r0, r4
 800b86a:	d107      	bne.n	800b87c <_dtoa_r+0xb1c>
 800b86c:	f000 fc66 	bl	800c13c <__multadd>
 800b870:	4680      	mov	r8, r0
 800b872:	4607      	mov	r7, r0
 800b874:	9b01      	ldr	r3, [sp, #4]
 800b876:	3301      	adds	r3, #1
 800b878:	9301      	str	r3, [sp, #4]
 800b87a:	e775      	b.n	800b768 <_dtoa_r+0xa08>
 800b87c:	f000 fc5e 	bl	800c13c <__multadd>
 800b880:	4639      	mov	r1, r7
 800b882:	4680      	mov	r8, r0
 800b884:	2300      	movs	r3, #0
 800b886:	220a      	movs	r2, #10
 800b888:	4620      	mov	r0, r4
 800b88a:	f000 fc57 	bl	800c13c <__multadd>
 800b88e:	4607      	mov	r7, r0
 800b890:	e7f0      	b.n	800b874 <_dtoa_r+0xb14>
 800b892:	f1b9 0f00 	cmp.w	r9, #0
 800b896:	9a00      	ldr	r2, [sp, #0]
 800b898:	bfcc      	ite	gt
 800b89a:	464d      	movgt	r5, r9
 800b89c:	2501      	movle	r5, #1
 800b89e:	4415      	add	r5, r2
 800b8a0:	f04f 0800 	mov.w	r8, #0
 800b8a4:	4659      	mov	r1, fp
 800b8a6:	2201      	movs	r2, #1
 800b8a8:	4620      	mov	r0, r4
 800b8aa:	9301      	str	r3, [sp, #4]
 800b8ac:	f000 fe40 	bl	800c530 <__lshift>
 800b8b0:	4631      	mov	r1, r6
 800b8b2:	4683      	mov	fp, r0
 800b8b4:	f000 fea8 	bl	800c608 <__mcmp>
 800b8b8:	2800      	cmp	r0, #0
 800b8ba:	dcb2      	bgt.n	800b822 <_dtoa_r+0xac2>
 800b8bc:	d102      	bne.n	800b8c4 <_dtoa_r+0xb64>
 800b8be:	9b01      	ldr	r3, [sp, #4]
 800b8c0:	07db      	lsls	r3, r3, #31
 800b8c2:	d4ae      	bmi.n	800b822 <_dtoa_r+0xac2>
 800b8c4:	462b      	mov	r3, r5
 800b8c6:	461d      	mov	r5, r3
 800b8c8:	f813 2d01 	ldrb.w	r2, [r3, #-1]!
 800b8cc:	2a30      	cmp	r2, #48	; 0x30
 800b8ce:	d0fa      	beq.n	800b8c6 <_dtoa_r+0xb66>
 800b8d0:	e6f7      	b.n	800b6c2 <_dtoa_r+0x962>
 800b8d2:	9a00      	ldr	r2, [sp, #0]
 800b8d4:	429a      	cmp	r2, r3
 800b8d6:	d1a5      	bne.n	800b824 <_dtoa_r+0xac4>
 800b8d8:	f10a 0a01 	add.w	sl, sl, #1
 800b8dc:	2331      	movs	r3, #49	; 0x31
 800b8de:	e779      	b.n	800b7d4 <_dtoa_r+0xa74>
 800b8e0:	4b13      	ldr	r3, [pc, #76]	; (800b930 <_dtoa_r+0xbd0>)
 800b8e2:	f7ff baaf 	b.w	800ae44 <_dtoa_r+0xe4>
 800b8e6:	9b21      	ldr	r3, [sp, #132]	; 0x84
 800b8e8:	2b00      	cmp	r3, #0
 800b8ea:	f47f aa86 	bne.w	800adfa <_dtoa_r+0x9a>
 800b8ee:	4b11      	ldr	r3, [pc, #68]	; (800b934 <_dtoa_r+0xbd4>)
 800b8f0:	f7ff baa8 	b.w	800ae44 <_dtoa_r+0xe4>
 800b8f4:	f1b9 0f00 	cmp.w	r9, #0
 800b8f8:	dc03      	bgt.n	800b902 <_dtoa_r+0xba2>
 800b8fa:	9b05      	ldr	r3, [sp, #20]
 800b8fc:	2b02      	cmp	r3, #2
 800b8fe:	f73f aec9 	bgt.w	800b694 <_dtoa_r+0x934>
 800b902:	9d00      	ldr	r5, [sp, #0]
 800b904:	4631      	mov	r1, r6
 800b906:	4658      	mov	r0, fp
 800b908:	f7ff f99e 	bl	800ac48 <quorem>
 800b90c:	f100 0330 	add.w	r3, r0, #48	; 0x30
 800b910:	f805 3b01 	strb.w	r3, [r5], #1
 800b914:	9a00      	ldr	r2, [sp, #0]
 800b916:	1aaa      	subs	r2, r5, r2
 800b918:	4591      	cmp	r9, r2
 800b91a:	ddba      	ble.n	800b892 <_dtoa_r+0xb32>
 800b91c:	4659      	mov	r1, fp
 800b91e:	2300      	movs	r3, #0
 800b920:	220a      	movs	r2, #10
 800b922:	4620      	mov	r0, r4
 800b924:	f000 fc0a 	bl	800c13c <__multadd>
 800b928:	4683      	mov	fp, r0
 800b92a:	e7eb      	b.n	800b904 <_dtoa_r+0xba4>
 800b92c:	0800fceb 	.word	0x0800fceb
 800b930:	0800fef1 	.word	0x0800fef1
 800b934:	0800fc68 	.word	0x0800fc68

0800b938 <rshift>:
 800b938:	6903      	ldr	r3, [r0, #16]
 800b93a:	ebb3 1f61 	cmp.w	r3, r1, asr #5
 800b93e:	e92d 43f0 	stmdb	sp!, {r4, r5, r6, r7, r8, r9, lr}
 800b942:	ea4f 1261 	mov.w	r2, r1, asr #5
 800b946:	f100 0414 	add.w	r4, r0, #20
 800b94a:	dd45      	ble.n	800b9d8 <rshift+0xa0>
 800b94c:	f011 011f 	ands.w	r1, r1, #31
 800b950:	eb04 0683 	add.w	r6, r4, r3, lsl #2
 800b954:	eb04 0582 	add.w	r5, r4, r2, lsl #2
 800b958:	d10c      	bne.n	800b974 <rshift+0x3c>
 800b95a:	f100 0710 	add.w	r7, r0, #16
 800b95e:	4629      	mov	r1, r5
 800b960:	42b1      	cmp	r1, r6
 800b962:	d334      	bcc.n	800b9ce <rshift+0x96>
 800b964:	1a9b      	subs	r3, r3, r2
 800b966:	009b      	lsls	r3, r3, #2
 800b968:	1eea      	subs	r2, r5, #3
 800b96a:	4296      	cmp	r6, r2
 800b96c:	bf38      	it	cc
 800b96e:	2300      	movcc	r3, #0
 800b970:	4423      	add	r3, r4
 800b972:	e015      	b.n	800b9a0 <rshift+0x68>
 800b974:	f854 7022 	ldr.w	r7, [r4, r2, lsl #2]
 800b978:	f1c1 0820 	rsb	r8, r1, #32
 800b97c:	40cf      	lsrs	r7, r1
 800b97e:	f105 0e04 	add.w	lr, r5, #4
 800b982:	46a1      	mov	r9, r4
 800b984:	4576      	cmp	r6, lr
 800b986:	46f4      	mov	ip, lr
 800b988:	d815      	bhi.n	800b9b6 <rshift+0x7e>
 800b98a:	1a9b      	subs	r3, r3, r2
 800b98c:	009a      	lsls	r2, r3, #2
 800b98e:	3a04      	subs	r2, #4
 800b990:	3501      	adds	r5, #1
 800b992:	42ae      	cmp	r6, r5
 800b994:	bf38      	it	cc
 800b996:	2200      	movcc	r2, #0
 800b998:	18a3      	adds	r3, r4, r2
 800b99a:	50a7      	str	r7, [r4, r2]
 800b99c:	b107      	cbz	r7, 800b9a0 <rshift+0x68>
 800b99e:	3304      	adds	r3, #4
 800b9a0:	1b1a      	subs	r2, r3, r4
 800b9a2:	42a3      	cmp	r3, r4
 800b9a4:	ea4f 02a2 	mov.w	r2, r2, asr #2
 800b9a8:	bf08      	it	eq
 800b9aa:	2300      	moveq	r3, #0
 800b9ac:	6102      	str	r2, [r0, #16]
 800b9ae:	bf08      	it	eq
 800b9b0:	6143      	streq	r3, [r0, #20]
 800b9b2:	e8bd 83f0 	ldmia.w	sp!, {r4, r5, r6, r7, r8, r9, pc}
 800b9b6:	f8dc c000 	ldr.w	ip, [ip]
 800b9ba:	fa0c fc08 	lsl.w	ip, ip, r8
 800b9be:	ea4c 0707 	orr.w	r7, ip, r7
 800b9c2:	f849 7b04 	str.w	r7, [r9], #4
 800b9c6:	f85e 7b04 	ldr.w	r7, [lr], #4
 800b9ca:	40cf      	lsrs	r7, r1
 800b9cc:	e7da      	b.n	800b984 <rshift+0x4c>
 800b9ce:	f851 cb04 	ldr.w	ip, [r1], #4
 800b9d2:	f847 cf04 	str.w	ip, [r7, #4]!
 800b9d6:	e7c3      	b.n	800b960 <rshift+0x28>
 800b9d8:	4623      	mov	r3, r4
 800b9da:	e7e1      	b.n	800b9a0 <rshift+0x68>

0800b9dc <__hexdig_fun>:
 800b9dc:	f1a0 0330 	sub.w	r3, r0, #48	; 0x30
 800b9e0:	2b09      	cmp	r3, #9
 800b9e2:	d802      	bhi.n	800b9ea <__hexdig_fun+0xe>
 800b9e4:	3820      	subs	r0, #32
 800b9e6:	b2c0      	uxtb	r0, r0
 800b9e8:	4770      	bx	lr
 800b9ea:	f1a0 0361 	sub.w	r3, r0, #97	; 0x61
 800b9ee:	2b05      	cmp	r3, #5
 800b9f0:	d801      	bhi.n	800b9f6 <__hexdig_fun+0x1a>
 800b9f2:	3847      	subs	r0, #71	; 0x47
 800b9f4:	e7f7      	b.n	800b9e6 <__hexdig_fun+0xa>
 800b9f6:	f1a0 0341 	sub.w	r3, r0, #65	; 0x41
 800b9fa:	2b05      	cmp	r3, #5
 800b9fc:	d801      	bhi.n	800ba02 <__hexdig_fun+0x26>
 800b9fe:	3827      	subs	r0, #39	; 0x27
 800ba00:	e7f1      	b.n	800b9e6 <__hexdig_fun+0xa>
 800ba02:	2000      	movs	r0, #0
 800ba04:	4770      	bx	lr
	...

0800ba08 <__gethex>:
 800ba08:	e92d 4ff0 	stmdb	sp!, {r4, r5, r6, r7, r8, r9, sl, fp, lr}
 800ba0c:	ed2d 8b02 	vpush	{d8}
 800ba10:	b089      	sub	sp, #36	; 0x24
 800ba12:	ee08 0a10 	vmov	s16, r0
 800ba16:	9304      	str	r3, [sp, #16]
 800ba18:	4bbc      	ldr	r3, [pc, #752]	; (800bd0c <__gethex+0x304>)
 800ba1a:	681b      	ldr	r3, [r3, #0]
 800ba1c:	9301      	str	r3, [sp, #4]
 800ba1e:	4618      	mov	r0, r3
 800ba20:	468b      	mov	fp, r1
 800ba22:	4690      	mov	r8, r2
 800ba24:	f7f4 fbde 	bl	80001e4 <strlen>
 800ba28:	9b01      	ldr	r3, [sp, #4]
 800ba2a:	f8db 2000 	ldr.w	r2, [fp]
 800ba2e:	4403      	add	r3, r0
 800ba30:	4682      	mov	sl, r0
 800ba32:	f813 3c01 	ldrb.w	r3, [r3, #-1]
 800ba36:	9305      	str	r3, [sp, #20]
 800ba38:	1c93      	adds	r3, r2, #2
 800ba3a:	f1c2 22ff 	rsb	r2, r2, #4278255360	; 0xff00ff00
 800ba3e:	f502 027f 	add.w	r2, r2, #16711680	; 0xff0000
 800ba42:	32fe      	adds	r2, #254	; 0xfe
 800ba44:	18d1      	adds	r1, r2, r3
 800ba46:	461f      	mov	r7, r3
 800ba48:	f813 0b01 	ldrb.w	r0, [r3], #1
 800ba4c:	9100      	str	r1, [sp, #0]
 800ba4e:	2830      	cmp	r0, #48	; 0x30
 800ba50:	d0f8      	beq.n	800ba44 <__gethex+0x3c>
 800ba52:	f7ff ffc3 	bl	800b9dc <__hexdig_fun>
 800ba56:	4604      	mov	r4, r0
 800ba58:	2800      	cmp	r0, #0
 800ba5a:	d13a      	bne.n	800bad2 <__gethex+0xca>
 800ba5c:	9901      	ldr	r1, [sp, #4]
 800ba5e:	4652      	mov	r2, sl
 800ba60:	4638      	mov	r0, r7
 800ba62:	f7fe fa08 	bl	8009e76 <strncmp>
 800ba66:	4605      	mov	r5, r0
 800ba68:	2800      	cmp	r0, #0
 800ba6a:	d168      	bne.n	800bb3e <__gethex+0x136>
 800ba6c:	f817 000a 	ldrb.w	r0, [r7, sl]
 800ba70:	eb07 060a 	add.w	r6, r7, sl
 800ba74:	f7ff ffb2 	bl	800b9dc <__hexdig_fun>
 800ba78:	2800      	cmp	r0, #0
 800ba7a:	d062      	beq.n	800bb42 <__gethex+0x13a>
 800ba7c:	4633      	mov	r3, r6
 800ba7e:	7818      	ldrb	r0, [r3, #0]
 800ba80:	2830      	cmp	r0, #48	; 0x30
 800ba82:	461f      	mov	r7, r3
 800ba84:	f103 0301 	add.w	r3, r3, #1
 800ba88:	d0f9      	beq.n	800ba7e <__gethex+0x76>
 800ba8a:	f7ff ffa7 	bl	800b9dc <__hexdig_fun>
 800ba8e:	2301      	movs	r3, #1
 800ba90:	fab0 f480 	clz	r4, r0
 800ba94:	0964      	lsrs	r4, r4, #5
 800ba96:	4635      	mov	r5, r6
 800ba98:	9300      	str	r3, [sp, #0]
 800ba9a:	463a      	mov	r2, r7
 800ba9c:	4616      	mov	r6, r2
 800ba9e:	3201      	adds	r2, #1
 800baa0:	7830      	ldrb	r0, [r6, #0]
 800baa2:	f7ff ff9b 	bl	800b9dc <__hexdig_fun>
 800baa6:	2800      	cmp	r0, #0
 800baa8:	d1f8      	bne.n	800ba9c <__gethex+0x94>
 800baaa:	9901      	ldr	r1, [sp, #4]
 800baac:	4652      	mov	r2, sl
 800baae:	4630      	mov	r0, r6
 800bab0:	f7fe f9e1 	bl	8009e76 <strncmp>
 800bab4:	b980      	cbnz	r0, 800bad8 <__gethex+0xd0>
 800bab6:	b94d      	cbnz	r5, 800bacc <__gethex+0xc4>
 800bab8:	eb06 050a 	add.w	r5, r6, sl
 800babc:	462a      	mov	r2, r5
 800babe:	4616      	mov	r6, r2
 800bac0:	3201      	adds	r2, #1
 800bac2:	7830      	ldrb	r0, [r6, #0]
 800bac4:	f7ff ff8a 	bl	800b9dc <__hexdig_fun>
 800bac8:	2800      	cmp	r0, #0
 800baca:	d1f8      	bne.n	800babe <__gethex+0xb6>
 800bacc:	1bad      	subs	r5, r5, r6
 800bace:	00ad      	lsls	r5, r5, #2
 800bad0:	e004      	b.n	800badc <__gethex+0xd4>
 800bad2:	2400      	movs	r4, #0
 800bad4:	4625      	mov	r5, r4
 800bad6:	e7e0      	b.n	800ba9a <__gethex+0x92>
 800bad8:	2d00      	cmp	r5, #0
 800bada:	d1f7      	bne.n	800bacc <__gethex+0xc4>
 800badc:	7833      	ldrb	r3, [r6, #0]
 800bade:	f003 03df 	and.w	r3, r3, #223	; 0xdf
 800bae2:	2b50      	cmp	r3, #80	; 0x50
 800bae4:	d13b      	bne.n	800bb5e <__gethex+0x156>
 800bae6:	7873      	ldrb	r3, [r6, #1]
 800bae8:	2b2b      	cmp	r3, #43	; 0x2b
 800baea:	d02c      	beq.n	800bb46 <__gethex+0x13e>
 800baec:	2b2d      	cmp	r3, #45	; 0x2d
 800baee:	d02e      	beq.n	800bb4e <__gethex+0x146>
 800baf0:	1c71      	adds	r1, r6, #1
 800baf2:	f04f 0900 	mov.w	r9, #0
 800baf6:	7808      	ldrb	r0, [r1, #0]
 800baf8:	f7ff ff70 	bl	800b9dc <__hexdig_fun>
 800bafc:	1e43      	subs	r3, r0, #1
 800bafe:	b2db      	uxtb	r3, r3
 800bb00:	2b18      	cmp	r3, #24
 800bb02:	d82c      	bhi.n	800bb5e <__gethex+0x156>
 800bb04:	f1a0 0210 	sub.w	r2, r0, #16
 800bb08:	f811 0f01 	ldrb.w	r0, [r1, #1]!
 800bb0c:	f7ff ff66 	bl	800b9dc <__hexdig_fun>
 800bb10:	1e43      	subs	r3, r0, #1
 800bb12:	b2db      	uxtb	r3, r3
 800bb14:	2b18      	cmp	r3, #24
 800bb16:	d91d      	bls.n	800bb54 <__gethex+0x14c>
 800bb18:	f1b9 0f00 	cmp.w	r9, #0
 800bb1c:	d000      	beq.n	800bb20 <__gethex+0x118>
 800bb1e:	4252      	negs	r2, r2
 800bb20:	4415      	add	r5, r2
 800bb22:	f8cb 1000 	str.w	r1, [fp]
 800bb26:	b1e4      	cbz	r4, 800bb62 <__gethex+0x15a>
 800bb28:	9b00      	ldr	r3, [sp, #0]
 800bb2a:	2b00      	cmp	r3, #0
 800bb2c:	bf14      	ite	ne
 800bb2e:	2700      	movne	r7, #0
 800bb30:	2706      	moveq	r7, #6
 800bb32:	4638      	mov	r0, r7
 800bb34:	b009      	add	sp, #36	; 0x24
 800bb36:	ecbd 8b02 	vpop	{d8}
 800bb3a:	e8bd 8ff0 	ldmia.w	sp!, {r4, r5, r6, r7, r8, r9, sl, fp, pc}
 800bb3e:	463e      	mov	r6, r7
 800bb40:	4625      	mov	r5, r4
 800bb42:	2401      	movs	r4, #1
 800bb44:	e7ca      	b.n	800badc <__gethex+0xd4>
 800bb46:	f04f 0900 	mov.w	r9, #0
 800bb4a:	1cb1      	adds	r1, r6, #2
 800bb4c:	e7d3      	b.n	800baf6 <__gethex+0xee>
 800bb4e:	f04f 0901 	mov.w	r9, #1
 800bb52:	e7fa      	b.n	800bb4a <__gethex+0x142>
 800bb54:	230a      	movs	r3, #10
 800bb56:	fb03 0202 	mla	r2, r3, r2, r0
 800bb5a:	3a10      	subs	r2, #16
 800bb5c:	e7d4      	b.n	800bb08 <__gethex+0x100>
 800bb5e:	4631      	mov	r1, r6
 800bb60:	e7df      	b.n	800bb22 <__gethex+0x11a>
 800bb62:	1bf3      	subs	r3, r6, r7
 800bb64:	3b01      	subs	r3, #1
 800bb66:	4621      	mov	r1, r4
 800bb68:	2b07      	cmp	r3, #7
 800bb6a:	dc0b      	bgt.n	800bb84 <__gethex+0x17c>
 800bb6c:	ee18 0a10 	vmov	r0, s16
 800bb70:	f000 fa82 	bl	800c078 <_Balloc>
 800bb74:	4604      	mov	r4, r0
 800bb76:	b940      	cbnz	r0, 800bb8a <__gethex+0x182>
 800bb78:	4b65      	ldr	r3, [pc, #404]	; (800bd10 <__gethex+0x308>)
 800bb7a:	4602      	mov	r2, r0
 800bb7c:	21de      	movs	r1, #222	; 0xde
 800bb7e:	4865      	ldr	r0, [pc, #404]	; (800bd14 <__gethex+0x30c>)
 800bb80:	f001 fd92 	bl	800d6a8 <__assert_func>
 800bb84:	3101      	adds	r1, #1
 800bb86:	105b      	asrs	r3, r3, #1
 800bb88:	e7ee      	b.n	800bb68 <__gethex+0x160>
 800bb8a:	f100 0914 	add.w	r9, r0, #20
 800bb8e:	f04f 0b00 	mov.w	fp, #0
 800bb92:	f1ca 0301 	rsb	r3, sl, #1
 800bb96:	f8cd 9008 	str.w	r9, [sp, #8]
 800bb9a:	f8cd b000 	str.w	fp, [sp]
 800bb9e:	9306      	str	r3, [sp, #24]
 800bba0:	42b7      	cmp	r7, r6
 800bba2:	d340      	bcc.n	800bc26 <__gethex+0x21e>
 800bba4:	9802      	ldr	r0, [sp, #8]
 800bba6:	9b00      	ldr	r3, [sp, #0]
 800bba8:	f840 3b04 	str.w	r3, [r0], #4
 800bbac:	eba0 0009 	sub.w	r0, r0, r9
 800bbb0:	1080      	asrs	r0, r0, #2
 800bbb2:	0146      	lsls	r6, r0, #5
 800bbb4:	6120      	str	r0, [r4, #16]
 800bbb6:	4618      	mov	r0, r3
 800bbb8:	f000 fb54 	bl	800c264 <__hi0bits>
 800bbbc:	1a30      	subs	r0, r6, r0
 800bbbe:	f8d8 6000 	ldr.w	r6, [r8]
 800bbc2:	42b0      	cmp	r0, r6
 800bbc4:	dd63      	ble.n	800bc8e <__gethex+0x286>
 800bbc6:	1b87      	subs	r7, r0, r6
 800bbc8:	4639      	mov	r1, r7
 800bbca:	4620      	mov	r0, r4
 800bbcc:	f000 feee 	bl	800c9ac <__any_on>
 800bbd0:	4682      	mov	sl, r0
 800bbd2:	b1a8      	cbz	r0, 800bc00 <__gethex+0x1f8>
 800bbd4:	1e7b      	subs	r3, r7, #1
 800bbd6:	1159      	asrs	r1, r3, #5
 800bbd8:	f003 021f 	and.w	r2, r3, #31
 800bbdc:	f859 1021 	ldr.w	r1, [r9, r1, lsl #2]
 800bbe0:	f04f 0a01 	mov.w	sl, #1
 800bbe4:	fa0a f202 	lsl.w	r2, sl, r2
 800bbe8:	420a      	tst	r2, r1
 800bbea:	d009      	beq.n	800bc00 <__gethex+0x1f8>
 800bbec:	4553      	cmp	r3, sl
 800bbee:	dd05      	ble.n	800bbfc <__gethex+0x1f4>
 800bbf0:	1eb9      	subs	r1, r7, #2
 800bbf2:	4620      	mov	r0, r4
 800bbf4:	f000 feda 	bl	800c9ac <__any_on>
 800bbf8:	2800      	cmp	r0, #0
 800bbfa:	d145      	bne.n	800bc88 <__gethex+0x280>
 800bbfc:	f04f 0a02 	mov.w	sl, #2
 800bc00:	4639      	mov	r1, r7
 800bc02:	4620      	mov	r0, r4
 800bc04:	f7ff fe98 	bl	800b938 <rshift>
 800bc08:	443d      	add	r5, r7
 800bc0a:	f8d8 3008 	ldr.w	r3, [r8, #8]
 800bc0e:	42ab      	cmp	r3, r5
 800bc10:	da4c      	bge.n	800bcac <__gethex+0x2a4>
 800bc12:	ee18 0a10 	vmov	r0, s16
 800bc16:	4621      	mov	r1, r4
 800bc18:	f000 fa6e 	bl	800c0f8 <_Bfree>
 800bc1c:	9a14      	ldr	r2, [sp, #80]	; 0x50
 800bc1e:	2300      	movs	r3, #0
 800bc20:	6013      	str	r3, [r2, #0]
 800bc22:	27a3      	movs	r7, #163	; 0xa3
 800bc24:	e785      	b.n	800bb32 <__gethex+0x12a>
 800bc26:	1e73      	subs	r3, r6, #1
 800bc28:	9a05      	ldr	r2, [sp, #20]
 800bc2a:	9303      	str	r3, [sp, #12]
 800bc2c:	f816 3c01 	ldrb.w	r3, [r6, #-1]
 800bc30:	4293      	cmp	r3, r2
 800bc32:	d019      	beq.n	800bc68 <__gethex+0x260>
 800bc34:	f1bb 0f20 	cmp.w	fp, #32
 800bc38:	d107      	bne.n	800bc4a <__gethex+0x242>
 800bc3a:	9b02      	ldr	r3, [sp, #8]
 800bc3c:	9a00      	ldr	r2, [sp, #0]
 800bc3e:	f843 2b04 	str.w	r2, [r3], #4
 800bc42:	9302      	str	r3, [sp, #8]
 800bc44:	2300      	movs	r3, #0
 800bc46:	9300      	str	r3, [sp, #0]
 800bc48:	469b      	mov	fp, r3
 800bc4a:	f816 0c01 	ldrb.w	r0, [r6, #-1]
 800bc4e:	f7ff fec5 	bl	800b9dc <__hexdig_fun>
 800bc52:	9b00      	ldr	r3, [sp, #0]
 800bc54:	f000 000f 	and.w	r0, r0, #15
 800bc58:	fa00 f00b 	lsl.w	r0, r0, fp
 800bc5c:	4303      	orrs	r3, r0
 800bc5e:	9300      	str	r3, [sp, #0]
 800bc60:	f10b 0b04 	add.w	fp, fp, #4
 800bc64:	9b03      	ldr	r3, [sp, #12]
 800bc66:	e00d      	b.n	800bc84 <__gethex+0x27c>
 800bc68:	9b03      	ldr	r3, [sp, #12]
 800bc6a:	9a06      	ldr	r2, [sp, #24]
 800bc6c:	4413      	add	r3, r2
 800bc6e:	42bb      	cmp	r3, r7
 800bc70:	d3e0      	bcc.n	800bc34 <__gethex+0x22c>
 800bc72:	4618      	mov	r0, r3
 800bc74:	9901      	ldr	r1, [sp, #4]
 800bc76:	9307      	str	r3, [sp, #28]
 800bc78:	4652      	mov	r2, sl
 800bc7a:	f7fe f8fc 	bl	8009e76 <strncmp>
 800bc7e:	9b07      	ldr	r3, [sp, #28]
 800bc80:	2800      	cmp	r0, #0
 800bc82:	d1d7      	bne.n	800bc34 <__gethex+0x22c>
 800bc84:	461e      	mov	r6, r3
 800bc86:	e78b      	b.n	800bba0 <__gethex+0x198>
 800bc88:	f04f 0a03 	mov.w	sl, #3
 800bc8c:	e7b8      	b.n	800bc00 <__gethex+0x1f8>
 800bc8e:	da0a      	bge.n	800bca6 <__gethex+0x29e>
 800bc90:	1a37      	subs	r7, r6, r0
 800bc92:	4621      	mov	r1, r4
 800bc94:	ee18 0a10 	vmov	r0, s16
 800bc98:	463a      	mov	r2, r7
 800bc9a:	f000 fc49 	bl	800c530 <__lshift>
 800bc9e:	1bed      	subs	r5, r5, r7
 800bca0:	4604      	mov	r4, r0
 800bca2:	f100 0914 	add.w	r9, r0, #20
 800bca6:	f04f 0a00 	mov.w	sl, #0
 800bcaa:	e7ae      	b.n	800bc0a <__gethex+0x202>
 800bcac:	f8d8 0004 	ldr.w	r0, [r8, #4]
 800bcb0:	42a8      	cmp	r0, r5
 800bcb2:	dd72      	ble.n	800bd9a <__gethex+0x392>
 800bcb4:	1b45      	subs	r5, r0, r5
 800bcb6:	42ae      	cmp	r6, r5
 800bcb8:	dc36      	bgt.n	800bd28 <__gethex+0x320>
 800bcba:	f8d8 300c 	ldr.w	r3, [r8, #12]
 800bcbe:	2b02      	cmp	r3, #2
 800bcc0:	d02a      	beq.n	800bd18 <__gethex+0x310>
 800bcc2:	2b03      	cmp	r3, #3
 800bcc4:	d02c      	beq.n	800bd20 <__gethex+0x318>
 800bcc6:	2b01      	cmp	r3, #1
 800bcc8:	d115      	bne.n	800bcf6 <__gethex+0x2ee>
 800bcca:	42ae      	cmp	r6, r5
 800bccc:	d113      	bne.n	800bcf6 <__gethex+0x2ee>
 800bcce:	2e01      	cmp	r6, #1
 800bcd0:	d10b      	bne.n	800bcea <__gethex+0x2e2>
 800bcd2:	9a04      	ldr	r2, [sp, #16]
 800bcd4:	f8d8 3004 	ldr.w	r3, [r8, #4]
 800bcd8:	6013      	str	r3, [r2, #0]
 800bcda:	2301      	movs	r3, #1
 800bcdc:	6123      	str	r3, [r4, #16]
 800bcde:	f8c9 3000 	str.w	r3, [r9]
 800bce2:	9b14      	ldr	r3, [sp, #80]	; 0x50
 800bce4:	2762      	movs	r7, #98	; 0x62
 800bce6:	601c      	str	r4, [r3, #0]
 800bce8:	e723      	b.n	800bb32 <__gethex+0x12a>
 800bcea:	1e71      	subs	r1, r6, #1
 800bcec:	4620      	mov	r0, r4
 800bcee:	f000 fe5d 	bl	800c9ac <__any_on>
 800bcf2:	2800      	cmp	r0, #0
 800bcf4:	d1ed      	bne.n	800bcd2 <__gethex+0x2ca>
 800bcf6:	ee18 0a10 	vmov	r0, s16
 800bcfa:	4621      	mov	r1, r4
 800bcfc:	f000 f9fc 	bl	800c0f8 <_Bfree>
 800bd00:	9a14      	ldr	r2, [sp, #80]	; 0x50
 800bd02:	2300      	movs	r3, #0
 800bd04:	6013      	str	r3, [r2, #0]
 800bd06:	2750      	movs	r7, #80	; 0x50
 800bd08:	e713      	b.n	800bb32 <__gethex+0x12a>
 800bd0a:	bf00      	nop
 800bd0c:	0800fd68 	.word	0x0800fd68
 800bd10:	0800fceb 	.word	0x0800fceb
 800bd14:	0800fcfc 	.word	0x0800fcfc
 800bd18:	9b15      	ldr	r3, [sp, #84]	; 0x54
 800bd1a:	2b00      	cmp	r3, #0
 800bd1c:	d1eb      	bne.n	800bcf6 <__gethex+0x2ee>
 800bd1e:	e7d8      	b.n	800bcd2 <__gethex+0x2ca>
 800bd20:	9b15      	ldr	r3, [sp, #84]	; 0x54
 800bd22:	2b00      	cmp	r3, #0
 800bd24:	d1d5      	bne.n	800bcd2 <__gethex+0x2ca>
 800bd26:	e7e6      	b.n	800bcf6 <__gethex+0x2ee>
 800bd28:	1e6f      	subs	r7, r5, #1
 800bd2a:	f1ba 0f00 	cmp.w	sl, #0
 800bd2e:	d131      	bne.n	800bd94 <__gethex+0x38c>
 800bd30:	b127      	cbz	r7, 800bd3c <__gethex+0x334>
 800bd32:	4639      	mov	r1, r7
 800bd34:	4620      	mov	r0, r4
 800bd36:	f000 fe39 	bl	800c9ac <__any_on>
 800bd3a:	4682      	mov	sl, r0
 800bd3c:	117b      	asrs	r3, r7, #5
 800bd3e:	2101      	movs	r1, #1
 800bd40:	f859 3023 	ldr.w	r3, [r9, r3, lsl #2]
 800bd44:	f007 071f 	and.w	r7, r7, #31
 800bd48:	fa01 f707 	lsl.w	r7, r1, r7
 800bd4c:	421f      	tst	r7, r3
 800bd4e:	4629      	mov	r1, r5
 800bd50:	4620      	mov	r0, r4
 800bd52:	bf18      	it	ne
 800bd54:	f04a 0a02 	orrne.w	sl, sl, #2
 800bd58:	1b76      	subs	r6, r6, r5
 800bd5a:	f7ff fded 	bl	800b938 <rshift>
 800bd5e:	f8d8 5004 	ldr.w	r5, [r8, #4]
 800bd62:	2702      	movs	r7, #2
 800bd64:	f1ba 0f00 	cmp.w	sl, #0
 800bd68:	d048      	beq.n	800bdfc <__gethex+0x3f4>
 800bd6a:	f8d8 300c 	ldr.w	r3, [r8, #12]
 800bd6e:	2b02      	cmp	r3, #2
 800bd70:	d015      	beq.n	800bd9e <__gethex+0x396>
 800bd72:	2b03      	cmp	r3, #3
 800bd74:	d017      	beq.n	800bda6 <__gethex+0x39e>
 800bd76:	2b01      	cmp	r3, #1
 800bd78:	d109      	bne.n	800bd8e <__gethex+0x386>
 800bd7a:	f01a 0f02 	tst.w	sl, #2
 800bd7e:	d006      	beq.n	800bd8e <__gethex+0x386>
 800bd80:	f8d9 0000 	ldr.w	r0, [r9]
 800bd84:	ea4a 0a00 	orr.w	sl, sl, r0
 800bd88:	f01a 0f01 	tst.w	sl, #1
 800bd8c:	d10e      	bne.n	800bdac <__gethex+0x3a4>
 800bd8e:	f047 0710 	orr.w	r7, r7, #16
 800bd92:	e033      	b.n	800bdfc <__gethex+0x3f4>
 800bd94:	f04f 0a01 	mov.w	sl, #1
 800bd98:	e7d0      	b.n	800bd3c <__gethex+0x334>
 800bd9a:	2701      	movs	r7, #1
 800bd9c:	e7e2      	b.n	800bd64 <__gethex+0x35c>
 800bd9e:	9b15      	ldr	r3, [sp, #84]	; 0x54
 800bda0:	f1c3 0301 	rsb	r3, r3, #1
 800bda4:	9315      	str	r3, [sp, #84]	; 0x54
 800bda6:	9b15      	ldr	r3, [sp, #84]	; 0x54
 800bda8:	2b00      	cmp	r3, #0
 800bdaa:	d0f0      	beq.n	800bd8e <__gethex+0x386>
 800bdac:	f8d4 b010 	ldr.w	fp, [r4, #16]
 800bdb0:	f104 0314 	add.w	r3, r4, #20
 800bdb4:	ea4f 0a8b 	mov.w	sl, fp, lsl #2
 800bdb8:	eb03 018b 	add.w	r1, r3, fp, lsl #2
 800bdbc:	f04f 0c00 	mov.w	ip, #0
 800bdc0:	4618      	mov	r0, r3
 800bdc2:	f853 2b04 	ldr.w	r2, [r3], #4
 800bdc6:	f1b2 3fff 	cmp.w	r2, #4294967295
 800bdca:	d01c      	beq.n	800be06 <__gethex+0x3fe>
 800bdcc:	3201      	adds	r2, #1
 800bdce:	6002      	str	r2, [r0, #0]
 800bdd0:	2f02      	cmp	r7, #2
 800bdd2:	f104 0314 	add.w	r3, r4, #20
 800bdd6:	d13f      	bne.n	800be58 <__gethex+0x450>
 800bdd8:	f8d8 2000 	ldr.w	r2, [r8]
 800bddc:	3a01      	subs	r2, #1
 800bdde:	42b2      	cmp	r2, r6
 800bde0:	d10a      	bne.n	800bdf8 <__gethex+0x3f0>
 800bde2:	1171      	asrs	r1, r6, #5
 800bde4:	2201      	movs	r2, #1
 800bde6:	f853 3021 	ldr.w	r3, [r3, r1, lsl #2]
 800bdea:	f006 061f 	and.w	r6, r6, #31
 800bdee:	fa02 f606 	lsl.w	r6, r2, r6
 800bdf2:	421e      	tst	r6, r3
 800bdf4:	bf18      	it	ne
 800bdf6:	4617      	movne	r7, r2
 800bdf8:	f047 0720 	orr.w	r7, r7, #32
 800bdfc:	9b14      	ldr	r3, [sp, #80]	; 0x50
 800bdfe:	601c      	str	r4, [r3, #0]
 800be00:	9b04      	ldr	r3, [sp, #16]
 800be02:	601d      	str	r5, [r3, #0]
 800be04:	e695      	b.n	800bb32 <__gethex+0x12a>
 800be06:	4299      	cmp	r1, r3
 800be08:	f843 cc04 	str.w	ip, [r3, #-4]
 800be0c:	d8d8      	bhi.n	800bdc0 <__gethex+0x3b8>
 800be0e:	68a3      	ldr	r3, [r4, #8]
 800be10:	459b      	cmp	fp, r3
 800be12:	db19      	blt.n	800be48 <__gethex+0x440>
 800be14:	6861      	ldr	r1, [r4, #4]
 800be16:	ee18 0a10 	vmov	r0, s16
 800be1a:	3101      	adds	r1, #1
 800be1c:	f000 f92c 	bl	800c078 <_Balloc>
 800be20:	4681      	mov	r9, r0
 800be22:	b918      	cbnz	r0, 800be2c <__gethex+0x424>
 800be24:	4b1a      	ldr	r3, [pc, #104]	; (800be90 <__gethex+0x488>)
 800be26:	4602      	mov	r2, r0
 800be28:	2184      	movs	r1, #132	; 0x84
 800be2a:	e6a8      	b.n	800bb7e <__gethex+0x176>
 800be2c:	6922      	ldr	r2, [r4, #16]
 800be2e:	3202      	adds	r2, #2
 800be30:	f104 010c 	add.w	r1, r4, #12
 800be34:	0092      	lsls	r2, r2, #2
 800be36:	300c      	adds	r0, #12
 800be38:	f7fd f8ee 	bl	8009018 <memcpy>
 800be3c:	4621      	mov	r1, r4
 800be3e:	ee18 0a10 	vmov	r0, s16
 800be42:	f000 f959 	bl	800c0f8 <_Bfree>
 800be46:	464c      	mov	r4, r9
 800be48:	6923      	ldr	r3, [r4, #16]
 800be4a:	1c5a      	adds	r2, r3, #1
 800be4c:	eb04 0383 	add.w	r3, r4, r3, lsl #2
 800be50:	6122      	str	r2, [r4, #16]
 800be52:	2201      	movs	r2, #1
 800be54:	615a      	str	r2, [r3, #20]
 800be56:	e7bb      	b.n	800bdd0 <__gethex+0x3c8>
 800be58:	6922      	ldr	r2, [r4, #16]
 800be5a:	455a      	cmp	r2, fp
 800be5c:	dd0b      	ble.n	800be76 <__gethex+0x46e>
 800be5e:	2101      	movs	r1, #1
 800be60:	4620      	mov	r0, r4
 800be62:	f7ff fd69 	bl	800b938 <rshift>
 800be66:	f8d8 3008 	ldr.w	r3, [r8, #8]
 800be6a:	3501      	adds	r5, #1
 800be6c:	42ab      	cmp	r3, r5
 800be6e:	f6ff aed0 	blt.w	800bc12 <__gethex+0x20a>
 800be72:	2701      	movs	r7, #1
 800be74:	e7c0      	b.n	800bdf8 <__gethex+0x3f0>
 800be76:	f016 061f 	ands.w	r6, r6, #31
 800be7a:	d0fa      	beq.n	800be72 <__gethex+0x46a>
 800be7c:	449a      	add	sl, r3
 800be7e:	f1c6 0620 	rsb	r6, r6, #32
 800be82:	f85a 0c04 	ldr.w	r0, [sl, #-4]
 800be86:	f000 f9ed 	bl	800c264 <__hi0bits>
 800be8a:	42b0      	cmp	r0, r6
 800be8c:	dbe7      	blt.n	800be5e <__gethex+0x456>
 800be8e:	e7f0      	b.n	800be72 <__gethex+0x46a>
 800be90:	0800fceb 	.word	0x0800fceb

0800be94 <L_shift>:
 800be94:	f1c2 0208 	rsb	r2, r2, #8
 800be98:	0092      	lsls	r2, r2, #2
 800be9a:	b570      	push	{r4, r5, r6, lr}
 800be9c:	f1c2 0620 	rsb	r6, r2, #32
 800bea0:	6843      	ldr	r3, [r0, #4]
 800bea2:	6804      	ldr	r4, [r0, #0]
 800bea4:	fa03 f506 	lsl.w	r5, r3, r6
 800bea8:	432c      	orrs	r4, r5
 800beaa:	40d3      	lsrs	r3, r2
 800beac:	6004      	str	r4, [r0, #0]
 800beae:	f840 3f04 	str.w	r3, [r0, #4]!
 800beb2:	4288      	cmp	r0, r1
 800beb4:	d3f4      	bcc.n	800bea0 <L_shift+0xc>
 800beb6:	bd70      	pop	{r4, r5, r6, pc}

0800beb8 <__match>:
 800beb8:	b530      	push	{r4, r5, lr}
 800beba:	6803      	ldr	r3, [r0, #0]
 800bebc:	3301      	adds	r3, #1
 800bebe:	f811 4b01 	ldrb.w	r4, [r1], #1
 800bec2:	b914      	cbnz	r4, 800beca <__match+0x12>
 800bec4:	6003      	str	r3, [r0, #0]
 800bec6:	2001      	movs	r0, #1
 800bec8:	bd30      	pop	{r4, r5, pc}
 800beca:	f813 2b01 	ldrb.w	r2, [r3], #1
 800bece:	f1a2 0541 	sub.w	r5, r2, #65	; 0x41
 800bed2:	2d19      	cmp	r5, #25
 800bed4:	bf98      	it	ls
 800bed6:	3220      	addls	r2, #32
 800bed8:	42a2      	cmp	r2, r4
 800beda:	d0f0      	beq.n	800bebe <__match+0x6>
 800bedc:	2000      	movs	r0, #0
 800bede:	e7f3      	b.n	800bec8 <__match+0x10>

0800bee0 <__hexnan>:
 800bee0:	e92d 4ff0 	stmdb	sp!, {r4, r5, r6, r7, r8, r9, sl, fp, lr}
 800bee4:	680b      	ldr	r3, [r1, #0]
 800bee6:	6801      	ldr	r1, [r0, #0]
 800bee8:	115e      	asrs	r6, r3, #5
 800beea:	eb02 0686 	add.w	r6, r2, r6, lsl #2
 800beee:	f013 031f 	ands.w	r3, r3, #31
 800bef2:	b087      	sub	sp, #28
 800bef4:	bf18      	it	ne
 800bef6:	3604      	addne	r6, #4
 800bef8:	2500      	movs	r5, #0
 800befa:	1f37      	subs	r7, r6, #4
 800befc:	4682      	mov	sl, r0
 800befe:	4690      	mov	r8, r2
 800bf00:	9301      	str	r3, [sp, #4]
 800bf02:	f846 5c04 	str.w	r5, [r6, #-4]
 800bf06:	46b9      	mov	r9, r7
 800bf08:	463c      	mov	r4, r7
 800bf0a:	9502      	str	r5, [sp, #8]
 800bf0c:	46ab      	mov	fp, r5
 800bf0e:	784a      	ldrb	r2, [r1, #1]
 800bf10:	1c4b      	adds	r3, r1, #1
 800bf12:	9303      	str	r3, [sp, #12]
 800bf14:	b342      	cbz	r2, 800bf68 <__hexnan+0x88>
 800bf16:	4610      	mov	r0, r2
 800bf18:	9105      	str	r1, [sp, #20]
 800bf1a:	9204      	str	r2, [sp, #16]
 800bf1c:	f7ff fd5e 	bl	800b9dc <__hexdig_fun>
 800bf20:	2800      	cmp	r0, #0
 800bf22:	d14f      	bne.n	800bfc4 <__hexnan+0xe4>
 800bf24:	9a04      	ldr	r2, [sp, #16]
 800bf26:	9905      	ldr	r1, [sp, #20]
 800bf28:	2a20      	cmp	r2, #32
 800bf2a:	d818      	bhi.n	800bf5e <__hexnan+0x7e>
 800bf2c:	9b02      	ldr	r3, [sp, #8]
 800bf2e:	459b      	cmp	fp, r3
 800bf30:	dd13      	ble.n	800bf5a <__hexnan+0x7a>
 800bf32:	454c      	cmp	r4, r9
 800bf34:	d206      	bcs.n	800bf44 <__hexnan+0x64>
 800bf36:	2d07      	cmp	r5, #7
 800bf38:	dc04      	bgt.n	800bf44 <__hexnan+0x64>
 800bf3a:	462a      	mov	r2, r5
 800bf3c:	4649      	mov	r1, r9
 800bf3e:	4620      	mov	r0, r4
 800bf40:	f7ff ffa8 	bl	800be94 <L_shift>
 800bf44:	4544      	cmp	r4, r8
 800bf46:	d950      	bls.n	800bfea <__hexnan+0x10a>
 800bf48:	2300      	movs	r3, #0
 800bf4a:	f1a4 0904 	sub.w	r9, r4, #4
 800bf4e:	f844 3c04 	str.w	r3, [r4, #-4]
 800bf52:	f8cd b008 	str.w	fp, [sp, #8]
 800bf56:	464c      	mov	r4, r9
 800bf58:	461d      	mov	r5, r3
 800bf5a:	9903      	ldr	r1, [sp, #12]
 800bf5c:	e7d7      	b.n	800bf0e <__hexnan+0x2e>
 800bf5e:	2a29      	cmp	r2, #41	; 0x29
 800bf60:	d156      	bne.n	800c010 <__hexnan+0x130>
 800bf62:	3102      	adds	r1, #2
 800bf64:	f8ca 1000 	str.w	r1, [sl]
 800bf68:	f1bb 0f00 	cmp.w	fp, #0
 800bf6c:	d050      	beq.n	800c010 <__hexnan+0x130>
 800bf6e:	454c      	cmp	r4, r9
 800bf70:	d206      	bcs.n	800bf80 <__hexnan+0xa0>
 800bf72:	2d07      	cmp	r5, #7
 800bf74:	dc04      	bgt.n	800bf80 <__hexnan+0xa0>
 800bf76:	462a      	mov	r2, r5
 800bf78:	4649      	mov	r1, r9
 800bf7a:	4620      	mov	r0, r4
 800bf7c:	f7ff ff8a 	bl	800be94 <L_shift>
 800bf80:	4544      	cmp	r4, r8
 800bf82:	d934      	bls.n	800bfee <__hexnan+0x10e>
 800bf84:	f1a8 0204 	sub.w	r2, r8, #4
 800bf88:	4623      	mov	r3, r4
 800bf8a:	f853 1b04 	ldr.w	r1, [r3], #4
 800bf8e:	f842 1f04 	str.w	r1, [r2, #4]!
 800bf92:	429f      	cmp	r7, r3
 800bf94:	d2f9      	bcs.n	800bf8a <__hexnan+0xaa>
 800bf96:	1b3b      	subs	r3, r7, r4
 800bf98:	f023 0303 	bic.w	r3, r3, #3
 800bf9c:	3304      	adds	r3, #4
 800bf9e:	3401      	adds	r4, #1
 800bfa0:	3e03      	subs	r6, #3
 800bfa2:	42b4      	cmp	r4, r6
 800bfa4:	bf88      	it	hi
 800bfa6:	2304      	movhi	r3, #4
 800bfa8:	4443      	add	r3, r8
 800bfaa:	2200      	movs	r2, #0
 800bfac:	f843 2b04 	str.w	r2, [r3], #4
 800bfb0:	429f      	cmp	r7, r3
 800bfb2:	d2fb      	bcs.n	800bfac <__hexnan+0xcc>
 800bfb4:	683b      	ldr	r3, [r7, #0]
 800bfb6:	b91b      	cbnz	r3, 800bfc0 <__hexnan+0xe0>
 800bfb8:	4547      	cmp	r7, r8
 800bfba:	d127      	bne.n	800c00c <__hexnan+0x12c>
 800bfbc:	2301      	movs	r3, #1
 800bfbe:	603b      	str	r3, [r7, #0]
 800bfc0:	2005      	movs	r0, #5
 800bfc2:	e026      	b.n	800c012 <__hexnan+0x132>
 800bfc4:	3501      	adds	r5, #1
 800bfc6:	2d08      	cmp	r5, #8
 800bfc8:	f10b 0b01 	add.w	fp, fp, #1
 800bfcc:	dd06      	ble.n	800bfdc <__hexnan+0xfc>
 800bfce:	4544      	cmp	r4, r8
 800bfd0:	d9c3      	bls.n	800bf5a <__hexnan+0x7a>
 800bfd2:	2300      	movs	r3, #0
 800bfd4:	f844 3c04 	str.w	r3, [r4, #-4]
 800bfd8:	2501      	movs	r5, #1
 800bfda:	3c04      	subs	r4, #4
 800bfdc:	6822      	ldr	r2, [r4, #0]
 800bfde:	f000 000f 	and.w	r0, r0, #15
 800bfe2:	ea40 1202 	orr.w	r2, r0, r2, lsl #4
 800bfe6:	6022      	str	r2, [r4, #0]
 800bfe8:	e7b7      	b.n	800bf5a <__hexnan+0x7a>
 800bfea:	2508      	movs	r5, #8
 800bfec:	e7b5      	b.n	800bf5a <__hexnan+0x7a>
 800bfee:	9b01      	ldr	r3, [sp, #4]
 800bff0:	2b00      	cmp	r3, #0
 800bff2:	d0df      	beq.n	800bfb4 <__hexnan+0xd4>
 800bff4:	f04f 32ff 	mov.w	r2, #4294967295
 800bff8:	f1c3 0320 	rsb	r3, r3, #32
 800bffc:	fa22 f303 	lsr.w	r3, r2, r3
 800c000:	f856 2c04 	ldr.w	r2, [r6, #-4]
 800c004:	401a      	ands	r2, r3
 800c006:	f846 2c04 	str.w	r2, [r6, #-4]
 800c00a:	e7d3      	b.n	800bfb4 <__hexnan+0xd4>
 800c00c:	3f04      	subs	r7, #4
 800c00e:	e7d1      	b.n	800bfb4 <__hexnan+0xd4>
 800c010:	2004      	movs	r0, #4
 800c012:	b007      	add	sp, #28
 800c014:	e8bd 8ff0 	ldmia.w	sp!, {r4, r5, r6, r7, r8, r9, sl, fp, pc}

0800c018 <_localeconv_r>:
 800c018:	4800      	ldr	r0, [pc, #0]	; (800c01c <_localeconv_r+0x4>)
 800c01a:	4770      	bx	lr
 800c01c:	20000300 	.word	0x20000300

0800c020 <_lseek_r>:
 800c020:	b538      	push	{r3, r4, r5, lr}
 800c022:	4d07      	ldr	r5, [pc, #28]	; (800c040 <_lseek_r+0x20>)
 800c024:	4604      	mov	r4, r0
 800c026:	4608      	mov	r0, r1
 800c028:	4611      	mov	r1, r2
 800c02a:	2200      	movs	r2, #0
 800c02c:	602a      	str	r2, [r5, #0]
 800c02e:	461a      	mov	r2, r3
 800c030:	f7f9 f862 	bl	80050f8 <_lseek>
 800c034:	1c43      	adds	r3, r0, #1
 800c036:	d102      	bne.n	800c03e <_lseek_r+0x1e>
 800c038:	682b      	ldr	r3, [r5, #0]
 800c03a:	b103      	cbz	r3, 800c03e <_lseek_r+0x1e>
 800c03c:	6023      	str	r3, [r4, #0]
 800c03e:	bd38      	pop	{r3, r4, r5, pc}
 800c040:	20002038 	.word	0x20002038

0800c044 <malloc>:
 800c044:	4b02      	ldr	r3, [pc, #8]	; (800c050 <malloc+0xc>)
 800c046:	4601      	mov	r1, r0
 800c048:	6818      	ldr	r0, [r3, #0]
 800c04a:	f000 bd2f 	b.w	800caac <_malloc_r>
 800c04e:	bf00      	nop
 800c050:	200001a8 	.word	0x200001a8

0800c054 <__ascii_mbtowc>:
 800c054:	b082      	sub	sp, #8
 800c056:	b901      	cbnz	r1, 800c05a <__ascii_mbtowc+0x6>
 800c058:	a901      	add	r1, sp, #4
 800c05a:	b142      	cbz	r2, 800c06e <__ascii_mbtowc+0x1a>
 800c05c:	b14b      	cbz	r3, 800c072 <__ascii_mbtowc+0x1e>
 800c05e:	7813      	ldrb	r3, [r2, #0]
 800c060:	600b      	str	r3, [r1, #0]
 800c062:	7812      	ldrb	r2, [r2, #0]
 800c064:	1e10      	subs	r0, r2, #0
 800c066:	bf18      	it	ne
 800c068:	2001      	movne	r0, #1
 800c06a:	b002      	add	sp, #8
 800c06c:	4770      	bx	lr
 800c06e:	4610      	mov	r0, r2
 800c070:	e7fb      	b.n	800c06a <__ascii_mbtowc+0x16>
 800c072:	f06f 0001 	mvn.w	r0, #1
 800c076:	e7f8      	b.n	800c06a <__ascii_mbtowc+0x16>

0800c078 <_Balloc>:
 800c078:	b570      	push	{r4, r5, r6, lr}
 800c07a:	6a46      	ldr	r6, [r0, #36]	; 0x24
 800c07c:	4604      	mov	r4, r0
 800c07e:	460d      	mov	r5, r1
 800c080:	b976      	cbnz	r6, 800c0a0 <_Balloc+0x28>
 800c082:	2010      	movs	r0, #16
 800c084:	f7ff ffde 	bl	800c044 <malloc>
 800c088:	4602      	mov	r2, r0
 800c08a:	6260      	str	r0, [r4, #36]	; 0x24
 800c08c:	b920      	cbnz	r0, 800c098 <_Balloc+0x20>
 800c08e:	4b18      	ldr	r3, [pc, #96]	; (800c0f0 <_Balloc+0x78>)
 800c090:	4818      	ldr	r0, [pc, #96]	; (800c0f4 <_Balloc+0x7c>)
 800c092:	2166      	movs	r1, #102	; 0x66
 800c094:	f001 fb08 	bl	800d6a8 <__assert_func>
 800c098:	e9c0 6601 	strd	r6, r6, [r0, #4]
 800c09c:	6006      	str	r6, [r0, #0]
 800c09e:	60c6      	str	r6, [r0, #12]
 800c0a0:	6a66      	ldr	r6, [r4, #36]	; 0x24
 800c0a2:	68f3      	ldr	r3, [r6, #12]
 800c0a4:	b183      	cbz	r3, 800c0c8 <_Balloc+0x50>
 800c0a6:	6a63      	ldr	r3, [r4, #36]	; 0x24
 800c0a8:	68db      	ldr	r3, [r3, #12]
 800c0aa:	f853 0025 	ldr.w	r0, [r3, r5, lsl #2]
 800c0ae:	b9b8      	cbnz	r0, 800c0e0 <_Balloc+0x68>
 800c0b0:	2101      	movs	r1, #1
 800c0b2:	fa01 f605 	lsl.w	r6, r1, r5
 800c0b6:	1d72      	adds	r2, r6, #5
 800c0b8:	0092      	lsls	r2, r2, #2
 800c0ba:	4620      	mov	r0, r4
 800c0bc:	f000 fc97 	bl	800c9ee <_calloc_r>
 800c0c0:	b160      	cbz	r0, 800c0dc <_Balloc+0x64>
 800c0c2:	e9c0 5601 	strd	r5, r6, [r0, #4]
 800c0c6:	e00e      	b.n	800c0e6 <_Balloc+0x6e>
 800c0c8:	2221      	movs	r2, #33	; 0x21
 800c0ca:	2104      	movs	r1, #4
 800c0cc:	4620      	mov	r0, r4
 800c0ce:	f000 fc8e 	bl	800c9ee <_calloc_r>
 800c0d2:	6a63      	ldr	r3, [r4, #36]	; 0x24
 800c0d4:	60f0      	str	r0, [r6, #12]
 800c0d6:	68db      	ldr	r3, [r3, #12]
 800c0d8:	2b00      	cmp	r3, #0
 800c0da:	d1e4      	bne.n	800c0a6 <_Balloc+0x2e>
 800c0dc:	2000      	movs	r0, #0
 800c0de:	bd70      	pop	{r4, r5, r6, pc}
 800c0e0:	6802      	ldr	r2, [r0, #0]
 800c0e2:	f843 2025 	str.w	r2, [r3, r5, lsl #2]
 800c0e6:	2300      	movs	r3, #0
 800c0e8:	e9c0 3303 	strd	r3, r3, [r0, #12]
 800c0ec:	e7f7      	b.n	800c0de <_Balloc+0x66>
 800c0ee:	bf00      	nop
 800c0f0:	0800fc75 	.word	0x0800fc75
 800c0f4:	0800fd7c 	.word	0x0800fd7c

0800c0f8 <_Bfree>:
 800c0f8:	b570      	push	{r4, r5, r6, lr}
 800c0fa:	6a46      	ldr	r6, [r0, #36]	; 0x24
 800c0fc:	4605      	mov	r5, r0
 800c0fe:	460c      	mov	r4, r1
 800c100:	b976      	cbnz	r6, 800c120 <_Bfree+0x28>
 800c102:	2010      	movs	r0, #16
 800c104:	f7ff ff9e 	bl	800c044 <malloc>
 800c108:	4602      	mov	r2, r0
 800c10a:	6268      	str	r0, [r5, #36]	; 0x24
 800c10c:	b920      	cbnz	r0, 800c118 <_Bfree+0x20>
 800c10e:	4b09      	ldr	r3, [pc, #36]	; (800c134 <_Bfree+0x3c>)
 800c110:	4809      	ldr	r0, [pc, #36]	; (800c138 <_Bfree+0x40>)
 800c112:	218a      	movs	r1, #138	; 0x8a
 800c114:	f001 fac8 	bl	800d6a8 <__assert_func>
 800c118:	e9c0 6601 	strd	r6, r6, [r0, #4]
 800c11c:	6006      	str	r6, [r0, #0]
 800c11e:	60c6      	str	r6, [r0, #12]
 800c120:	b13c      	cbz	r4, 800c132 <_Bfree+0x3a>
 800c122:	6a6b      	ldr	r3, [r5, #36]	; 0x24
 800c124:	6862      	ldr	r2, [r4, #4]
 800c126:	68db      	ldr	r3, [r3, #12]
 800c128:	f853 1022 	ldr.w	r1, [r3, r2, lsl #2]
 800c12c:	6021      	str	r1, [r4, #0]
 800c12e:	f843 4022 	str.w	r4, [r3, r2, lsl #2]
 800c132:	bd70      	pop	{r4, r5, r6, pc}
 800c134:	0800fc75 	.word	0x0800fc75
 800c138:	0800fd7c 	.word	0x0800fd7c

0800c13c <__multadd>:
 800c13c:	e92d 41f0 	stmdb	sp!, {r4, r5, r6, r7, r8, lr}
 800c140:	690e      	ldr	r6, [r1, #16]
 800c142:	4607      	mov	r7, r0
 800c144:	4698      	mov	r8, r3
 800c146:	460c      	mov	r4, r1
 800c148:	f101 0014 	add.w	r0, r1, #20
 800c14c:	2300      	movs	r3, #0
 800c14e:	6805      	ldr	r5, [r0, #0]
 800c150:	b2a9      	uxth	r1, r5
 800c152:	fb02 8101 	mla	r1, r2, r1, r8
 800c156:	ea4f 4c11 	mov.w	ip, r1, lsr #16
 800c15a:	0c2d      	lsrs	r5, r5, #16
 800c15c:	fb02 c505 	mla	r5, r2, r5, ip
 800c160:	b289      	uxth	r1, r1
 800c162:	3301      	adds	r3, #1
 800c164:	eb01 4105 	add.w	r1, r1, r5, lsl #16
 800c168:	429e      	cmp	r6, r3
 800c16a:	f840 1b04 	str.w	r1, [r0], #4
 800c16e:	ea4f 4815 	mov.w	r8, r5, lsr #16
 800c172:	dcec      	bgt.n	800c14e <__multadd+0x12>
 800c174:	f1b8 0f00 	cmp.w	r8, #0
 800c178:	d022      	beq.n	800c1c0 <__multadd+0x84>
 800c17a:	68a3      	ldr	r3, [r4, #8]
 800c17c:	42b3      	cmp	r3, r6
 800c17e:	dc19      	bgt.n	800c1b4 <__multadd+0x78>
 800c180:	6861      	ldr	r1, [r4, #4]
 800c182:	4638      	mov	r0, r7
 800c184:	3101      	adds	r1, #1
 800c186:	f7ff ff77 	bl	800c078 <_Balloc>
 800c18a:	4605      	mov	r5, r0
 800c18c:	b928      	cbnz	r0, 800c19a <__multadd+0x5e>
 800c18e:	4602      	mov	r2, r0
 800c190:	4b0d      	ldr	r3, [pc, #52]	; (800c1c8 <__multadd+0x8c>)
 800c192:	480e      	ldr	r0, [pc, #56]	; (800c1cc <__multadd+0x90>)
 800c194:	21b5      	movs	r1, #181	; 0xb5
 800c196:	f001 fa87 	bl	800d6a8 <__assert_func>
 800c19a:	6922      	ldr	r2, [r4, #16]
 800c19c:	3202      	adds	r2, #2
 800c19e:	f104 010c 	add.w	r1, r4, #12
 800c1a2:	0092      	lsls	r2, r2, #2
 800c1a4:	300c      	adds	r0, #12
 800c1a6:	f7fc ff37 	bl	8009018 <memcpy>
 800c1aa:	4621      	mov	r1, r4
 800c1ac:	4638      	mov	r0, r7
 800c1ae:	f7ff ffa3 	bl	800c0f8 <_Bfree>
 800c1b2:	462c      	mov	r4, r5
 800c1b4:	eb04 0386 	add.w	r3, r4, r6, lsl #2
 800c1b8:	3601      	adds	r6, #1
 800c1ba:	f8c3 8014 	str.w	r8, [r3, #20]
 800c1be:	6126      	str	r6, [r4, #16]
 800c1c0:	4620      	mov	r0, r4
 800c1c2:	e8bd 81f0 	ldmia.w	sp!, {r4, r5, r6, r7, r8, pc}
 800c1c6:	bf00      	nop
 800c1c8:	0800fceb 	.word	0x0800fceb
 800c1cc:	0800fd7c 	.word	0x0800fd7c

0800c1d0 <__s2b>:
 800c1d0:	e92d 43f8 	stmdb	sp!, {r3, r4, r5, r6, r7, r8, r9, lr}
 800c1d4:	460c      	mov	r4, r1
 800c1d6:	4615      	mov	r5, r2
 800c1d8:	461f      	mov	r7, r3
 800c1da:	2209      	movs	r2, #9
 800c1dc:	3308      	adds	r3, #8
 800c1de:	4606      	mov	r6, r0
 800c1e0:	fb93 f3f2 	sdiv	r3, r3, r2
 800c1e4:	2100      	movs	r1, #0
 800c1e6:	2201      	movs	r2, #1
 800c1e8:	429a      	cmp	r2, r3
 800c1ea:	db09      	blt.n	800c200 <__s2b+0x30>
 800c1ec:	4630      	mov	r0, r6
 800c1ee:	f7ff ff43 	bl	800c078 <_Balloc>
 800c1f2:	b940      	cbnz	r0, 800c206 <__s2b+0x36>
 800c1f4:	4602      	mov	r2, r0
 800c1f6:	4b19      	ldr	r3, [pc, #100]	; (800c25c <__s2b+0x8c>)
 800c1f8:	4819      	ldr	r0, [pc, #100]	; (800c260 <__s2b+0x90>)
 800c1fa:	21ce      	movs	r1, #206	; 0xce
 800c1fc:	f001 fa54 	bl	800d6a8 <__assert_func>
 800c200:	0052      	lsls	r2, r2, #1
 800c202:	3101      	adds	r1, #1
 800c204:	e7f0      	b.n	800c1e8 <__s2b+0x18>
 800c206:	9b08      	ldr	r3, [sp, #32]
 800c208:	6143      	str	r3, [r0, #20]
 800c20a:	2d09      	cmp	r5, #9
 800c20c:	f04f 0301 	mov.w	r3, #1
 800c210:	6103      	str	r3, [r0, #16]
 800c212:	dd16      	ble.n	800c242 <__s2b+0x72>
 800c214:	f104 0909 	add.w	r9, r4, #9
 800c218:	46c8      	mov	r8, r9
 800c21a:	442c      	add	r4, r5
 800c21c:	f818 3b01 	ldrb.w	r3, [r8], #1
 800c220:	4601      	mov	r1, r0
 800c222:	3b30      	subs	r3, #48	; 0x30
 800c224:	220a      	movs	r2, #10
 800c226:	4630      	mov	r0, r6
 800c228:	f7ff ff88 	bl	800c13c <__multadd>
 800c22c:	45a0      	cmp	r8, r4
 800c22e:	d1f5      	bne.n	800c21c <__s2b+0x4c>
 800c230:	f1a5 0408 	sub.w	r4, r5, #8
 800c234:	444c      	add	r4, r9
 800c236:	1b2d      	subs	r5, r5, r4
 800c238:	1963      	adds	r3, r4, r5
 800c23a:	42bb      	cmp	r3, r7
 800c23c:	db04      	blt.n	800c248 <__s2b+0x78>
 800c23e:	e8bd 83f8 	ldmia.w	sp!, {r3, r4, r5, r6, r7, r8, r9, pc}
 800c242:	340a      	adds	r4, #10
 800c244:	2509      	movs	r5, #9
 800c246:	e7f6      	b.n	800c236 <__s2b+0x66>
 800c248:	f814 3b01 	ldrb.w	r3, [r4], #1
 800c24c:	4601      	mov	r1, r0
 800c24e:	3b30      	subs	r3, #48	; 0x30
 800c250:	220a      	movs	r2, #10
 800c252:	4630      	mov	r0, r6
 800c254:	f7ff ff72 	bl	800c13c <__multadd>
 800c258:	e7ee      	b.n	800c238 <__s2b+0x68>
 800c25a:	bf00      	nop
 800c25c:	0800fceb 	.word	0x0800fceb
 800c260:	0800fd7c 	.word	0x0800fd7c

0800c264 <__hi0bits>:
 800c264:	0c03      	lsrs	r3, r0, #16
 800c266:	041b      	lsls	r3, r3, #16
 800c268:	b9d3      	cbnz	r3, 800c2a0 <__hi0bits+0x3c>
 800c26a:	0400      	lsls	r0, r0, #16
 800c26c:	2310      	movs	r3, #16
 800c26e:	f010 4f7f 	tst.w	r0, #4278190080	; 0xff000000
 800c272:	bf04      	itt	eq
 800c274:	0200      	lsleq	r0, r0, #8
 800c276:	3308      	addeq	r3, #8
 800c278:	f010 4f70 	tst.w	r0, #4026531840	; 0xf0000000
 800c27c:	bf04      	itt	eq
 800c27e:	0100      	lsleq	r0, r0, #4
 800c280:	3304      	addeq	r3, #4
 800c282:	f010 4f40 	tst.w	r0, #3221225472	; 0xc0000000
 800c286:	bf04      	itt	eq
 800c288:	0080      	lsleq	r0, r0, #2
 800c28a:	3302      	addeq	r3, #2
 800c28c:	2800      	cmp	r0, #0
 800c28e:	db05      	blt.n	800c29c <__hi0bits+0x38>
 800c290:	f010 4f80 	tst.w	r0, #1073741824	; 0x40000000
 800c294:	f103 0301 	add.w	r3, r3, #1
 800c298:	bf08      	it	eq
 800c29a:	2320      	moveq	r3, #32
 800c29c:	4618      	mov	r0, r3
 800c29e:	4770      	bx	lr
 800c2a0:	2300      	movs	r3, #0
 800c2a2:	e7e4      	b.n	800c26e <__hi0bits+0xa>

0800c2a4 <__lo0bits>:
 800c2a4:	6803      	ldr	r3, [r0, #0]
 800c2a6:	f013 0207 	ands.w	r2, r3, #7
 800c2aa:	4601      	mov	r1, r0
 800c2ac:	d00b      	beq.n	800c2c6 <__lo0bits+0x22>
 800c2ae:	07da      	lsls	r2, r3, #31
 800c2b0:	d424      	bmi.n	800c2fc <__lo0bits+0x58>
 800c2b2:	0798      	lsls	r0, r3, #30
 800c2b4:	bf49      	itett	mi
 800c2b6:	085b      	lsrmi	r3, r3, #1
 800c2b8:	089b      	lsrpl	r3, r3, #2
 800c2ba:	2001      	movmi	r0, #1
 800c2bc:	600b      	strmi	r3, [r1, #0]
 800c2be:	bf5c      	itt	pl
 800c2c0:	600b      	strpl	r3, [r1, #0]
 800c2c2:	2002      	movpl	r0, #2
 800c2c4:	4770      	bx	lr
 800c2c6:	b298      	uxth	r0, r3
 800c2c8:	b9b0      	cbnz	r0, 800c2f8 <__lo0bits+0x54>
 800c2ca:	0c1b      	lsrs	r3, r3, #16
 800c2cc:	2010      	movs	r0, #16
 800c2ce:	f013 0fff 	tst.w	r3, #255	; 0xff
 800c2d2:	bf04      	itt	eq
 800c2d4:	0a1b      	lsreq	r3, r3, #8
 800c2d6:	3008      	addeq	r0, #8
 800c2d8:	071a      	lsls	r2, r3, #28
 800c2da:	bf04      	itt	eq
 800c2dc:	091b      	lsreq	r3, r3, #4
 800c2de:	3004      	addeq	r0, #4
 800c2e0:	079a      	lsls	r2, r3, #30
 800c2e2:	bf04      	itt	eq
 800c2e4:	089b      	lsreq	r3, r3, #2
 800c2e6:	3002      	addeq	r0, #2
 800c2e8:	07da      	lsls	r2, r3, #31
 800c2ea:	d403      	bmi.n	800c2f4 <__lo0bits+0x50>
 800c2ec:	085b      	lsrs	r3, r3, #1
 800c2ee:	f100 0001 	add.w	r0, r0, #1
 800c2f2:	d005      	beq.n	800c300 <__lo0bits+0x5c>
 800c2f4:	600b      	str	r3, [r1, #0]
 800c2f6:	4770      	bx	lr
 800c2f8:	4610      	mov	r0, r2
 800c2fa:	e7e8      	b.n	800c2ce <__lo0bits+0x2a>
 800c2fc:	2000      	movs	r0, #0
 800c2fe:	4770      	bx	lr
 800c300:	2020      	movs	r0, #32
 800c302:	4770      	bx	lr

0800c304 <__i2b>:
 800c304:	b510      	push	{r4, lr}
 800c306:	460c      	mov	r4, r1
 800c308:	2101      	movs	r1, #1
 800c30a:	f7ff feb5 	bl	800c078 <_Balloc>
 800c30e:	4602      	mov	r2, r0
 800c310:	b928      	cbnz	r0, 800c31e <__i2b+0x1a>
 800c312:	4b05      	ldr	r3, [pc, #20]	; (800c328 <__i2b+0x24>)
 800c314:	4805      	ldr	r0, [pc, #20]	; (800c32c <__i2b+0x28>)
 800c316:	f44f 71a0 	mov.w	r1, #320	; 0x140
 800c31a:	f001 f9c5 	bl	800d6a8 <__assert_func>
 800c31e:	2301      	movs	r3, #1
 800c320:	6144      	str	r4, [r0, #20]
 800c322:	6103      	str	r3, [r0, #16]
 800c324:	bd10      	pop	{r4, pc}
 800c326:	bf00      	nop
 800c328:	0800fceb 	.word	0x0800fceb
 800c32c:	0800fd7c 	.word	0x0800fd7c

0800c330 <__multiply>:
 800c330:	e92d 4ff0 	stmdb	sp!, {r4, r5, r6, r7, r8, r9, sl, fp, lr}
 800c334:	4614      	mov	r4, r2
 800c336:	690a      	ldr	r2, [r1, #16]
 800c338:	6923      	ldr	r3, [r4, #16]
 800c33a:	429a      	cmp	r2, r3
 800c33c:	bfb8      	it	lt
 800c33e:	460b      	movlt	r3, r1
 800c340:	460d      	mov	r5, r1
 800c342:	bfbc      	itt	lt
 800c344:	4625      	movlt	r5, r4
 800c346:	461c      	movlt	r4, r3
 800c348:	f8d5 a010 	ldr.w	sl, [r5, #16]
 800c34c:	f8d4 9010 	ldr.w	r9, [r4, #16]
 800c350:	68ab      	ldr	r3, [r5, #8]
 800c352:	6869      	ldr	r1, [r5, #4]
 800c354:	eb0a 0709 	add.w	r7, sl, r9
 800c358:	42bb      	cmp	r3, r7
 800c35a:	b085      	sub	sp, #20
 800c35c:	bfb8      	it	lt
 800c35e:	3101      	addlt	r1, #1
 800c360:	f7ff fe8a 	bl	800c078 <_Balloc>
 800c364:	b930      	cbnz	r0, 800c374 <__multiply+0x44>
 800c366:	4602      	mov	r2, r0
 800c368:	4b42      	ldr	r3, [pc, #264]	; (800c474 <__multiply+0x144>)
 800c36a:	4843      	ldr	r0, [pc, #268]	; (800c478 <__multiply+0x148>)
 800c36c:	f240 115d 	movw	r1, #349	; 0x15d
 800c370:	f001 f99a 	bl	800d6a8 <__assert_func>
 800c374:	f100 0614 	add.w	r6, r0, #20
 800c378:	eb06 0887 	add.w	r8, r6, r7, lsl #2
 800c37c:	4633      	mov	r3, r6
 800c37e:	2200      	movs	r2, #0
 800c380:	4543      	cmp	r3, r8
 800c382:	d31e      	bcc.n	800c3c2 <__multiply+0x92>
 800c384:	f105 0c14 	add.w	ip, r5, #20
 800c388:	f104 0314 	add.w	r3, r4, #20
 800c38c:	eb0c 0c8a 	add.w	ip, ip, sl, lsl #2
 800c390:	eb03 0289 	add.w	r2, r3, r9, lsl #2
 800c394:	9202      	str	r2, [sp, #8]
 800c396:	ebac 0205 	sub.w	r2, ip, r5
 800c39a:	3a15      	subs	r2, #21
 800c39c:	f022 0203 	bic.w	r2, r2, #3
 800c3a0:	3204      	adds	r2, #4
 800c3a2:	f105 0115 	add.w	r1, r5, #21
 800c3a6:	458c      	cmp	ip, r1
 800c3a8:	bf38      	it	cc
 800c3aa:	2204      	movcc	r2, #4
 800c3ac:	9201      	str	r2, [sp, #4]
 800c3ae:	9a02      	ldr	r2, [sp, #8]
 800c3b0:	9303      	str	r3, [sp, #12]
 800c3b2:	429a      	cmp	r2, r3
 800c3b4:	d808      	bhi.n	800c3c8 <__multiply+0x98>
 800c3b6:	2f00      	cmp	r7, #0
 800c3b8:	dc55      	bgt.n	800c466 <__multiply+0x136>
 800c3ba:	6107      	str	r7, [r0, #16]
 800c3bc:	b005      	add	sp, #20
 800c3be:	e8bd 8ff0 	ldmia.w	sp!, {r4, r5, r6, r7, r8, r9, sl, fp, pc}
 800c3c2:	f843 2b04 	str.w	r2, [r3], #4
 800c3c6:	e7db      	b.n	800c380 <__multiply+0x50>
 800c3c8:	f8b3 a000 	ldrh.w	sl, [r3]
 800c3cc:	f1ba 0f00 	cmp.w	sl, #0
 800c3d0:	d020      	beq.n	800c414 <__multiply+0xe4>
 800c3d2:	f105 0e14 	add.w	lr, r5, #20
 800c3d6:	46b1      	mov	r9, r6
 800c3d8:	2200      	movs	r2, #0
 800c3da:	f85e 4b04 	ldr.w	r4, [lr], #4
 800c3de:	f8d9 b000 	ldr.w	fp, [r9]
 800c3e2:	b2a1      	uxth	r1, r4
 800c3e4:	fa1f fb8b 	uxth.w	fp, fp
 800c3e8:	fb0a b101 	mla	r1, sl, r1, fp
 800c3ec:	4411      	add	r1, r2
 800c3ee:	f8d9 2000 	ldr.w	r2, [r9]
 800c3f2:	0c24      	lsrs	r4, r4, #16
 800c3f4:	0c12      	lsrs	r2, r2, #16
 800c3f6:	fb0a 2404 	mla	r4, sl, r4, r2
 800c3fa:	eb04 4411 	add.w	r4, r4, r1, lsr #16
 800c3fe:	b289      	uxth	r1, r1
 800c400:	ea41 4104 	orr.w	r1, r1, r4, lsl #16
 800c404:	45f4      	cmp	ip, lr
 800c406:	f849 1b04 	str.w	r1, [r9], #4
 800c40a:	ea4f 4214 	mov.w	r2, r4, lsr #16
 800c40e:	d8e4      	bhi.n	800c3da <__multiply+0xaa>
 800c410:	9901      	ldr	r1, [sp, #4]
 800c412:	5072      	str	r2, [r6, r1]
 800c414:	9a03      	ldr	r2, [sp, #12]
 800c416:	f8b2 9002 	ldrh.w	r9, [r2, #2]
 800c41a:	3304      	adds	r3, #4
 800c41c:	f1b9 0f00 	cmp.w	r9, #0
 800c420:	d01f      	beq.n	800c462 <__multiply+0x132>
 800c422:	6834      	ldr	r4, [r6, #0]
 800c424:	f105 0114 	add.w	r1, r5, #20
 800c428:	46b6      	mov	lr, r6
 800c42a:	f04f 0a00 	mov.w	sl, #0
 800c42e:	880a      	ldrh	r2, [r1, #0]
 800c430:	f8be b002 	ldrh.w	fp, [lr, #2]
 800c434:	fb09 b202 	mla	r2, r9, r2, fp
 800c438:	4492      	add	sl, r2
 800c43a:	b2a4      	uxth	r4, r4
 800c43c:	ea44 440a 	orr.w	r4, r4, sl, lsl #16
 800c440:	f84e 4b04 	str.w	r4, [lr], #4
 800c444:	f851 4b04 	ldr.w	r4, [r1], #4
 800c448:	f8be 2000 	ldrh.w	r2, [lr]
 800c44c:	0c24      	lsrs	r4, r4, #16
 800c44e:	fb09 2404 	mla	r4, r9, r4, r2
 800c452:	eb04 441a 	add.w	r4, r4, sl, lsr #16
 800c456:	458c      	cmp	ip, r1
 800c458:	ea4f 4a14 	mov.w	sl, r4, lsr #16
 800c45c:	d8e7      	bhi.n	800c42e <__multiply+0xfe>
 800c45e:	9a01      	ldr	r2, [sp, #4]
 800c460:	50b4      	str	r4, [r6, r2]
 800c462:	3604      	adds	r6, #4
 800c464:	e7a3      	b.n	800c3ae <__multiply+0x7e>
 800c466:	f858 3d04 	ldr.w	r3, [r8, #-4]!
 800c46a:	2b00      	cmp	r3, #0
 800c46c:	d1a5      	bne.n	800c3ba <__multiply+0x8a>
 800c46e:	3f01      	subs	r7, #1
 800c470:	e7a1      	b.n	800c3b6 <__multiply+0x86>
 800c472:	bf00      	nop
 800c474:	0800fceb 	.word	0x0800fceb
 800c478:	0800fd7c 	.word	0x0800fd7c

0800c47c <__pow5mult>:
 800c47c:	e92d 43f8 	stmdb	sp!, {r3, r4, r5, r6, r7, r8, r9, lr}
 800c480:	4615      	mov	r5, r2
 800c482:	f012 0203 	ands.w	r2, r2, #3
 800c486:	4606      	mov	r6, r0
 800c488:	460f      	mov	r7, r1
 800c48a:	d007      	beq.n	800c49c <__pow5mult+0x20>
 800c48c:	4c25      	ldr	r4, [pc, #148]	; (800c524 <__pow5mult+0xa8>)
 800c48e:	3a01      	subs	r2, #1
 800c490:	2300      	movs	r3, #0
 800c492:	f854 2022 	ldr.w	r2, [r4, r2, lsl #2]
 800c496:	f7ff fe51 	bl	800c13c <__multadd>
 800c49a:	4607      	mov	r7, r0
 800c49c:	10ad      	asrs	r5, r5, #2
 800c49e:	d03d      	beq.n	800c51c <__pow5mult+0xa0>
 800c4a0:	6a74      	ldr	r4, [r6, #36]	; 0x24
 800c4a2:	b97c      	cbnz	r4, 800c4c4 <__pow5mult+0x48>
 800c4a4:	2010      	movs	r0, #16
 800c4a6:	f7ff fdcd 	bl	800c044 <malloc>
 800c4aa:	4602      	mov	r2, r0
 800c4ac:	6270      	str	r0, [r6, #36]	; 0x24
 800c4ae:	b928      	cbnz	r0, 800c4bc <__pow5mult+0x40>
 800c4b0:	4b1d      	ldr	r3, [pc, #116]	; (800c528 <__pow5mult+0xac>)
 800c4b2:	481e      	ldr	r0, [pc, #120]	; (800c52c <__pow5mult+0xb0>)
 800c4b4:	f44f 71d7 	mov.w	r1, #430	; 0x1ae
 800c4b8:	f001 f8f6 	bl	800d6a8 <__assert_func>
 800c4bc:	e9c0 4401 	strd	r4, r4, [r0, #4]
 800c4c0:	6004      	str	r4, [r0, #0]
 800c4c2:	60c4      	str	r4, [r0, #12]
 800c4c4:	f8d6 8024 	ldr.w	r8, [r6, #36]	; 0x24
 800c4c8:	f8d8 4008 	ldr.w	r4, [r8, #8]
 800c4cc:	b94c      	cbnz	r4, 800c4e2 <__pow5mult+0x66>
 800c4ce:	f240 2171 	movw	r1, #625	; 0x271
 800c4d2:	4630      	mov	r0, r6
 800c4d4:	f7ff ff16 	bl	800c304 <__i2b>
 800c4d8:	2300      	movs	r3, #0
 800c4da:	f8c8 0008 	str.w	r0, [r8, #8]
 800c4de:	4604      	mov	r4, r0
 800c4e0:	6003      	str	r3, [r0, #0]
 800c4e2:	f04f 0900 	mov.w	r9, #0
 800c4e6:	07eb      	lsls	r3, r5, #31
 800c4e8:	d50a      	bpl.n	800c500 <__pow5mult+0x84>
 800c4ea:	4639      	mov	r1, r7
 800c4ec:	4622      	mov	r2, r4
 800c4ee:	4630      	mov	r0, r6
 800c4f0:	f7ff ff1e 	bl	800c330 <__multiply>
 800c4f4:	4639      	mov	r1, r7
 800c4f6:	4680      	mov	r8, r0
 800c4f8:	4630      	mov	r0, r6
 800c4fa:	f7ff fdfd 	bl	800c0f8 <_Bfree>
 800c4fe:	4647      	mov	r7, r8
 800c500:	106d      	asrs	r5, r5, #1
 800c502:	d00b      	beq.n	800c51c <__pow5mult+0xa0>
 800c504:	6820      	ldr	r0, [r4, #0]
 800c506:	b938      	cbnz	r0, 800c518 <__pow5mult+0x9c>
 800c508:	4622      	mov	r2, r4
 800c50a:	4621      	mov	r1, r4
 800c50c:	4630      	mov	r0, r6
 800c50e:	f7ff ff0f 	bl	800c330 <__multiply>
 800c512:	6020      	str	r0, [r4, #0]
 800c514:	f8c0 9000 	str.w	r9, [r0]
 800c518:	4604      	mov	r4, r0
 800c51a:	e7e4      	b.n	800c4e6 <__pow5mult+0x6a>
 800c51c:	4638      	mov	r0, r7
 800c51e:	e8bd 83f8 	ldmia.w	sp!, {r3, r4, r5, r6, r7, r8, r9, pc}
 800c522:	bf00      	nop
 800c524:	0800fed0 	.word	0x0800fed0
 800c528:	0800fc75 	.word	0x0800fc75
 800c52c:	0800fd7c 	.word	0x0800fd7c

0800c530 <__lshift>:
 800c530:	e92d 47f0 	stmdb	sp!, {r4, r5, r6, r7, r8, r9, sl, lr}
 800c534:	460c      	mov	r4, r1
 800c536:	6849      	ldr	r1, [r1, #4]
 800c538:	6923      	ldr	r3, [r4, #16]
 800c53a:	eb03 1862 	add.w	r8, r3, r2, asr #5
 800c53e:	68a3      	ldr	r3, [r4, #8]
 800c540:	4607      	mov	r7, r0
 800c542:	4691      	mov	r9, r2
 800c544:	ea4f 1a62 	mov.w	sl, r2, asr #5
 800c548:	f108 0601 	add.w	r6, r8, #1
 800c54c:	42b3      	cmp	r3, r6
 800c54e:	db0b      	blt.n	800c568 <__lshift+0x38>
 800c550:	4638      	mov	r0, r7
 800c552:	f7ff fd91 	bl	800c078 <_Balloc>
 800c556:	4605      	mov	r5, r0
 800c558:	b948      	cbnz	r0, 800c56e <__lshift+0x3e>
 800c55a:	4602      	mov	r2, r0
 800c55c:	4b28      	ldr	r3, [pc, #160]	; (800c600 <__lshift+0xd0>)
 800c55e:	4829      	ldr	r0, [pc, #164]	; (800c604 <__lshift+0xd4>)
 800c560:	f240 11d9 	movw	r1, #473	; 0x1d9
 800c564:	f001 f8a0 	bl	800d6a8 <__assert_func>
 800c568:	3101      	adds	r1, #1
 800c56a:	005b      	lsls	r3, r3, #1
 800c56c:	e7ee      	b.n	800c54c <__lshift+0x1c>
 800c56e:	2300      	movs	r3, #0
 800c570:	f100 0114 	add.w	r1, r0, #20
 800c574:	f100 0210 	add.w	r2, r0, #16
 800c578:	4618      	mov	r0, r3
 800c57a:	4553      	cmp	r3, sl
 800c57c:	db33      	blt.n	800c5e6 <__lshift+0xb6>
 800c57e:	6920      	ldr	r0, [r4, #16]
 800c580:	ea2a 7aea 	bic.w	sl, sl, sl, asr #31
 800c584:	f104 0314 	add.w	r3, r4, #20
 800c588:	f019 091f 	ands.w	r9, r9, #31
 800c58c:	eb01 018a 	add.w	r1, r1, sl, lsl #2
 800c590:	eb03 0c80 	add.w	ip, r3, r0, lsl #2
 800c594:	d02b      	beq.n	800c5ee <__lshift+0xbe>
 800c596:	f1c9 0e20 	rsb	lr, r9, #32
 800c59a:	468a      	mov	sl, r1
 800c59c:	2200      	movs	r2, #0
 800c59e:	6818      	ldr	r0, [r3, #0]
 800c5a0:	fa00 f009 	lsl.w	r0, r0, r9
 800c5a4:	4302      	orrs	r2, r0
 800c5a6:	f84a 2b04 	str.w	r2, [sl], #4
 800c5aa:	f853 2b04 	ldr.w	r2, [r3], #4
 800c5ae:	459c      	cmp	ip, r3
 800c5b0:	fa22 f20e 	lsr.w	r2, r2, lr
 800c5b4:	d8f3      	bhi.n	800c59e <__lshift+0x6e>
 800c5b6:	ebac 0304 	sub.w	r3, ip, r4
 800c5ba:	3b15      	subs	r3, #21
 800c5bc:	f023 0303 	bic.w	r3, r3, #3
 800c5c0:	3304      	adds	r3, #4
 800c5c2:	f104 0015 	add.w	r0, r4, #21
 800c5c6:	4584      	cmp	ip, r0
 800c5c8:	bf38      	it	cc
 800c5ca:	2304      	movcc	r3, #4
 800c5cc:	50ca      	str	r2, [r1, r3]
 800c5ce:	b10a      	cbz	r2, 800c5d4 <__lshift+0xa4>
 800c5d0:	f108 0602 	add.w	r6, r8, #2
 800c5d4:	3e01      	subs	r6, #1
 800c5d6:	4638      	mov	r0, r7
 800c5d8:	612e      	str	r6, [r5, #16]
 800c5da:	4621      	mov	r1, r4
 800c5dc:	f7ff fd8c 	bl	800c0f8 <_Bfree>
 800c5e0:	4628      	mov	r0, r5
 800c5e2:	e8bd 87f0 	ldmia.w	sp!, {r4, r5, r6, r7, r8, r9, sl, pc}
 800c5e6:	f842 0f04 	str.w	r0, [r2, #4]!
 800c5ea:	3301      	adds	r3, #1
 800c5ec:	e7c5      	b.n	800c57a <__lshift+0x4a>
 800c5ee:	3904      	subs	r1, #4
 800c5f0:	f853 2b04 	ldr.w	r2, [r3], #4
 800c5f4:	f841 2f04 	str.w	r2, [r1, #4]!
 800c5f8:	459c      	cmp	ip, r3
 800c5fa:	d8f9      	bhi.n	800c5f0 <__lshift+0xc0>
 800c5fc:	e7ea      	b.n	800c5d4 <__lshift+0xa4>
 800c5fe:	bf00      	nop
 800c600:	0800fceb 	.word	0x0800fceb
 800c604:	0800fd7c 	.word	0x0800fd7c

0800c608 <__mcmp>:
 800c608:	b530      	push	{r4, r5, lr}
 800c60a:	6902      	ldr	r2, [r0, #16]
 800c60c:	690c      	ldr	r4, [r1, #16]
 800c60e:	1b12      	subs	r2, r2, r4
 800c610:	d10e      	bne.n	800c630 <__mcmp+0x28>
 800c612:	f100 0314 	add.w	r3, r0, #20
 800c616:	3114      	adds	r1, #20
 800c618:	eb03 0084 	add.w	r0, r3, r4, lsl #2
 800c61c:	eb01 0184 	add.w	r1, r1, r4, lsl #2
 800c620:	f850 5d04 	ldr.w	r5, [r0, #-4]!
 800c624:	f851 4d04 	ldr.w	r4, [r1, #-4]!
 800c628:	42a5      	cmp	r5, r4
 800c62a:	d003      	beq.n	800c634 <__mcmp+0x2c>
 800c62c:	d305      	bcc.n	800c63a <__mcmp+0x32>
 800c62e:	2201      	movs	r2, #1
 800c630:	4610      	mov	r0, r2
 800c632:	bd30      	pop	{r4, r5, pc}
 800c634:	4283      	cmp	r3, r0
 800c636:	d3f3      	bcc.n	800c620 <__mcmp+0x18>
 800c638:	e7fa      	b.n	800c630 <__mcmp+0x28>
 800c63a:	f04f 32ff 	mov.w	r2, #4294967295
 800c63e:	e7f7      	b.n	800c630 <__mcmp+0x28>

0800c640 <__mdiff>:
 800c640:	e92d 4ff8 	stmdb	sp!, {r3, r4, r5, r6, r7, r8, r9, sl, fp, lr}
 800c644:	460c      	mov	r4, r1
 800c646:	4606      	mov	r6, r0
 800c648:	4611      	mov	r1, r2
 800c64a:	4620      	mov	r0, r4
 800c64c:	4617      	mov	r7, r2
 800c64e:	f7ff ffdb 	bl	800c608 <__mcmp>
 800c652:	1e05      	subs	r5, r0, #0
 800c654:	d110      	bne.n	800c678 <__mdiff+0x38>
 800c656:	4629      	mov	r1, r5
 800c658:	4630      	mov	r0, r6
 800c65a:	f7ff fd0d 	bl	800c078 <_Balloc>
 800c65e:	b930      	cbnz	r0, 800c66e <__mdiff+0x2e>
 800c660:	4b39      	ldr	r3, [pc, #228]	; (800c748 <__mdiff+0x108>)
 800c662:	4602      	mov	r2, r0
 800c664:	f240 2132 	movw	r1, #562	; 0x232
 800c668:	4838      	ldr	r0, [pc, #224]	; (800c74c <__mdiff+0x10c>)
 800c66a:	f001 f81d 	bl	800d6a8 <__assert_func>
 800c66e:	2301      	movs	r3, #1
 800c670:	e9c0 3504 	strd	r3, r5, [r0, #16]
 800c674:	e8bd 8ff8 	ldmia.w	sp!, {r3, r4, r5, r6, r7, r8, r9, sl, fp, pc}
 800c678:	bfa4      	itt	ge
 800c67a:	463b      	movge	r3, r7
 800c67c:	4627      	movge	r7, r4
 800c67e:	4630      	mov	r0, r6
 800c680:	6879      	ldr	r1, [r7, #4]
 800c682:	bfa6      	itte	ge
 800c684:	461c      	movge	r4, r3
 800c686:	2500      	movge	r5, #0
 800c688:	2501      	movlt	r5, #1
 800c68a:	f7ff fcf5 	bl	800c078 <_Balloc>
 800c68e:	b920      	cbnz	r0, 800c69a <__mdiff+0x5a>
 800c690:	4b2d      	ldr	r3, [pc, #180]	; (800c748 <__mdiff+0x108>)
 800c692:	4602      	mov	r2, r0
 800c694:	f44f 7110 	mov.w	r1, #576	; 0x240
 800c698:	e7e6      	b.n	800c668 <__mdiff+0x28>
 800c69a:	693e      	ldr	r6, [r7, #16]
 800c69c:	60c5      	str	r5, [r0, #12]
 800c69e:	6925      	ldr	r5, [r4, #16]
 800c6a0:	f107 0114 	add.w	r1, r7, #20
 800c6a4:	f104 0914 	add.w	r9, r4, #20
 800c6a8:	f100 0e14 	add.w	lr, r0, #20
 800c6ac:	f107 0210 	add.w	r2, r7, #16
 800c6b0:	eb01 0c86 	add.w	ip, r1, r6, lsl #2
 800c6b4:	eb09 0585 	add.w	r5, r9, r5, lsl #2
 800c6b8:	46f2      	mov	sl, lr
 800c6ba:	2700      	movs	r7, #0
 800c6bc:	f859 3b04 	ldr.w	r3, [r9], #4
 800c6c0:	f852 bf04 	ldr.w	fp, [r2, #4]!
 800c6c4:	fa1f f883 	uxth.w	r8, r3
 800c6c8:	fa17 f78b 	uxtah	r7, r7, fp
 800c6cc:	0c1b      	lsrs	r3, r3, #16
 800c6ce:	eba7 0808 	sub.w	r8, r7, r8
 800c6d2:	ebc3 431b 	rsb	r3, r3, fp, lsr #16
 800c6d6:	eb03 4328 	add.w	r3, r3, r8, asr #16
 800c6da:	fa1f f888 	uxth.w	r8, r8
 800c6de:	141f      	asrs	r7, r3, #16
 800c6e0:	454d      	cmp	r5, r9
 800c6e2:	ea48 4303 	orr.w	r3, r8, r3, lsl #16
 800c6e6:	f84a 3b04 	str.w	r3, [sl], #4
 800c6ea:	d8e7      	bhi.n	800c6bc <__mdiff+0x7c>
 800c6ec:	1b2b      	subs	r3, r5, r4
 800c6ee:	3b15      	subs	r3, #21
 800c6f0:	f023 0303 	bic.w	r3, r3, #3
 800c6f4:	3304      	adds	r3, #4
 800c6f6:	3415      	adds	r4, #21
 800c6f8:	42a5      	cmp	r5, r4
 800c6fa:	bf38      	it	cc
 800c6fc:	2304      	movcc	r3, #4
 800c6fe:	4419      	add	r1, r3
 800c700:	4473      	add	r3, lr
 800c702:	469e      	mov	lr, r3
 800c704:	460d      	mov	r5, r1
 800c706:	4565      	cmp	r5, ip
 800c708:	d30e      	bcc.n	800c728 <__mdiff+0xe8>
 800c70a:	f10c 0203 	add.w	r2, ip, #3
 800c70e:	1a52      	subs	r2, r2, r1
 800c710:	f022 0203 	bic.w	r2, r2, #3
 800c714:	3903      	subs	r1, #3
 800c716:	458c      	cmp	ip, r1
 800c718:	bf38      	it	cc
 800c71a:	2200      	movcc	r2, #0
 800c71c:	441a      	add	r2, r3
 800c71e:	f852 3d04 	ldr.w	r3, [r2, #-4]!
 800c722:	b17b      	cbz	r3, 800c744 <__mdiff+0x104>
 800c724:	6106      	str	r6, [r0, #16]
 800c726:	e7a5      	b.n	800c674 <__mdiff+0x34>
 800c728:	f855 8b04 	ldr.w	r8, [r5], #4
 800c72c:	fa17 f488 	uxtah	r4, r7, r8
 800c730:	1422      	asrs	r2, r4, #16
 800c732:	eb02 4218 	add.w	r2, r2, r8, lsr #16
 800c736:	b2a4      	uxth	r4, r4
 800c738:	ea44 4402 	orr.w	r4, r4, r2, lsl #16
 800c73c:	f84e 4b04 	str.w	r4, [lr], #4
 800c740:	1417      	asrs	r7, r2, #16
 800c742:	e7e0      	b.n	800c706 <__mdiff+0xc6>
 800c744:	3e01      	subs	r6, #1
 800c746:	e7ea      	b.n	800c71e <__mdiff+0xde>
 800c748:	0800fceb 	.word	0x0800fceb
 800c74c:	0800fd7c 	.word	0x0800fd7c

0800c750 <__ulp>:
 800c750:	b082      	sub	sp, #8
 800c752:	ed8d 0b00 	vstr	d0, [sp]
 800c756:	9b01      	ldr	r3, [sp, #4]
 800c758:	4912      	ldr	r1, [pc, #72]	; (800c7a4 <__ulp+0x54>)
 800c75a:	4019      	ands	r1, r3
 800c75c:	f1a1 7150 	sub.w	r1, r1, #54525952	; 0x3400000
 800c760:	2900      	cmp	r1, #0
 800c762:	dd05      	ble.n	800c770 <__ulp+0x20>
 800c764:	2200      	movs	r2, #0
 800c766:	460b      	mov	r3, r1
 800c768:	ec43 2b10 	vmov	d0, r2, r3
 800c76c:	b002      	add	sp, #8
 800c76e:	4770      	bx	lr
 800c770:	4249      	negs	r1, r1
 800c772:	f1b1 7fa0 	cmp.w	r1, #20971520	; 0x1400000
 800c776:	ea4f 5021 	mov.w	r0, r1, asr #20
 800c77a:	f04f 0200 	mov.w	r2, #0
 800c77e:	f04f 0300 	mov.w	r3, #0
 800c782:	da04      	bge.n	800c78e <__ulp+0x3e>
 800c784:	f44f 2100 	mov.w	r1, #524288	; 0x80000
 800c788:	fa41 f300 	asr.w	r3, r1, r0
 800c78c:	e7ec      	b.n	800c768 <__ulp+0x18>
 800c78e:	f1a0 0114 	sub.w	r1, r0, #20
 800c792:	291e      	cmp	r1, #30
 800c794:	bfda      	itte	le
 800c796:	f04f 4000 	movle.w	r0, #2147483648	; 0x80000000
 800c79a:	fa20 f101 	lsrle.w	r1, r0, r1
 800c79e:	2101      	movgt	r1, #1
 800c7a0:	460a      	mov	r2, r1
 800c7a2:	e7e1      	b.n	800c768 <__ulp+0x18>
 800c7a4:	7ff00000 	.word	0x7ff00000

0800c7a8 <__b2d>:
 800c7a8:	b5f8      	push	{r3, r4, r5, r6, r7, lr}
 800c7aa:	6905      	ldr	r5, [r0, #16]
 800c7ac:	f100 0714 	add.w	r7, r0, #20
 800c7b0:	eb07 0585 	add.w	r5, r7, r5, lsl #2
 800c7b4:	1f2e      	subs	r6, r5, #4
 800c7b6:	f855 4c04 	ldr.w	r4, [r5, #-4]
 800c7ba:	4620      	mov	r0, r4
 800c7bc:	f7ff fd52 	bl	800c264 <__hi0bits>
 800c7c0:	f1c0 0320 	rsb	r3, r0, #32
 800c7c4:	280a      	cmp	r0, #10
 800c7c6:	f8df c07c 	ldr.w	ip, [pc, #124]	; 800c844 <__b2d+0x9c>
 800c7ca:	600b      	str	r3, [r1, #0]
 800c7cc:	dc14      	bgt.n	800c7f8 <__b2d+0x50>
 800c7ce:	f1c0 0e0b 	rsb	lr, r0, #11
 800c7d2:	fa24 f10e 	lsr.w	r1, r4, lr
 800c7d6:	42b7      	cmp	r7, r6
 800c7d8:	ea41 030c 	orr.w	r3, r1, ip
 800c7dc:	bf34      	ite	cc
 800c7de:	f855 1c08 	ldrcc.w	r1, [r5, #-8]
 800c7e2:	2100      	movcs	r1, #0
 800c7e4:	3015      	adds	r0, #21
 800c7e6:	fa04 f000 	lsl.w	r0, r4, r0
 800c7ea:	fa21 f10e 	lsr.w	r1, r1, lr
 800c7ee:	ea40 0201 	orr.w	r2, r0, r1
 800c7f2:	ec43 2b10 	vmov	d0, r2, r3
 800c7f6:	bdf8      	pop	{r3, r4, r5, r6, r7, pc}
 800c7f8:	42b7      	cmp	r7, r6
 800c7fa:	bf3a      	itte	cc
 800c7fc:	f855 1c08 	ldrcc.w	r1, [r5, #-8]
 800c800:	f1a5 0608 	subcc.w	r6, r5, #8
 800c804:	2100      	movcs	r1, #0
 800c806:	380b      	subs	r0, #11
 800c808:	d017      	beq.n	800c83a <__b2d+0x92>
 800c80a:	f1c0 0c20 	rsb	ip, r0, #32
 800c80e:	fa04 f500 	lsl.w	r5, r4, r0
 800c812:	42be      	cmp	r6, r7
 800c814:	fa21 f40c 	lsr.w	r4, r1, ip
 800c818:	ea45 0504 	orr.w	r5, r5, r4
 800c81c:	bf8c      	ite	hi
 800c81e:	f856 4c04 	ldrhi.w	r4, [r6, #-4]
 800c822:	2400      	movls	r4, #0
 800c824:	f045 537f 	orr.w	r3, r5, #1069547520	; 0x3fc00000
 800c828:	fa01 f000 	lsl.w	r0, r1, r0
 800c82c:	fa24 f40c 	lsr.w	r4, r4, ip
 800c830:	f443 1340 	orr.w	r3, r3, #3145728	; 0x300000
 800c834:	ea40 0204 	orr.w	r2, r0, r4
 800c838:	e7db      	b.n	800c7f2 <__b2d+0x4a>
 800c83a:	ea44 030c 	orr.w	r3, r4, ip
 800c83e:	460a      	mov	r2, r1
 800c840:	e7d7      	b.n	800c7f2 <__b2d+0x4a>
 800c842:	bf00      	nop
 800c844:	3ff00000 	.word	0x3ff00000

0800c848 <__d2b>:
 800c848:	e92d 43f7 	stmdb	sp!, {r0, r1, r2, r4, r5, r6, r7, r8, r9, lr}
 800c84c:	4689      	mov	r9, r1
 800c84e:	2101      	movs	r1, #1
 800c850:	ec57 6b10 	vmov	r6, r7, d0
 800c854:	4690      	mov	r8, r2
 800c856:	f7ff fc0f 	bl	800c078 <_Balloc>
 800c85a:	4604      	mov	r4, r0
 800c85c:	b930      	cbnz	r0, 800c86c <__d2b+0x24>
 800c85e:	4602      	mov	r2, r0
 800c860:	4b25      	ldr	r3, [pc, #148]	; (800c8f8 <__d2b+0xb0>)
 800c862:	4826      	ldr	r0, [pc, #152]	; (800c8fc <__d2b+0xb4>)
 800c864:	f240 310a 	movw	r1, #778	; 0x30a
 800c868:	f000 ff1e 	bl	800d6a8 <__assert_func>
 800c86c:	f3c7 550a 	ubfx	r5, r7, #20, #11
 800c870:	f3c7 0313 	ubfx	r3, r7, #0, #20
 800c874:	bb35      	cbnz	r5, 800c8c4 <__d2b+0x7c>
 800c876:	2e00      	cmp	r6, #0
 800c878:	9301      	str	r3, [sp, #4]
 800c87a:	d028      	beq.n	800c8ce <__d2b+0x86>
 800c87c:	4668      	mov	r0, sp
 800c87e:	9600      	str	r6, [sp, #0]
 800c880:	f7ff fd10 	bl	800c2a4 <__lo0bits>
 800c884:	9900      	ldr	r1, [sp, #0]
 800c886:	b300      	cbz	r0, 800c8ca <__d2b+0x82>
 800c888:	9a01      	ldr	r2, [sp, #4]
 800c88a:	f1c0 0320 	rsb	r3, r0, #32
 800c88e:	fa02 f303 	lsl.w	r3, r2, r3
 800c892:	430b      	orrs	r3, r1
 800c894:	40c2      	lsrs	r2, r0
 800c896:	6163      	str	r3, [r4, #20]
 800c898:	9201      	str	r2, [sp, #4]
 800c89a:	9b01      	ldr	r3, [sp, #4]
 800c89c:	61a3      	str	r3, [r4, #24]
 800c89e:	2b00      	cmp	r3, #0
 800c8a0:	bf14      	ite	ne
 800c8a2:	2202      	movne	r2, #2
 800c8a4:	2201      	moveq	r2, #1
 800c8a6:	6122      	str	r2, [r4, #16]
 800c8a8:	b1d5      	cbz	r5, 800c8e0 <__d2b+0x98>
 800c8aa:	f2a5 4533 	subw	r5, r5, #1075	; 0x433
 800c8ae:	4405      	add	r5, r0
 800c8b0:	f8c9 5000 	str.w	r5, [r9]
 800c8b4:	f1c0 0035 	rsb	r0, r0, #53	; 0x35
 800c8b8:	f8c8 0000 	str.w	r0, [r8]
 800c8bc:	4620      	mov	r0, r4
 800c8be:	b003      	add	sp, #12
 800c8c0:	e8bd 83f0 	ldmia.w	sp!, {r4, r5, r6, r7, r8, r9, pc}
 800c8c4:	f443 1380 	orr.w	r3, r3, #1048576	; 0x100000
 800c8c8:	e7d5      	b.n	800c876 <__d2b+0x2e>
 800c8ca:	6161      	str	r1, [r4, #20]
 800c8cc:	e7e5      	b.n	800c89a <__d2b+0x52>
 800c8ce:	a801      	add	r0, sp, #4
 800c8d0:	f7ff fce8 	bl	800c2a4 <__lo0bits>
 800c8d4:	9b01      	ldr	r3, [sp, #4]
 800c8d6:	6163      	str	r3, [r4, #20]
 800c8d8:	2201      	movs	r2, #1
 800c8da:	6122      	str	r2, [r4, #16]
 800c8dc:	3020      	adds	r0, #32
 800c8de:	e7e3      	b.n	800c8a8 <__d2b+0x60>
 800c8e0:	eb04 0382 	add.w	r3, r4, r2, lsl #2
 800c8e4:	f2a0 4032 	subw	r0, r0, #1074	; 0x432
 800c8e8:	f8c9 0000 	str.w	r0, [r9]
 800c8ec:	6918      	ldr	r0, [r3, #16]
 800c8ee:	f7ff fcb9 	bl	800c264 <__hi0bits>
 800c8f2:	ebc0 1042 	rsb	r0, r0, r2, lsl #5
 800c8f6:	e7df      	b.n	800c8b8 <__d2b+0x70>
 800c8f8:	0800fceb 	.word	0x0800fceb
 800c8fc:	0800fd7c 	.word	0x0800fd7c

0800c900 <__ratio>:
 800c900:	e92d 4ff7 	stmdb	sp!, {r0, r1, r2, r4, r5, r6, r7, r8, r9, sl, fp, lr}
 800c904:	4688      	mov	r8, r1
 800c906:	4669      	mov	r1, sp
 800c908:	4681      	mov	r9, r0
 800c90a:	f7ff ff4d 	bl	800c7a8 <__b2d>
 800c90e:	a901      	add	r1, sp, #4
 800c910:	4640      	mov	r0, r8
 800c912:	ec55 4b10 	vmov	r4, r5, d0
 800c916:	f7ff ff47 	bl	800c7a8 <__b2d>
 800c91a:	f8d9 3010 	ldr.w	r3, [r9, #16]
 800c91e:	f8d8 2010 	ldr.w	r2, [r8, #16]
 800c922:	eba3 0c02 	sub.w	ip, r3, r2
 800c926:	e9dd 3200 	ldrd	r3, r2, [sp]
 800c92a:	1a9b      	subs	r3, r3, r2
 800c92c:	eb03 134c 	add.w	r3, r3, ip, lsl #5
 800c930:	ec51 0b10 	vmov	r0, r1, d0
 800c934:	2b00      	cmp	r3, #0
 800c936:	bfd6      	itet	le
 800c938:	460a      	movle	r2, r1
 800c93a:	462a      	movgt	r2, r5
 800c93c:	ebc3 3303 	rsble	r3, r3, r3, lsl #12
 800c940:	468b      	mov	fp, r1
 800c942:	462f      	mov	r7, r5
 800c944:	bfd4      	ite	le
 800c946:	eb02 5b03 	addle.w	fp, r2, r3, lsl #20
 800c94a:	eb02 5703 	addgt.w	r7, r2, r3, lsl #20
 800c94e:	4620      	mov	r0, r4
 800c950:	ee10 2a10 	vmov	r2, s0
 800c954:	465b      	mov	r3, fp
 800c956:	4639      	mov	r1, r7
 800c958:	f7f3 ff88 	bl	800086c <__aeabi_ddiv>
 800c95c:	ec41 0b10 	vmov	d0, r0, r1
 800c960:	b003      	add	sp, #12
 800c962:	e8bd 8ff0 	ldmia.w	sp!, {r4, r5, r6, r7, r8, r9, sl, fp, pc}

0800c966 <__copybits>:
 800c966:	3901      	subs	r1, #1
 800c968:	b570      	push	{r4, r5, r6, lr}
 800c96a:	1149      	asrs	r1, r1, #5
 800c96c:	6914      	ldr	r4, [r2, #16]
 800c96e:	3101      	adds	r1, #1
 800c970:	f102 0314 	add.w	r3, r2, #20
 800c974:	eb00 0181 	add.w	r1, r0, r1, lsl #2
 800c978:	eb03 0484 	add.w	r4, r3, r4, lsl #2
 800c97c:	1f05      	subs	r5, r0, #4
 800c97e:	42a3      	cmp	r3, r4
 800c980:	d30c      	bcc.n	800c99c <__copybits+0x36>
 800c982:	1aa3      	subs	r3, r4, r2
 800c984:	3b11      	subs	r3, #17
 800c986:	f023 0303 	bic.w	r3, r3, #3
 800c98a:	3211      	adds	r2, #17
 800c98c:	42a2      	cmp	r2, r4
 800c98e:	bf88      	it	hi
 800c990:	2300      	movhi	r3, #0
 800c992:	4418      	add	r0, r3
 800c994:	2300      	movs	r3, #0
 800c996:	4288      	cmp	r0, r1
 800c998:	d305      	bcc.n	800c9a6 <__copybits+0x40>
 800c99a:	bd70      	pop	{r4, r5, r6, pc}
 800c99c:	f853 6b04 	ldr.w	r6, [r3], #4
 800c9a0:	f845 6f04 	str.w	r6, [r5, #4]!
 800c9a4:	e7eb      	b.n	800c97e <__copybits+0x18>
 800c9a6:	f840 3b04 	str.w	r3, [r0], #4
 800c9aa:	e7f4      	b.n	800c996 <__copybits+0x30>

0800c9ac <__any_on>:
 800c9ac:	f100 0214 	add.w	r2, r0, #20
 800c9b0:	6900      	ldr	r0, [r0, #16]
 800c9b2:	114b      	asrs	r3, r1, #5
 800c9b4:	4298      	cmp	r0, r3
 800c9b6:	b510      	push	{r4, lr}
 800c9b8:	db11      	blt.n	800c9de <__any_on+0x32>
 800c9ba:	dd0a      	ble.n	800c9d2 <__any_on+0x26>
 800c9bc:	f011 011f 	ands.w	r1, r1, #31
 800c9c0:	d007      	beq.n	800c9d2 <__any_on+0x26>
 800c9c2:	f852 4023 	ldr.w	r4, [r2, r3, lsl #2]
 800c9c6:	fa24 f001 	lsr.w	r0, r4, r1
 800c9ca:	fa00 f101 	lsl.w	r1, r0, r1
 800c9ce:	428c      	cmp	r4, r1
 800c9d0:	d10b      	bne.n	800c9ea <__any_on+0x3e>
 800c9d2:	eb02 0383 	add.w	r3, r2, r3, lsl #2
 800c9d6:	4293      	cmp	r3, r2
 800c9d8:	d803      	bhi.n	800c9e2 <__any_on+0x36>
 800c9da:	2000      	movs	r0, #0
 800c9dc:	bd10      	pop	{r4, pc}
 800c9de:	4603      	mov	r3, r0
 800c9e0:	e7f7      	b.n	800c9d2 <__any_on+0x26>
 800c9e2:	f853 1d04 	ldr.w	r1, [r3, #-4]!
 800c9e6:	2900      	cmp	r1, #0
 800c9e8:	d0f5      	beq.n	800c9d6 <__any_on+0x2a>
 800c9ea:	2001      	movs	r0, #1
 800c9ec:	e7f6      	b.n	800c9dc <__any_on+0x30>

0800c9ee <_calloc_r>:
 800c9ee:	b513      	push	{r0, r1, r4, lr}
 800c9f0:	434a      	muls	r2, r1
 800c9f2:	4611      	mov	r1, r2
 800c9f4:	9201      	str	r2, [sp, #4]
 800c9f6:	f000 f859 	bl	800caac <_malloc_r>
 800c9fa:	4604      	mov	r4, r0
 800c9fc:	b118      	cbz	r0, 800ca06 <_calloc_r+0x18>
 800c9fe:	9a01      	ldr	r2, [sp, #4]
 800ca00:	2100      	movs	r1, #0
 800ca02:	f7fc fb17 	bl	8009034 <memset>
 800ca06:	4620      	mov	r0, r4
 800ca08:	b002      	add	sp, #8
 800ca0a:	bd10      	pop	{r4, pc}

0800ca0c <_free_r>:
 800ca0c:	b537      	push	{r0, r1, r2, r4, r5, lr}
 800ca0e:	2900      	cmp	r1, #0
 800ca10:	d048      	beq.n	800caa4 <_free_r+0x98>
 800ca12:	f851 3c04 	ldr.w	r3, [r1, #-4]
 800ca16:	9001      	str	r0, [sp, #4]
 800ca18:	2b00      	cmp	r3, #0
 800ca1a:	f1a1 0404 	sub.w	r4, r1, #4
 800ca1e:	bfb8      	it	lt
 800ca20:	18e4      	addlt	r4, r4, r3
 800ca22:	f001 f845 	bl	800dab0 <__malloc_lock>
 800ca26:	4a20      	ldr	r2, [pc, #128]	; (800caa8 <_free_r+0x9c>)
 800ca28:	9801      	ldr	r0, [sp, #4]
 800ca2a:	6813      	ldr	r3, [r2, #0]
 800ca2c:	4615      	mov	r5, r2
 800ca2e:	b933      	cbnz	r3, 800ca3e <_free_r+0x32>
 800ca30:	6063      	str	r3, [r4, #4]
 800ca32:	6014      	str	r4, [r2, #0]
 800ca34:	b003      	add	sp, #12
 800ca36:	e8bd 4030 	ldmia.w	sp!, {r4, r5, lr}
 800ca3a:	f001 b83f 	b.w	800dabc <__malloc_unlock>
 800ca3e:	42a3      	cmp	r3, r4
 800ca40:	d90b      	bls.n	800ca5a <_free_r+0x4e>
 800ca42:	6821      	ldr	r1, [r4, #0]
 800ca44:	1862      	adds	r2, r4, r1
 800ca46:	4293      	cmp	r3, r2
 800ca48:	bf04      	itt	eq
 800ca4a:	681a      	ldreq	r2, [r3, #0]
 800ca4c:	685b      	ldreq	r3, [r3, #4]
 800ca4e:	6063      	str	r3, [r4, #4]
 800ca50:	bf04      	itt	eq
 800ca52:	1852      	addeq	r2, r2, r1
 800ca54:	6022      	streq	r2, [r4, #0]
 800ca56:	602c      	str	r4, [r5, #0]
 800ca58:	e7ec      	b.n	800ca34 <_free_r+0x28>
 800ca5a:	461a      	mov	r2, r3
 800ca5c:	685b      	ldr	r3, [r3, #4]
 800ca5e:	b10b      	cbz	r3, 800ca64 <_free_r+0x58>
 800ca60:	42a3      	cmp	r3, r4
 800ca62:	d9fa      	bls.n	800ca5a <_free_r+0x4e>
 800ca64:	6811      	ldr	r1, [r2, #0]
 800ca66:	1855      	adds	r5, r2, r1
 800ca68:	42a5      	cmp	r5, r4
 800ca6a:	d10b      	bne.n	800ca84 <_free_r+0x78>
 800ca6c:	6824      	ldr	r4, [r4, #0]
 800ca6e:	4421      	add	r1, r4
 800ca70:	1854      	adds	r4, r2, r1
 800ca72:	42a3      	cmp	r3, r4
 800ca74:	6011      	str	r1, [r2, #0]
 800ca76:	d1dd      	bne.n	800ca34 <_free_r+0x28>
 800ca78:	681c      	ldr	r4, [r3, #0]
 800ca7a:	685b      	ldr	r3, [r3, #4]
 800ca7c:	6053      	str	r3, [r2, #4]
 800ca7e:	4421      	add	r1, r4
 800ca80:	6011      	str	r1, [r2, #0]
 800ca82:	e7d7      	b.n	800ca34 <_free_r+0x28>
 800ca84:	d902      	bls.n	800ca8c <_free_r+0x80>
 800ca86:	230c      	movs	r3, #12
 800ca88:	6003      	str	r3, [r0, #0]
 800ca8a:	e7d3      	b.n	800ca34 <_free_r+0x28>
 800ca8c:	6825      	ldr	r5, [r4, #0]
 800ca8e:	1961      	adds	r1, r4, r5
 800ca90:	428b      	cmp	r3, r1
 800ca92:	bf04      	itt	eq
 800ca94:	6819      	ldreq	r1, [r3, #0]
 800ca96:	685b      	ldreq	r3, [r3, #4]
 800ca98:	6063      	str	r3, [r4, #4]
 800ca9a:	bf04      	itt	eq
 800ca9c:	1949      	addeq	r1, r1, r5
 800ca9e:	6021      	streq	r1, [r4, #0]
 800caa0:	6054      	str	r4, [r2, #4]
 800caa2:	e7c7      	b.n	800ca34 <_free_r+0x28>
 800caa4:	b003      	add	sp, #12
 800caa6:	bd30      	pop	{r4, r5, pc}
 800caa8:	200009a8 	.word	0x200009a8

0800caac <_malloc_r>:
 800caac:	b5f8      	push	{r3, r4, r5, r6, r7, lr}
 800caae:	1ccd      	adds	r5, r1, #3
 800cab0:	f025 0503 	bic.w	r5, r5, #3
 800cab4:	3508      	adds	r5, #8
 800cab6:	2d0c      	cmp	r5, #12
 800cab8:	bf38      	it	cc
 800caba:	250c      	movcc	r5, #12
 800cabc:	2d00      	cmp	r5, #0
 800cabe:	4606      	mov	r6, r0
 800cac0:	db01      	blt.n	800cac6 <_malloc_r+0x1a>
 800cac2:	42a9      	cmp	r1, r5
 800cac4:	d903      	bls.n	800cace <_malloc_r+0x22>
 800cac6:	230c      	movs	r3, #12
 800cac8:	6033      	str	r3, [r6, #0]
 800caca:	2000      	movs	r0, #0
 800cacc:	bdf8      	pop	{r3, r4, r5, r6, r7, pc}
 800cace:	f000 ffef 	bl	800dab0 <__malloc_lock>
 800cad2:	4921      	ldr	r1, [pc, #132]	; (800cb58 <_malloc_r+0xac>)
 800cad4:	680a      	ldr	r2, [r1, #0]
 800cad6:	4614      	mov	r4, r2
 800cad8:	b99c      	cbnz	r4, 800cb02 <_malloc_r+0x56>
 800cada:	4f20      	ldr	r7, [pc, #128]	; (800cb5c <_malloc_r+0xb0>)
 800cadc:	683b      	ldr	r3, [r7, #0]
 800cade:	b923      	cbnz	r3, 800caea <_malloc_r+0x3e>
 800cae0:	4621      	mov	r1, r4
 800cae2:	4630      	mov	r0, r6
 800cae4:	f000 fcd0 	bl	800d488 <_sbrk_r>
 800cae8:	6038      	str	r0, [r7, #0]
 800caea:	4629      	mov	r1, r5
 800caec:	4630      	mov	r0, r6
 800caee:	f000 fccb 	bl	800d488 <_sbrk_r>
 800caf2:	1c43      	adds	r3, r0, #1
 800caf4:	d123      	bne.n	800cb3e <_malloc_r+0x92>
 800caf6:	230c      	movs	r3, #12
 800caf8:	6033      	str	r3, [r6, #0]
 800cafa:	4630      	mov	r0, r6
 800cafc:	f000 ffde 	bl	800dabc <__malloc_unlock>
 800cb00:	e7e3      	b.n	800caca <_malloc_r+0x1e>
 800cb02:	6823      	ldr	r3, [r4, #0]
 800cb04:	1b5b      	subs	r3, r3, r5
 800cb06:	d417      	bmi.n	800cb38 <_malloc_r+0x8c>
 800cb08:	2b0b      	cmp	r3, #11
 800cb0a:	d903      	bls.n	800cb14 <_malloc_r+0x68>
 800cb0c:	6023      	str	r3, [r4, #0]
 800cb0e:	441c      	add	r4, r3
 800cb10:	6025      	str	r5, [r4, #0]
 800cb12:	e004      	b.n	800cb1e <_malloc_r+0x72>
 800cb14:	6863      	ldr	r3, [r4, #4]
 800cb16:	42a2      	cmp	r2, r4
 800cb18:	bf0c      	ite	eq
 800cb1a:	600b      	streq	r3, [r1, #0]
 800cb1c:	6053      	strne	r3, [r2, #4]
 800cb1e:	4630      	mov	r0, r6
 800cb20:	f000 ffcc 	bl	800dabc <__malloc_unlock>
 800cb24:	f104 000b 	add.w	r0, r4, #11
 800cb28:	1d23      	adds	r3, r4, #4
 800cb2a:	f020 0007 	bic.w	r0, r0, #7
 800cb2e:	1ac2      	subs	r2, r0, r3
 800cb30:	d0cc      	beq.n	800cacc <_malloc_r+0x20>
 800cb32:	1a1b      	subs	r3, r3, r0
 800cb34:	50a3      	str	r3, [r4, r2]
 800cb36:	e7c9      	b.n	800cacc <_malloc_r+0x20>
 800cb38:	4622      	mov	r2, r4
 800cb3a:	6864      	ldr	r4, [r4, #4]
 800cb3c:	e7cc      	b.n	800cad8 <_malloc_r+0x2c>
 800cb3e:	1cc4      	adds	r4, r0, #3
 800cb40:	f024 0403 	bic.w	r4, r4, #3
 800cb44:	42a0      	cmp	r0, r4
 800cb46:	d0e3      	beq.n	800cb10 <_malloc_r+0x64>
 800cb48:	1a21      	subs	r1, r4, r0
 800cb4a:	4630      	mov	r0, r6
 800cb4c:	f000 fc9c 	bl	800d488 <_sbrk_r>
 800cb50:	3001      	adds	r0, #1
 800cb52:	d1dd      	bne.n	800cb10 <_malloc_r+0x64>
 800cb54:	e7cf      	b.n	800caf6 <_malloc_r+0x4a>
 800cb56:	bf00      	nop
 800cb58:	200009a8 	.word	0x200009a8
 800cb5c:	200009ac 	.word	0x200009ac

0800cb60 <__ssputs_r>:
 800cb60:	e92d 47f0 	stmdb	sp!, {r4, r5, r6, r7, r8, r9, sl, lr}
 800cb64:	688e      	ldr	r6, [r1, #8]
 800cb66:	429e      	cmp	r6, r3
 800cb68:	4682      	mov	sl, r0
 800cb6a:	460c      	mov	r4, r1
 800cb6c:	4690      	mov	r8, r2
 800cb6e:	461f      	mov	r7, r3
 800cb70:	d838      	bhi.n	800cbe4 <__ssputs_r+0x84>
 800cb72:	898a      	ldrh	r2, [r1, #12]
 800cb74:	f412 6f90 	tst.w	r2, #1152	; 0x480
 800cb78:	d032      	beq.n	800cbe0 <__ssputs_r+0x80>
 800cb7a:	6825      	ldr	r5, [r4, #0]
 800cb7c:	6909      	ldr	r1, [r1, #16]
 800cb7e:	eba5 0901 	sub.w	r9, r5, r1
 800cb82:	6965      	ldr	r5, [r4, #20]
 800cb84:	eb05 0545 	add.w	r5, r5, r5, lsl #1
 800cb88:	eb05 75d5 	add.w	r5, r5, r5, lsr #31
 800cb8c:	3301      	adds	r3, #1
 800cb8e:	444b      	add	r3, r9
 800cb90:	106d      	asrs	r5, r5, #1
 800cb92:	429d      	cmp	r5, r3
 800cb94:	bf38      	it	cc
 800cb96:	461d      	movcc	r5, r3
 800cb98:	0553      	lsls	r3, r2, #21
 800cb9a:	d531      	bpl.n	800cc00 <__ssputs_r+0xa0>
 800cb9c:	4629      	mov	r1, r5
 800cb9e:	f7ff ff85 	bl	800caac <_malloc_r>
 800cba2:	4606      	mov	r6, r0
 800cba4:	b950      	cbnz	r0, 800cbbc <__ssputs_r+0x5c>
 800cba6:	230c      	movs	r3, #12
 800cba8:	f8ca 3000 	str.w	r3, [sl]
 800cbac:	89a3      	ldrh	r3, [r4, #12]
 800cbae:	f043 0340 	orr.w	r3, r3, #64	; 0x40
 800cbb2:	81a3      	strh	r3, [r4, #12]
 800cbb4:	f04f 30ff 	mov.w	r0, #4294967295
 800cbb8:	e8bd 87f0 	ldmia.w	sp!, {r4, r5, r6, r7, r8, r9, sl, pc}
 800cbbc:	6921      	ldr	r1, [r4, #16]
 800cbbe:	464a      	mov	r2, r9
 800cbc0:	f7fc fa2a 	bl	8009018 <memcpy>
 800cbc4:	89a3      	ldrh	r3, [r4, #12]
 800cbc6:	f423 6390 	bic.w	r3, r3, #1152	; 0x480
 800cbca:	f043 0380 	orr.w	r3, r3, #128	; 0x80
 800cbce:	81a3      	strh	r3, [r4, #12]
 800cbd0:	6126      	str	r6, [r4, #16]
 800cbd2:	6165      	str	r5, [r4, #20]
 800cbd4:	444e      	add	r6, r9
 800cbd6:	eba5 0509 	sub.w	r5, r5, r9
 800cbda:	6026      	str	r6, [r4, #0]
 800cbdc:	60a5      	str	r5, [r4, #8]
 800cbde:	463e      	mov	r6, r7
 800cbe0:	42be      	cmp	r6, r7
 800cbe2:	d900      	bls.n	800cbe6 <__ssputs_r+0x86>
 800cbe4:	463e      	mov	r6, r7
 800cbe6:	4632      	mov	r2, r6
 800cbe8:	6820      	ldr	r0, [r4, #0]
 800cbea:	4641      	mov	r1, r8
 800cbec:	f000 ff46 	bl	800da7c <memmove>
 800cbf0:	68a3      	ldr	r3, [r4, #8]
 800cbf2:	6822      	ldr	r2, [r4, #0]
 800cbf4:	1b9b      	subs	r3, r3, r6
 800cbf6:	4432      	add	r2, r6
 800cbf8:	60a3      	str	r3, [r4, #8]
 800cbfa:	6022      	str	r2, [r4, #0]
 800cbfc:	2000      	movs	r0, #0
 800cbfe:	e7db      	b.n	800cbb8 <__ssputs_r+0x58>
 800cc00:	462a      	mov	r2, r5
 800cc02:	f000 ff61 	bl	800dac8 <_realloc_r>
 800cc06:	4606      	mov	r6, r0
 800cc08:	2800      	cmp	r0, #0
 800cc0a:	d1e1      	bne.n	800cbd0 <__ssputs_r+0x70>
 800cc0c:	6921      	ldr	r1, [r4, #16]
 800cc0e:	4650      	mov	r0, sl
 800cc10:	f7ff fefc 	bl	800ca0c <_free_r>
 800cc14:	e7c7      	b.n	800cba6 <__ssputs_r+0x46>
	...

0800cc18 <_svfiprintf_r>:
 800cc18:	e92d 4ff0 	stmdb	sp!, {r4, r5, r6, r7, r8, r9, sl, fp, lr}
 800cc1c:	4698      	mov	r8, r3
 800cc1e:	898b      	ldrh	r3, [r1, #12]
 800cc20:	061b      	lsls	r3, r3, #24
 800cc22:	b09d      	sub	sp, #116	; 0x74
 800cc24:	4607      	mov	r7, r0
 800cc26:	460d      	mov	r5, r1
 800cc28:	4614      	mov	r4, r2
 800cc2a:	d50e      	bpl.n	800cc4a <_svfiprintf_r+0x32>
 800cc2c:	690b      	ldr	r3, [r1, #16]
 800cc2e:	b963      	cbnz	r3, 800cc4a <_svfiprintf_r+0x32>
 800cc30:	2140      	movs	r1, #64	; 0x40
 800cc32:	f7ff ff3b 	bl	800caac <_malloc_r>
 800cc36:	6028      	str	r0, [r5, #0]
 800cc38:	6128      	str	r0, [r5, #16]
 800cc3a:	b920      	cbnz	r0, 800cc46 <_svfiprintf_r+0x2e>
 800cc3c:	230c      	movs	r3, #12
 800cc3e:	603b      	str	r3, [r7, #0]
 800cc40:	f04f 30ff 	mov.w	r0, #4294967295
 800cc44:	e0d1      	b.n	800cdea <_svfiprintf_r+0x1d2>
 800cc46:	2340      	movs	r3, #64	; 0x40
 800cc48:	616b      	str	r3, [r5, #20]
 800cc4a:	2300      	movs	r3, #0
 800cc4c:	9309      	str	r3, [sp, #36]	; 0x24
 800cc4e:	2320      	movs	r3, #32
 800cc50:	f88d 3029 	strb.w	r3, [sp, #41]	; 0x29
 800cc54:	f8cd 800c 	str.w	r8, [sp, #12]
 800cc58:	2330      	movs	r3, #48	; 0x30
 800cc5a:	f8df 81a8 	ldr.w	r8, [pc, #424]	; 800ce04 <_svfiprintf_r+0x1ec>
 800cc5e:	f88d 302a 	strb.w	r3, [sp, #42]	; 0x2a
 800cc62:	f04f 0901 	mov.w	r9, #1
 800cc66:	4623      	mov	r3, r4
 800cc68:	469a      	mov	sl, r3
 800cc6a:	f813 2b01 	ldrb.w	r2, [r3], #1
 800cc6e:	b10a      	cbz	r2, 800cc74 <_svfiprintf_r+0x5c>
 800cc70:	2a25      	cmp	r2, #37	; 0x25
 800cc72:	d1f9      	bne.n	800cc68 <_svfiprintf_r+0x50>
 800cc74:	ebba 0b04 	subs.w	fp, sl, r4
 800cc78:	d00b      	beq.n	800cc92 <_svfiprintf_r+0x7a>
 800cc7a:	465b      	mov	r3, fp
 800cc7c:	4622      	mov	r2, r4
 800cc7e:	4629      	mov	r1, r5
 800cc80:	4638      	mov	r0, r7
 800cc82:	f7ff ff6d 	bl	800cb60 <__ssputs_r>
 800cc86:	3001      	adds	r0, #1
 800cc88:	f000 80aa 	beq.w	800cde0 <_svfiprintf_r+0x1c8>
 800cc8c:	9a09      	ldr	r2, [sp, #36]	; 0x24
 800cc8e:	445a      	add	r2, fp
 800cc90:	9209      	str	r2, [sp, #36]	; 0x24
 800cc92:	f89a 3000 	ldrb.w	r3, [sl]
 800cc96:	2b00      	cmp	r3, #0
 800cc98:	f000 80a2 	beq.w	800cde0 <_svfiprintf_r+0x1c8>
 800cc9c:	2300      	movs	r3, #0
 800cc9e:	f04f 32ff 	mov.w	r2, #4294967295
 800cca2:	e9cd 2305 	strd	r2, r3, [sp, #20]
 800cca6:	f10a 0a01 	add.w	sl, sl, #1
 800ccaa:	9304      	str	r3, [sp, #16]
 800ccac:	9307      	str	r3, [sp, #28]
 800ccae:	f88d 3053 	strb.w	r3, [sp, #83]	; 0x53
 800ccb2:	931a      	str	r3, [sp, #104]	; 0x68
 800ccb4:	4654      	mov	r4, sl
 800ccb6:	2205      	movs	r2, #5
 800ccb8:	f814 1b01 	ldrb.w	r1, [r4], #1
 800ccbc:	4851      	ldr	r0, [pc, #324]	; (800ce04 <_svfiprintf_r+0x1ec>)
 800ccbe:	f7f3 fa9f 	bl	8000200 <memchr>
 800ccc2:	9a04      	ldr	r2, [sp, #16]
 800ccc4:	b9d8      	cbnz	r0, 800ccfe <_svfiprintf_r+0xe6>
 800ccc6:	06d0      	lsls	r0, r2, #27
 800ccc8:	bf44      	itt	mi
 800ccca:	2320      	movmi	r3, #32
 800cccc:	f88d 3053 	strbmi.w	r3, [sp, #83]	; 0x53
 800ccd0:	0711      	lsls	r1, r2, #28
 800ccd2:	bf44      	itt	mi
 800ccd4:	232b      	movmi	r3, #43	; 0x2b
 800ccd6:	f88d 3053 	strbmi.w	r3, [sp, #83]	; 0x53
 800ccda:	f89a 3000 	ldrb.w	r3, [sl]
 800ccde:	2b2a      	cmp	r3, #42	; 0x2a
 800cce0:	d015      	beq.n	800cd0e <_svfiprintf_r+0xf6>
 800cce2:	9a07      	ldr	r2, [sp, #28]
 800cce4:	4654      	mov	r4, sl
 800cce6:	2000      	movs	r0, #0
 800cce8:	f04f 0c0a 	mov.w	ip, #10
 800ccec:	4621      	mov	r1, r4
 800ccee:	f811 3b01 	ldrb.w	r3, [r1], #1
 800ccf2:	3b30      	subs	r3, #48	; 0x30
 800ccf4:	2b09      	cmp	r3, #9
 800ccf6:	d94e      	bls.n	800cd96 <_svfiprintf_r+0x17e>
 800ccf8:	b1b0      	cbz	r0, 800cd28 <_svfiprintf_r+0x110>
 800ccfa:	9207      	str	r2, [sp, #28]
 800ccfc:	e014      	b.n	800cd28 <_svfiprintf_r+0x110>
 800ccfe:	eba0 0308 	sub.w	r3, r0, r8
 800cd02:	fa09 f303 	lsl.w	r3, r9, r3
 800cd06:	4313      	orrs	r3, r2
 800cd08:	9304      	str	r3, [sp, #16]
 800cd0a:	46a2      	mov	sl, r4
 800cd0c:	e7d2      	b.n	800ccb4 <_svfiprintf_r+0x9c>
 800cd0e:	9b03      	ldr	r3, [sp, #12]
 800cd10:	1d19      	adds	r1, r3, #4
 800cd12:	681b      	ldr	r3, [r3, #0]
 800cd14:	9103      	str	r1, [sp, #12]
 800cd16:	2b00      	cmp	r3, #0
 800cd18:	bfbb      	ittet	lt
 800cd1a:	425b      	neglt	r3, r3
 800cd1c:	f042 0202 	orrlt.w	r2, r2, #2
 800cd20:	9307      	strge	r3, [sp, #28]
 800cd22:	9307      	strlt	r3, [sp, #28]
 800cd24:	bfb8      	it	lt
 800cd26:	9204      	strlt	r2, [sp, #16]
 800cd28:	7823      	ldrb	r3, [r4, #0]
 800cd2a:	2b2e      	cmp	r3, #46	; 0x2e
 800cd2c:	d10c      	bne.n	800cd48 <_svfiprintf_r+0x130>
 800cd2e:	7863      	ldrb	r3, [r4, #1]
 800cd30:	2b2a      	cmp	r3, #42	; 0x2a
 800cd32:	d135      	bne.n	800cda0 <_svfiprintf_r+0x188>
 800cd34:	9b03      	ldr	r3, [sp, #12]
 800cd36:	1d1a      	adds	r2, r3, #4
 800cd38:	681b      	ldr	r3, [r3, #0]
 800cd3a:	9203      	str	r2, [sp, #12]
 800cd3c:	2b00      	cmp	r3, #0
 800cd3e:	bfb8      	it	lt
 800cd40:	f04f 33ff 	movlt.w	r3, #4294967295
 800cd44:	3402      	adds	r4, #2
 800cd46:	9305      	str	r3, [sp, #20]
 800cd48:	f8df a0c8 	ldr.w	sl, [pc, #200]	; 800ce14 <_svfiprintf_r+0x1fc>
 800cd4c:	7821      	ldrb	r1, [r4, #0]
 800cd4e:	2203      	movs	r2, #3
 800cd50:	4650      	mov	r0, sl
 800cd52:	f7f3 fa55 	bl	8000200 <memchr>
 800cd56:	b140      	cbz	r0, 800cd6a <_svfiprintf_r+0x152>
 800cd58:	2340      	movs	r3, #64	; 0x40
 800cd5a:	eba0 000a 	sub.w	r0, r0, sl
 800cd5e:	fa03 f000 	lsl.w	r0, r3, r0
 800cd62:	9b04      	ldr	r3, [sp, #16]
 800cd64:	4303      	orrs	r3, r0
 800cd66:	3401      	adds	r4, #1
 800cd68:	9304      	str	r3, [sp, #16]
 800cd6a:	f814 1b01 	ldrb.w	r1, [r4], #1
 800cd6e:	4826      	ldr	r0, [pc, #152]	; (800ce08 <_svfiprintf_r+0x1f0>)
 800cd70:	f88d 1028 	strb.w	r1, [sp, #40]	; 0x28
 800cd74:	2206      	movs	r2, #6
 800cd76:	f7f3 fa43 	bl	8000200 <memchr>
 800cd7a:	2800      	cmp	r0, #0
 800cd7c:	d038      	beq.n	800cdf0 <_svfiprintf_r+0x1d8>
 800cd7e:	4b23      	ldr	r3, [pc, #140]	; (800ce0c <_svfiprintf_r+0x1f4>)
 800cd80:	bb1b      	cbnz	r3, 800cdca <_svfiprintf_r+0x1b2>
 800cd82:	9b03      	ldr	r3, [sp, #12]
 800cd84:	3307      	adds	r3, #7
 800cd86:	f023 0307 	bic.w	r3, r3, #7
 800cd8a:	3308      	adds	r3, #8
 800cd8c:	9303      	str	r3, [sp, #12]
 800cd8e:	9b09      	ldr	r3, [sp, #36]	; 0x24
 800cd90:	4433      	add	r3, r6
 800cd92:	9309      	str	r3, [sp, #36]	; 0x24
 800cd94:	e767      	b.n	800cc66 <_svfiprintf_r+0x4e>
 800cd96:	fb0c 3202 	mla	r2, ip, r2, r3
 800cd9a:	460c      	mov	r4, r1
 800cd9c:	2001      	movs	r0, #1
 800cd9e:	e7a5      	b.n	800ccec <_svfiprintf_r+0xd4>
 800cda0:	2300      	movs	r3, #0
 800cda2:	3401      	adds	r4, #1
 800cda4:	9305      	str	r3, [sp, #20]
 800cda6:	4619      	mov	r1, r3
 800cda8:	f04f 0c0a 	mov.w	ip, #10
 800cdac:	4620      	mov	r0, r4
 800cdae:	f810 2b01 	ldrb.w	r2, [r0], #1
 800cdb2:	3a30      	subs	r2, #48	; 0x30
 800cdb4:	2a09      	cmp	r2, #9
 800cdb6:	d903      	bls.n	800cdc0 <_svfiprintf_r+0x1a8>
 800cdb8:	2b00      	cmp	r3, #0
 800cdba:	d0c5      	beq.n	800cd48 <_svfiprintf_r+0x130>
 800cdbc:	9105      	str	r1, [sp, #20]
 800cdbe:	e7c3      	b.n	800cd48 <_svfiprintf_r+0x130>
 800cdc0:	fb0c 2101 	mla	r1, ip, r1, r2
 800cdc4:	4604      	mov	r4, r0
 800cdc6:	2301      	movs	r3, #1
 800cdc8:	e7f0      	b.n	800cdac <_svfiprintf_r+0x194>
 800cdca:	ab03      	add	r3, sp, #12
 800cdcc:	9300      	str	r3, [sp, #0]
 800cdce:	462a      	mov	r2, r5
 800cdd0:	4b0f      	ldr	r3, [pc, #60]	; (800ce10 <_svfiprintf_r+0x1f8>)
 800cdd2:	a904      	add	r1, sp, #16
 800cdd4:	4638      	mov	r0, r7
 800cdd6:	f7fc f9d5 	bl	8009184 <_printf_float>
 800cdda:	1c42      	adds	r2, r0, #1
 800cddc:	4606      	mov	r6, r0
 800cdde:	d1d6      	bne.n	800cd8e <_svfiprintf_r+0x176>
 800cde0:	89ab      	ldrh	r3, [r5, #12]
 800cde2:	065b      	lsls	r3, r3, #25
 800cde4:	f53f af2c 	bmi.w	800cc40 <_svfiprintf_r+0x28>
 800cde8:	9809      	ldr	r0, [sp, #36]	; 0x24
 800cdea:	b01d      	add	sp, #116	; 0x74
 800cdec:	e8bd 8ff0 	ldmia.w	sp!, {r4, r5, r6, r7, r8, r9, sl, fp, pc}
 800cdf0:	ab03      	add	r3, sp, #12
 800cdf2:	9300      	str	r3, [sp, #0]
 800cdf4:	462a      	mov	r2, r5
 800cdf6:	4b06      	ldr	r3, [pc, #24]	; (800ce10 <_svfiprintf_r+0x1f8>)
 800cdf8:	a904      	add	r1, sp, #16
 800cdfa:	4638      	mov	r0, r7
 800cdfc:	f7fc fc66 	bl	80096cc <_printf_i>
 800ce00:	e7eb      	b.n	800cdda <_svfiprintf_r+0x1c2>
 800ce02:	bf00      	nop
 800ce04:	0800fedc 	.word	0x0800fedc
 800ce08:	0800fee6 	.word	0x0800fee6
 800ce0c:	08009185 	.word	0x08009185
 800ce10:	0800cb61 	.word	0x0800cb61
 800ce14:	0800fee2 	.word	0x0800fee2

0800ce18 <_sungetc_r>:
 800ce18:	b538      	push	{r3, r4, r5, lr}
 800ce1a:	1c4b      	adds	r3, r1, #1
 800ce1c:	4614      	mov	r4, r2
 800ce1e:	d103      	bne.n	800ce28 <_sungetc_r+0x10>
 800ce20:	f04f 35ff 	mov.w	r5, #4294967295
 800ce24:	4628      	mov	r0, r5
 800ce26:	bd38      	pop	{r3, r4, r5, pc}
 800ce28:	8993      	ldrh	r3, [r2, #12]
 800ce2a:	f023 0320 	bic.w	r3, r3, #32
 800ce2e:	8193      	strh	r3, [r2, #12]
 800ce30:	6b63      	ldr	r3, [r4, #52]	; 0x34
 800ce32:	6852      	ldr	r2, [r2, #4]
 800ce34:	b2cd      	uxtb	r5, r1
 800ce36:	b18b      	cbz	r3, 800ce5c <_sungetc_r+0x44>
 800ce38:	6ba3      	ldr	r3, [r4, #56]	; 0x38
 800ce3a:	4293      	cmp	r3, r2
 800ce3c:	dd08      	ble.n	800ce50 <_sungetc_r+0x38>
 800ce3e:	6823      	ldr	r3, [r4, #0]
 800ce40:	1e5a      	subs	r2, r3, #1
 800ce42:	6022      	str	r2, [r4, #0]
 800ce44:	f803 5c01 	strb.w	r5, [r3, #-1]
 800ce48:	6863      	ldr	r3, [r4, #4]
 800ce4a:	3301      	adds	r3, #1
 800ce4c:	6063      	str	r3, [r4, #4]
 800ce4e:	e7e9      	b.n	800ce24 <_sungetc_r+0xc>
 800ce50:	4621      	mov	r1, r4
 800ce52:	f000 fbe1 	bl	800d618 <__submore>
 800ce56:	2800      	cmp	r0, #0
 800ce58:	d0f1      	beq.n	800ce3e <_sungetc_r+0x26>
 800ce5a:	e7e1      	b.n	800ce20 <_sungetc_r+0x8>
 800ce5c:	6921      	ldr	r1, [r4, #16]
 800ce5e:	6823      	ldr	r3, [r4, #0]
 800ce60:	b151      	cbz	r1, 800ce78 <_sungetc_r+0x60>
 800ce62:	4299      	cmp	r1, r3
 800ce64:	d208      	bcs.n	800ce78 <_sungetc_r+0x60>
 800ce66:	f813 1c01 	ldrb.w	r1, [r3, #-1]
 800ce6a:	42a9      	cmp	r1, r5
 800ce6c:	d104      	bne.n	800ce78 <_sungetc_r+0x60>
 800ce6e:	3b01      	subs	r3, #1
 800ce70:	3201      	adds	r2, #1
 800ce72:	6023      	str	r3, [r4, #0]
 800ce74:	6062      	str	r2, [r4, #4]
 800ce76:	e7d5      	b.n	800ce24 <_sungetc_r+0xc>
 800ce78:	e9c4 320f 	strd	r3, r2, [r4, #60]	; 0x3c
 800ce7c:	f104 0344 	add.w	r3, r4, #68	; 0x44
 800ce80:	6363      	str	r3, [r4, #52]	; 0x34
 800ce82:	2303      	movs	r3, #3
 800ce84:	63a3      	str	r3, [r4, #56]	; 0x38
 800ce86:	4623      	mov	r3, r4
 800ce88:	f803 5f46 	strb.w	r5, [r3, #70]!
 800ce8c:	6023      	str	r3, [r4, #0]
 800ce8e:	2301      	movs	r3, #1
 800ce90:	e7dc      	b.n	800ce4c <_sungetc_r+0x34>

0800ce92 <__ssrefill_r>:
 800ce92:	b510      	push	{r4, lr}
 800ce94:	460c      	mov	r4, r1
 800ce96:	6b49      	ldr	r1, [r1, #52]	; 0x34
 800ce98:	b169      	cbz	r1, 800ceb6 <__ssrefill_r+0x24>
 800ce9a:	f104 0344 	add.w	r3, r4, #68	; 0x44
 800ce9e:	4299      	cmp	r1, r3
 800cea0:	d001      	beq.n	800cea6 <__ssrefill_r+0x14>
 800cea2:	f7ff fdb3 	bl	800ca0c <_free_r>
 800cea6:	6c23      	ldr	r3, [r4, #64]	; 0x40
 800cea8:	6063      	str	r3, [r4, #4]
 800ceaa:	2000      	movs	r0, #0
 800ceac:	6360      	str	r0, [r4, #52]	; 0x34
 800ceae:	b113      	cbz	r3, 800ceb6 <__ssrefill_r+0x24>
 800ceb0:	6be3      	ldr	r3, [r4, #60]	; 0x3c
 800ceb2:	6023      	str	r3, [r4, #0]
 800ceb4:	bd10      	pop	{r4, pc}
 800ceb6:	6923      	ldr	r3, [r4, #16]
 800ceb8:	6023      	str	r3, [r4, #0]
 800ceba:	2300      	movs	r3, #0
 800cebc:	6063      	str	r3, [r4, #4]
 800cebe:	89a3      	ldrh	r3, [r4, #12]
 800cec0:	f043 0320 	orr.w	r3, r3, #32
 800cec4:	81a3      	strh	r3, [r4, #12]
 800cec6:	f04f 30ff 	mov.w	r0, #4294967295
 800ceca:	e7f3      	b.n	800ceb4 <__ssrefill_r+0x22>

0800cecc <__ssvfiscanf_r>:
 800cecc:	e92d 4ff0 	stmdb	sp!, {r4, r5, r6, r7, r8, r9, sl, fp, lr}
 800ced0:	460c      	mov	r4, r1
 800ced2:	f5ad 7d23 	sub.w	sp, sp, #652	; 0x28c
 800ced6:	2100      	movs	r1, #0
 800ced8:	e9cd 1144 	strd	r1, r1, [sp, #272]	; 0x110
 800cedc:	49b2      	ldr	r1, [pc, #712]	; (800d1a8 <__ssvfiscanf_r+0x2dc>)
 800cede:	91a0      	str	r1, [sp, #640]	; 0x280
 800cee0:	f10d 0804 	add.w	r8, sp, #4
 800cee4:	49b1      	ldr	r1, [pc, #708]	; (800d1ac <__ssvfiscanf_r+0x2e0>)
 800cee6:	4fb2      	ldr	r7, [pc, #712]	; (800d1b0 <__ssvfiscanf_r+0x2e4>)
 800cee8:	f8df 92c8 	ldr.w	r9, [pc, #712]	; 800d1b4 <__ssvfiscanf_r+0x2e8>
 800ceec:	f8cd 8118 	str.w	r8, [sp, #280]	; 0x118
 800cef0:	4606      	mov	r6, r0
 800cef2:	91a1      	str	r1, [sp, #644]	; 0x284
 800cef4:	9300      	str	r3, [sp, #0]
 800cef6:	f892 a000 	ldrb.w	sl, [r2]
 800cefa:	f1ba 0f00 	cmp.w	sl, #0
 800cefe:	f000 8151 	beq.w	800d1a4 <__ssvfiscanf_r+0x2d8>
 800cf02:	f81a 3007 	ldrb.w	r3, [sl, r7]
 800cf06:	f013 0308 	ands.w	r3, r3, #8
 800cf0a:	f102 0501 	add.w	r5, r2, #1
 800cf0e:	d019      	beq.n	800cf44 <__ssvfiscanf_r+0x78>
 800cf10:	6863      	ldr	r3, [r4, #4]
 800cf12:	2b00      	cmp	r3, #0
 800cf14:	dd0f      	ble.n	800cf36 <__ssvfiscanf_r+0x6a>
 800cf16:	6823      	ldr	r3, [r4, #0]
 800cf18:	781a      	ldrb	r2, [r3, #0]
 800cf1a:	5cba      	ldrb	r2, [r7, r2]
 800cf1c:	0712      	lsls	r2, r2, #28
 800cf1e:	d401      	bmi.n	800cf24 <__ssvfiscanf_r+0x58>
 800cf20:	462a      	mov	r2, r5
 800cf22:	e7e8      	b.n	800cef6 <__ssvfiscanf_r+0x2a>
 800cf24:	9a45      	ldr	r2, [sp, #276]	; 0x114
 800cf26:	3201      	adds	r2, #1
 800cf28:	9245      	str	r2, [sp, #276]	; 0x114
 800cf2a:	6862      	ldr	r2, [r4, #4]
 800cf2c:	3301      	adds	r3, #1
 800cf2e:	3a01      	subs	r2, #1
 800cf30:	6062      	str	r2, [r4, #4]
 800cf32:	6023      	str	r3, [r4, #0]
 800cf34:	e7ec      	b.n	800cf10 <__ssvfiscanf_r+0x44>
 800cf36:	9ba1      	ldr	r3, [sp, #644]	; 0x284
 800cf38:	4621      	mov	r1, r4
 800cf3a:	4630      	mov	r0, r6
 800cf3c:	4798      	blx	r3
 800cf3e:	2800      	cmp	r0, #0
 800cf40:	d0e9      	beq.n	800cf16 <__ssvfiscanf_r+0x4a>
 800cf42:	e7ed      	b.n	800cf20 <__ssvfiscanf_r+0x54>
 800cf44:	f1ba 0f25 	cmp.w	sl, #37	; 0x25
 800cf48:	f040 8083 	bne.w	800d052 <__ssvfiscanf_r+0x186>
 800cf4c:	9341      	str	r3, [sp, #260]	; 0x104
 800cf4e:	9343      	str	r3, [sp, #268]	; 0x10c
 800cf50:	7853      	ldrb	r3, [r2, #1]
 800cf52:	2b2a      	cmp	r3, #42	; 0x2a
 800cf54:	bf02      	ittt	eq
 800cf56:	2310      	moveq	r3, #16
 800cf58:	1c95      	addeq	r5, r2, #2
 800cf5a:	9341      	streq	r3, [sp, #260]	; 0x104
 800cf5c:	220a      	movs	r2, #10
 800cf5e:	46ab      	mov	fp, r5
 800cf60:	f81b 1b01 	ldrb.w	r1, [fp], #1
 800cf64:	f1a1 0330 	sub.w	r3, r1, #48	; 0x30
 800cf68:	2b09      	cmp	r3, #9
 800cf6a:	d91d      	bls.n	800cfa8 <__ssvfiscanf_r+0xdc>
 800cf6c:	4891      	ldr	r0, [pc, #580]	; (800d1b4 <__ssvfiscanf_r+0x2e8>)
 800cf6e:	2203      	movs	r2, #3
 800cf70:	f7f3 f946 	bl	8000200 <memchr>
 800cf74:	b140      	cbz	r0, 800cf88 <__ssvfiscanf_r+0xbc>
 800cf76:	2301      	movs	r3, #1
 800cf78:	eba0 0009 	sub.w	r0, r0, r9
 800cf7c:	fa03 f000 	lsl.w	r0, r3, r0
 800cf80:	9b41      	ldr	r3, [sp, #260]	; 0x104
 800cf82:	4318      	orrs	r0, r3
 800cf84:	9041      	str	r0, [sp, #260]	; 0x104
 800cf86:	465d      	mov	r5, fp
 800cf88:	f815 3b01 	ldrb.w	r3, [r5], #1
 800cf8c:	2b78      	cmp	r3, #120	; 0x78
 800cf8e:	d806      	bhi.n	800cf9e <__ssvfiscanf_r+0xd2>
 800cf90:	2b57      	cmp	r3, #87	; 0x57
 800cf92:	d810      	bhi.n	800cfb6 <__ssvfiscanf_r+0xea>
 800cf94:	2b25      	cmp	r3, #37	; 0x25
 800cf96:	d05c      	beq.n	800d052 <__ssvfiscanf_r+0x186>
 800cf98:	d856      	bhi.n	800d048 <__ssvfiscanf_r+0x17c>
 800cf9a:	2b00      	cmp	r3, #0
 800cf9c:	d074      	beq.n	800d088 <__ssvfiscanf_r+0x1bc>
 800cf9e:	2303      	movs	r3, #3
 800cfa0:	9347      	str	r3, [sp, #284]	; 0x11c
 800cfa2:	230a      	movs	r3, #10
 800cfa4:	9342      	str	r3, [sp, #264]	; 0x108
 800cfa6:	e081      	b.n	800d0ac <__ssvfiscanf_r+0x1e0>
 800cfa8:	9b43      	ldr	r3, [sp, #268]	; 0x10c
 800cfaa:	fb02 1303 	mla	r3, r2, r3, r1
 800cfae:	3b30      	subs	r3, #48	; 0x30
 800cfb0:	9343      	str	r3, [sp, #268]	; 0x10c
 800cfb2:	465d      	mov	r5, fp
 800cfb4:	e7d3      	b.n	800cf5e <__ssvfiscanf_r+0x92>
 800cfb6:	f1a3 0258 	sub.w	r2, r3, #88	; 0x58
 800cfba:	2a20      	cmp	r2, #32
 800cfbc:	d8ef      	bhi.n	800cf9e <__ssvfiscanf_r+0xd2>
 800cfbe:	a101      	add	r1, pc, #4	; (adr r1, 800cfc4 <__ssvfiscanf_r+0xf8>)
 800cfc0:	f851 f022 	ldr.w	pc, [r1, r2, lsl #2]
 800cfc4:	0800d097 	.word	0x0800d097
 800cfc8:	0800cf9f 	.word	0x0800cf9f
 800cfcc:	0800cf9f 	.word	0x0800cf9f
 800cfd0:	0800d0f5 	.word	0x0800d0f5
 800cfd4:	0800cf9f 	.word	0x0800cf9f
 800cfd8:	0800cf9f 	.word	0x0800cf9f
 800cfdc:	0800cf9f 	.word	0x0800cf9f
 800cfe0:	0800cf9f 	.word	0x0800cf9f
 800cfe4:	0800cf9f 	.word	0x0800cf9f
 800cfe8:	0800cf9f 	.word	0x0800cf9f
 800cfec:	0800cf9f 	.word	0x0800cf9f
 800cff0:	0800d10b 	.word	0x0800d10b
 800cff4:	0800d0e1 	.word	0x0800d0e1
 800cff8:	0800d04f 	.word	0x0800d04f
 800cffc:	0800d04f 	.word	0x0800d04f
 800d000:	0800d04f 	.word	0x0800d04f
 800d004:	0800cf9f 	.word	0x0800cf9f
 800d008:	0800d0e5 	.word	0x0800d0e5
 800d00c:	0800cf9f 	.word	0x0800cf9f
 800d010:	0800cf9f 	.word	0x0800cf9f
 800d014:	0800cf9f 	.word	0x0800cf9f
 800d018:	0800cf9f 	.word	0x0800cf9f
 800d01c:	0800d11b 	.word	0x0800d11b
 800d020:	0800d0ed 	.word	0x0800d0ed
 800d024:	0800d08f 	.word	0x0800d08f
 800d028:	0800cf9f 	.word	0x0800cf9f
 800d02c:	0800cf9f 	.word	0x0800cf9f
 800d030:	0800d117 	.word	0x0800d117
 800d034:	0800cf9f 	.word	0x0800cf9f
 800d038:	0800d0e1 	.word	0x0800d0e1
 800d03c:	0800cf9f 	.word	0x0800cf9f
 800d040:	0800cf9f 	.word	0x0800cf9f
 800d044:	0800d097 	.word	0x0800d097
 800d048:	3b45      	subs	r3, #69	; 0x45
 800d04a:	2b02      	cmp	r3, #2
 800d04c:	d8a7      	bhi.n	800cf9e <__ssvfiscanf_r+0xd2>
 800d04e:	2305      	movs	r3, #5
 800d050:	e02b      	b.n	800d0aa <__ssvfiscanf_r+0x1de>
 800d052:	6863      	ldr	r3, [r4, #4]
 800d054:	2b00      	cmp	r3, #0
 800d056:	dd0d      	ble.n	800d074 <__ssvfiscanf_r+0x1a8>
 800d058:	6823      	ldr	r3, [r4, #0]
 800d05a:	781a      	ldrb	r2, [r3, #0]
 800d05c:	4552      	cmp	r2, sl
 800d05e:	f040 80a1 	bne.w	800d1a4 <__ssvfiscanf_r+0x2d8>
 800d062:	3301      	adds	r3, #1
 800d064:	6862      	ldr	r2, [r4, #4]
 800d066:	6023      	str	r3, [r4, #0]
 800d068:	9b45      	ldr	r3, [sp, #276]	; 0x114
 800d06a:	3a01      	subs	r2, #1
 800d06c:	3301      	adds	r3, #1
 800d06e:	6062      	str	r2, [r4, #4]
 800d070:	9345      	str	r3, [sp, #276]	; 0x114
 800d072:	e755      	b.n	800cf20 <__ssvfiscanf_r+0x54>
 800d074:	9ba1      	ldr	r3, [sp, #644]	; 0x284
 800d076:	4621      	mov	r1, r4
 800d078:	4630      	mov	r0, r6
 800d07a:	4798      	blx	r3
 800d07c:	2800      	cmp	r0, #0
 800d07e:	d0eb      	beq.n	800d058 <__ssvfiscanf_r+0x18c>
 800d080:	9844      	ldr	r0, [sp, #272]	; 0x110
 800d082:	2800      	cmp	r0, #0
 800d084:	f040 8084 	bne.w	800d190 <__ssvfiscanf_r+0x2c4>
 800d088:	f04f 30ff 	mov.w	r0, #4294967295
 800d08c:	e086      	b.n	800d19c <__ssvfiscanf_r+0x2d0>
 800d08e:	9a41      	ldr	r2, [sp, #260]	; 0x104
 800d090:	f042 0220 	orr.w	r2, r2, #32
 800d094:	9241      	str	r2, [sp, #260]	; 0x104
 800d096:	9a41      	ldr	r2, [sp, #260]	; 0x104
 800d098:	f442 7200 	orr.w	r2, r2, #512	; 0x200
 800d09c:	9241      	str	r2, [sp, #260]	; 0x104
 800d09e:	2210      	movs	r2, #16
 800d0a0:	2b6f      	cmp	r3, #111	; 0x6f
 800d0a2:	9242      	str	r2, [sp, #264]	; 0x108
 800d0a4:	bf34      	ite	cc
 800d0a6:	2303      	movcc	r3, #3
 800d0a8:	2304      	movcs	r3, #4
 800d0aa:	9347      	str	r3, [sp, #284]	; 0x11c
 800d0ac:	6863      	ldr	r3, [r4, #4]
 800d0ae:	2b00      	cmp	r3, #0
 800d0b0:	dd41      	ble.n	800d136 <__ssvfiscanf_r+0x26a>
 800d0b2:	9b41      	ldr	r3, [sp, #260]	; 0x104
 800d0b4:	0659      	lsls	r1, r3, #25
 800d0b6:	d404      	bmi.n	800d0c2 <__ssvfiscanf_r+0x1f6>
 800d0b8:	6823      	ldr	r3, [r4, #0]
 800d0ba:	781a      	ldrb	r2, [r3, #0]
 800d0bc:	5cba      	ldrb	r2, [r7, r2]
 800d0be:	0712      	lsls	r2, r2, #28
 800d0c0:	d440      	bmi.n	800d144 <__ssvfiscanf_r+0x278>
 800d0c2:	9b47      	ldr	r3, [sp, #284]	; 0x11c
 800d0c4:	2b02      	cmp	r3, #2
 800d0c6:	dc4f      	bgt.n	800d168 <__ssvfiscanf_r+0x29c>
 800d0c8:	466b      	mov	r3, sp
 800d0ca:	4622      	mov	r2, r4
 800d0cc:	a941      	add	r1, sp, #260	; 0x104
 800d0ce:	4630      	mov	r0, r6
 800d0d0:	f000 f874 	bl	800d1bc <_scanf_chars>
 800d0d4:	2801      	cmp	r0, #1
 800d0d6:	d065      	beq.n	800d1a4 <__ssvfiscanf_r+0x2d8>
 800d0d8:	2802      	cmp	r0, #2
 800d0da:	f47f af21 	bne.w	800cf20 <__ssvfiscanf_r+0x54>
 800d0de:	e7cf      	b.n	800d080 <__ssvfiscanf_r+0x1b4>
 800d0e0:	220a      	movs	r2, #10
 800d0e2:	e7dd      	b.n	800d0a0 <__ssvfiscanf_r+0x1d4>
 800d0e4:	2300      	movs	r3, #0
 800d0e6:	9342      	str	r3, [sp, #264]	; 0x108
 800d0e8:	2303      	movs	r3, #3
 800d0ea:	e7de      	b.n	800d0aa <__ssvfiscanf_r+0x1de>
 800d0ec:	2308      	movs	r3, #8
 800d0ee:	9342      	str	r3, [sp, #264]	; 0x108
 800d0f0:	2304      	movs	r3, #4
 800d0f2:	e7da      	b.n	800d0aa <__ssvfiscanf_r+0x1de>
 800d0f4:	4629      	mov	r1, r5
 800d0f6:	4640      	mov	r0, r8
 800d0f8:	f000 f9d6 	bl	800d4a8 <__sccl>
 800d0fc:	9b41      	ldr	r3, [sp, #260]	; 0x104
 800d0fe:	f043 0340 	orr.w	r3, r3, #64	; 0x40
 800d102:	9341      	str	r3, [sp, #260]	; 0x104
 800d104:	4605      	mov	r5, r0
 800d106:	2301      	movs	r3, #1
 800d108:	e7cf      	b.n	800d0aa <__ssvfiscanf_r+0x1de>
 800d10a:	9b41      	ldr	r3, [sp, #260]	; 0x104
 800d10c:	f043 0340 	orr.w	r3, r3, #64	; 0x40
 800d110:	9341      	str	r3, [sp, #260]	; 0x104
 800d112:	2300      	movs	r3, #0
 800d114:	e7c9      	b.n	800d0aa <__ssvfiscanf_r+0x1de>
 800d116:	2302      	movs	r3, #2
 800d118:	e7c7      	b.n	800d0aa <__ssvfiscanf_r+0x1de>
 800d11a:	9841      	ldr	r0, [sp, #260]	; 0x104
 800d11c:	06c3      	lsls	r3, r0, #27
 800d11e:	f53f aeff 	bmi.w	800cf20 <__ssvfiscanf_r+0x54>
 800d122:	9b00      	ldr	r3, [sp, #0]
 800d124:	9a45      	ldr	r2, [sp, #276]	; 0x114
 800d126:	1d19      	adds	r1, r3, #4
 800d128:	9100      	str	r1, [sp, #0]
 800d12a:	681b      	ldr	r3, [r3, #0]
 800d12c:	07c0      	lsls	r0, r0, #31
 800d12e:	bf4c      	ite	mi
 800d130:	801a      	strhmi	r2, [r3, #0]
 800d132:	601a      	strpl	r2, [r3, #0]
 800d134:	e6f4      	b.n	800cf20 <__ssvfiscanf_r+0x54>
 800d136:	9ba1      	ldr	r3, [sp, #644]	; 0x284
 800d138:	4621      	mov	r1, r4
 800d13a:	4630      	mov	r0, r6
 800d13c:	4798      	blx	r3
 800d13e:	2800      	cmp	r0, #0
 800d140:	d0b7      	beq.n	800d0b2 <__ssvfiscanf_r+0x1e6>
 800d142:	e79d      	b.n	800d080 <__ssvfiscanf_r+0x1b4>
 800d144:	9a45      	ldr	r2, [sp, #276]	; 0x114
 800d146:	3201      	adds	r2, #1
 800d148:	9245      	str	r2, [sp, #276]	; 0x114
 800d14a:	6862      	ldr	r2, [r4, #4]
 800d14c:	3a01      	subs	r2, #1
 800d14e:	2a00      	cmp	r2, #0
 800d150:	6062      	str	r2, [r4, #4]
 800d152:	dd02      	ble.n	800d15a <__ssvfiscanf_r+0x28e>
 800d154:	3301      	adds	r3, #1
 800d156:	6023      	str	r3, [r4, #0]
 800d158:	e7ae      	b.n	800d0b8 <__ssvfiscanf_r+0x1ec>
 800d15a:	9ba1      	ldr	r3, [sp, #644]	; 0x284
 800d15c:	4621      	mov	r1, r4
 800d15e:	4630      	mov	r0, r6
 800d160:	4798      	blx	r3
 800d162:	2800      	cmp	r0, #0
 800d164:	d0a8      	beq.n	800d0b8 <__ssvfiscanf_r+0x1ec>
 800d166:	e78b      	b.n	800d080 <__ssvfiscanf_r+0x1b4>
 800d168:	2b04      	cmp	r3, #4
 800d16a:	dc06      	bgt.n	800d17a <__ssvfiscanf_r+0x2ae>
 800d16c:	466b      	mov	r3, sp
 800d16e:	4622      	mov	r2, r4
 800d170:	a941      	add	r1, sp, #260	; 0x104
 800d172:	4630      	mov	r0, r6
 800d174:	f000 f87a 	bl	800d26c <_scanf_i>
 800d178:	e7ac      	b.n	800d0d4 <__ssvfiscanf_r+0x208>
 800d17a:	4b0f      	ldr	r3, [pc, #60]	; (800d1b8 <__ssvfiscanf_r+0x2ec>)
 800d17c:	2b00      	cmp	r3, #0
 800d17e:	f43f aecf 	beq.w	800cf20 <__ssvfiscanf_r+0x54>
 800d182:	466b      	mov	r3, sp
 800d184:	4622      	mov	r2, r4
 800d186:	a941      	add	r1, sp, #260	; 0x104
 800d188:	4630      	mov	r0, r6
 800d18a:	f7fc fbc5 	bl	8009918 <_scanf_float>
 800d18e:	e7a1      	b.n	800d0d4 <__ssvfiscanf_r+0x208>
 800d190:	89a3      	ldrh	r3, [r4, #12]
 800d192:	f013 0f40 	tst.w	r3, #64	; 0x40
 800d196:	bf18      	it	ne
 800d198:	f04f 30ff 	movne.w	r0, #4294967295
 800d19c:	f50d 7d23 	add.w	sp, sp, #652	; 0x28c
 800d1a0:	e8bd 8ff0 	ldmia.w	sp!, {r4, r5, r6, r7, r8, r9, sl, fp, pc}
 800d1a4:	9844      	ldr	r0, [sp, #272]	; 0x110
 800d1a6:	e7f9      	b.n	800d19c <__ssvfiscanf_r+0x2d0>
 800d1a8:	0800ce19 	.word	0x0800ce19
 800d1ac:	0800ce93 	.word	0x0800ce93
 800d1b0:	0800fad9 	.word	0x0800fad9
 800d1b4:	0800fee2 	.word	0x0800fee2
 800d1b8:	08009919 	.word	0x08009919

0800d1bc <_scanf_chars>:
 800d1bc:	e92d 43f8 	stmdb	sp!, {r3, r4, r5, r6, r7, r8, r9, lr}
 800d1c0:	4615      	mov	r5, r2
 800d1c2:	688a      	ldr	r2, [r1, #8]
 800d1c4:	4680      	mov	r8, r0
 800d1c6:	460c      	mov	r4, r1
 800d1c8:	b932      	cbnz	r2, 800d1d8 <_scanf_chars+0x1c>
 800d1ca:	698a      	ldr	r2, [r1, #24]
 800d1cc:	2a00      	cmp	r2, #0
 800d1ce:	bf0c      	ite	eq
 800d1d0:	2201      	moveq	r2, #1
 800d1d2:	f04f 32ff 	movne.w	r2, #4294967295
 800d1d6:	608a      	str	r2, [r1, #8]
 800d1d8:	6822      	ldr	r2, [r4, #0]
 800d1da:	f8df 908c 	ldr.w	r9, [pc, #140]	; 800d268 <_scanf_chars+0xac>
 800d1de:	06d1      	lsls	r1, r2, #27
 800d1e0:	bf5f      	itttt	pl
 800d1e2:	681a      	ldrpl	r2, [r3, #0]
 800d1e4:	1d11      	addpl	r1, r2, #4
 800d1e6:	6019      	strpl	r1, [r3, #0]
 800d1e8:	6816      	ldrpl	r6, [r2, #0]
 800d1ea:	2700      	movs	r7, #0
 800d1ec:	69a0      	ldr	r0, [r4, #24]
 800d1ee:	b188      	cbz	r0, 800d214 <_scanf_chars+0x58>
 800d1f0:	2801      	cmp	r0, #1
 800d1f2:	d107      	bne.n	800d204 <_scanf_chars+0x48>
 800d1f4:	682b      	ldr	r3, [r5, #0]
 800d1f6:	781a      	ldrb	r2, [r3, #0]
 800d1f8:	6963      	ldr	r3, [r4, #20]
 800d1fa:	5c9b      	ldrb	r3, [r3, r2]
 800d1fc:	b953      	cbnz	r3, 800d214 <_scanf_chars+0x58>
 800d1fe:	bb27      	cbnz	r7, 800d24a <_scanf_chars+0x8e>
 800d200:	e8bd 83f8 	ldmia.w	sp!, {r3, r4, r5, r6, r7, r8, r9, pc}
 800d204:	2802      	cmp	r0, #2
 800d206:	d120      	bne.n	800d24a <_scanf_chars+0x8e>
 800d208:	682b      	ldr	r3, [r5, #0]
 800d20a:	781b      	ldrb	r3, [r3, #0]
 800d20c:	f813 3009 	ldrb.w	r3, [r3, r9]
 800d210:	071b      	lsls	r3, r3, #28
 800d212:	d41a      	bmi.n	800d24a <_scanf_chars+0x8e>
 800d214:	6823      	ldr	r3, [r4, #0]
 800d216:	06da      	lsls	r2, r3, #27
 800d218:	bf5e      	ittt	pl
 800d21a:	682b      	ldrpl	r3, [r5, #0]
 800d21c:	781b      	ldrbpl	r3, [r3, #0]
 800d21e:	f806 3b01 	strbpl.w	r3, [r6], #1
 800d222:	682a      	ldr	r2, [r5, #0]
 800d224:	686b      	ldr	r3, [r5, #4]
 800d226:	3201      	adds	r2, #1
 800d228:	602a      	str	r2, [r5, #0]
 800d22a:	68a2      	ldr	r2, [r4, #8]
 800d22c:	3b01      	subs	r3, #1
 800d22e:	3a01      	subs	r2, #1
 800d230:	606b      	str	r3, [r5, #4]
 800d232:	3701      	adds	r7, #1
 800d234:	60a2      	str	r2, [r4, #8]
 800d236:	b142      	cbz	r2, 800d24a <_scanf_chars+0x8e>
 800d238:	2b00      	cmp	r3, #0
 800d23a:	dcd7      	bgt.n	800d1ec <_scanf_chars+0x30>
 800d23c:	f8d4 3180 	ldr.w	r3, [r4, #384]	; 0x180
 800d240:	4629      	mov	r1, r5
 800d242:	4640      	mov	r0, r8
 800d244:	4798      	blx	r3
 800d246:	2800      	cmp	r0, #0
 800d248:	d0d0      	beq.n	800d1ec <_scanf_chars+0x30>
 800d24a:	6823      	ldr	r3, [r4, #0]
 800d24c:	f013 0310 	ands.w	r3, r3, #16
 800d250:	d105      	bne.n	800d25e <_scanf_chars+0xa2>
 800d252:	68e2      	ldr	r2, [r4, #12]
 800d254:	3201      	adds	r2, #1
 800d256:	60e2      	str	r2, [r4, #12]
 800d258:	69a2      	ldr	r2, [r4, #24]
 800d25a:	b102      	cbz	r2, 800d25e <_scanf_chars+0xa2>
 800d25c:	7033      	strb	r3, [r6, #0]
 800d25e:	6923      	ldr	r3, [r4, #16]
 800d260:	441f      	add	r7, r3
 800d262:	6127      	str	r7, [r4, #16]
 800d264:	2000      	movs	r0, #0
 800d266:	e7cb      	b.n	800d200 <_scanf_chars+0x44>
 800d268:	0800fad9 	.word	0x0800fad9

0800d26c <_scanf_i>:
 800d26c:	e92d 4ff0 	stmdb	sp!, {r4, r5, r6, r7, r8, r9, sl, fp, lr}
 800d270:	4698      	mov	r8, r3
 800d272:	4b74      	ldr	r3, [pc, #464]	; (800d444 <_scanf_i+0x1d8>)
 800d274:	460c      	mov	r4, r1
 800d276:	4682      	mov	sl, r0
 800d278:	4616      	mov	r6, r2
 800d27a:	e893 0007 	ldmia.w	r3, {r0, r1, r2}
 800d27e:	b087      	sub	sp, #28
 800d280:	ab03      	add	r3, sp, #12
 800d282:	e883 0007 	stmia.w	r3, {r0, r1, r2}
 800d286:	4b70      	ldr	r3, [pc, #448]	; (800d448 <_scanf_i+0x1dc>)
 800d288:	69a1      	ldr	r1, [r4, #24]
 800d28a:	4a70      	ldr	r2, [pc, #448]	; (800d44c <_scanf_i+0x1e0>)
 800d28c:	2903      	cmp	r1, #3
 800d28e:	bf18      	it	ne
 800d290:	461a      	movne	r2, r3
 800d292:	68a3      	ldr	r3, [r4, #8]
 800d294:	9201      	str	r2, [sp, #4]
 800d296:	1e5a      	subs	r2, r3, #1
 800d298:	f5b2 7fae 	cmp.w	r2, #348	; 0x15c
 800d29c:	bf88      	it	hi
 800d29e:	f46f 75ae 	mvnhi.w	r5, #348	; 0x15c
 800d2a2:	4627      	mov	r7, r4
 800d2a4:	bf82      	ittt	hi
 800d2a6:	eb03 0905 	addhi.w	r9, r3, r5
 800d2aa:	f240 135d 	movwhi	r3, #349	; 0x15d
 800d2ae:	60a3      	strhi	r3, [r4, #8]
 800d2b0:	f857 3b1c 	ldr.w	r3, [r7], #28
 800d2b4:	f443 6350 	orr.w	r3, r3, #3328	; 0xd00
 800d2b8:	bf98      	it	ls
 800d2ba:	f04f 0900 	movls.w	r9, #0
 800d2be:	6023      	str	r3, [r4, #0]
 800d2c0:	463d      	mov	r5, r7
 800d2c2:	f04f 0b00 	mov.w	fp, #0
 800d2c6:	6831      	ldr	r1, [r6, #0]
 800d2c8:	ab03      	add	r3, sp, #12
 800d2ca:	7809      	ldrb	r1, [r1, #0]
 800d2cc:	f853 002b 	ldr.w	r0, [r3, fp, lsl #2]
 800d2d0:	2202      	movs	r2, #2
 800d2d2:	f7f2 ff95 	bl	8000200 <memchr>
 800d2d6:	b328      	cbz	r0, 800d324 <_scanf_i+0xb8>
 800d2d8:	f1bb 0f01 	cmp.w	fp, #1
 800d2dc:	d159      	bne.n	800d392 <_scanf_i+0x126>
 800d2de:	6862      	ldr	r2, [r4, #4]
 800d2e0:	b92a      	cbnz	r2, 800d2ee <_scanf_i+0x82>
 800d2e2:	6822      	ldr	r2, [r4, #0]
 800d2e4:	2308      	movs	r3, #8
 800d2e6:	f442 7200 	orr.w	r2, r2, #512	; 0x200
 800d2ea:	6063      	str	r3, [r4, #4]
 800d2ec:	6022      	str	r2, [r4, #0]
 800d2ee:	6822      	ldr	r2, [r4, #0]
 800d2f0:	f422 62a0 	bic.w	r2, r2, #1280	; 0x500
 800d2f4:	6022      	str	r2, [r4, #0]
 800d2f6:	68a2      	ldr	r2, [r4, #8]
 800d2f8:	1e51      	subs	r1, r2, #1
 800d2fa:	60a1      	str	r1, [r4, #8]
 800d2fc:	b192      	cbz	r2, 800d324 <_scanf_i+0xb8>
 800d2fe:	6832      	ldr	r2, [r6, #0]
 800d300:	1c51      	adds	r1, r2, #1
 800d302:	6031      	str	r1, [r6, #0]
 800d304:	7812      	ldrb	r2, [r2, #0]
 800d306:	f805 2b01 	strb.w	r2, [r5], #1
 800d30a:	6872      	ldr	r2, [r6, #4]
 800d30c:	3a01      	subs	r2, #1
 800d30e:	2a00      	cmp	r2, #0
 800d310:	6072      	str	r2, [r6, #4]
 800d312:	dc07      	bgt.n	800d324 <_scanf_i+0xb8>
 800d314:	f8d4 2180 	ldr.w	r2, [r4, #384]	; 0x180
 800d318:	4631      	mov	r1, r6
 800d31a:	4650      	mov	r0, sl
 800d31c:	4790      	blx	r2
 800d31e:	2800      	cmp	r0, #0
 800d320:	f040 8085 	bne.w	800d42e <_scanf_i+0x1c2>
 800d324:	f10b 0b01 	add.w	fp, fp, #1
 800d328:	f1bb 0f03 	cmp.w	fp, #3
 800d32c:	d1cb      	bne.n	800d2c6 <_scanf_i+0x5a>
 800d32e:	6863      	ldr	r3, [r4, #4]
 800d330:	b90b      	cbnz	r3, 800d336 <_scanf_i+0xca>
 800d332:	230a      	movs	r3, #10
 800d334:	6063      	str	r3, [r4, #4]
 800d336:	6863      	ldr	r3, [r4, #4]
 800d338:	4945      	ldr	r1, [pc, #276]	; (800d450 <_scanf_i+0x1e4>)
 800d33a:	6960      	ldr	r0, [r4, #20]
 800d33c:	1ac9      	subs	r1, r1, r3
 800d33e:	f000 f8b3 	bl	800d4a8 <__sccl>
 800d342:	f04f 0b00 	mov.w	fp, #0
 800d346:	68a3      	ldr	r3, [r4, #8]
 800d348:	6822      	ldr	r2, [r4, #0]
 800d34a:	2b00      	cmp	r3, #0
 800d34c:	d03d      	beq.n	800d3ca <_scanf_i+0x15e>
 800d34e:	6831      	ldr	r1, [r6, #0]
 800d350:	6960      	ldr	r0, [r4, #20]
 800d352:	f891 c000 	ldrb.w	ip, [r1]
 800d356:	f810 000c 	ldrb.w	r0, [r0, ip]
 800d35a:	2800      	cmp	r0, #0
 800d35c:	d035      	beq.n	800d3ca <_scanf_i+0x15e>
 800d35e:	f1bc 0f30 	cmp.w	ip, #48	; 0x30
 800d362:	d124      	bne.n	800d3ae <_scanf_i+0x142>
 800d364:	0510      	lsls	r0, r2, #20
 800d366:	d522      	bpl.n	800d3ae <_scanf_i+0x142>
 800d368:	f10b 0b01 	add.w	fp, fp, #1
 800d36c:	f1b9 0f00 	cmp.w	r9, #0
 800d370:	d003      	beq.n	800d37a <_scanf_i+0x10e>
 800d372:	3301      	adds	r3, #1
 800d374:	f109 39ff 	add.w	r9, r9, #4294967295
 800d378:	60a3      	str	r3, [r4, #8]
 800d37a:	6873      	ldr	r3, [r6, #4]
 800d37c:	3b01      	subs	r3, #1
 800d37e:	2b00      	cmp	r3, #0
 800d380:	6073      	str	r3, [r6, #4]
 800d382:	dd1b      	ble.n	800d3bc <_scanf_i+0x150>
 800d384:	6833      	ldr	r3, [r6, #0]
 800d386:	3301      	adds	r3, #1
 800d388:	6033      	str	r3, [r6, #0]
 800d38a:	68a3      	ldr	r3, [r4, #8]
 800d38c:	3b01      	subs	r3, #1
 800d38e:	60a3      	str	r3, [r4, #8]
 800d390:	e7d9      	b.n	800d346 <_scanf_i+0xda>
 800d392:	f1bb 0f02 	cmp.w	fp, #2
 800d396:	d1ae      	bne.n	800d2f6 <_scanf_i+0x8a>
 800d398:	6822      	ldr	r2, [r4, #0]
 800d39a:	f402 61c0 	and.w	r1, r2, #1536	; 0x600
 800d39e:	f5b1 7f00 	cmp.w	r1, #512	; 0x200
 800d3a2:	d1bf      	bne.n	800d324 <_scanf_i+0xb8>
 800d3a4:	2310      	movs	r3, #16
 800d3a6:	6063      	str	r3, [r4, #4]
 800d3a8:	f442 7280 	orr.w	r2, r2, #256	; 0x100
 800d3ac:	e7a2      	b.n	800d2f4 <_scanf_i+0x88>
 800d3ae:	f422 6210 	bic.w	r2, r2, #2304	; 0x900
 800d3b2:	6022      	str	r2, [r4, #0]
 800d3b4:	780b      	ldrb	r3, [r1, #0]
 800d3b6:	f805 3b01 	strb.w	r3, [r5], #1
 800d3ba:	e7de      	b.n	800d37a <_scanf_i+0x10e>
 800d3bc:	f8d4 3180 	ldr.w	r3, [r4, #384]	; 0x180
 800d3c0:	4631      	mov	r1, r6
 800d3c2:	4650      	mov	r0, sl
 800d3c4:	4798      	blx	r3
 800d3c6:	2800      	cmp	r0, #0
 800d3c8:	d0df      	beq.n	800d38a <_scanf_i+0x11e>
 800d3ca:	6823      	ldr	r3, [r4, #0]
 800d3cc:	05d9      	lsls	r1, r3, #23
 800d3ce:	d50d      	bpl.n	800d3ec <_scanf_i+0x180>
 800d3d0:	42bd      	cmp	r5, r7
 800d3d2:	d909      	bls.n	800d3e8 <_scanf_i+0x17c>
 800d3d4:	f815 1c01 	ldrb.w	r1, [r5, #-1]
 800d3d8:	f8d4 317c 	ldr.w	r3, [r4, #380]	; 0x17c
 800d3dc:	4632      	mov	r2, r6
 800d3de:	4650      	mov	r0, sl
 800d3e0:	4798      	blx	r3
 800d3e2:	f105 39ff 	add.w	r9, r5, #4294967295
 800d3e6:	464d      	mov	r5, r9
 800d3e8:	42bd      	cmp	r5, r7
 800d3ea:	d028      	beq.n	800d43e <_scanf_i+0x1d2>
 800d3ec:	6822      	ldr	r2, [r4, #0]
 800d3ee:	f012 0210 	ands.w	r2, r2, #16
 800d3f2:	d113      	bne.n	800d41c <_scanf_i+0x1b0>
 800d3f4:	702a      	strb	r2, [r5, #0]
 800d3f6:	6863      	ldr	r3, [r4, #4]
 800d3f8:	9e01      	ldr	r6, [sp, #4]
 800d3fa:	4639      	mov	r1, r7
 800d3fc:	4650      	mov	r0, sl
 800d3fe:	47b0      	blx	r6
 800d400:	f8d8 3000 	ldr.w	r3, [r8]
 800d404:	6821      	ldr	r1, [r4, #0]
 800d406:	1d1a      	adds	r2, r3, #4
 800d408:	f8c8 2000 	str.w	r2, [r8]
 800d40c:	f011 0f20 	tst.w	r1, #32
 800d410:	681b      	ldr	r3, [r3, #0]
 800d412:	d00f      	beq.n	800d434 <_scanf_i+0x1c8>
 800d414:	6018      	str	r0, [r3, #0]
 800d416:	68e3      	ldr	r3, [r4, #12]
 800d418:	3301      	adds	r3, #1
 800d41a:	60e3      	str	r3, [r4, #12]
 800d41c:	1bed      	subs	r5, r5, r7
 800d41e:	44ab      	add	fp, r5
 800d420:	6925      	ldr	r5, [r4, #16]
 800d422:	445d      	add	r5, fp
 800d424:	6125      	str	r5, [r4, #16]
 800d426:	2000      	movs	r0, #0
 800d428:	b007      	add	sp, #28
 800d42a:	e8bd 8ff0 	ldmia.w	sp!, {r4, r5, r6, r7, r8, r9, sl, fp, pc}
 800d42e:	f04f 0b00 	mov.w	fp, #0
 800d432:	e7ca      	b.n	800d3ca <_scanf_i+0x15e>
 800d434:	07ca      	lsls	r2, r1, #31
 800d436:	bf4c      	ite	mi
 800d438:	8018      	strhmi	r0, [r3, #0]
 800d43a:	6018      	strpl	r0, [r3, #0]
 800d43c:	e7eb      	b.n	800d416 <_scanf_i+0x1aa>
 800d43e:	2001      	movs	r0, #1
 800d440:	e7f2      	b.n	800d428 <_scanf_i+0x1bc>
 800d442:	bf00      	nop
 800d444:	0800e6e8 	.word	0x0800e6e8
 800d448:	0800d615 	.word	0x0800d615
 800d44c:	0800ac01 	.word	0x0800ac01
 800d450:	0800ff06 	.word	0x0800ff06

0800d454 <_read_r>:
 800d454:	b538      	push	{r3, r4, r5, lr}
 800d456:	4d07      	ldr	r5, [pc, #28]	; (800d474 <_read_r+0x20>)
 800d458:	4604      	mov	r4, r0
 800d45a:	4608      	mov	r0, r1
 800d45c:	4611      	mov	r1, r2
 800d45e:	2200      	movs	r2, #0
 800d460:	602a      	str	r2, [r5, #0]
 800d462:	461a      	mov	r2, r3
 800d464:	f7f7 fe24 	bl	80050b0 <_read>
 800d468:	1c43      	adds	r3, r0, #1
 800d46a:	d102      	bne.n	800d472 <_read_r+0x1e>
 800d46c:	682b      	ldr	r3, [r5, #0]
 800d46e:	b103      	cbz	r3, 800d472 <_read_r+0x1e>
 800d470:	6023      	str	r3, [r4, #0]
 800d472:	bd38      	pop	{r3, r4, r5, pc}
 800d474:	20002038 	.word	0x20002038

0800d478 <nan>:
 800d478:	ed9f 0b01 	vldr	d0, [pc, #4]	; 800d480 <nan+0x8>
 800d47c:	4770      	bx	lr
 800d47e:	bf00      	nop
 800d480:	00000000 	.word	0x00000000
 800d484:	7ff80000 	.word	0x7ff80000

0800d488 <_sbrk_r>:
 800d488:	b538      	push	{r3, r4, r5, lr}
 800d48a:	4d06      	ldr	r5, [pc, #24]	; (800d4a4 <_sbrk_r+0x1c>)
 800d48c:	2300      	movs	r3, #0
 800d48e:	4604      	mov	r4, r0
 800d490:	4608      	mov	r0, r1
 800d492:	602b      	str	r3, [r5, #0]
 800d494:	f7f7 fe32 	bl	80050fc <_sbrk>
 800d498:	1c43      	adds	r3, r0, #1
 800d49a:	d102      	bne.n	800d4a2 <_sbrk_r+0x1a>
 800d49c:	682b      	ldr	r3, [r5, #0]
 800d49e:	b103      	cbz	r3, 800d4a2 <_sbrk_r+0x1a>
 800d4a0:	6023      	str	r3, [r4, #0]
 800d4a2:	bd38      	pop	{r3, r4, r5, pc}
 800d4a4:	20002038 	.word	0x20002038

0800d4a8 <__sccl>:
 800d4a8:	b570      	push	{r4, r5, r6, lr}
 800d4aa:	780b      	ldrb	r3, [r1, #0]
 800d4ac:	4604      	mov	r4, r0
 800d4ae:	2b5e      	cmp	r3, #94	; 0x5e
 800d4b0:	bf0b      	itete	eq
 800d4b2:	784b      	ldrbeq	r3, [r1, #1]
 800d4b4:	1c48      	addne	r0, r1, #1
 800d4b6:	1c88      	addeq	r0, r1, #2
 800d4b8:	2200      	movne	r2, #0
 800d4ba:	bf08      	it	eq
 800d4bc:	2201      	moveq	r2, #1
 800d4be:	1e61      	subs	r1, r4, #1
 800d4c0:	f104 05ff 	add.w	r5, r4, #255	; 0xff
 800d4c4:	f801 2f01 	strb.w	r2, [r1, #1]!
 800d4c8:	42a9      	cmp	r1, r5
 800d4ca:	d1fb      	bne.n	800d4c4 <__sccl+0x1c>
 800d4cc:	b90b      	cbnz	r3, 800d4d2 <__sccl+0x2a>
 800d4ce:	3801      	subs	r0, #1
 800d4d0:	bd70      	pop	{r4, r5, r6, pc}
 800d4d2:	f082 0101 	eor.w	r1, r2, #1
 800d4d6:	54e1      	strb	r1, [r4, r3]
 800d4d8:	1c42      	adds	r2, r0, #1
 800d4da:	f812 5c01 	ldrb.w	r5, [r2, #-1]
 800d4de:	2d2d      	cmp	r5, #45	; 0x2d
 800d4e0:	f102 36ff 	add.w	r6, r2, #4294967295
 800d4e4:	4610      	mov	r0, r2
 800d4e6:	d006      	beq.n	800d4f6 <__sccl+0x4e>
 800d4e8:	2d5d      	cmp	r5, #93	; 0x5d
 800d4ea:	d0f1      	beq.n	800d4d0 <__sccl+0x28>
 800d4ec:	b90d      	cbnz	r5, 800d4f2 <__sccl+0x4a>
 800d4ee:	4630      	mov	r0, r6
 800d4f0:	e7ee      	b.n	800d4d0 <__sccl+0x28>
 800d4f2:	462b      	mov	r3, r5
 800d4f4:	e7ef      	b.n	800d4d6 <__sccl+0x2e>
 800d4f6:	7816      	ldrb	r6, [r2, #0]
 800d4f8:	2e5d      	cmp	r6, #93	; 0x5d
 800d4fa:	d0fa      	beq.n	800d4f2 <__sccl+0x4a>
 800d4fc:	42b3      	cmp	r3, r6
 800d4fe:	dcf8      	bgt.n	800d4f2 <__sccl+0x4a>
 800d500:	4618      	mov	r0, r3
 800d502:	3001      	adds	r0, #1
 800d504:	4286      	cmp	r6, r0
 800d506:	5421      	strb	r1, [r4, r0]
 800d508:	dcfb      	bgt.n	800d502 <__sccl+0x5a>
 800d50a:	43d8      	mvns	r0, r3
 800d50c:	4430      	add	r0, r6
 800d50e:	1c5d      	adds	r5, r3, #1
 800d510:	42b3      	cmp	r3, r6
 800d512:	bfa8      	it	ge
 800d514:	2000      	movge	r0, #0
 800d516:	182b      	adds	r3, r5, r0
 800d518:	3202      	adds	r2, #2
 800d51a:	e7de      	b.n	800d4da <__sccl+0x32>

0800d51c <_strtoul_l.isra.0>:
 800d51c:	e92d 43f0 	stmdb	sp!, {r4, r5, r6, r7, r8, r9, lr}
 800d520:	4e3b      	ldr	r6, [pc, #236]	; (800d610 <_strtoul_l.isra.0+0xf4>)
 800d522:	4686      	mov	lr, r0
 800d524:	468c      	mov	ip, r1
 800d526:	4660      	mov	r0, ip
 800d528:	f81c 4b01 	ldrb.w	r4, [ip], #1
 800d52c:	5da5      	ldrb	r5, [r4, r6]
 800d52e:	f015 0508 	ands.w	r5, r5, #8
 800d532:	d1f8      	bne.n	800d526 <_strtoul_l.isra.0+0xa>
 800d534:	2c2d      	cmp	r4, #45	; 0x2d
 800d536:	d134      	bne.n	800d5a2 <_strtoul_l.isra.0+0x86>
 800d538:	f89c 4000 	ldrb.w	r4, [ip]
 800d53c:	f04f 0801 	mov.w	r8, #1
 800d540:	f100 0c02 	add.w	ip, r0, #2
 800d544:	2b00      	cmp	r3, #0
 800d546:	d05e      	beq.n	800d606 <_strtoul_l.isra.0+0xea>
 800d548:	2b10      	cmp	r3, #16
 800d54a:	d10c      	bne.n	800d566 <_strtoul_l.isra.0+0x4a>
 800d54c:	2c30      	cmp	r4, #48	; 0x30
 800d54e:	d10a      	bne.n	800d566 <_strtoul_l.isra.0+0x4a>
 800d550:	f89c 0000 	ldrb.w	r0, [ip]
 800d554:	f000 00df 	and.w	r0, r0, #223	; 0xdf
 800d558:	2858      	cmp	r0, #88	; 0x58
 800d55a:	d14f      	bne.n	800d5fc <_strtoul_l.isra.0+0xe0>
 800d55c:	f89c 4001 	ldrb.w	r4, [ip, #1]
 800d560:	2310      	movs	r3, #16
 800d562:	f10c 0c02 	add.w	ip, ip, #2
 800d566:	f04f 37ff 	mov.w	r7, #4294967295
 800d56a:	2500      	movs	r5, #0
 800d56c:	fbb7 f7f3 	udiv	r7, r7, r3
 800d570:	fb03 f907 	mul.w	r9, r3, r7
 800d574:	ea6f 0909 	mvn.w	r9, r9
 800d578:	4628      	mov	r0, r5
 800d57a:	f1a4 0630 	sub.w	r6, r4, #48	; 0x30
 800d57e:	2e09      	cmp	r6, #9
 800d580:	d818      	bhi.n	800d5b4 <_strtoul_l.isra.0+0x98>
 800d582:	4634      	mov	r4, r6
 800d584:	42a3      	cmp	r3, r4
 800d586:	dd24      	ble.n	800d5d2 <_strtoul_l.isra.0+0xb6>
 800d588:	2d00      	cmp	r5, #0
 800d58a:	db1f      	blt.n	800d5cc <_strtoul_l.isra.0+0xb0>
 800d58c:	4287      	cmp	r7, r0
 800d58e:	d31d      	bcc.n	800d5cc <_strtoul_l.isra.0+0xb0>
 800d590:	d101      	bne.n	800d596 <_strtoul_l.isra.0+0x7a>
 800d592:	45a1      	cmp	r9, r4
 800d594:	db1a      	blt.n	800d5cc <_strtoul_l.isra.0+0xb0>
 800d596:	fb00 4003 	mla	r0, r0, r3, r4
 800d59a:	2501      	movs	r5, #1
 800d59c:	f81c 4b01 	ldrb.w	r4, [ip], #1
 800d5a0:	e7eb      	b.n	800d57a <_strtoul_l.isra.0+0x5e>
 800d5a2:	2c2b      	cmp	r4, #43	; 0x2b
 800d5a4:	bf08      	it	eq
 800d5a6:	f89c 4000 	ldrbeq.w	r4, [ip]
 800d5aa:	46a8      	mov	r8, r5
 800d5ac:	bf08      	it	eq
 800d5ae:	f100 0c02 	addeq.w	ip, r0, #2
 800d5b2:	e7c7      	b.n	800d544 <_strtoul_l.isra.0+0x28>
 800d5b4:	f1a4 0641 	sub.w	r6, r4, #65	; 0x41
 800d5b8:	2e19      	cmp	r6, #25
 800d5ba:	d801      	bhi.n	800d5c0 <_strtoul_l.isra.0+0xa4>
 800d5bc:	3c37      	subs	r4, #55	; 0x37
 800d5be:	e7e1      	b.n	800d584 <_strtoul_l.isra.0+0x68>
 800d5c0:	f1a4 0661 	sub.w	r6, r4, #97	; 0x61
 800d5c4:	2e19      	cmp	r6, #25
 800d5c6:	d804      	bhi.n	800d5d2 <_strtoul_l.isra.0+0xb6>
 800d5c8:	3c57      	subs	r4, #87	; 0x57
 800d5ca:	e7db      	b.n	800d584 <_strtoul_l.isra.0+0x68>
 800d5cc:	f04f 35ff 	mov.w	r5, #4294967295
 800d5d0:	e7e4      	b.n	800d59c <_strtoul_l.isra.0+0x80>
 800d5d2:	2d00      	cmp	r5, #0
 800d5d4:	da07      	bge.n	800d5e6 <_strtoul_l.isra.0+0xca>
 800d5d6:	2322      	movs	r3, #34	; 0x22
 800d5d8:	f8ce 3000 	str.w	r3, [lr]
 800d5dc:	f04f 30ff 	mov.w	r0, #4294967295
 800d5e0:	b942      	cbnz	r2, 800d5f4 <_strtoul_l.isra.0+0xd8>
 800d5e2:	e8bd 83f0 	ldmia.w	sp!, {r4, r5, r6, r7, r8, r9, pc}
 800d5e6:	f1b8 0f00 	cmp.w	r8, #0
 800d5ea:	d000      	beq.n	800d5ee <_strtoul_l.isra.0+0xd2>
 800d5ec:	4240      	negs	r0, r0
 800d5ee:	2a00      	cmp	r2, #0
 800d5f0:	d0f7      	beq.n	800d5e2 <_strtoul_l.isra.0+0xc6>
 800d5f2:	b10d      	cbz	r5, 800d5f8 <_strtoul_l.isra.0+0xdc>
 800d5f4:	f10c 31ff 	add.w	r1, ip, #4294967295
 800d5f8:	6011      	str	r1, [r2, #0]
 800d5fa:	e7f2      	b.n	800d5e2 <_strtoul_l.isra.0+0xc6>
 800d5fc:	2430      	movs	r4, #48	; 0x30
 800d5fe:	2b00      	cmp	r3, #0
 800d600:	d1b1      	bne.n	800d566 <_strtoul_l.isra.0+0x4a>
 800d602:	2308      	movs	r3, #8
 800d604:	e7af      	b.n	800d566 <_strtoul_l.isra.0+0x4a>
 800d606:	2c30      	cmp	r4, #48	; 0x30
 800d608:	d0a2      	beq.n	800d550 <_strtoul_l.isra.0+0x34>
 800d60a:	230a      	movs	r3, #10
 800d60c:	e7ab      	b.n	800d566 <_strtoul_l.isra.0+0x4a>
 800d60e:	bf00      	nop
 800d610:	0800fad9 	.word	0x0800fad9

0800d614 <_strtoul_r>:
 800d614:	f7ff bf82 	b.w	800d51c <_strtoul_l.isra.0>

0800d618 <__submore>:
 800d618:	e92d 41f0 	stmdb	sp!, {r4, r5, r6, r7, r8, lr}
 800d61c:	460c      	mov	r4, r1
 800d61e:	6b49      	ldr	r1, [r1, #52]	; 0x34
 800d620:	f104 0344 	add.w	r3, r4, #68	; 0x44
 800d624:	4299      	cmp	r1, r3
 800d626:	d11d      	bne.n	800d664 <__submore+0x4c>
 800d628:	f44f 6180 	mov.w	r1, #1024	; 0x400
 800d62c:	f7ff fa3e 	bl	800caac <_malloc_r>
 800d630:	b918      	cbnz	r0, 800d63a <__submore+0x22>
 800d632:	f04f 30ff 	mov.w	r0, #4294967295
 800d636:	e8bd 81f0 	ldmia.w	sp!, {r4, r5, r6, r7, r8, pc}
 800d63a:	f44f 6380 	mov.w	r3, #1024	; 0x400
 800d63e:	63a3      	str	r3, [r4, #56]	; 0x38
 800d640:	f894 3046 	ldrb.w	r3, [r4, #70]	; 0x46
 800d644:	6360      	str	r0, [r4, #52]	; 0x34
 800d646:	f880 33ff 	strb.w	r3, [r0, #1023]	; 0x3ff
 800d64a:	f894 3045 	ldrb.w	r3, [r4, #69]	; 0x45
 800d64e:	f880 33fe 	strb.w	r3, [r0, #1022]	; 0x3fe
 800d652:	f894 3044 	ldrb.w	r3, [r4, #68]	; 0x44
 800d656:	f880 33fd 	strb.w	r3, [r0, #1021]	; 0x3fd
 800d65a:	f200 30fd 	addw	r0, r0, #1021	; 0x3fd
 800d65e:	6020      	str	r0, [r4, #0]
 800d660:	2000      	movs	r0, #0
 800d662:	e7e8      	b.n	800d636 <__submore+0x1e>
 800d664:	6ba6      	ldr	r6, [r4, #56]	; 0x38
 800d666:	0077      	lsls	r7, r6, #1
 800d668:	463a      	mov	r2, r7
 800d66a:	f000 fa2d 	bl	800dac8 <_realloc_r>
 800d66e:	4605      	mov	r5, r0
 800d670:	2800      	cmp	r0, #0
 800d672:	d0de      	beq.n	800d632 <__submore+0x1a>
 800d674:	eb00 0806 	add.w	r8, r0, r6
 800d678:	4601      	mov	r1, r0
 800d67a:	4632      	mov	r2, r6
 800d67c:	4640      	mov	r0, r8
 800d67e:	f7fb fccb 	bl	8009018 <memcpy>
 800d682:	e9c4 570d 	strd	r5, r7, [r4, #52]	; 0x34
 800d686:	f8c4 8000 	str.w	r8, [r4]
 800d68a:	e7e9      	b.n	800d660 <__submore+0x48>

0800d68c <__ascii_wctomb>:
 800d68c:	b149      	cbz	r1, 800d6a2 <__ascii_wctomb+0x16>
 800d68e:	2aff      	cmp	r2, #255	; 0xff
 800d690:	bf85      	ittet	hi
 800d692:	238a      	movhi	r3, #138	; 0x8a
 800d694:	6003      	strhi	r3, [r0, #0]
 800d696:	700a      	strbls	r2, [r1, #0]
 800d698:	f04f 30ff 	movhi.w	r0, #4294967295
 800d69c:	bf98      	it	ls
 800d69e:	2001      	movls	r0, #1
 800d6a0:	4770      	bx	lr
 800d6a2:	4608      	mov	r0, r1
 800d6a4:	4770      	bx	lr
	...

0800d6a8 <__assert_func>:
 800d6a8:	b51f      	push	{r0, r1, r2, r3, r4, lr}
 800d6aa:	4614      	mov	r4, r2
 800d6ac:	461a      	mov	r2, r3
 800d6ae:	4b09      	ldr	r3, [pc, #36]	; (800d6d4 <__assert_func+0x2c>)
 800d6b0:	681b      	ldr	r3, [r3, #0]
 800d6b2:	4605      	mov	r5, r0
 800d6b4:	68d8      	ldr	r0, [r3, #12]
 800d6b6:	b14c      	cbz	r4, 800d6cc <__assert_func+0x24>
 800d6b8:	4b07      	ldr	r3, [pc, #28]	; (800d6d8 <__assert_func+0x30>)
 800d6ba:	9100      	str	r1, [sp, #0]
 800d6bc:	e9cd 3401 	strd	r3, r4, [sp, #4]
 800d6c0:	4906      	ldr	r1, [pc, #24]	; (800d6dc <__assert_func+0x34>)
 800d6c2:	462b      	mov	r3, r5
 800d6c4:	f000 f9a6 	bl	800da14 <fiprintf>
 800d6c8:	f000 fc3e 	bl	800df48 <abort>
 800d6cc:	4b04      	ldr	r3, [pc, #16]	; (800d6e0 <__assert_func+0x38>)
 800d6ce:	461c      	mov	r4, r3
 800d6d0:	e7f3      	b.n	800d6ba <__assert_func+0x12>
 800d6d2:	bf00      	nop
 800d6d4:	200001a8 	.word	0x200001a8
 800d6d8:	0800ff08 	.word	0x0800ff08
 800d6dc:	0800ff15 	.word	0x0800ff15
 800d6e0:	0800ed7b 	.word	0x0800ed7b

0800d6e4 <__sflush_r>:
 800d6e4:	898a      	ldrh	r2, [r1, #12]
 800d6e6:	e92d 41f0 	stmdb	sp!, {r4, r5, r6, r7, r8, lr}
 800d6ea:	4605      	mov	r5, r0
 800d6ec:	0710      	lsls	r0, r2, #28
 800d6ee:	460c      	mov	r4, r1
 800d6f0:	d458      	bmi.n	800d7a4 <__sflush_r+0xc0>
 800d6f2:	684b      	ldr	r3, [r1, #4]
 800d6f4:	2b00      	cmp	r3, #0
 800d6f6:	dc05      	bgt.n	800d704 <__sflush_r+0x20>
 800d6f8:	6c0b      	ldr	r3, [r1, #64]	; 0x40
 800d6fa:	2b00      	cmp	r3, #0
 800d6fc:	dc02      	bgt.n	800d704 <__sflush_r+0x20>
 800d6fe:	2000      	movs	r0, #0
 800d700:	e8bd 81f0 	ldmia.w	sp!, {r4, r5, r6, r7, r8, pc}
 800d704:	6ae6      	ldr	r6, [r4, #44]	; 0x2c
 800d706:	2e00      	cmp	r6, #0
 800d708:	d0f9      	beq.n	800d6fe <__sflush_r+0x1a>
 800d70a:	2300      	movs	r3, #0
 800d70c:	f412 5280 	ands.w	r2, r2, #4096	; 0x1000
 800d710:	682f      	ldr	r7, [r5, #0]
 800d712:	602b      	str	r3, [r5, #0]
 800d714:	d032      	beq.n	800d77c <__sflush_r+0x98>
 800d716:	6d60      	ldr	r0, [r4, #84]	; 0x54
 800d718:	89a3      	ldrh	r3, [r4, #12]
 800d71a:	075a      	lsls	r2, r3, #29
 800d71c:	d505      	bpl.n	800d72a <__sflush_r+0x46>
 800d71e:	6863      	ldr	r3, [r4, #4]
 800d720:	1ac0      	subs	r0, r0, r3
 800d722:	6b63      	ldr	r3, [r4, #52]	; 0x34
 800d724:	b10b      	cbz	r3, 800d72a <__sflush_r+0x46>
 800d726:	6c23      	ldr	r3, [r4, #64]	; 0x40
 800d728:	1ac0      	subs	r0, r0, r3
 800d72a:	2300      	movs	r3, #0
 800d72c:	4602      	mov	r2, r0
 800d72e:	6ae6      	ldr	r6, [r4, #44]	; 0x2c
 800d730:	6a21      	ldr	r1, [r4, #32]
 800d732:	4628      	mov	r0, r5
 800d734:	47b0      	blx	r6
 800d736:	1c43      	adds	r3, r0, #1
 800d738:	89a3      	ldrh	r3, [r4, #12]
 800d73a:	d106      	bne.n	800d74a <__sflush_r+0x66>
 800d73c:	6829      	ldr	r1, [r5, #0]
 800d73e:	291d      	cmp	r1, #29
 800d740:	d82c      	bhi.n	800d79c <__sflush_r+0xb8>
 800d742:	4a2a      	ldr	r2, [pc, #168]	; (800d7ec <__sflush_r+0x108>)
 800d744:	40ca      	lsrs	r2, r1
 800d746:	07d6      	lsls	r6, r2, #31
 800d748:	d528      	bpl.n	800d79c <__sflush_r+0xb8>
 800d74a:	2200      	movs	r2, #0
 800d74c:	6062      	str	r2, [r4, #4]
 800d74e:	04d9      	lsls	r1, r3, #19
 800d750:	6922      	ldr	r2, [r4, #16]
 800d752:	6022      	str	r2, [r4, #0]
 800d754:	d504      	bpl.n	800d760 <__sflush_r+0x7c>
 800d756:	1c42      	adds	r2, r0, #1
 800d758:	d101      	bne.n	800d75e <__sflush_r+0x7a>
 800d75a:	682b      	ldr	r3, [r5, #0]
 800d75c:	b903      	cbnz	r3, 800d760 <__sflush_r+0x7c>
 800d75e:	6560      	str	r0, [r4, #84]	; 0x54
 800d760:	6b61      	ldr	r1, [r4, #52]	; 0x34
 800d762:	602f      	str	r7, [r5, #0]
 800d764:	2900      	cmp	r1, #0
 800d766:	d0ca      	beq.n	800d6fe <__sflush_r+0x1a>
 800d768:	f104 0344 	add.w	r3, r4, #68	; 0x44
 800d76c:	4299      	cmp	r1, r3
 800d76e:	d002      	beq.n	800d776 <__sflush_r+0x92>
 800d770:	4628      	mov	r0, r5
 800d772:	f7ff f94b 	bl	800ca0c <_free_r>
 800d776:	2000      	movs	r0, #0
 800d778:	6360      	str	r0, [r4, #52]	; 0x34
 800d77a:	e7c1      	b.n	800d700 <__sflush_r+0x1c>
 800d77c:	6a21      	ldr	r1, [r4, #32]
 800d77e:	2301      	movs	r3, #1
 800d780:	4628      	mov	r0, r5
 800d782:	47b0      	blx	r6
 800d784:	1c41      	adds	r1, r0, #1
 800d786:	d1c7      	bne.n	800d718 <__sflush_r+0x34>
 800d788:	682b      	ldr	r3, [r5, #0]
 800d78a:	2b00      	cmp	r3, #0
 800d78c:	d0c4      	beq.n	800d718 <__sflush_r+0x34>
 800d78e:	2b1d      	cmp	r3, #29
 800d790:	d001      	beq.n	800d796 <__sflush_r+0xb2>
 800d792:	2b16      	cmp	r3, #22
 800d794:	d101      	bne.n	800d79a <__sflush_r+0xb6>
 800d796:	602f      	str	r7, [r5, #0]
 800d798:	e7b1      	b.n	800d6fe <__sflush_r+0x1a>
 800d79a:	89a3      	ldrh	r3, [r4, #12]
 800d79c:	f043 0340 	orr.w	r3, r3, #64	; 0x40
 800d7a0:	81a3      	strh	r3, [r4, #12]
 800d7a2:	e7ad      	b.n	800d700 <__sflush_r+0x1c>
 800d7a4:	690f      	ldr	r7, [r1, #16]
 800d7a6:	2f00      	cmp	r7, #0
 800d7a8:	d0a9      	beq.n	800d6fe <__sflush_r+0x1a>
 800d7aa:	0793      	lsls	r3, r2, #30
 800d7ac:	680e      	ldr	r6, [r1, #0]
 800d7ae:	bf08      	it	eq
 800d7b0:	694b      	ldreq	r3, [r1, #20]
 800d7b2:	600f      	str	r7, [r1, #0]
 800d7b4:	bf18      	it	ne
 800d7b6:	2300      	movne	r3, #0
 800d7b8:	eba6 0807 	sub.w	r8, r6, r7
 800d7bc:	608b      	str	r3, [r1, #8]
 800d7be:	f1b8 0f00 	cmp.w	r8, #0
 800d7c2:	dd9c      	ble.n	800d6fe <__sflush_r+0x1a>
 800d7c4:	6a21      	ldr	r1, [r4, #32]
 800d7c6:	6aa6      	ldr	r6, [r4, #40]	; 0x28
 800d7c8:	4643      	mov	r3, r8
 800d7ca:	463a      	mov	r2, r7
 800d7cc:	4628      	mov	r0, r5
 800d7ce:	47b0      	blx	r6
 800d7d0:	2800      	cmp	r0, #0
 800d7d2:	dc06      	bgt.n	800d7e2 <__sflush_r+0xfe>
 800d7d4:	89a3      	ldrh	r3, [r4, #12]
 800d7d6:	f043 0340 	orr.w	r3, r3, #64	; 0x40
 800d7da:	81a3      	strh	r3, [r4, #12]
 800d7dc:	f04f 30ff 	mov.w	r0, #4294967295
 800d7e0:	e78e      	b.n	800d700 <__sflush_r+0x1c>
 800d7e2:	4407      	add	r7, r0
 800d7e4:	eba8 0800 	sub.w	r8, r8, r0
 800d7e8:	e7e9      	b.n	800d7be <__sflush_r+0xda>
 800d7ea:	bf00      	nop
 800d7ec:	20400001 	.word	0x20400001

0800d7f0 <_fflush_r>:
 800d7f0:	b538      	push	{r3, r4, r5, lr}
 800d7f2:	690b      	ldr	r3, [r1, #16]
 800d7f4:	4605      	mov	r5, r0
 800d7f6:	460c      	mov	r4, r1
 800d7f8:	b913      	cbnz	r3, 800d800 <_fflush_r+0x10>
 800d7fa:	2500      	movs	r5, #0
 800d7fc:	4628      	mov	r0, r5
 800d7fe:	bd38      	pop	{r3, r4, r5, pc}
 800d800:	b118      	cbz	r0, 800d80a <_fflush_r+0x1a>
 800d802:	6983      	ldr	r3, [r0, #24]
 800d804:	b90b      	cbnz	r3, 800d80a <_fflush_r+0x1a>
 800d806:	f000 f887 	bl	800d918 <__sinit>
 800d80a:	4b14      	ldr	r3, [pc, #80]	; (800d85c <_fflush_r+0x6c>)
 800d80c:	429c      	cmp	r4, r3
 800d80e:	d11b      	bne.n	800d848 <_fflush_r+0x58>
 800d810:	686c      	ldr	r4, [r5, #4]
 800d812:	f9b4 300c 	ldrsh.w	r3, [r4, #12]
 800d816:	2b00      	cmp	r3, #0
 800d818:	d0ef      	beq.n	800d7fa <_fflush_r+0xa>
 800d81a:	6e62      	ldr	r2, [r4, #100]	; 0x64
 800d81c:	07d0      	lsls	r0, r2, #31
 800d81e:	d404      	bmi.n	800d82a <_fflush_r+0x3a>
 800d820:	0599      	lsls	r1, r3, #22
 800d822:	d402      	bmi.n	800d82a <_fflush_r+0x3a>
 800d824:	6da0      	ldr	r0, [r4, #88]	; 0x58
 800d826:	f000 f927 	bl	800da78 <__retarget_lock_acquire_recursive>
 800d82a:	4628      	mov	r0, r5
 800d82c:	4621      	mov	r1, r4
 800d82e:	f7ff ff59 	bl	800d6e4 <__sflush_r>
 800d832:	6e63      	ldr	r3, [r4, #100]	; 0x64
 800d834:	07da      	lsls	r2, r3, #31
 800d836:	4605      	mov	r5, r0
 800d838:	d4e0      	bmi.n	800d7fc <_fflush_r+0xc>
 800d83a:	89a3      	ldrh	r3, [r4, #12]
 800d83c:	059b      	lsls	r3, r3, #22
 800d83e:	d4dd      	bmi.n	800d7fc <_fflush_r+0xc>
 800d840:	6da0      	ldr	r0, [r4, #88]	; 0x58
 800d842:	f000 f91a 	bl	800da7a <__retarget_lock_release_recursive>
 800d846:	e7d9      	b.n	800d7fc <_fflush_r+0xc>
 800d848:	4b05      	ldr	r3, [pc, #20]	; (800d860 <_fflush_r+0x70>)
 800d84a:	429c      	cmp	r4, r3
 800d84c:	d101      	bne.n	800d852 <_fflush_r+0x62>
 800d84e:	68ac      	ldr	r4, [r5, #8]
 800d850:	e7df      	b.n	800d812 <_fflush_r+0x22>
 800d852:	4b04      	ldr	r3, [pc, #16]	; (800d864 <_fflush_r+0x74>)
 800d854:	429c      	cmp	r4, r3
 800d856:	bf08      	it	eq
 800d858:	68ec      	ldreq	r4, [r5, #12]
 800d85a:	e7da      	b.n	800d812 <_fflush_r+0x22>
 800d85c:	0800ff64 	.word	0x0800ff64
 800d860:	0800ff84 	.word	0x0800ff84
 800d864:	0800ff44 	.word	0x0800ff44

0800d868 <std>:
 800d868:	2300      	movs	r3, #0
 800d86a:	b510      	push	{r4, lr}
 800d86c:	4604      	mov	r4, r0
 800d86e:	e9c0 3300 	strd	r3, r3, [r0]
 800d872:	e9c0 3304 	strd	r3, r3, [r0, #16]
 800d876:	6083      	str	r3, [r0, #8]
 800d878:	8181      	strh	r1, [r0, #12]
 800d87a:	6643      	str	r3, [r0, #100]	; 0x64
 800d87c:	81c2      	strh	r2, [r0, #14]
 800d87e:	6183      	str	r3, [r0, #24]
 800d880:	4619      	mov	r1, r3
 800d882:	2208      	movs	r2, #8
 800d884:	305c      	adds	r0, #92	; 0x5c
 800d886:	f7fb fbd5 	bl	8009034 <memset>
 800d88a:	4b05      	ldr	r3, [pc, #20]	; (800d8a0 <std+0x38>)
 800d88c:	6263      	str	r3, [r4, #36]	; 0x24
 800d88e:	4b05      	ldr	r3, [pc, #20]	; (800d8a4 <std+0x3c>)
 800d890:	62a3      	str	r3, [r4, #40]	; 0x28
 800d892:	4b05      	ldr	r3, [pc, #20]	; (800d8a8 <std+0x40>)
 800d894:	62e3      	str	r3, [r4, #44]	; 0x2c
 800d896:	4b05      	ldr	r3, [pc, #20]	; (800d8ac <std+0x44>)
 800d898:	6224      	str	r4, [r4, #32]
 800d89a:	6323      	str	r3, [r4, #48]	; 0x30
 800d89c:	bd10      	pop	{r4, pc}
 800d89e:	bf00      	nop
 800d8a0:	08009ddd 	.word	0x08009ddd
 800d8a4:	08009e03 	.word	0x08009e03
 800d8a8:	08009e3b 	.word	0x08009e3b
 800d8ac:	08009e5f 	.word	0x08009e5f

0800d8b0 <_cleanup_r>:
 800d8b0:	4901      	ldr	r1, [pc, #4]	; (800d8b8 <_cleanup_r+0x8>)
 800d8b2:	f000 b8c1 	b.w	800da38 <_fwalk_reent>
 800d8b6:	bf00      	nop
 800d8b8:	0800d7f1 	.word	0x0800d7f1

0800d8bc <__sfmoreglue>:
 800d8bc:	b570      	push	{r4, r5, r6, lr}
 800d8be:	1e4a      	subs	r2, r1, #1
 800d8c0:	2568      	movs	r5, #104	; 0x68
 800d8c2:	4355      	muls	r5, r2
 800d8c4:	460e      	mov	r6, r1
 800d8c6:	f105 0174 	add.w	r1, r5, #116	; 0x74
 800d8ca:	f7ff f8ef 	bl	800caac <_malloc_r>
 800d8ce:	4604      	mov	r4, r0
 800d8d0:	b140      	cbz	r0, 800d8e4 <__sfmoreglue+0x28>
 800d8d2:	2100      	movs	r1, #0
 800d8d4:	e9c0 1600 	strd	r1, r6, [r0]
 800d8d8:	300c      	adds	r0, #12
 800d8da:	60a0      	str	r0, [r4, #8]
 800d8dc:	f105 0268 	add.w	r2, r5, #104	; 0x68
 800d8e0:	f7fb fba8 	bl	8009034 <memset>
 800d8e4:	4620      	mov	r0, r4
 800d8e6:	bd70      	pop	{r4, r5, r6, pc}

0800d8e8 <__sfp_lock_acquire>:
 800d8e8:	4801      	ldr	r0, [pc, #4]	; (800d8f0 <__sfp_lock_acquire+0x8>)
 800d8ea:	f000 b8c5 	b.w	800da78 <__retarget_lock_acquire_recursive>
 800d8ee:	bf00      	nop
 800d8f0:	20002044 	.word	0x20002044

0800d8f4 <__sfp_lock_release>:
 800d8f4:	4801      	ldr	r0, [pc, #4]	; (800d8fc <__sfp_lock_release+0x8>)
 800d8f6:	f000 b8c0 	b.w	800da7a <__retarget_lock_release_recursive>
 800d8fa:	bf00      	nop
 800d8fc:	20002044 	.word	0x20002044

0800d900 <__sinit_lock_acquire>:
 800d900:	4801      	ldr	r0, [pc, #4]	; (800d908 <__sinit_lock_acquire+0x8>)
 800d902:	f000 b8b9 	b.w	800da78 <__retarget_lock_acquire_recursive>
 800d906:	bf00      	nop
 800d908:	2000203f 	.word	0x2000203f

0800d90c <__sinit_lock_release>:
 800d90c:	4801      	ldr	r0, [pc, #4]	; (800d914 <__sinit_lock_release+0x8>)
 800d90e:	f000 b8b4 	b.w	800da7a <__retarget_lock_release_recursive>
 800d912:	bf00      	nop
 800d914:	2000203f 	.word	0x2000203f

0800d918 <__sinit>:
 800d918:	b510      	push	{r4, lr}
 800d91a:	4604      	mov	r4, r0
 800d91c:	f7ff fff0 	bl	800d900 <__sinit_lock_acquire>
 800d920:	69a3      	ldr	r3, [r4, #24]
 800d922:	b11b      	cbz	r3, 800d92c <__sinit+0x14>
 800d924:	e8bd 4010 	ldmia.w	sp!, {r4, lr}
 800d928:	f7ff bff0 	b.w	800d90c <__sinit_lock_release>
 800d92c:	e9c4 3312 	strd	r3, r3, [r4, #72]	; 0x48
 800d930:	6523      	str	r3, [r4, #80]	; 0x50
 800d932:	4b13      	ldr	r3, [pc, #76]	; (800d980 <__sinit+0x68>)
 800d934:	4a13      	ldr	r2, [pc, #76]	; (800d984 <__sinit+0x6c>)
 800d936:	681b      	ldr	r3, [r3, #0]
 800d938:	62a2      	str	r2, [r4, #40]	; 0x28
 800d93a:	42a3      	cmp	r3, r4
 800d93c:	bf04      	itt	eq
 800d93e:	2301      	moveq	r3, #1
 800d940:	61a3      	streq	r3, [r4, #24]
 800d942:	4620      	mov	r0, r4
 800d944:	f000 f820 	bl	800d988 <__sfp>
 800d948:	6060      	str	r0, [r4, #4]
 800d94a:	4620      	mov	r0, r4
 800d94c:	f000 f81c 	bl	800d988 <__sfp>
 800d950:	60a0      	str	r0, [r4, #8]
 800d952:	4620      	mov	r0, r4
 800d954:	f000 f818 	bl	800d988 <__sfp>
 800d958:	2200      	movs	r2, #0
 800d95a:	60e0      	str	r0, [r4, #12]
 800d95c:	2104      	movs	r1, #4
 800d95e:	6860      	ldr	r0, [r4, #4]
 800d960:	f7ff ff82 	bl	800d868 <std>
 800d964:	68a0      	ldr	r0, [r4, #8]
 800d966:	2201      	movs	r2, #1
 800d968:	2109      	movs	r1, #9
 800d96a:	f7ff ff7d 	bl	800d868 <std>
 800d96e:	68e0      	ldr	r0, [r4, #12]
 800d970:	2202      	movs	r2, #2
 800d972:	2112      	movs	r1, #18
 800d974:	f7ff ff78 	bl	800d868 <std>
 800d978:	2301      	movs	r3, #1
 800d97a:	61a3      	str	r3, [r4, #24]
 800d97c:	e7d2      	b.n	800d924 <__sinit+0xc>
 800d97e:	bf00      	nop
 800d980:	0800fbdc 	.word	0x0800fbdc
 800d984:	0800d8b1 	.word	0x0800d8b1

0800d988 <__sfp>:
 800d988:	b5f8      	push	{r3, r4, r5, r6, r7, lr}
 800d98a:	4607      	mov	r7, r0
 800d98c:	f7ff ffac 	bl	800d8e8 <__sfp_lock_acquire>
 800d990:	4b1e      	ldr	r3, [pc, #120]	; (800da0c <__sfp+0x84>)
 800d992:	681e      	ldr	r6, [r3, #0]
 800d994:	69b3      	ldr	r3, [r6, #24]
 800d996:	b913      	cbnz	r3, 800d99e <__sfp+0x16>
 800d998:	4630      	mov	r0, r6
 800d99a:	f7ff ffbd 	bl	800d918 <__sinit>
 800d99e:	3648      	adds	r6, #72	; 0x48
 800d9a0:	e9d6 3401 	ldrd	r3, r4, [r6, #4]
 800d9a4:	3b01      	subs	r3, #1
 800d9a6:	d503      	bpl.n	800d9b0 <__sfp+0x28>
 800d9a8:	6833      	ldr	r3, [r6, #0]
 800d9aa:	b30b      	cbz	r3, 800d9f0 <__sfp+0x68>
 800d9ac:	6836      	ldr	r6, [r6, #0]
 800d9ae:	e7f7      	b.n	800d9a0 <__sfp+0x18>
 800d9b0:	f9b4 500c 	ldrsh.w	r5, [r4, #12]
 800d9b4:	b9d5      	cbnz	r5, 800d9ec <__sfp+0x64>
 800d9b6:	4b16      	ldr	r3, [pc, #88]	; (800da10 <__sfp+0x88>)
 800d9b8:	60e3      	str	r3, [r4, #12]
 800d9ba:	f104 0058 	add.w	r0, r4, #88	; 0x58
 800d9be:	6665      	str	r5, [r4, #100]	; 0x64
 800d9c0:	f000 f859 	bl	800da76 <__retarget_lock_init_recursive>
 800d9c4:	f7ff ff96 	bl	800d8f4 <__sfp_lock_release>
 800d9c8:	e9c4 5501 	strd	r5, r5, [r4, #4]
 800d9cc:	e9c4 5504 	strd	r5, r5, [r4, #16]
 800d9d0:	6025      	str	r5, [r4, #0]
 800d9d2:	61a5      	str	r5, [r4, #24]
 800d9d4:	2208      	movs	r2, #8
 800d9d6:	4629      	mov	r1, r5
 800d9d8:	f104 005c 	add.w	r0, r4, #92	; 0x5c
 800d9dc:	f7fb fb2a 	bl	8009034 <memset>
 800d9e0:	e9c4 550d 	strd	r5, r5, [r4, #52]	; 0x34
 800d9e4:	e9c4 5512 	strd	r5, r5, [r4, #72]	; 0x48
 800d9e8:	4620      	mov	r0, r4
 800d9ea:	bdf8      	pop	{r3, r4, r5, r6, r7, pc}
 800d9ec:	3468      	adds	r4, #104	; 0x68
 800d9ee:	e7d9      	b.n	800d9a4 <__sfp+0x1c>
 800d9f0:	2104      	movs	r1, #4
 800d9f2:	4638      	mov	r0, r7
 800d9f4:	f7ff ff62 	bl	800d8bc <__sfmoreglue>
 800d9f8:	4604      	mov	r4, r0
 800d9fa:	6030      	str	r0, [r6, #0]
 800d9fc:	2800      	cmp	r0, #0
 800d9fe:	d1d5      	bne.n	800d9ac <__sfp+0x24>
 800da00:	f7ff ff78 	bl	800d8f4 <__sfp_lock_release>
 800da04:	230c      	movs	r3, #12
 800da06:	603b      	str	r3, [r7, #0]
 800da08:	e7ee      	b.n	800d9e8 <__sfp+0x60>
 800da0a:	bf00      	nop
 800da0c:	0800fbdc 	.word	0x0800fbdc
 800da10:	ffff0001 	.word	0xffff0001

0800da14 <fiprintf>:
 800da14:	b40e      	push	{r1, r2, r3}
 800da16:	b503      	push	{r0, r1, lr}
 800da18:	4601      	mov	r1, r0
 800da1a:	ab03      	add	r3, sp, #12
 800da1c:	4805      	ldr	r0, [pc, #20]	; (800da34 <fiprintf+0x20>)
 800da1e:	f853 2b04 	ldr.w	r2, [r3], #4
 800da22:	6800      	ldr	r0, [r0, #0]
 800da24:	9301      	str	r3, [sp, #4]
 800da26:	f000 f89f 	bl	800db68 <_vfiprintf_r>
 800da2a:	b002      	add	sp, #8
 800da2c:	f85d eb04 	ldr.w	lr, [sp], #4
 800da30:	b003      	add	sp, #12
 800da32:	4770      	bx	lr
 800da34:	200001a8 	.word	0x200001a8

0800da38 <_fwalk_reent>:
 800da38:	e92d 43f8 	stmdb	sp!, {r3, r4, r5, r6, r7, r8, r9, lr}
 800da3c:	4606      	mov	r6, r0
 800da3e:	4688      	mov	r8, r1
 800da40:	f100 0448 	add.w	r4, r0, #72	; 0x48
 800da44:	2700      	movs	r7, #0
 800da46:	e9d4 9501 	ldrd	r9, r5, [r4, #4]
 800da4a:	f1b9 0901 	subs.w	r9, r9, #1
 800da4e:	d505      	bpl.n	800da5c <_fwalk_reent+0x24>
 800da50:	6824      	ldr	r4, [r4, #0]
 800da52:	2c00      	cmp	r4, #0
 800da54:	d1f7      	bne.n	800da46 <_fwalk_reent+0xe>
 800da56:	4638      	mov	r0, r7
 800da58:	e8bd 83f8 	ldmia.w	sp!, {r3, r4, r5, r6, r7, r8, r9, pc}
 800da5c:	89ab      	ldrh	r3, [r5, #12]
 800da5e:	2b01      	cmp	r3, #1
 800da60:	d907      	bls.n	800da72 <_fwalk_reent+0x3a>
 800da62:	f9b5 300e 	ldrsh.w	r3, [r5, #14]
 800da66:	3301      	adds	r3, #1
 800da68:	d003      	beq.n	800da72 <_fwalk_reent+0x3a>
 800da6a:	4629      	mov	r1, r5
 800da6c:	4630      	mov	r0, r6
 800da6e:	47c0      	blx	r8
 800da70:	4307      	orrs	r7, r0
 800da72:	3568      	adds	r5, #104	; 0x68
 800da74:	e7e9      	b.n	800da4a <_fwalk_reent+0x12>

0800da76 <__retarget_lock_init_recursive>:
 800da76:	4770      	bx	lr

0800da78 <__retarget_lock_acquire_recursive>:
 800da78:	4770      	bx	lr

0800da7a <__retarget_lock_release_recursive>:
 800da7a:	4770      	bx	lr

0800da7c <memmove>:
 800da7c:	4288      	cmp	r0, r1
 800da7e:	b510      	push	{r4, lr}
 800da80:	eb01 0402 	add.w	r4, r1, r2
 800da84:	d902      	bls.n	800da8c <memmove+0x10>
 800da86:	4284      	cmp	r4, r0
 800da88:	4623      	mov	r3, r4
 800da8a:	d807      	bhi.n	800da9c <memmove+0x20>
 800da8c:	1e43      	subs	r3, r0, #1
 800da8e:	42a1      	cmp	r1, r4
 800da90:	d008      	beq.n	800daa4 <memmove+0x28>
 800da92:	f811 2b01 	ldrb.w	r2, [r1], #1
 800da96:	f803 2f01 	strb.w	r2, [r3, #1]!
 800da9a:	e7f8      	b.n	800da8e <memmove+0x12>
 800da9c:	4402      	add	r2, r0
 800da9e:	4601      	mov	r1, r0
 800daa0:	428a      	cmp	r2, r1
 800daa2:	d100      	bne.n	800daa6 <memmove+0x2a>
 800daa4:	bd10      	pop	{r4, pc}
 800daa6:	f813 4d01 	ldrb.w	r4, [r3, #-1]!
 800daaa:	f802 4d01 	strb.w	r4, [r2, #-1]!
 800daae:	e7f7      	b.n	800daa0 <memmove+0x24>

0800dab0 <__malloc_lock>:
 800dab0:	4801      	ldr	r0, [pc, #4]	; (800dab8 <__malloc_lock+0x8>)
 800dab2:	f7ff bfe1 	b.w	800da78 <__retarget_lock_acquire_recursive>
 800dab6:	bf00      	nop
 800dab8:	20002040 	.word	0x20002040

0800dabc <__malloc_unlock>:
 800dabc:	4801      	ldr	r0, [pc, #4]	; (800dac4 <__malloc_unlock+0x8>)
 800dabe:	f7ff bfdc 	b.w	800da7a <__retarget_lock_release_recursive>
 800dac2:	bf00      	nop
 800dac4:	20002040 	.word	0x20002040

0800dac8 <_realloc_r>:
 800dac8:	b5f8      	push	{r3, r4, r5, r6, r7, lr}
 800daca:	4607      	mov	r7, r0
 800dacc:	4614      	mov	r4, r2
 800dace:	460e      	mov	r6, r1
 800dad0:	b921      	cbnz	r1, 800dadc <_realloc_r+0x14>
 800dad2:	e8bd 40f8 	ldmia.w	sp!, {r3, r4, r5, r6, r7, lr}
 800dad6:	4611      	mov	r1, r2
 800dad8:	f7fe bfe8 	b.w	800caac <_malloc_r>
 800dadc:	b922      	cbnz	r2, 800dae8 <_realloc_r+0x20>
 800dade:	f7fe ff95 	bl	800ca0c <_free_r>
 800dae2:	4625      	mov	r5, r4
 800dae4:	4628      	mov	r0, r5
 800dae6:	bdf8      	pop	{r3, r4, r5, r6, r7, pc}
 800dae8:	f000 fa9a 	bl	800e020 <_malloc_usable_size_r>
 800daec:	42a0      	cmp	r0, r4
 800daee:	d20f      	bcs.n	800db10 <_realloc_r+0x48>
 800daf0:	4621      	mov	r1, r4
 800daf2:	4638      	mov	r0, r7
 800daf4:	f7fe ffda 	bl	800caac <_malloc_r>
 800daf8:	4605      	mov	r5, r0
 800dafa:	2800      	cmp	r0, #0
 800dafc:	d0f2      	beq.n	800dae4 <_realloc_r+0x1c>
 800dafe:	4631      	mov	r1, r6
 800db00:	4622      	mov	r2, r4
 800db02:	f7fb fa89 	bl	8009018 <memcpy>
 800db06:	4631      	mov	r1, r6
 800db08:	4638      	mov	r0, r7
 800db0a:	f7fe ff7f 	bl	800ca0c <_free_r>
 800db0e:	e7e9      	b.n	800dae4 <_realloc_r+0x1c>
 800db10:	4635      	mov	r5, r6
 800db12:	e7e7      	b.n	800dae4 <_realloc_r+0x1c>

0800db14 <__sfputc_r>:
 800db14:	6893      	ldr	r3, [r2, #8]
 800db16:	3b01      	subs	r3, #1
 800db18:	2b00      	cmp	r3, #0
 800db1a:	b410      	push	{r4}
 800db1c:	6093      	str	r3, [r2, #8]
 800db1e:	da08      	bge.n	800db32 <__sfputc_r+0x1e>
 800db20:	6994      	ldr	r4, [r2, #24]
 800db22:	42a3      	cmp	r3, r4
 800db24:	db01      	blt.n	800db2a <__sfputc_r+0x16>
 800db26:	290a      	cmp	r1, #10
 800db28:	d103      	bne.n	800db32 <__sfputc_r+0x1e>
 800db2a:	f85d 4b04 	ldr.w	r4, [sp], #4
 800db2e:	f000 b94b 	b.w	800ddc8 <__swbuf_r>
 800db32:	6813      	ldr	r3, [r2, #0]
 800db34:	1c58      	adds	r0, r3, #1
 800db36:	6010      	str	r0, [r2, #0]
 800db38:	7019      	strb	r1, [r3, #0]
 800db3a:	4608      	mov	r0, r1
 800db3c:	f85d 4b04 	ldr.w	r4, [sp], #4
 800db40:	4770      	bx	lr

0800db42 <__sfputs_r>:
 800db42:	b5f8      	push	{r3, r4, r5, r6, r7, lr}
 800db44:	4606      	mov	r6, r0
 800db46:	460f      	mov	r7, r1
 800db48:	4614      	mov	r4, r2
 800db4a:	18d5      	adds	r5, r2, r3
 800db4c:	42ac      	cmp	r4, r5
 800db4e:	d101      	bne.n	800db54 <__sfputs_r+0x12>
 800db50:	2000      	movs	r0, #0
 800db52:	e007      	b.n	800db64 <__sfputs_r+0x22>
 800db54:	f814 1b01 	ldrb.w	r1, [r4], #1
 800db58:	463a      	mov	r2, r7
 800db5a:	4630      	mov	r0, r6
 800db5c:	f7ff ffda 	bl	800db14 <__sfputc_r>
 800db60:	1c43      	adds	r3, r0, #1
 800db62:	d1f3      	bne.n	800db4c <__sfputs_r+0xa>
 800db64:	bdf8      	pop	{r3, r4, r5, r6, r7, pc}
	...

0800db68 <_vfiprintf_r>:
 800db68:	e92d 4ff0 	stmdb	sp!, {r4, r5, r6, r7, r8, r9, sl, fp, lr}
 800db6c:	460d      	mov	r5, r1
 800db6e:	b09d      	sub	sp, #116	; 0x74
 800db70:	4614      	mov	r4, r2
 800db72:	4698      	mov	r8, r3
 800db74:	4606      	mov	r6, r0
 800db76:	b118      	cbz	r0, 800db80 <_vfiprintf_r+0x18>
 800db78:	6983      	ldr	r3, [r0, #24]
 800db7a:	b90b      	cbnz	r3, 800db80 <_vfiprintf_r+0x18>
 800db7c:	f7ff fecc 	bl	800d918 <__sinit>
 800db80:	4b89      	ldr	r3, [pc, #548]	; (800dda8 <_vfiprintf_r+0x240>)
 800db82:	429d      	cmp	r5, r3
 800db84:	d11b      	bne.n	800dbbe <_vfiprintf_r+0x56>
 800db86:	6875      	ldr	r5, [r6, #4]
 800db88:	6e6b      	ldr	r3, [r5, #100]	; 0x64
 800db8a:	07d9      	lsls	r1, r3, #31
 800db8c:	d405      	bmi.n	800db9a <_vfiprintf_r+0x32>
 800db8e:	89ab      	ldrh	r3, [r5, #12]
 800db90:	059a      	lsls	r2, r3, #22
 800db92:	d402      	bmi.n	800db9a <_vfiprintf_r+0x32>
 800db94:	6da8      	ldr	r0, [r5, #88]	; 0x58
 800db96:	f7ff ff6f 	bl	800da78 <__retarget_lock_acquire_recursive>
 800db9a:	89ab      	ldrh	r3, [r5, #12]
 800db9c:	071b      	lsls	r3, r3, #28
 800db9e:	d501      	bpl.n	800dba4 <_vfiprintf_r+0x3c>
 800dba0:	692b      	ldr	r3, [r5, #16]
 800dba2:	b9eb      	cbnz	r3, 800dbe0 <_vfiprintf_r+0x78>
 800dba4:	4629      	mov	r1, r5
 800dba6:	4630      	mov	r0, r6
 800dba8:	f000 f960 	bl	800de6c <__swsetup_r>
 800dbac:	b1c0      	cbz	r0, 800dbe0 <_vfiprintf_r+0x78>
 800dbae:	6e6b      	ldr	r3, [r5, #100]	; 0x64
 800dbb0:	07dc      	lsls	r4, r3, #31
 800dbb2:	d50e      	bpl.n	800dbd2 <_vfiprintf_r+0x6a>
 800dbb4:	f04f 30ff 	mov.w	r0, #4294967295
 800dbb8:	b01d      	add	sp, #116	; 0x74
 800dbba:	e8bd 8ff0 	ldmia.w	sp!, {r4, r5, r6, r7, r8, r9, sl, fp, pc}
 800dbbe:	4b7b      	ldr	r3, [pc, #492]	; (800ddac <_vfiprintf_r+0x244>)
 800dbc0:	429d      	cmp	r5, r3
 800dbc2:	d101      	bne.n	800dbc8 <_vfiprintf_r+0x60>
 800dbc4:	68b5      	ldr	r5, [r6, #8]
 800dbc6:	e7df      	b.n	800db88 <_vfiprintf_r+0x20>
 800dbc8:	4b79      	ldr	r3, [pc, #484]	; (800ddb0 <_vfiprintf_r+0x248>)
 800dbca:	429d      	cmp	r5, r3
 800dbcc:	bf08      	it	eq
 800dbce:	68f5      	ldreq	r5, [r6, #12]
 800dbd0:	e7da      	b.n	800db88 <_vfiprintf_r+0x20>
 800dbd2:	89ab      	ldrh	r3, [r5, #12]
 800dbd4:	0598      	lsls	r0, r3, #22
 800dbd6:	d4ed      	bmi.n	800dbb4 <_vfiprintf_r+0x4c>
 800dbd8:	6da8      	ldr	r0, [r5, #88]	; 0x58
 800dbda:	f7ff ff4e 	bl	800da7a <__retarget_lock_release_recursive>
 800dbde:	e7e9      	b.n	800dbb4 <_vfiprintf_r+0x4c>
 800dbe0:	2300      	movs	r3, #0
 800dbe2:	9309      	str	r3, [sp, #36]	; 0x24
 800dbe4:	2320      	movs	r3, #32
 800dbe6:	f88d 3029 	strb.w	r3, [sp, #41]	; 0x29
 800dbea:	f8cd 800c 	str.w	r8, [sp, #12]
 800dbee:	2330      	movs	r3, #48	; 0x30
 800dbf0:	f8df 81c0 	ldr.w	r8, [pc, #448]	; 800ddb4 <_vfiprintf_r+0x24c>
 800dbf4:	f88d 302a 	strb.w	r3, [sp, #42]	; 0x2a
 800dbf8:	f04f 0901 	mov.w	r9, #1
 800dbfc:	4623      	mov	r3, r4
 800dbfe:	469a      	mov	sl, r3
 800dc00:	f813 2b01 	ldrb.w	r2, [r3], #1
 800dc04:	b10a      	cbz	r2, 800dc0a <_vfiprintf_r+0xa2>
 800dc06:	2a25      	cmp	r2, #37	; 0x25
 800dc08:	d1f9      	bne.n	800dbfe <_vfiprintf_r+0x96>
 800dc0a:	ebba 0b04 	subs.w	fp, sl, r4
 800dc0e:	d00b      	beq.n	800dc28 <_vfiprintf_r+0xc0>
 800dc10:	465b      	mov	r3, fp
 800dc12:	4622      	mov	r2, r4
 800dc14:	4629      	mov	r1, r5
 800dc16:	4630      	mov	r0, r6
 800dc18:	f7ff ff93 	bl	800db42 <__sfputs_r>
 800dc1c:	3001      	adds	r0, #1
 800dc1e:	f000 80aa 	beq.w	800dd76 <_vfiprintf_r+0x20e>
 800dc22:	9a09      	ldr	r2, [sp, #36]	; 0x24
 800dc24:	445a      	add	r2, fp
 800dc26:	9209      	str	r2, [sp, #36]	; 0x24
 800dc28:	f89a 3000 	ldrb.w	r3, [sl]
 800dc2c:	2b00      	cmp	r3, #0
 800dc2e:	f000 80a2 	beq.w	800dd76 <_vfiprintf_r+0x20e>
 800dc32:	2300      	movs	r3, #0
 800dc34:	f04f 32ff 	mov.w	r2, #4294967295
 800dc38:	e9cd 2305 	strd	r2, r3, [sp, #20]
 800dc3c:	f10a 0a01 	add.w	sl, sl, #1
 800dc40:	9304      	str	r3, [sp, #16]
 800dc42:	9307      	str	r3, [sp, #28]
 800dc44:	f88d 3053 	strb.w	r3, [sp, #83]	; 0x53
 800dc48:	931a      	str	r3, [sp, #104]	; 0x68
 800dc4a:	4654      	mov	r4, sl
 800dc4c:	2205      	movs	r2, #5
 800dc4e:	f814 1b01 	ldrb.w	r1, [r4], #1
 800dc52:	4858      	ldr	r0, [pc, #352]	; (800ddb4 <_vfiprintf_r+0x24c>)
 800dc54:	f7f2 fad4 	bl	8000200 <memchr>
 800dc58:	9a04      	ldr	r2, [sp, #16]
 800dc5a:	b9d8      	cbnz	r0, 800dc94 <_vfiprintf_r+0x12c>
 800dc5c:	06d1      	lsls	r1, r2, #27
 800dc5e:	bf44      	itt	mi
 800dc60:	2320      	movmi	r3, #32
 800dc62:	f88d 3053 	strbmi.w	r3, [sp, #83]	; 0x53
 800dc66:	0713      	lsls	r3, r2, #28
 800dc68:	bf44      	itt	mi
 800dc6a:	232b      	movmi	r3, #43	; 0x2b
 800dc6c:	f88d 3053 	strbmi.w	r3, [sp, #83]	; 0x53
 800dc70:	f89a 3000 	ldrb.w	r3, [sl]
 800dc74:	2b2a      	cmp	r3, #42	; 0x2a
 800dc76:	d015      	beq.n	800dca4 <_vfiprintf_r+0x13c>
 800dc78:	9a07      	ldr	r2, [sp, #28]
 800dc7a:	4654      	mov	r4, sl
 800dc7c:	2000      	movs	r0, #0
 800dc7e:	f04f 0c0a 	mov.w	ip, #10
 800dc82:	4621      	mov	r1, r4
 800dc84:	f811 3b01 	ldrb.w	r3, [r1], #1
 800dc88:	3b30      	subs	r3, #48	; 0x30
 800dc8a:	2b09      	cmp	r3, #9
 800dc8c:	d94e      	bls.n	800dd2c <_vfiprintf_r+0x1c4>
 800dc8e:	b1b0      	cbz	r0, 800dcbe <_vfiprintf_r+0x156>
 800dc90:	9207      	str	r2, [sp, #28]
 800dc92:	e014      	b.n	800dcbe <_vfiprintf_r+0x156>
 800dc94:	eba0 0308 	sub.w	r3, r0, r8
 800dc98:	fa09 f303 	lsl.w	r3, r9, r3
 800dc9c:	4313      	orrs	r3, r2
 800dc9e:	9304      	str	r3, [sp, #16]
 800dca0:	46a2      	mov	sl, r4
 800dca2:	e7d2      	b.n	800dc4a <_vfiprintf_r+0xe2>
 800dca4:	9b03      	ldr	r3, [sp, #12]
 800dca6:	1d19      	adds	r1, r3, #4
 800dca8:	681b      	ldr	r3, [r3, #0]
 800dcaa:	9103      	str	r1, [sp, #12]
 800dcac:	2b00      	cmp	r3, #0
 800dcae:	bfbb      	ittet	lt
 800dcb0:	425b      	neglt	r3, r3
 800dcb2:	f042 0202 	orrlt.w	r2, r2, #2
 800dcb6:	9307      	strge	r3, [sp, #28]
 800dcb8:	9307      	strlt	r3, [sp, #28]
 800dcba:	bfb8      	it	lt
 800dcbc:	9204      	strlt	r2, [sp, #16]
 800dcbe:	7823      	ldrb	r3, [r4, #0]
 800dcc0:	2b2e      	cmp	r3, #46	; 0x2e
 800dcc2:	d10c      	bne.n	800dcde <_vfiprintf_r+0x176>
 800dcc4:	7863      	ldrb	r3, [r4, #1]
 800dcc6:	2b2a      	cmp	r3, #42	; 0x2a
 800dcc8:	d135      	bne.n	800dd36 <_vfiprintf_r+0x1ce>
 800dcca:	9b03      	ldr	r3, [sp, #12]
 800dccc:	1d1a      	adds	r2, r3, #4
 800dcce:	681b      	ldr	r3, [r3, #0]
 800dcd0:	9203      	str	r2, [sp, #12]
 800dcd2:	2b00      	cmp	r3, #0
 800dcd4:	bfb8      	it	lt
 800dcd6:	f04f 33ff 	movlt.w	r3, #4294967295
 800dcda:	3402      	adds	r4, #2
 800dcdc:	9305      	str	r3, [sp, #20]
 800dcde:	f8df a0e4 	ldr.w	sl, [pc, #228]	; 800ddc4 <_vfiprintf_r+0x25c>
 800dce2:	7821      	ldrb	r1, [r4, #0]
 800dce4:	2203      	movs	r2, #3
 800dce6:	4650      	mov	r0, sl
 800dce8:	f7f2 fa8a 	bl	8000200 <memchr>
 800dcec:	b140      	cbz	r0, 800dd00 <_vfiprintf_r+0x198>
 800dcee:	2340      	movs	r3, #64	; 0x40
 800dcf0:	eba0 000a 	sub.w	r0, r0, sl
 800dcf4:	fa03 f000 	lsl.w	r0, r3, r0
 800dcf8:	9b04      	ldr	r3, [sp, #16]
 800dcfa:	4303      	orrs	r3, r0
 800dcfc:	3401      	adds	r4, #1
 800dcfe:	9304      	str	r3, [sp, #16]
 800dd00:	f814 1b01 	ldrb.w	r1, [r4], #1
 800dd04:	482c      	ldr	r0, [pc, #176]	; (800ddb8 <_vfiprintf_r+0x250>)
 800dd06:	f88d 1028 	strb.w	r1, [sp, #40]	; 0x28
 800dd0a:	2206      	movs	r2, #6
 800dd0c:	f7f2 fa78 	bl	8000200 <memchr>
 800dd10:	2800      	cmp	r0, #0
 800dd12:	d03f      	beq.n	800dd94 <_vfiprintf_r+0x22c>
 800dd14:	4b29      	ldr	r3, [pc, #164]	; (800ddbc <_vfiprintf_r+0x254>)
 800dd16:	bb1b      	cbnz	r3, 800dd60 <_vfiprintf_r+0x1f8>
 800dd18:	9b03      	ldr	r3, [sp, #12]
 800dd1a:	3307      	adds	r3, #7
 800dd1c:	f023 0307 	bic.w	r3, r3, #7
 800dd20:	3308      	adds	r3, #8
 800dd22:	9303      	str	r3, [sp, #12]
 800dd24:	9b09      	ldr	r3, [sp, #36]	; 0x24
 800dd26:	443b      	add	r3, r7
 800dd28:	9309      	str	r3, [sp, #36]	; 0x24
 800dd2a:	e767      	b.n	800dbfc <_vfiprintf_r+0x94>
 800dd2c:	fb0c 3202 	mla	r2, ip, r2, r3
 800dd30:	460c      	mov	r4, r1
 800dd32:	2001      	movs	r0, #1
 800dd34:	e7a5      	b.n	800dc82 <_vfiprintf_r+0x11a>
 800dd36:	2300      	movs	r3, #0
 800dd38:	3401      	adds	r4, #1
 800dd3a:	9305      	str	r3, [sp, #20]
 800dd3c:	4619      	mov	r1, r3
 800dd3e:	f04f 0c0a 	mov.w	ip, #10
 800dd42:	4620      	mov	r0, r4
 800dd44:	f810 2b01 	ldrb.w	r2, [r0], #1
 800dd48:	3a30      	subs	r2, #48	; 0x30
 800dd4a:	2a09      	cmp	r2, #9
 800dd4c:	d903      	bls.n	800dd56 <_vfiprintf_r+0x1ee>
 800dd4e:	2b00      	cmp	r3, #0
 800dd50:	d0c5      	beq.n	800dcde <_vfiprintf_r+0x176>
 800dd52:	9105      	str	r1, [sp, #20]
 800dd54:	e7c3      	b.n	800dcde <_vfiprintf_r+0x176>
 800dd56:	fb0c 2101 	mla	r1, ip, r1, r2
 800dd5a:	4604      	mov	r4, r0
 800dd5c:	2301      	movs	r3, #1
 800dd5e:	e7f0      	b.n	800dd42 <_vfiprintf_r+0x1da>
 800dd60:	ab03      	add	r3, sp, #12
 800dd62:	9300      	str	r3, [sp, #0]
 800dd64:	462a      	mov	r2, r5
 800dd66:	4b16      	ldr	r3, [pc, #88]	; (800ddc0 <_vfiprintf_r+0x258>)
 800dd68:	a904      	add	r1, sp, #16
 800dd6a:	4630      	mov	r0, r6
 800dd6c:	f7fb fa0a 	bl	8009184 <_printf_float>
 800dd70:	4607      	mov	r7, r0
 800dd72:	1c78      	adds	r0, r7, #1
 800dd74:	d1d6      	bne.n	800dd24 <_vfiprintf_r+0x1bc>
 800dd76:	6e6b      	ldr	r3, [r5, #100]	; 0x64
 800dd78:	07d9      	lsls	r1, r3, #31
 800dd7a:	d405      	bmi.n	800dd88 <_vfiprintf_r+0x220>
 800dd7c:	89ab      	ldrh	r3, [r5, #12]
 800dd7e:	059a      	lsls	r2, r3, #22
 800dd80:	d402      	bmi.n	800dd88 <_vfiprintf_r+0x220>
 800dd82:	6da8      	ldr	r0, [r5, #88]	; 0x58
 800dd84:	f7ff fe79 	bl	800da7a <__retarget_lock_release_recursive>
 800dd88:	89ab      	ldrh	r3, [r5, #12]
 800dd8a:	065b      	lsls	r3, r3, #25
 800dd8c:	f53f af12 	bmi.w	800dbb4 <_vfiprintf_r+0x4c>
 800dd90:	9809      	ldr	r0, [sp, #36]	; 0x24
 800dd92:	e711      	b.n	800dbb8 <_vfiprintf_r+0x50>
 800dd94:	ab03      	add	r3, sp, #12
 800dd96:	9300      	str	r3, [sp, #0]
 800dd98:	462a      	mov	r2, r5
 800dd9a:	4b09      	ldr	r3, [pc, #36]	; (800ddc0 <_vfiprintf_r+0x258>)
 800dd9c:	a904      	add	r1, sp, #16
 800dd9e:	4630      	mov	r0, r6
 800dda0:	f7fb fc94 	bl	80096cc <_printf_i>
 800dda4:	e7e4      	b.n	800dd70 <_vfiprintf_r+0x208>
 800dda6:	bf00      	nop
 800dda8:	0800ff64 	.word	0x0800ff64
 800ddac:	0800ff84 	.word	0x0800ff84
 800ddb0:	0800ff44 	.word	0x0800ff44
 800ddb4:	0800fedc 	.word	0x0800fedc
 800ddb8:	0800fee6 	.word	0x0800fee6
 800ddbc:	08009185 	.word	0x08009185
 800ddc0:	0800db43 	.word	0x0800db43
 800ddc4:	0800fee2 	.word	0x0800fee2

0800ddc8 <__swbuf_r>:
 800ddc8:	b5f8      	push	{r3, r4, r5, r6, r7, lr}
 800ddca:	460e      	mov	r6, r1
 800ddcc:	4614      	mov	r4, r2
 800ddce:	4605      	mov	r5, r0
 800ddd0:	b118      	cbz	r0, 800ddda <__swbuf_r+0x12>
 800ddd2:	6983      	ldr	r3, [r0, #24]
 800ddd4:	b90b      	cbnz	r3, 800ddda <__swbuf_r+0x12>
 800ddd6:	f7ff fd9f 	bl	800d918 <__sinit>
 800ddda:	4b21      	ldr	r3, [pc, #132]	; (800de60 <__swbuf_r+0x98>)
 800dddc:	429c      	cmp	r4, r3
 800ddde:	d12b      	bne.n	800de38 <__swbuf_r+0x70>
 800dde0:	686c      	ldr	r4, [r5, #4]
 800dde2:	69a3      	ldr	r3, [r4, #24]
 800dde4:	60a3      	str	r3, [r4, #8]
 800dde6:	89a3      	ldrh	r3, [r4, #12]
 800dde8:	071a      	lsls	r2, r3, #28
 800ddea:	d52f      	bpl.n	800de4c <__swbuf_r+0x84>
 800ddec:	6923      	ldr	r3, [r4, #16]
 800ddee:	b36b      	cbz	r3, 800de4c <__swbuf_r+0x84>
 800ddf0:	6923      	ldr	r3, [r4, #16]
 800ddf2:	6820      	ldr	r0, [r4, #0]
 800ddf4:	1ac0      	subs	r0, r0, r3
 800ddf6:	6963      	ldr	r3, [r4, #20]
 800ddf8:	b2f6      	uxtb	r6, r6
 800ddfa:	4283      	cmp	r3, r0
 800ddfc:	4637      	mov	r7, r6
 800ddfe:	dc04      	bgt.n	800de0a <__swbuf_r+0x42>
 800de00:	4621      	mov	r1, r4
 800de02:	4628      	mov	r0, r5
 800de04:	f7ff fcf4 	bl	800d7f0 <_fflush_r>
 800de08:	bb30      	cbnz	r0, 800de58 <__swbuf_r+0x90>
 800de0a:	68a3      	ldr	r3, [r4, #8]
 800de0c:	3b01      	subs	r3, #1
 800de0e:	60a3      	str	r3, [r4, #8]
 800de10:	6823      	ldr	r3, [r4, #0]
 800de12:	1c5a      	adds	r2, r3, #1
 800de14:	6022      	str	r2, [r4, #0]
 800de16:	701e      	strb	r6, [r3, #0]
 800de18:	6963      	ldr	r3, [r4, #20]
 800de1a:	3001      	adds	r0, #1
 800de1c:	4283      	cmp	r3, r0
 800de1e:	d004      	beq.n	800de2a <__swbuf_r+0x62>
 800de20:	89a3      	ldrh	r3, [r4, #12]
 800de22:	07db      	lsls	r3, r3, #31
 800de24:	d506      	bpl.n	800de34 <__swbuf_r+0x6c>
 800de26:	2e0a      	cmp	r6, #10
 800de28:	d104      	bne.n	800de34 <__swbuf_r+0x6c>
 800de2a:	4621      	mov	r1, r4
 800de2c:	4628      	mov	r0, r5
 800de2e:	f7ff fcdf 	bl	800d7f0 <_fflush_r>
 800de32:	b988      	cbnz	r0, 800de58 <__swbuf_r+0x90>
 800de34:	4638      	mov	r0, r7
 800de36:	bdf8      	pop	{r3, r4, r5, r6, r7, pc}
 800de38:	4b0a      	ldr	r3, [pc, #40]	; (800de64 <__swbuf_r+0x9c>)
 800de3a:	429c      	cmp	r4, r3
 800de3c:	d101      	bne.n	800de42 <__swbuf_r+0x7a>
 800de3e:	68ac      	ldr	r4, [r5, #8]
 800de40:	e7cf      	b.n	800dde2 <__swbuf_r+0x1a>
 800de42:	4b09      	ldr	r3, [pc, #36]	; (800de68 <__swbuf_r+0xa0>)
 800de44:	429c      	cmp	r4, r3
 800de46:	bf08      	it	eq
 800de48:	68ec      	ldreq	r4, [r5, #12]
 800de4a:	e7ca      	b.n	800dde2 <__swbuf_r+0x1a>
 800de4c:	4621      	mov	r1, r4
 800de4e:	4628      	mov	r0, r5
 800de50:	f000 f80c 	bl	800de6c <__swsetup_r>
 800de54:	2800      	cmp	r0, #0
 800de56:	d0cb      	beq.n	800ddf0 <__swbuf_r+0x28>
 800de58:	f04f 37ff 	mov.w	r7, #4294967295
 800de5c:	e7ea      	b.n	800de34 <__swbuf_r+0x6c>
 800de5e:	bf00      	nop
 800de60:	0800ff64 	.word	0x0800ff64
 800de64:	0800ff84 	.word	0x0800ff84
 800de68:	0800ff44 	.word	0x0800ff44

0800de6c <__swsetup_r>:
 800de6c:	4b32      	ldr	r3, [pc, #200]	; (800df38 <__swsetup_r+0xcc>)
 800de6e:	b570      	push	{r4, r5, r6, lr}
 800de70:	681d      	ldr	r5, [r3, #0]
 800de72:	4606      	mov	r6, r0
 800de74:	460c      	mov	r4, r1
 800de76:	b125      	cbz	r5, 800de82 <__swsetup_r+0x16>
 800de78:	69ab      	ldr	r3, [r5, #24]
 800de7a:	b913      	cbnz	r3, 800de82 <__swsetup_r+0x16>
 800de7c:	4628      	mov	r0, r5
 800de7e:	f7ff fd4b 	bl	800d918 <__sinit>
 800de82:	4b2e      	ldr	r3, [pc, #184]	; (800df3c <__swsetup_r+0xd0>)
 800de84:	429c      	cmp	r4, r3
 800de86:	d10f      	bne.n	800dea8 <__swsetup_r+0x3c>
 800de88:	686c      	ldr	r4, [r5, #4]
 800de8a:	89a3      	ldrh	r3, [r4, #12]
 800de8c:	f9b4 200c 	ldrsh.w	r2, [r4, #12]
 800de90:	0719      	lsls	r1, r3, #28
 800de92:	d42c      	bmi.n	800deee <__swsetup_r+0x82>
 800de94:	06dd      	lsls	r5, r3, #27
 800de96:	d411      	bmi.n	800debc <__swsetup_r+0x50>
 800de98:	2309      	movs	r3, #9
 800de9a:	6033      	str	r3, [r6, #0]
 800de9c:	f042 0340 	orr.w	r3, r2, #64	; 0x40
 800dea0:	81a3      	strh	r3, [r4, #12]
 800dea2:	f04f 30ff 	mov.w	r0, #4294967295
 800dea6:	e03e      	b.n	800df26 <__swsetup_r+0xba>
 800dea8:	4b25      	ldr	r3, [pc, #148]	; (800df40 <__swsetup_r+0xd4>)
 800deaa:	429c      	cmp	r4, r3
 800deac:	d101      	bne.n	800deb2 <__swsetup_r+0x46>
 800deae:	68ac      	ldr	r4, [r5, #8]
 800deb0:	e7eb      	b.n	800de8a <__swsetup_r+0x1e>
 800deb2:	4b24      	ldr	r3, [pc, #144]	; (800df44 <__swsetup_r+0xd8>)
 800deb4:	429c      	cmp	r4, r3
 800deb6:	bf08      	it	eq
 800deb8:	68ec      	ldreq	r4, [r5, #12]
 800deba:	e7e6      	b.n	800de8a <__swsetup_r+0x1e>
 800debc:	0758      	lsls	r0, r3, #29
 800debe:	d512      	bpl.n	800dee6 <__swsetup_r+0x7a>
 800dec0:	6b61      	ldr	r1, [r4, #52]	; 0x34
 800dec2:	b141      	cbz	r1, 800ded6 <__swsetup_r+0x6a>
 800dec4:	f104 0344 	add.w	r3, r4, #68	; 0x44
 800dec8:	4299      	cmp	r1, r3
 800deca:	d002      	beq.n	800ded2 <__swsetup_r+0x66>
 800decc:	4630      	mov	r0, r6
 800dece:	f7fe fd9d 	bl	800ca0c <_free_r>
 800ded2:	2300      	movs	r3, #0
 800ded4:	6363      	str	r3, [r4, #52]	; 0x34
 800ded6:	89a3      	ldrh	r3, [r4, #12]
 800ded8:	f023 0324 	bic.w	r3, r3, #36	; 0x24
 800dedc:	81a3      	strh	r3, [r4, #12]
 800dede:	2300      	movs	r3, #0
 800dee0:	6063      	str	r3, [r4, #4]
 800dee2:	6923      	ldr	r3, [r4, #16]
 800dee4:	6023      	str	r3, [r4, #0]
 800dee6:	89a3      	ldrh	r3, [r4, #12]
 800dee8:	f043 0308 	orr.w	r3, r3, #8
 800deec:	81a3      	strh	r3, [r4, #12]
 800deee:	6923      	ldr	r3, [r4, #16]
 800def0:	b94b      	cbnz	r3, 800df06 <__swsetup_r+0x9a>
 800def2:	89a3      	ldrh	r3, [r4, #12]
 800def4:	f403 7320 	and.w	r3, r3, #640	; 0x280
 800def8:	f5b3 7f00 	cmp.w	r3, #512	; 0x200
 800defc:	d003      	beq.n	800df06 <__swsetup_r+0x9a>
 800defe:	4621      	mov	r1, r4
 800df00:	4630      	mov	r0, r6
 800df02:	f000 f84d 	bl	800dfa0 <__smakebuf_r>
 800df06:	89a0      	ldrh	r0, [r4, #12]
 800df08:	f9b4 200c 	ldrsh.w	r2, [r4, #12]
 800df0c:	f010 0301 	ands.w	r3, r0, #1
 800df10:	d00a      	beq.n	800df28 <__swsetup_r+0xbc>
 800df12:	2300      	movs	r3, #0
 800df14:	60a3      	str	r3, [r4, #8]
 800df16:	6963      	ldr	r3, [r4, #20]
 800df18:	425b      	negs	r3, r3
 800df1a:	61a3      	str	r3, [r4, #24]
 800df1c:	6923      	ldr	r3, [r4, #16]
 800df1e:	b943      	cbnz	r3, 800df32 <__swsetup_r+0xc6>
 800df20:	f010 0080 	ands.w	r0, r0, #128	; 0x80
 800df24:	d1ba      	bne.n	800de9c <__swsetup_r+0x30>
 800df26:	bd70      	pop	{r4, r5, r6, pc}
 800df28:	0781      	lsls	r1, r0, #30
 800df2a:	bf58      	it	pl
 800df2c:	6963      	ldrpl	r3, [r4, #20]
 800df2e:	60a3      	str	r3, [r4, #8]
 800df30:	e7f4      	b.n	800df1c <__swsetup_r+0xb0>
 800df32:	2000      	movs	r0, #0
 800df34:	e7f7      	b.n	800df26 <__swsetup_r+0xba>
 800df36:	bf00      	nop
 800df38:	200001a8 	.word	0x200001a8
 800df3c:	0800ff64 	.word	0x0800ff64
 800df40:	0800ff84 	.word	0x0800ff84
 800df44:	0800ff44 	.word	0x0800ff44

0800df48 <abort>:
 800df48:	b508      	push	{r3, lr}
 800df4a:	2006      	movs	r0, #6
 800df4c:	f000 f898 	bl	800e080 <raise>
 800df50:	2001      	movs	r0, #1
 800df52:	f7f7 f8a7 	bl	80050a4 <_exit>

0800df56 <__swhatbuf_r>:
 800df56:	b570      	push	{r4, r5, r6, lr}
 800df58:	460e      	mov	r6, r1
 800df5a:	f9b1 100e 	ldrsh.w	r1, [r1, #14]
 800df5e:	2900      	cmp	r1, #0
 800df60:	b096      	sub	sp, #88	; 0x58
 800df62:	4614      	mov	r4, r2
 800df64:	461d      	mov	r5, r3
 800df66:	da07      	bge.n	800df78 <__swhatbuf_r+0x22>
 800df68:	2300      	movs	r3, #0
 800df6a:	602b      	str	r3, [r5, #0]
 800df6c:	89b3      	ldrh	r3, [r6, #12]
 800df6e:	061a      	lsls	r2, r3, #24
 800df70:	d410      	bmi.n	800df94 <__swhatbuf_r+0x3e>
 800df72:	f44f 6380 	mov.w	r3, #1024	; 0x400
 800df76:	e00e      	b.n	800df96 <__swhatbuf_r+0x40>
 800df78:	466a      	mov	r2, sp
 800df7a:	f000 f89d 	bl	800e0b8 <_fstat_r>
 800df7e:	2800      	cmp	r0, #0
 800df80:	dbf2      	blt.n	800df68 <__swhatbuf_r+0x12>
 800df82:	9a01      	ldr	r2, [sp, #4]
 800df84:	f402 4270 	and.w	r2, r2, #61440	; 0xf000
 800df88:	f5a2 5300 	sub.w	r3, r2, #8192	; 0x2000
 800df8c:	425a      	negs	r2, r3
 800df8e:	415a      	adcs	r2, r3
 800df90:	602a      	str	r2, [r5, #0]
 800df92:	e7ee      	b.n	800df72 <__swhatbuf_r+0x1c>
 800df94:	2340      	movs	r3, #64	; 0x40
 800df96:	2000      	movs	r0, #0
 800df98:	6023      	str	r3, [r4, #0]
 800df9a:	b016      	add	sp, #88	; 0x58
 800df9c:	bd70      	pop	{r4, r5, r6, pc}
	...

0800dfa0 <__smakebuf_r>:
 800dfa0:	898b      	ldrh	r3, [r1, #12]
 800dfa2:	b573      	push	{r0, r1, r4, r5, r6, lr}
 800dfa4:	079d      	lsls	r5, r3, #30
 800dfa6:	4606      	mov	r6, r0
 800dfa8:	460c      	mov	r4, r1
 800dfaa:	d507      	bpl.n	800dfbc <__smakebuf_r+0x1c>
 800dfac:	f104 0347 	add.w	r3, r4, #71	; 0x47
 800dfb0:	6023      	str	r3, [r4, #0]
 800dfb2:	6123      	str	r3, [r4, #16]
 800dfb4:	2301      	movs	r3, #1
 800dfb6:	6163      	str	r3, [r4, #20]
 800dfb8:	b002      	add	sp, #8
 800dfba:	bd70      	pop	{r4, r5, r6, pc}
 800dfbc:	ab01      	add	r3, sp, #4
 800dfbe:	466a      	mov	r2, sp
 800dfc0:	f7ff ffc9 	bl	800df56 <__swhatbuf_r>
 800dfc4:	9900      	ldr	r1, [sp, #0]
 800dfc6:	4605      	mov	r5, r0
 800dfc8:	4630      	mov	r0, r6
 800dfca:	f7fe fd6f 	bl	800caac <_malloc_r>
 800dfce:	b948      	cbnz	r0, 800dfe4 <__smakebuf_r+0x44>
 800dfd0:	f9b4 300c 	ldrsh.w	r3, [r4, #12]
 800dfd4:	059a      	lsls	r2, r3, #22
 800dfd6:	d4ef      	bmi.n	800dfb8 <__smakebuf_r+0x18>
 800dfd8:	f023 0303 	bic.w	r3, r3, #3
 800dfdc:	f043 0302 	orr.w	r3, r3, #2
 800dfe0:	81a3      	strh	r3, [r4, #12]
 800dfe2:	e7e3      	b.n	800dfac <__smakebuf_r+0xc>
 800dfe4:	4b0d      	ldr	r3, [pc, #52]	; (800e01c <__smakebuf_r+0x7c>)
 800dfe6:	62b3      	str	r3, [r6, #40]	; 0x28
 800dfe8:	89a3      	ldrh	r3, [r4, #12]
 800dfea:	6020      	str	r0, [r4, #0]
 800dfec:	f043 0380 	orr.w	r3, r3, #128	; 0x80
 800dff0:	81a3      	strh	r3, [r4, #12]
 800dff2:	9b00      	ldr	r3, [sp, #0]
 800dff4:	6163      	str	r3, [r4, #20]
 800dff6:	9b01      	ldr	r3, [sp, #4]
 800dff8:	6120      	str	r0, [r4, #16]
 800dffa:	b15b      	cbz	r3, 800e014 <__smakebuf_r+0x74>
 800dffc:	f9b4 100e 	ldrsh.w	r1, [r4, #14]
 800e000:	4630      	mov	r0, r6
 800e002:	f000 f86b 	bl	800e0dc <_isatty_r>
 800e006:	b128      	cbz	r0, 800e014 <__smakebuf_r+0x74>
 800e008:	89a3      	ldrh	r3, [r4, #12]
 800e00a:	f023 0303 	bic.w	r3, r3, #3
 800e00e:	f043 0301 	orr.w	r3, r3, #1
 800e012:	81a3      	strh	r3, [r4, #12]
 800e014:	89a0      	ldrh	r0, [r4, #12]
 800e016:	4305      	orrs	r5, r0
 800e018:	81a5      	strh	r5, [r4, #12]
 800e01a:	e7cd      	b.n	800dfb8 <__smakebuf_r+0x18>
 800e01c:	0800d8b1 	.word	0x0800d8b1

0800e020 <_malloc_usable_size_r>:
 800e020:	f851 3c04 	ldr.w	r3, [r1, #-4]
 800e024:	1f18      	subs	r0, r3, #4
 800e026:	2b00      	cmp	r3, #0
 800e028:	bfbc      	itt	lt
 800e02a:	580b      	ldrlt	r3, [r1, r0]
 800e02c:	18c0      	addlt	r0, r0, r3
 800e02e:	4770      	bx	lr

0800e030 <_raise_r>:
 800e030:	291f      	cmp	r1, #31
 800e032:	b538      	push	{r3, r4, r5, lr}
 800e034:	4604      	mov	r4, r0
 800e036:	460d      	mov	r5, r1
 800e038:	d904      	bls.n	800e044 <_raise_r+0x14>
 800e03a:	2316      	movs	r3, #22
 800e03c:	6003      	str	r3, [r0, #0]
 800e03e:	f04f 30ff 	mov.w	r0, #4294967295
 800e042:	bd38      	pop	{r3, r4, r5, pc}
 800e044:	6c42      	ldr	r2, [r0, #68]	; 0x44
 800e046:	b112      	cbz	r2, 800e04e <_raise_r+0x1e>
 800e048:	f852 3021 	ldr.w	r3, [r2, r1, lsl #2]
 800e04c:	b94b      	cbnz	r3, 800e062 <_raise_r+0x32>
 800e04e:	4620      	mov	r0, r4
 800e050:	f000 f830 	bl	800e0b4 <_getpid_r>
 800e054:	462a      	mov	r2, r5
 800e056:	4601      	mov	r1, r0
 800e058:	4620      	mov	r0, r4
 800e05a:	e8bd 4038 	ldmia.w	sp!, {r3, r4, r5, lr}
 800e05e:	f000 b817 	b.w	800e090 <_kill_r>
 800e062:	2b01      	cmp	r3, #1
 800e064:	d00a      	beq.n	800e07c <_raise_r+0x4c>
 800e066:	1c59      	adds	r1, r3, #1
 800e068:	d103      	bne.n	800e072 <_raise_r+0x42>
 800e06a:	2316      	movs	r3, #22
 800e06c:	6003      	str	r3, [r0, #0]
 800e06e:	2001      	movs	r0, #1
 800e070:	e7e7      	b.n	800e042 <_raise_r+0x12>
 800e072:	2400      	movs	r4, #0
 800e074:	f842 4025 	str.w	r4, [r2, r5, lsl #2]
 800e078:	4628      	mov	r0, r5
 800e07a:	4798      	blx	r3
 800e07c:	2000      	movs	r0, #0
 800e07e:	e7e0      	b.n	800e042 <_raise_r+0x12>

0800e080 <raise>:
 800e080:	4b02      	ldr	r3, [pc, #8]	; (800e08c <raise+0xc>)
 800e082:	4601      	mov	r1, r0
 800e084:	6818      	ldr	r0, [r3, #0]
 800e086:	f7ff bfd3 	b.w	800e030 <_raise_r>
 800e08a:	bf00      	nop
 800e08c:	200001a8 	.word	0x200001a8

0800e090 <_kill_r>:
 800e090:	b538      	push	{r3, r4, r5, lr}
 800e092:	4d07      	ldr	r5, [pc, #28]	; (800e0b0 <_kill_r+0x20>)
 800e094:	2300      	movs	r3, #0
 800e096:	4604      	mov	r4, r0
 800e098:	4608      	mov	r0, r1
 800e09a:	4611      	mov	r1, r2
 800e09c:	602b      	str	r3, [r5, #0]
 800e09e:	f7f6 fff9 	bl	8005094 <_kill>
 800e0a2:	1c43      	adds	r3, r0, #1
 800e0a4:	d102      	bne.n	800e0ac <_kill_r+0x1c>
 800e0a6:	682b      	ldr	r3, [r5, #0]
 800e0a8:	b103      	cbz	r3, 800e0ac <_kill_r+0x1c>
 800e0aa:	6023      	str	r3, [r4, #0]
 800e0ac:	bd38      	pop	{r3, r4, r5, pc}
 800e0ae:	bf00      	nop
 800e0b0:	20002038 	.word	0x20002038

0800e0b4 <_getpid_r>:
 800e0b4:	f7f6 bfec 	b.w	8005090 <_getpid>

0800e0b8 <_fstat_r>:
 800e0b8:	b538      	push	{r3, r4, r5, lr}
 800e0ba:	4d07      	ldr	r5, [pc, #28]	; (800e0d8 <_fstat_r+0x20>)
 800e0bc:	2300      	movs	r3, #0
 800e0be:	4604      	mov	r4, r0
 800e0c0:	4608      	mov	r0, r1
 800e0c2:	4611      	mov	r1, r2
 800e0c4:	602b      	str	r3, [r5, #0]
 800e0c6:	f7f7 f810 	bl	80050ea <_fstat>
 800e0ca:	1c43      	adds	r3, r0, #1
 800e0cc:	d102      	bne.n	800e0d4 <_fstat_r+0x1c>
 800e0ce:	682b      	ldr	r3, [r5, #0]
 800e0d0:	b103      	cbz	r3, 800e0d4 <_fstat_r+0x1c>
 800e0d2:	6023      	str	r3, [r4, #0]
 800e0d4:	bd38      	pop	{r3, r4, r5, pc}
 800e0d6:	bf00      	nop
 800e0d8:	20002038 	.word	0x20002038

0800e0dc <_isatty_r>:
 800e0dc:	b538      	push	{r3, r4, r5, lr}
 800e0de:	4d06      	ldr	r5, [pc, #24]	; (800e0f8 <_isatty_r+0x1c>)
 800e0e0:	2300      	movs	r3, #0
 800e0e2:	4604      	mov	r4, r0
 800e0e4:	4608      	mov	r0, r1
 800e0e6:	602b      	str	r3, [r5, #0]
 800e0e8:	f7f7 f804 	bl	80050f4 <_isatty>
 800e0ec:	1c43      	adds	r3, r0, #1
 800e0ee:	d102      	bne.n	800e0f6 <_isatty_r+0x1a>
 800e0f0:	682b      	ldr	r3, [r5, #0]
 800e0f2:	b103      	cbz	r3, 800e0f6 <_isatty_r+0x1a>
 800e0f4:	6023      	str	r3, [r4, #0]
 800e0f6:	bd38      	pop	{r3, r4, r5, pc}
 800e0f8:	20002038 	.word	0x20002038

0800e0fc <round>:
 800e0fc:	ec51 0b10 	vmov	r0, r1, d0
 800e100:	b570      	push	{r4, r5, r6, lr}
 800e102:	f3c1 550a 	ubfx	r5, r1, #20, #11
 800e106:	f2a5 34ff 	subw	r4, r5, #1023	; 0x3ff
 800e10a:	2c13      	cmp	r4, #19
 800e10c:	ee10 2a10 	vmov	r2, s0
 800e110:	460b      	mov	r3, r1
 800e112:	dc19      	bgt.n	800e148 <round+0x4c>
 800e114:	2c00      	cmp	r4, #0
 800e116:	da09      	bge.n	800e12c <round+0x30>
 800e118:	3401      	adds	r4, #1
 800e11a:	f001 4300 	and.w	r3, r1, #2147483648	; 0x80000000
 800e11e:	d103      	bne.n	800e128 <round+0x2c>
 800e120:	f043 537f 	orr.w	r3, r3, #1069547520	; 0x3fc00000
 800e124:	f443 1340 	orr.w	r3, r3, #3145728	; 0x300000
 800e128:	2100      	movs	r1, #0
 800e12a:	e028      	b.n	800e17e <round+0x82>
 800e12c:	4d15      	ldr	r5, [pc, #84]	; (800e184 <round+0x88>)
 800e12e:	4125      	asrs	r5, r4
 800e130:	ea01 0605 	and.w	r6, r1, r5
 800e134:	4332      	orrs	r2, r6
 800e136:	d00e      	beq.n	800e156 <round+0x5a>
 800e138:	f44f 2200 	mov.w	r2, #524288	; 0x80000
 800e13c:	fa42 f404 	asr.w	r4, r2, r4
 800e140:	4423      	add	r3, r4
 800e142:	ea23 0305 	bic.w	r3, r3, r5
 800e146:	e7ef      	b.n	800e128 <round+0x2c>
 800e148:	2c33      	cmp	r4, #51	; 0x33
 800e14a:	dd07      	ble.n	800e15c <round+0x60>
 800e14c:	f5b4 6f80 	cmp.w	r4, #1024	; 0x400
 800e150:	d101      	bne.n	800e156 <round+0x5a>
 800e152:	f7f2 f8ab 	bl	80002ac <__adddf3>
 800e156:	ec41 0b10 	vmov	d0, r0, r1
 800e15a:	bd70      	pop	{r4, r5, r6, pc}
 800e15c:	f2a5 4613 	subw	r6, r5, #1043	; 0x413
 800e160:	f04f 35ff 	mov.w	r5, #4294967295
 800e164:	40f5      	lsrs	r5, r6
 800e166:	4228      	tst	r0, r5
 800e168:	d0f5      	beq.n	800e156 <round+0x5a>
 800e16a:	2101      	movs	r1, #1
 800e16c:	f1c4 0433 	rsb	r4, r4, #51	; 0x33
 800e170:	fa01 f404 	lsl.w	r4, r1, r4
 800e174:	1912      	adds	r2, r2, r4
 800e176:	bf28      	it	cs
 800e178:	185b      	addcs	r3, r3, r1
 800e17a:	ea22 0105 	bic.w	r1, r2, r5
 800e17e:	4608      	mov	r0, r1
 800e180:	4619      	mov	r1, r3
 800e182:	e7e8      	b.n	800e156 <round+0x5a>
 800e184:	000fffff 	.word	0x000fffff

0800e188 <atan2>:
 800e188:	f000 b826 	b.w	800e1d8 <__ieee754_atan2>

0800e18c <sqrtf>:
 800e18c:	b508      	push	{r3, lr}
 800e18e:	ed2d 8b02 	vpush	{d8}
 800e192:	eeb0 8a40 	vmov.f32	s16, s0
 800e196:	f000 f8e9 	bl	800e36c <__ieee754_sqrtf>
 800e19a:	4b0d      	ldr	r3, [pc, #52]	; (800e1d0 <sqrtf+0x44>)
 800e19c:	f993 3000 	ldrsb.w	r3, [r3]
 800e1a0:	3301      	adds	r3, #1
 800e1a2:	d011      	beq.n	800e1c8 <sqrtf+0x3c>
 800e1a4:	eeb4 8a48 	vcmp.f32	s16, s16
 800e1a8:	eef1 fa10 	vmrs	APSR_nzcv, fpscr
 800e1ac:	d60c      	bvs.n	800e1c8 <sqrtf+0x3c>
 800e1ae:	eddf 8a09 	vldr	s17, [pc, #36]	; 800e1d4 <sqrtf+0x48>
 800e1b2:	eeb4 8ae8 	vcmpe.f32	s16, s17
 800e1b6:	eef1 fa10 	vmrs	APSR_nzcv, fpscr
 800e1ba:	d505      	bpl.n	800e1c8 <sqrtf+0x3c>
 800e1bc:	f7fa ff02 	bl	8008fc4 <__errno>
 800e1c0:	ee88 0aa8 	vdiv.f32	s0, s17, s17
 800e1c4:	2321      	movs	r3, #33	; 0x21
 800e1c6:	6003      	str	r3, [r0, #0]
 800e1c8:	ecbd 8b02 	vpop	{d8}
 800e1cc:	bd08      	pop	{r3, pc}
 800e1ce:	bf00      	nop
 800e1d0:	2000037c 	.word	0x2000037c
 800e1d4:	00000000 	.word	0x00000000

0800e1d8 <__ieee754_atan2>:
 800e1d8:	e92d 43f8 	stmdb	sp!, {r3, r4, r5, r6, r7, r8, r9, lr}
 800e1dc:	ec57 6b11 	vmov	r6, r7, d1
 800e1e0:	4273      	negs	r3, r6
 800e1e2:	f8df e184 	ldr.w	lr, [pc, #388]	; 800e368 <__ieee754_atan2+0x190>
 800e1e6:	f027 4200 	bic.w	r2, r7, #2147483648	; 0x80000000
 800e1ea:	4333      	orrs	r3, r6
 800e1ec:	ea42 73d3 	orr.w	r3, r2, r3, lsr #31
 800e1f0:	4573      	cmp	r3, lr
 800e1f2:	ec51 0b10 	vmov	r0, r1, d0
 800e1f6:	ee11 8a10 	vmov	r8, s2
 800e1fa:	d80a      	bhi.n	800e212 <__ieee754_atan2+0x3a>
 800e1fc:	4244      	negs	r4, r0
 800e1fe:	f021 4300 	bic.w	r3, r1, #2147483648	; 0x80000000
 800e202:	4304      	orrs	r4, r0
 800e204:	ea43 74d4 	orr.w	r4, r3, r4, lsr #31
 800e208:	4574      	cmp	r4, lr
 800e20a:	ee10 9a10 	vmov	r9, s0
 800e20e:	468c      	mov	ip, r1
 800e210:	d907      	bls.n	800e222 <__ieee754_atan2+0x4a>
 800e212:	4632      	mov	r2, r6
 800e214:	463b      	mov	r3, r7
 800e216:	f7f2 f849 	bl	80002ac <__adddf3>
 800e21a:	ec41 0b10 	vmov	d0, r0, r1
 800e21e:	e8bd 83f8 	ldmia.w	sp!, {r3, r4, r5, r6, r7, r8, r9, pc}
 800e222:	f107 4440 	add.w	r4, r7, #3221225472	; 0xc0000000
 800e226:	f504 1480 	add.w	r4, r4, #1048576	; 0x100000
 800e22a:	4334      	orrs	r4, r6
 800e22c:	d103      	bne.n	800e236 <__ieee754_atan2+0x5e>
 800e22e:	e8bd 43f8 	ldmia.w	sp!, {r3, r4, r5, r6, r7, r8, r9, lr}
 800e232:	f000 b8a1 	b.w	800e378 <atan>
 800e236:	17bc      	asrs	r4, r7, #30
 800e238:	f004 0402 	and.w	r4, r4, #2
 800e23c:	ea53 0909 	orrs.w	r9, r3, r9
 800e240:	ea44 74d1 	orr.w	r4, r4, r1, lsr #31
 800e244:	d107      	bne.n	800e256 <__ieee754_atan2+0x7e>
 800e246:	2c02      	cmp	r4, #2
 800e248:	d060      	beq.n	800e30c <__ieee754_atan2+0x134>
 800e24a:	2c03      	cmp	r4, #3
 800e24c:	d1e5      	bne.n	800e21a <__ieee754_atan2+0x42>
 800e24e:	a142      	add	r1, pc, #264	; (adr r1, 800e358 <__ieee754_atan2+0x180>)
 800e250:	e9d1 0100 	ldrd	r0, r1, [r1]
 800e254:	e7e1      	b.n	800e21a <__ieee754_atan2+0x42>
 800e256:	ea52 0808 	orrs.w	r8, r2, r8
 800e25a:	d106      	bne.n	800e26a <__ieee754_atan2+0x92>
 800e25c:	f1bc 0f00 	cmp.w	ip, #0
 800e260:	da5f      	bge.n	800e322 <__ieee754_atan2+0x14a>
 800e262:	a13f      	add	r1, pc, #252	; (adr r1, 800e360 <__ieee754_atan2+0x188>)
 800e264:	e9d1 0100 	ldrd	r0, r1, [r1]
 800e268:	e7d7      	b.n	800e21a <__ieee754_atan2+0x42>
 800e26a:	4572      	cmp	r2, lr
 800e26c:	d10f      	bne.n	800e28e <__ieee754_atan2+0xb6>
 800e26e:	4293      	cmp	r3, r2
 800e270:	f104 34ff 	add.w	r4, r4, #4294967295
 800e274:	d107      	bne.n	800e286 <__ieee754_atan2+0xae>
 800e276:	2c02      	cmp	r4, #2
 800e278:	d84c      	bhi.n	800e314 <__ieee754_atan2+0x13c>
 800e27a:	4b35      	ldr	r3, [pc, #212]	; (800e350 <__ieee754_atan2+0x178>)
 800e27c:	eb03 04c4 	add.w	r4, r3, r4, lsl #3
 800e280:	e9d4 0100 	ldrd	r0, r1, [r4]
 800e284:	e7c9      	b.n	800e21a <__ieee754_atan2+0x42>
 800e286:	2c02      	cmp	r4, #2
 800e288:	d848      	bhi.n	800e31c <__ieee754_atan2+0x144>
 800e28a:	4b32      	ldr	r3, [pc, #200]	; (800e354 <__ieee754_atan2+0x17c>)
 800e28c:	e7f6      	b.n	800e27c <__ieee754_atan2+0xa4>
 800e28e:	4573      	cmp	r3, lr
 800e290:	d0e4      	beq.n	800e25c <__ieee754_atan2+0x84>
 800e292:	1a9b      	subs	r3, r3, r2
 800e294:	f1b3 7f74 	cmp.w	r3, #63963136	; 0x3d00000
 800e298:	ea4f 5223 	mov.w	r2, r3, asr #20
 800e29c:	da1e      	bge.n	800e2dc <__ieee754_atan2+0x104>
 800e29e:	2f00      	cmp	r7, #0
 800e2a0:	da01      	bge.n	800e2a6 <__ieee754_atan2+0xce>
 800e2a2:	323c      	adds	r2, #60	; 0x3c
 800e2a4:	db1e      	blt.n	800e2e4 <__ieee754_atan2+0x10c>
 800e2a6:	4632      	mov	r2, r6
 800e2a8:	463b      	mov	r3, r7
 800e2aa:	f7f2 fadf 	bl	800086c <__aeabi_ddiv>
 800e2ae:	ec41 0b10 	vmov	d0, r0, r1
 800e2b2:	f000 fa01 	bl	800e6b8 <fabs>
 800e2b6:	f000 f85f 	bl	800e378 <atan>
 800e2ba:	ec51 0b10 	vmov	r0, r1, d0
 800e2be:	2c01      	cmp	r4, #1
 800e2c0:	d013      	beq.n	800e2ea <__ieee754_atan2+0x112>
 800e2c2:	2c02      	cmp	r4, #2
 800e2c4:	d015      	beq.n	800e2f2 <__ieee754_atan2+0x11a>
 800e2c6:	2c00      	cmp	r4, #0
 800e2c8:	d0a7      	beq.n	800e21a <__ieee754_atan2+0x42>
 800e2ca:	a319      	add	r3, pc, #100	; (adr r3, 800e330 <__ieee754_atan2+0x158>)
 800e2cc:	e9d3 2300 	ldrd	r2, r3, [r3]
 800e2d0:	f7f1 ffea 	bl	80002a8 <__aeabi_dsub>
 800e2d4:	a318      	add	r3, pc, #96	; (adr r3, 800e338 <__ieee754_atan2+0x160>)
 800e2d6:	e9d3 2300 	ldrd	r2, r3, [r3]
 800e2da:	e014      	b.n	800e306 <__ieee754_atan2+0x12e>
 800e2dc:	a118      	add	r1, pc, #96	; (adr r1, 800e340 <__ieee754_atan2+0x168>)
 800e2de:	e9d1 0100 	ldrd	r0, r1, [r1]
 800e2e2:	e7ec      	b.n	800e2be <__ieee754_atan2+0xe6>
 800e2e4:	2000      	movs	r0, #0
 800e2e6:	2100      	movs	r1, #0
 800e2e8:	e7e9      	b.n	800e2be <__ieee754_atan2+0xe6>
 800e2ea:	f101 4300 	add.w	r3, r1, #2147483648	; 0x80000000
 800e2ee:	4619      	mov	r1, r3
 800e2f0:	e793      	b.n	800e21a <__ieee754_atan2+0x42>
 800e2f2:	a30f      	add	r3, pc, #60	; (adr r3, 800e330 <__ieee754_atan2+0x158>)
 800e2f4:	e9d3 2300 	ldrd	r2, r3, [r3]
 800e2f8:	f7f1 ffd6 	bl	80002a8 <__aeabi_dsub>
 800e2fc:	4602      	mov	r2, r0
 800e2fe:	460b      	mov	r3, r1
 800e300:	a10d      	add	r1, pc, #52	; (adr r1, 800e338 <__ieee754_atan2+0x160>)
 800e302:	e9d1 0100 	ldrd	r0, r1, [r1]
 800e306:	f7f1 ffcf 	bl	80002a8 <__aeabi_dsub>
 800e30a:	e786      	b.n	800e21a <__ieee754_atan2+0x42>
 800e30c:	a10a      	add	r1, pc, #40	; (adr r1, 800e338 <__ieee754_atan2+0x160>)
 800e30e:	e9d1 0100 	ldrd	r0, r1, [r1]
 800e312:	e782      	b.n	800e21a <__ieee754_atan2+0x42>
 800e314:	a10c      	add	r1, pc, #48	; (adr r1, 800e348 <__ieee754_atan2+0x170>)
 800e316:	e9d1 0100 	ldrd	r0, r1, [r1]
 800e31a:	e77e      	b.n	800e21a <__ieee754_atan2+0x42>
 800e31c:	2000      	movs	r0, #0
 800e31e:	2100      	movs	r1, #0
 800e320:	e77b      	b.n	800e21a <__ieee754_atan2+0x42>
 800e322:	a107      	add	r1, pc, #28	; (adr r1, 800e340 <__ieee754_atan2+0x168>)
 800e324:	e9d1 0100 	ldrd	r0, r1, [r1]
 800e328:	e777      	b.n	800e21a <__ieee754_atan2+0x42>
 800e32a:	bf00      	nop
 800e32c:	f3af 8000 	nop.w
 800e330:	33145c07 	.word	0x33145c07
 800e334:	3ca1a626 	.word	0x3ca1a626
 800e338:	54442d18 	.word	0x54442d18
 800e33c:	400921fb 	.word	0x400921fb
 800e340:	54442d18 	.word	0x54442d18
 800e344:	3ff921fb 	.word	0x3ff921fb
 800e348:	54442d18 	.word	0x54442d18
 800e34c:	3fe921fb 	.word	0x3fe921fb
 800e350:	0800ffa8 	.word	0x0800ffa8
 800e354:	0800ffc0 	.word	0x0800ffc0
 800e358:	54442d18 	.word	0x54442d18
 800e35c:	c00921fb 	.word	0xc00921fb
 800e360:	54442d18 	.word	0x54442d18
 800e364:	bff921fb 	.word	0xbff921fb
 800e368:	7ff00000 	.word	0x7ff00000

0800e36c <__ieee754_sqrtf>:
 800e36c:	eeb1 0ac0 	vsqrt.f32	s0, s0
 800e370:	4770      	bx	lr
 800e372:	0000      	movs	r0, r0
 800e374:	0000      	movs	r0, r0
	...

0800e378 <atan>:
 800e378:	e92d 4ff8 	stmdb	sp!, {r3, r4, r5, r6, r7, r8, r9, sl, fp, lr}
 800e37c:	ec55 4b10 	vmov	r4, r5, d0
 800e380:	4bc3      	ldr	r3, [pc, #780]	; (800e690 <atan+0x318>)
 800e382:	f025 4600 	bic.w	r6, r5, #2147483648	; 0x80000000
 800e386:	429e      	cmp	r6, r3
 800e388:	46ab      	mov	fp, r5
 800e38a:	dd18      	ble.n	800e3be <atan+0x46>
 800e38c:	4bc1      	ldr	r3, [pc, #772]	; (800e694 <atan+0x31c>)
 800e38e:	429e      	cmp	r6, r3
 800e390:	dc01      	bgt.n	800e396 <atan+0x1e>
 800e392:	d109      	bne.n	800e3a8 <atan+0x30>
 800e394:	b144      	cbz	r4, 800e3a8 <atan+0x30>
 800e396:	4622      	mov	r2, r4
 800e398:	462b      	mov	r3, r5
 800e39a:	4620      	mov	r0, r4
 800e39c:	4629      	mov	r1, r5
 800e39e:	f7f1 ff85 	bl	80002ac <__adddf3>
 800e3a2:	4604      	mov	r4, r0
 800e3a4:	460d      	mov	r5, r1
 800e3a6:	e006      	b.n	800e3b6 <atan+0x3e>
 800e3a8:	f1bb 0f00 	cmp.w	fp, #0
 800e3ac:	f300 8131 	bgt.w	800e612 <atan+0x29a>
 800e3b0:	a59b      	add	r5, pc, #620	; (adr r5, 800e620 <atan+0x2a8>)
 800e3b2:	e9d5 4500 	ldrd	r4, r5, [r5]
 800e3b6:	ec45 4b10 	vmov	d0, r4, r5
 800e3ba:	e8bd 8ff8 	ldmia.w	sp!, {r3, r4, r5, r6, r7, r8, r9, sl, fp, pc}
 800e3be:	4bb6      	ldr	r3, [pc, #728]	; (800e698 <atan+0x320>)
 800e3c0:	429e      	cmp	r6, r3
 800e3c2:	dc14      	bgt.n	800e3ee <atan+0x76>
 800e3c4:	f1a3 73de 	sub.w	r3, r3, #29097984	; 0x1bc0000
 800e3c8:	429e      	cmp	r6, r3
 800e3ca:	dc0d      	bgt.n	800e3e8 <atan+0x70>
 800e3cc:	a396      	add	r3, pc, #600	; (adr r3, 800e628 <atan+0x2b0>)
 800e3ce:	e9d3 2300 	ldrd	r2, r3, [r3]
 800e3d2:	ee10 0a10 	vmov	r0, s0
 800e3d6:	4629      	mov	r1, r5
 800e3d8:	f7f1 ff68 	bl	80002ac <__adddf3>
 800e3dc:	4baf      	ldr	r3, [pc, #700]	; (800e69c <atan+0x324>)
 800e3de:	2200      	movs	r2, #0
 800e3e0:	f7f2 fbaa 	bl	8000b38 <__aeabi_dcmpgt>
 800e3e4:	2800      	cmp	r0, #0
 800e3e6:	d1e6      	bne.n	800e3b6 <atan+0x3e>
 800e3e8:	f04f 3aff 	mov.w	sl, #4294967295
 800e3ec:	e02b      	b.n	800e446 <atan+0xce>
 800e3ee:	f000 f963 	bl	800e6b8 <fabs>
 800e3f2:	4bab      	ldr	r3, [pc, #684]	; (800e6a0 <atan+0x328>)
 800e3f4:	429e      	cmp	r6, r3
 800e3f6:	ec55 4b10 	vmov	r4, r5, d0
 800e3fa:	f300 80bf 	bgt.w	800e57c <atan+0x204>
 800e3fe:	f5a3 2350 	sub.w	r3, r3, #851968	; 0xd0000
 800e402:	429e      	cmp	r6, r3
 800e404:	f300 80a0 	bgt.w	800e548 <atan+0x1d0>
 800e408:	ee10 2a10 	vmov	r2, s0
 800e40c:	ee10 0a10 	vmov	r0, s0
 800e410:	462b      	mov	r3, r5
 800e412:	4629      	mov	r1, r5
 800e414:	f7f1 ff4a 	bl	80002ac <__adddf3>
 800e418:	4ba0      	ldr	r3, [pc, #640]	; (800e69c <atan+0x324>)
 800e41a:	2200      	movs	r2, #0
 800e41c:	f7f1 ff44 	bl	80002a8 <__aeabi_dsub>
 800e420:	2200      	movs	r2, #0
 800e422:	4606      	mov	r6, r0
 800e424:	460f      	mov	r7, r1
 800e426:	f04f 4380 	mov.w	r3, #1073741824	; 0x40000000
 800e42a:	4620      	mov	r0, r4
 800e42c:	4629      	mov	r1, r5
 800e42e:	f7f1 ff3d 	bl	80002ac <__adddf3>
 800e432:	4602      	mov	r2, r0
 800e434:	460b      	mov	r3, r1
 800e436:	4630      	mov	r0, r6
 800e438:	4639      	mov	r1, r7
 800e43a:	f7f2 fa17 	bl	800086c <__aeabi_ddiv>
 800e43e:	f04f 0a00 	mov.w	sl, #0
 800e442:	4604      	mov	r4, r0
 800e444:	460d      	mov	r5, r1
 800e446:	4622      	mov	r2, r4
 800e448:	462b      	mov	r3, r5
 800e44a:	4620      	mov	r0, r4
 800e44c:	4629      	mov	r1, r5
 800e44e:	f7f2 f8e3 	bl	8000618 <__aeabi_dmul>
 800e452:	4602      	mov	r2, r0
 800e454:	460b      	mov	r3, r1
 800e456:	4680      	mov	r8, r0
 800e458:	4689      	mov	r9, r1
 800e45a:	f7f2 f8dd 	bl	8000618 <__aeabi_dmul>
 800e45e:	a374      	add	r3, pc, #464	; (adr r3, 800e630 <atan+0x2b8>)
 800e460:	e9d3 2300 	ldrd	r2, r3, [r3]
 800e464:	4606      	mov	r6, r0
 800e466:	460f      	mov	r7, r1
 800e468:	f7f2 f8d6 	bl	8000618 <__aeabi_dmul>
 800e46c:	a372      	add	r3, pc, #456	; (adr r3, 800e638 <atan+0x2c0>)
 800e46e:	e9d3 2300 	ldrd	r2, r3, [r3]
 800e472:	f7f1 ff1b 	bl	80002ac <__adddf3>
 800e476:	4632      	mov	r2, r6
 800e478:	463b      	mov	r3, r7
 800e47a:	f7f2 f8cd 	bl	8000618 <__aeabi_dmul>
 800e47e:	a370      	add	r3, pc, #448	; (adr r3, 800e640 <atan+0x2c8>)
 800e480:	e9d3 2300 	ldrd	r2, r3, [r3]
 800e484:	f7f1 ff12 	bl	80002ac <__adddf3>
 800e488:	4632      	mov	r2, r6
 800e48a:	463b      	mov	r3, r7
 800e48c:	f7f2 f8c4 	bl	8000618 <__aeabi_dmul>
 800e490:	a36d      	add	r3, pc, #436	; (adr r3, 800e648 <atan+0x2d0>)
 800e492:	e9d3 2300 	ldrd	r2, r3, [r3]
 800e496:	f7f1 ff09 	bl	80002ac <__adddf3>
 800e49a:	4632      	mov	r2, r6
 800e49c:	463b      	mov	r3, r7
 800e49e:	f7f2 f8bb 	bl	8000618 <__aeabi_dmul>
 800e4a2:	a36b      	add	r3, pc, #428	; (adr r3, 800e650 <atan+0x2d8>)
 800e4a4:	e9d3 2300 	ldrd	r2, r3, [r3]
 800e4a8:	f7f1 ff00 	bl	80002ac <__adddf3>
 800e4ac:	4632      	mov	r2, r6
 800e4ae:	463b      	mov	r3, r7
 800e4b0:	f7f2 f8b2 	bl	8000618 <__aeabi_dmul>
 800e4b4:	a368      	add	r3, pc, #416	; (adr r3, 800e658 <atan+0x2e0>)
 800e4b6:	e9d3 2300 	ldrd	r2, r3, [r3]
 800e4ba:	f7f1 fef7 	bl	80002ac <__adddf3>
 800e4be:	4642      	mov	r2, r8
 800e4c0:	464b      	mov	r3, r9
 800e4c2:	f7f2 f8a9 	bl	8000618 <__aeabi_dmul>
 800e4c6:	a366      	add	r3, pc, #408	; (adr r3, 800e660 <atan+0x2e8>)
 800e4c8:	e9d3 2300 	ldrd	r2, r3, [r3]
 800e4cc:	4680      	mov	r8, r0
 800e4ce:	4689      	mov	r9, r1
 800e4d0:	4630      	mov	r0, r6
 800e4d2:	4639      	mov	r1, r7
 800e4d4:	f7f2 f8a0 	bl	8000618 <__aeabi_dmul>
 800e4d8:	a363      	add	r3, pc, #396	; (adr r3, 800e668 <atan+0x2f0>)
 800e4da:	e9d3 2300 	ldrd	r2, r3, [r3]
 800e4de:	f7f1 fee3 	bl	80002a8 <__aeabi_dsub>
 800e4e2:	4632      	mov	r2, r6
 800e4e4:	463b      	mov	r3, r7
 800e4e6:	f7f2 f897 	bl	8000618 <__aeabi_dmul>
 800e4ea:	a361      	add	r3, pc, #388	; (adr r3, 800e670 <atan+0x2f8>)
 800e4ec:	e9d3 2300 	ldrd	r2, r3, [r3]
 800e4f0:	f7f1 feda 	bl	80002a8 <__aeabi_dsub>
 800e4f4:	4632      	mov	r2, r6
 800e4f6:	463b      	mov	r3, r7
 800e4f8:	f7f2 f88e 	bl	8000618 <__aeabi_dmul>
 800e4fc:	a35e      	add	r3, pc, #376	; (adr r3, 800e678 <atan+0x300>)
 800e4fe:	e9d3 2300 	ldrd	r2, r3, [r3]
 800e502:	f7f1 fed1 	bl	80002a8 <__aeabi_dsub>
 800e506:	4632      	mov	r2, r6
 800e508:	463b      	mov	r3, r7
 800e50a:	f7f2 f885 	bl	8000618 <__aeabi_dmul>
 800e50e:	a35c      	add	r3, pc, #368	; (adr r3, 800e680 <atan+0x308>)
 800e510:	e9d3 2300 	ldrd	r2, r3, [r3]
 800e514:	f7f1 fec8 	bl	80002a8 <__aeabi_dsub>
 800e518:	4632      	mov	r2, r6
 800e51a:	463b      	mov	r3, r7
 800e51c:	f7f2 f87c 	bl	8000618 <__aeabi_dmul>
 800e520:	4602      	mov	r2, r0
 800e522:	460b      	mov	r3, r1
 800e524:	4640      	mov	r0, r8
 800e526:	4649      	mov	r1, r9
 800e528:	f7f1 fec0 	bl	80002ac <__adddf3>
 800e52c:	4622      	mov	r2, r4
 800e52e:	462b      	mov	r3, r5
 800e530:	f7f2 f872 	bl	8000618 <__aeabi_dmul>
 800e534:	f1ba 3fff 	cmp.w	sl, #4294967295
 800e538:	4602      	mov	r2, r0
 800e53a:	460b      	mov	r3, r1
 800e53c:	d14b      	bne.n	800e5d6 <atan+0x25e>
 800e53e:	4620      	mov	r0, r4
 800e540:	4629      	mov	r1, r5
 800e542:	f7f1 feb1 	bl	80002a8 <__aeabi_dsub>
 800e546:	e72c      	b.n	800e3a2 <atan+0x2a>
 800e548:	ee10 0a10 	vmov	r0, s0
 800e54c:	4b53      	ldr	r3, [pc, #332]	; (800e69c <atan+0x324>)
 800e54e:	2200      	movs	r2, #0
 800e550:	4629      	mov	r1, r5
 800e552:	f7f1 fea9 	bl	80002a8 <__aeabi_dsub>
 800e556:	4b51      	ldr	r3, [pc, #324]	; (800e69c <atan+0x324>)
 800e558:	4606      	mov	r6, r0
 800e55a:	460f      	mov	r7, r1
 800e55c:	2200      	movs	r2, #0
 800e55e:	4620      	mov	r0, r4
 800e560:	4629      	mov	r1, r5
 800e562:	f7f1 fea3 	bl	80002ac <__adddf3>
 800e566:	4602      	mov	r2, r0
 800e568:	460b      	mov	r3, r1
 800e56a:	4630      	mov	r0, r6
 800e56c:	4639      	mov	r1, r7
 800e56e:	f7f2 f97d 	bl	800086c <__aeabi_ddiv>
 800e572:	f04f 0a01 	mov.w	sl, #1
 800e576:	4604      	mov	r4, r0
 800e578:	460d      	mov	r5, r1
 800e57a:	e764      	b.n	800e446 <atan+0xce>
 800e57c:	4b49      	ldr	r3, [pc, #292]	; (800e6a4 <atan+0x32c>)
 800e57e:	429e      	cmp	r6, r3
 800e580:	da1d      	bge.n	800e5be <atan+0x246>
 800e582:	ee10 0a10 	vmov	r0, s0
 800e586:	4b48      	ldr	r3, [pc, #288]	; (800e6a8 <atan+0x330>)
 800e588:	2200      	movs	r2, #0
 800e58a:	4629      	mov	r1, r5
 800e58c:	f7f1 fe8c 	bl	80002a8 <__aeabi_dsub>
 800e590:	4b45      	ldr	r3, [pc, #276]	; (800e6a8 <atan+0x330>)
 800e592:	4606      	mov	r6, r0
 800e594:	460f      	mov	r7, r1
 800e596:	2200      	movs	r2, #0
 800e598:	4620      	mov	r0, r4
 800e59a:	4629      	mov	r1, r5
 800e59c:	f7f2 f83c 	bl	8000618 <__aeabi_dmul>
 800e5a0:	4b3e      	ldr	r3, [pc, #248]	; (800e69c <atan+0x324>)
 800e5a2:	2200      	movs	r2, #0
 800e5a4:	f7f1 fe82 	bl	80002ac <__adddf3>
 800e5a8:	4602      	mov	r2, r0
 800e5aa:	460b      	mov	r3, r1
 800e5ac:	4630      	mov	r0, r6
 800e5ae:	4639      	mov	r1, r7
 800e5b0:	f7f2 f95c 	bl	800086c <__aeabi_ddiv>
 800e5b4:	f04f 0a02 	mov.w	sl, #2
 800e5b8:	4604      	mov	r4, r0
 800e5ba:	460d      	mov	r5, r1
 800e5bc:	e743      	b.n	800e446 <atan+0xce>
 800e5be:	462b      	mov	r3, r5
 800e5c0:	ee10 2a10 	vmov	r2, s0
 800e5c4:	4939      	ldr	r1, [pc, #228]	; (800e6ac <atan+0x334>)
 800e5c6:	2000      	movs	r0, #0
 800e5c8:	f7f2 f950 	bl	800086c <__aeabi_ddiv>
 800e5cc:	f04f 0a03 	mov.w	sl, #3
 800e5d0:	4604      	mov	r4, r0
 800e5d2:	460d      	mov	r5, r1
 800e5d4:	e737      	b.n	800e446 <atan+0xce>
 800e5d6:	4b36      	ldr	r3, [pc, #216]	; (800e6b0 <atan+0x338>)
 800e5d8:	4e36      	ldr	r6, [pc, #216]	; (800e6b4 <atan+0x33c>)
 800e5da:	eb06 06ca 	add.w	r6, r6, sl, lsl #3
 800e5de:	eb03 0aca 	add.w	sl, r3, sl, lsl #3
 800e5e2:	e9da 2300 	ldrd	r2, r3, [sl]
 800e5e6:	f7f1 fe5f 	bl	80002a8 <__aeabi_dsub>
 800e5ea:	4622      	mov	r2, r4
 800e5ec:	462b      	mov	r3, r5
 800e5ee:	f7f1 fe5b 	bl	80002a8 <__aeabi_dsub>
 800e5f2:	4602      	mov	r2, r0
 800e5f4:	460b      	mov	r3, r1
 800e5f6:	e9d6 0100 	ldrd	r0, r1, [r6]
 800e5fa:	f7f1 fe55 	bl	80002a8 <__aeabi_dsub>
 800e5fe:	f1bb 0f00 	cmp.w	fp, #0
 800e602:	4604      	mov	r4, r0
 800e604:	460d      	mov	r5, r1
 800e606:	f6bf aed6 	bge.w	800e3b6 <atan+0x3e>
 800e60a:	f101 4300 	add.w	r3, r1, #2147483648	; 0x80000000
 800e60e:	461d      	mov	r5, r3
 800e610:	e6d1      	b.n	800e3b6 <atan+0x3e>
 800e612:	a51d      	add	r5, pc, #116	; (adr r5, 800e688 <atan+0x310>)
 800e614:	e9d5 4500 	ldrd	r4, r5, [r5]
 800e618:	e6cd      	b.n	800e3b6 <atan+0x3e>
 800e61a:	bf00      	nop
 800e61c:	f3af 8000 	nop.w
 800e620:	54442d18 	.word	0x54442d18
 800e624:	bff921fb 	.word	0xbff921fb
 800e628:	8800759c 	.word	0x8800759c
 800e62c:	7e37e43c 	.word	0x7e37e43c
 800e630:	e322da11 	.word	0xe322da11
 800e634:	3f90ad3a 	.word	0x3f90ad3a
 800e638:	24760deb 	.word	0x24760deb
 800e63c:	3fa97b4b 	.word	0x3fa97b4b
 800e640:	a0d03d51 	.word	0xa0d03d51
 800e644:	3fb10d66 	.word	0x3fb10d66
 800e648:	c54c206e 	.word	0xc54c206e
 800e64c:	3fb745cd 	.word	0x3fb745cd
 800e650:	920083ff 	.word	0x920083ff
 800e654:	3fc24924 	.word	0x3fc24924
 800e658:	5555550d 	.word	0x5555550d
 800e65c:	3fd55555 	.word	0x3fd55555
 800e660:	2c6a6c2f 	.word	0x2c6a6c2f
 800e664:	bfa2b444 	.word	0xbfa2b444
 800e668:	52defd9a 	.word	0x52defd9a
 800e66c:	3fadde2d 	.word	0x3fadde2d
 800e670:	af749a6d 	.word	0xaf749a6d
 800e674:	3fb3b0f2 	.word	0x3fb3b0f2
 800e678:	fe231671 	.word	0xfe231671
 800e67c:	3fbc71c6 	.word	0x3fbc71c6
 800e680:	9998ebc4 	.word	0x9998ebc4
 800e684:	3fc99999 	.word	0x3fc99999
 800e688:	54442d18 	.word	0x54442d18
 800e68c:	3ff921fb 	.word	0x3ff921fb
 800e690:	440fffff 	.word	0x440fffff
 800e694:	7ff00000 	.word	0x7ff00000
 800e698:	3fdbffff 	.word	0x3fdbffff
 800e69c:	3ff00000 	.word	0x3ff00000
 800e6a0:	3ff2ffff 	.word	0x3ff2ffff
 800e6a4:	40038000 	.word	0x40038000
 800e6a8:	3ff80000 	.word	0x3ff80000
 800e6ac:	bff00000 	.word	0xbff00000
 800e6b0:	0800fff8 	.word	0x0800fff8
 800e6b4:	0800ffd8 	.word	0x0800ffd8

0800e6b8 <fabs>:
 800e6b8:	ec51 0b10 	vmov	r0, r1, d0
 800e6bc:	ee10 2a10 	vmov	r2, s0
 800e6c0:	f021 4300 	bic.w	r3, r1, #2147483648	; 0x80000000
 800e6c4:	ec43 2b10 	vmov	d0, r2, r3
 800e6c8:	4770      	bx	lr
	...

0800e6cc <_init>:
 800e6cc:	b5f8      	push	{r3, r4, r5, r6, r7, lr}
 800e6ce:	bf00      	nop
 800e6d0:	bcf8      	pop	{r3, r4, r5, r6, r7}
 800e6d2:	bc08      	pop	{r3}
 800e6d4:	469e      	mov	lr, r3
 800e6d6:	4770      	bx	lr

0800e6d8 <_fini>:
 800e6d8:	b5f8      	push	{r3, r4, r5, r6, r7, lr}
 800e6da:	bf00      	nop
 800e6dc:	bcf8      	pop	{r3, r4, r5, r6, r7}
 800e6de:	bc08      	pop	{r3}
 800e6e0:	469e      	mov	lr, r3
 800e6e2:	4770      	bx	lr
